 handmade

 Timestamp is 5ff017dc (Fri Jan  1 23:51:08 2021)

 Preferred load address is 0000000180000000

 Start         Length     Name                   Class
 0001:00000000 0003a6d0H .text$mn                CODE
 0001:0003a6d0 00000040H .text$mn$00             CODE
 0001:0003a710 000006edH .text$x                 CODE
 0002:00000000 00000248H .idata$5                DATA
 0002:00000248 00000028H .00cfg                  DATA
 0002:00000270 00000008H .CRT$XCA                DATA
 0002:00000278 00000008H .CRT$XCZ                DATA
 0002:00000280 00000008H .CRT$XIA                DATA
 0002:00000288 00000018H .CRT$XIC                DATA
 0002:000002a0 00000008H .CRT$XIZ                DATA
 0002:000002a8 00000008H .CRT$XPA                DATA
 0002:000002b0 00000010H .CRT$XPX                DATA
 0002:000002c0 00000008H .CRT$XPXA               DATA
 0002:000002c8 00000008H .CRT$XPZ                DATA
 0002:000002d0 00000008H .CRT$XTA                DATA
 0002:000002d8 00000008H .CRT$XTZ                DATA
 0002:000002e0 00000000H .gehcont$y              DATA
 0002:000002e0 00000000H .gfids$y                DATA
 0002:000002e0 00010a20H .rdata                  DATA
 0002:00010d00 00000000H .rdata$CastGuardVftablesA DATA
 0002:00010d00 00000000H .rdata$CastGuardVftablesC DATA
 0002:00010d00 0000016cH .rdata$r                DATA
 0002:00010e6c 000002f4H .rdata$zzzdbg           DATA
 0002:00011160 00000008H .rtc$IAA                DATA
 0002:00011168 00000008H .rtc$IZZ                DATA
 0002:00011170 00000008H .rtc$TAA                DATA
 0002:00011178 00000008H .rtc$TZZ                DATA
 0002:00011180 000011b8H .xdata                  DATA
 0002:00012338 00000088H .xdata$x                DATA
 0002:000123c0 00000074H .edata                  DATA
 0002:00012434 00000014H .idata$2                DATA
 0002:00012448 00000018H .idata$3                DATA
 0002:00012460 00000248H .idata$4                DATA
 0002:000126a8 0000055aH .idata$6                DATA
 0003:00000000 00005a30H .data                   DATA
 0003:00005a30 00000070H .data$r                 DATA
 0003:00005aa0 00001878H .bss                    DATA
 0004:00000000 00002f64H .pdata                  DATA
 0005:00000000 00000094H _RDATA                  DATA

  Address         Publics by Value              Rva+Base               Lib:Object

 0000:00000000       __x64_code_ranges_to_entry_points_count 0000000000000000     <absolute>
 0000:00000000       __arm64x_redirection_metadata 0000000000000000     <absolute>
 0000:00000000       __guard_iat_table          0000000000000000     <absolute>
 0000:00000000       __guard_iat_count          0000000000000000     <absolute>
 0000:00000000       __guard_longjmp_count      0000000000000000     <absolute>
 0000:00000000       __guard_longjmp_table      0000000000000000     <absolute>
 0000:00000000       __x64_code_ranges_to_entry_points 0000000000000000     <absolute>
 0000:00000000       __dynamic_value_reloc_table 0000000000000000     <absolute>
 0000:00000000       __hybrid_auxiliary_iat     0000000000000000     <absolute>
 0000:00000000       __guard_fids_count         0000000000000000     <absolute>
 0000:00000000       ___safe_se_handler_table   0000000000000000     <absolute>
 0000:00000000       __arm64x_extra_rfe_table   0000000000000000     <absolute>
 0000:00000000       __AbsoluteZero             0000000000000000     <absolute>
 0000:00000000       __hybrid_code_map          0000000000000000     <absolute>
 0000:00000000       __volatile_metadata        0000000000000000     <absolute>
 0000:00000000       __arm64x_extra_rfe_table_size 0000000000000000     <absolute>
 0000:00000000       ___safe_se_handler_count   0000000000000000     <absolute>
 0000:00000000       __guard_fids_table         0000000000000000     <absolute>
 0000:00000000       __guard_eh_cont_count      0000000000000000     <absolute>
 0000:00000000       __arm64x_redirection_metadata_count 0000000000000000     <absolute>
 0000:00000000       __enclave_config           0000000000000000     <absolute>
 0000:00000000       __guard_eh_cont_table      0000000000000000     <absolute>
 0000:00000000       __arm64x_native_entrypoint 0000000000000000     <absolute>
 0000:00000000       __hybrid_code_map_count    0000000000000000     <absolute>
 0000:00000100       __guard_flags              0000000000000100     <absolute>
 0000:00000000       __ImageBase                0000000180000000     <linker-defined>
 0001:00000040       ?PushSize_@@YAPEAXPEAUmemory_arena@@_K@Z 0000000180001040 f   handmade.obj
 0001:000017f0       GameUpdateAndRender        00000001800027f0 f   handmade.obj
 0001:00002db0       GameGetSoundSamples        0000000180003db0 f   handmade.obj
 0001:00002df0       ??D@YA?AUv2@@MU0@@Z        0000000180003df0 f i handmade.obj
 0001:00002e30       ??D@YA?AUv2@@U0@M@Z        0000000180003e30 f i handmade.obj
 0001:00002e70       ??G@YA?AUv2@@U0@0@Z        0000000180003e70 f i handmade.obj
 0001:00002eb0       ??H@YA?AUv2@@U0@0@Z        0000000180003eb0 f i handmade.obj
 0001:00002ef0       ??Xv2@@QEAAAEAU0@M@Z       0000000180003ef0 f i handmade.obj
 0001:00002f30       ??Yv2@@QEAAAEAU0@U0@@Z     0000000180003f30 f i handmade.obj
 0001:00002f70       ?AbsoluteValue@@YAMM@Z     0000000180003f70 f i handmade.obj
 0001:00002fa0       ?FindLeastSignificantSetBit@@YA?AUbit_scan_result@@I@Z 0000000180003fa0 f i handmade.obj
 0001:00002fe0       ?GetChunkPositionFor@@YA?AUtile_chunk_position@@PEAUtile_map@@III@Z 0000000180003fe0 f i handmade.obj
 0001:00003090       ?GetController@@YAPEAUgame_controller_input@@PEAUgame_input@@H@Z 0000000180004090 f i handmade.obj
 0001:000030e0       ?GetTileChunk@@YAPEAUtile_chunk@@PEAUtile_map@@III@Z 00000001800040e0 f i handmade.obj
 0001:00003170       ?GetTileValue@@YAIPEAUtile_map@@PEAUtile_chunk@@II@Z 0000000180004170 f i handmade.obj
 0001:000031d0       ?GetTileValueUnchecked@@YAIPEAUtile_map@@PEAUtile_chunk@@II@Z 00000001800041d0 f i handmade.obj
 0001:00003260       ?Inner@@YAMUv2@@0@Z        0000000180004260 f i handmade.obj
 0001:000032a0       ?LengthSq@@YAMUv2@@@Z      00000001800042a0 f i handmade.obj
 0001:000032d0       ?RecanonicalizeCoord@@YAXPEAUtile_map@@PEAIPEAM@Z 00000001800042d0 f i handmade.obj
 0001:00003390       ?RecanonicalizePosition@@YA?AUtile_map_position@@PEAUtile_map@@U1@@Z 0000000180004390 f i handmade.obj
 0001:00003420       ?RoundReal32ToInt32@@YAHM@Z 0000000180004420 f i handmade.obj
 0001:00003450       ?RoundReal32ToUInt32@@YAIM@Z 0000000180004450 f i handmade.obj
 0001:00003480       ?SetTileValue@@YAXPEAUtile_map@@PEAUtile_chunk@@III@Z 0000000180004480 f i handmade.obj
 0001:000034e0       ?SetTileValueUnchecked@@YAXPEAUtile_map@@PEAUtile_chunk@@III@Z 00000001800044e0 f i handmade.obj
 0001:00003560       ?Square@@YAMM@Z            0000000180004560 f i handmade.obj
 0001:00003590       ?SquareRoot@@YAMM@Z        0000000180004590 f i handmade.obj
 0001:000035c0       ?Subtract@@YA?AUtile_map_difference@@PEAUtile_map@@PEAUtile_map_position@@1@Z 00000001800045c0 f i handmade.obj
 0001:00003710       __GSHandlerCheck           0000000180004710 f   LIBCMTD:gshandler.obj
 0001:00003750       __GSHandlerCheckCommon     0000000180004750 f   LIBCMTD:gshandler.obj
 0001:00003860       __security_check_cookie    0000000180004860 f   LIBCMTD:amdsecgs.obj
 0001:00003ca0       _DllMainCRTStartup         0000000180004ca0 f   LIBCMTD:dll_dllmain.obj
 0001:00003ce0       __raise_securityfailure    0000000180004ce0 f   LIBCMTD:gs_report.obj
 0001:00003d20       __report_gsfailure         0000000180004d20 f   LIBCMTD:gs_report.obj
 0001:00003e00       __report_rangecheckfailure 0000000180004e00 f   LIBCMTD:gs_report.obj
 0001:00003e20       __report_securityfailure   0000000180004e20 f   LIBCMTD:gs_report.obj
 0001:000040e0       __security_init_cookie     00000001800050e0 f   LIBCMTD:gs_support.obj
 0001:00004160       DllMain                    0000000180005160 f   LIBCMTD:dll_dllmain_stub.obj
 0001:00004180       ?__scrt_initialize_type_info@@YAXXZ 0000000180005180 f   LIBCMTD:tncleanup.obj
 0001:000041a0       ?__scrt_uninitialize_type_info@@YAXXZ 00000001800051a0 f   LIBCMTD:tncleanup.obj
 0001:000041c0       __local_stdio_printf_options 00000001800051c0 f i LIBCMTD:default_local_stdio_options.obj
 0001:000041d0       __local_stdio_scanf_options 00000001800051d0 f i LIBCMTD:default_local_stdio_options.obj
 0001:000041e0       __scrt_initialize_default_local_stdio_options 00000001800051e0 f   LIBCMTD:default_local_stdio_options.obj
 0001:00004230       ?configure_argv@__scrt_narrow_argv_policy@@SAHXZ 0000000180005230 f i LIBCMTD:utility.obj
 0001:00004320       ?initialize_environment@__scrt_narrow_environment_policy@@SAHXZ 0000000180005320 f i LIBCMTD:utility.obj
 0001:000043c0       NtCurrentTeb               00000001800053c0 f i LIBCMTD:utility.obj
 0001:000043d0       __scrt_acquire_startup_lock 00000001800053d0 f   LIBCMTD:utility.obj
 0001:00004440       __scrt_dllmain_after_initialize_c 0000000180005440 f   LIBCMTD:utility.obj
 0001:00004470       __scrt_dllmain_before_initialize_c 0000000180005470 f   LIBCMTD:utility.obj
 0001:00004490       __scrt_dllmain_crt_thread_attach 0000000180005490 f   LIBCMTD:utility.obj
 0001:000044c0       __scrt_dllmain_crt_thread_detach 00000001800054c0 f   LIBCMTD:utility.obj
 0001:000044e0       __scrt_dllmain_exception_filter 00000001800054e0 f   LIBCMTD:utility.obj
 0001:00004550       __scrt_dllmain_uninitialize_c 0000000180005550 f   LIBCMTD:utility.obj
 0001:00004580       __scrt_dllmain_uninitialize_critical 0000000180005580 f   LIBCMTD:utility.obj
 0001:000045a0       __scrt_initialize_crt      00000001800055a0 f   LIBCMTD:utility.obj
 0001:000045f0       __scrt_initialize_onexit_tables 00000001800055f0 f   LIBCMTD:utility.obj
 0001:00004700       __scrt_is_nonwritable_in_current_image 0000000180005700 f   LIBCMTD:utility.obj
 0001:00004790       __scrt_release_startup_lock 0000000180005790 f   LIBCMTD:utility.obj
 0001:000047c0       __scrt_uninitialize_crt    00000001800057c0 f   LIBCMTD:utility.obj
 0001:00004800       __scrt_get_dyn_tls_init_callback 0000000180005800 f   LIBCMTD:dyn_tls_init.obj
 0001:00004810       __crt_debugger_hook        0000000180005810 f   LIBCMTD:utility_desktop.obj
 0001:00004820       __scrt_fastfail            0000000180005820 f   LIBCMTD:utility_desktop.obj
 0001:000049c0       _RTC_Initialize            00000001800059c0 f   LIBCMTD:initsect.obj
 0001:00004a10       _RTC_Terminate             0000000180005a10 f   LIBCMTD:initsect.obj
 0001:00004a60       _guard_check_icall_nop     0000000180005a60 f i LIBCMTD:guard_support.obj
 0001:00004a60       ??1scoped_global_state_reset@__crt_state_management@@QEAA@XZ 0000000180005a60 f i libucrtd:onexit.obj
 0001:00004a60       ??1?$__crt_simd_cleanup_guard@$0A@@@QEAA@XZ 0000000180005a60 f i libucrtd:strnlen.obj
 0001:00004a70       ReadNoFence64              0000000180005a70 f i LIBCMTD:guard_support.obj
 0001:00004a70       ?__crt_interlocked_read_64@@YA_JPED_J@Z 0000000180005a70 f i libvcruntimed:std_type_info.obj
 0001:00004a90       ??$__crt_interlocked_read_pointer@UHINSTANCE__@@@@YAPEAUHINSTANCE__@@PEDSEAU0@@Z 0000000180005a90 f i libvcruntimed:winapi_downlevel.obj
 0001:00004a90       ReadPointerNoFence         0000000180005a90 f i LIBCMTD:guard_support.obj
 0001:00004a90       ??$__crt_interlocked_read_pointer@X@@YAPEAXPEDSEAX@Z 0000000180005a90 f i libvcruntimed:winapi_downlevel.obj
 0001:00004ab0       _guard_icall_checks_enforced 0000000180005ab0 f i LIBCMTD:guard_support.obj
 0001:00004af0       __isa_available_init       0000000180005af0 f   LIBCMTD:cpu_disp.obj
 0001:00004e90       _get_startup_argv_mode     0000000180005e90 f   LIBCMTD:argv_mode.obj
 0001:00004ea0       __scrt_is_ucrt_dll_in_use  0000000180005ea0 f   LIBCMTD:ucrt_detection.obj
 0001:00004ed0       IsProcessorFeaturePresent  0000000180005ed0 f   kernel32:KERNEL32.dll
 0001:00004ee0       __C_specific_handler       0000000180005ee0 f   libvcruntimed:riscchandler.obj
 0001:00005350       ??$?RD@__crt_internal_free_policy@@QEBAXQEBD@Z 0000000180006350 f i libvcruntimed:std_type_info.obj
 0001:00005350       ??$?RU__crt_multibyte_data@@@__crt_internal_free_policy@@QEBAXQEBU__crt_multibyte_data@@@Z 0000000180006350 f i libucrtd:mbctype.obj
 0001:00005350       ??$?RPEAU__crt_stdio_stream_data@@@__crt_internal_free_policy@@QEBAXQEBQEAU__crt_stdio_stream_data@@@Z 0000000180006350 f i libucrtd:_file.obj
 0001:00005350       ??$?RE@__crt_internal_free_policy@@QEBAXQEBE@Z 0000000180006350 f i libucrtd:argv_parsing.obj
 0001:00005350       ??$?RU__acrt_ptd@@@__crt_internal_free_policy@@QEBAXQEBU__acrt_ptd@@@Z 0000000180006350 f i libucrtd:per_thread_data.obj
 0001:00005350       ??$?RPEAD@__crt_internal_free_policy@@QEBAXQEBQEAD@Z 0000000180006350 f i libucrtd:argv_parsing.obj
 0001:00005350       ??$?RU__vcrt_ptd@@@__crt_internal_free_policy@@QEBAXQEBU__vcrt_ptd@@@Z 0000000180006350 f i libvcruntimed:per_thread_data.obj
 0001:00005350       ??$?RU__crt_lowio_handle_data@@@__crt_internal_free_policy@@QEBAXQEBU__crt_lowio_handle_data@@@Z 0000000180006350 f i libucrtd:osfinfo.obj
 0001:00005380       ??0?$__crt_unique_handle_t@U__crt_hmodule_traits@@@@QEAA@QEAUHINSTANCE__@@@Z 0000000180006380 f i libucrtd:exit.obj
 0001:00005380       ??0?$__crt_unique_heap_ptr@U__acrt_ptd@@U__crt_internal_free_policy@@@@QEAA@QEAU__acrt_ptd@@@Z 0000000180006380 f i libucrtd:per_thread_data.obj
 0001:00005380       ??0?$__crt_unique_heap_ptr@PEAU__crt_stdio_stream_data@@U__crt_internal_free_policy@@@@QEAA@QEAPEAU__crt_stdio_stream_data@@@Z 0000000180006380 f i libucrtd:_file.obj
 0001:00005380       ??0?$__crt_unique_heap_ptr@U__vcrt_ptd@@U__crt_internal_free_policy@@@@QEAA@QEAU__vcrt_ptd@@@Z 0000000180006380 f i libvcruntimed:per_thread_data.obj
 0001:00005380       ??0?$__crt_unique_heap_ptr@U__crt_lowio_handle_data@@U__crt_internal_free_policy@@@@QEAA@QEAU__crt_lowio_handle_data@@@Z 0000000180006380 f i libucrtd:osfinfo.obj
 0001:00005380       ??0?$__crt_unique_heap_ptr@PEADU__crt_internal_free_policy@@@@QEAA@QEAPEAD@Z 0000000180006380 f i libucrtd:argv_parsing.obj
 0001:00005380       ??0?$__crt_unique_heap_ptr@DU__crt_internal_free_policy@@@@QEAA@QEAD@Z 0000000180006380 f i libvcruntimed:std_type_info.obj
 0001:00005380       ??0?$string_output_adapter@D@__crt_stdio_output@@QEAA@QEAU?$string_output_adapter_context@D@1@@Z 0000000180006380 f i libucrtd:output.obj
 0001:00005380       ??0?$__crt_scoped_stack_ptr_tag@_W@@QEAA@QEA_W@Z 0000000180006380 f i libucrtd:getstringtypea.obj
 0001:00005380       ??0?$__crt_unique_heap_ptr@DU__crt_public_free_policy@@@@QEAA@QEAD@Z 0000000180006380 f i libvcruntimed:std_exception.obj
 0001:00005380       ??0?$__crt_scoped_stack_ptr@_W@@QEAA@U?$__crt_scoped_stack_ptr_tag@_W@@@Z 0000000180006380 f i libucrtd:getstringtypea.obj
 0001:00005380       ??0__crt_stdio_stream@@QEAA@QEAU__crt_stdio_stream_data@@@Z 0000000180006380 f i libucrtd:fflush.obj
 0001:00005380       ??0?$__crt_unique_heap_ptr@EU__crt_internal_free_policy@@@@QEAA@QEAE@Z 0000000180006380 f i libucrtd:argv_parsing.obj
 0001:00005380       ??0?$__crt_unique_heap_ptr@U__crt_multibyte_data@@U__crt_internal_free_policy@@@@QEAA@QEAU__crt_multibyte_data@@@Z 0000000180006380 f i libucrtd:mbctype.obj
 0001:00005380       ??0?$__crt_unique_handle_t@U__crt_findfile_traits@@@@QEAA@QEAX@Z 0000000180006380 f i libucrtd:argv_wildcards.obj
 0001:00005380       ??0?$string_output_adapter@_W@__crt_stdio_output@@QEAA@QEAU?$string_output_adapter_context@_W@1@@Z 0000000180006380 f i libucrtd:output.obj
 0001:00005380       ??0__crt_stdio_stream@@QEAA@QEAU_iobuf@@@Z 0000000180006380 f i libucrtd:output.obj
 0001:000053a0       ??1?$__crt_unique_heap_ptr@U__acrt_ptd@@U__crt_internal_free_policy@@@@QEAA@XZ 00000001800063a0 f i libucrtd:per_thread_data.obj
 0001:000053a0       ??1?$__crt_unique_heap_ptr@EU__crt_internal_free_policy@@@@QEAA@XZ 00000001800063a0 f i libucrtd:argv_parsing.obj
 0001:000053a0       ??1?$__crt_unique_heap_ptr@U__vcrt_ptd@@U__crt_internal_free_policy@@@@QEAA@XZ 00000001800063a0 f i libvcruntimed:per_thread_data.obj
 0001:000053a0       ??1?$__crt_unique_heap_ptr@DU__crt_internal_free_policy@@@@QEAA@XZ 00000001800063a0 f i libvcruntimed:std_type_info.obj
 0001:000053a0       ??1?$__crt_unique_heap_ptr@PEAU__crt_stdio_stream_data@@U__crt_internal_free_policy@@@@QEAA@XZ 00000001800063a0 f i libucrtd:_file.obj
 0001:000053a0       ??1?$__crt_unique_heap_ptr@U__crt_lowio_handle_data@@U__crt_internal_free_policy@@@@QEAA@XZ 00000001800063a0 f i libucrtd:osfinfo.obj
 0001:000053a0       ??1?$__crt_unique_heap_ptr@PEADU__crt_internal_free_policy@@@@QEAA@XZ 00000001800063a0 f i libucrtd:argv_parsing.obj
 0001:000053a0       ??1?$__crt_unique_heap_ptr@U__crt_multibyte_data@@U__crt_internal_free_policy@@@@QEAA@XZ 00000001800063a0 f i libucrtd:mbctype.obj
 0001:000053c0       ??B?$__crt_unique_heap_ptr@EU__crt_internal_free_policy@@@@QEBA_NXZ 00000001800063c0 f i libucrtd:argv_parsing.obj
 0001:000053c0       ??B?$__crt_unique_heap_ptr@U__crt_multibyte_data@@U__crt_internal_free_policy@@@@QEBA_NXZ 00000001800063c0 f i libucrtd:mbctype.obj
 0001:000053c0       ??B?$__crt_unique_heap_ptr@DU__crt_internal_free_policy@@@@QEBA_NXZ 00000001800063c0 f i libvcruntimed:std_type_info.obj
 0001:000053c0       ??B?$__crt_unique_heap_ptr@U__acrt_ptd@@U__crt_internal_free_policy@@@@QEBA_NXZ 00000001800063c0 f i libucrtd:per_thread_data.obj
 0001:000053c0       ??B?$__crt_unique_heap_ptr@U__crt_lowio_handle_data@@U__crt_internal_free_policy@@@@QEBA_NXZ 00000001800063c0 f i libucrtd:osfinfo.obj
 0001:000053c0       ??B?$__crt_unique_heap_ptr@U__vcrt_ptd@@U__crt_internal_free_policy@@@@QEBA_NXZ 00000001800063c0 f i libvcruntimed:per_thread_data.obj
 0001:000053c0       ??B?$__crt_unique_heap_ptr@DU__crt_public_free_policy@@@@QEBA_NXZ 00000001800063c0 f i libvcruntimed:std_exception.obj
 0001:000053e0       ?get@?$__crt_unique_heap_ptr@U__vcrt_ptd@@U__crt_internal_free_policy@@@@QEBAPEAU__vcrt_ptd@@XZ 00000001800063e0 f i libvcruntimed:per_thread_data.obj
 0001:000053e0       ?get@?$__crt_unique_heap_ptr@DU__crt_internal_free_policy@@@@QEBAPEADXZ 00000001800063e0 f i libvcruntimed:std_type_info.obj
 0001:000053e0       ?get@?$__crt_unique_handle_t@U__crt_findfile_traits@@@@QEBAPEAXXZ 00000001800063e0 f i libucrtd:argv_wildcards.obj
 0001:000053e0       ?get@?$__crt_unique_heap_ptr@U__crt_lowio_handle_data@@U__crt_internal_free_policy@@@@QEBAPEAU__crt_lowio_handle_data@@XZ 00000001800063e0 f i libucrtd:osfinfo.obj
 0001:000053e0       ?get@?$__crt_unique_heap_ptr@U__acrt_ptd@@U__crt_internal_free_policy@@@@QEBAPEAU__acrt_ptd@@XZ 00000001800063e0 f i libucrtd:per_thread_data.obj
 0001:000053e0       ?get@?$__crt_unique_heap_ptr@EU__crt_internal_free_policy@@@@QEBAPEAEXZ 00000001800063e0 f i libucrtd:argv_parsing.obj
 0001:000053e0       ?public_stream@__crt_stdio_stream@@QEBAPEAU_iobuf@@XZ 00000001800063e0 f i libucrtd:output.obj
 0001:000053e0       ?save_state@?$c_string_character_source@_W@__crt_strtox@@QEBAPEB_WXZ 00000001800063e0 f i libucrtd:atox.obj
 0001:000053e0       ?get@?$__crt_scoped_stack_ptr@_W@@QEBAPEA_WXZ 00000001800063e0 f i libucrtd:getstringtypea.obj
 0001:000053e0       ?get@?$__crt_unique_handle_t@U__crt_hmodule_traits@@@@QEBAPEAUHINSTANCE__@@XZ 00000001800063e0 f i libucrtd:exit.obj
 0001:000053e0       ?get@?$__crt_unique_heap_ptr@PEADU__crt_internal_free_policy@@@@QEBAPEAPEADXZ 00000001800063e0 f i libucrtd:argv_parsing.obj
 0001:000053e0       ??C__crt_stdio_stream@@QEBAPEAU__crt_stdio_stream_data@@XZ 00000001800063e0 f i libucrtd:output.obj
 0001:000053e0       ?get@?$__crt_unique_heap_ptr@DU__crt_public_free_policy@@@@QEBAPEADXZ 00000001800063e0 f i libvcruntimed:std_exception.obj
 0001:000053e0       ?get@?$__crt_unique_heap_ptr@U__crt_multibyte_data@@U__crt_internal_free_policy@@@@QEBAPEAU__crt_multibyte_data@@XZ 00000001800063e0 f i libucrtd:mbctype.obj
 0001:000053e0       ?save_state@?$c_string_character_source@D@__crt_strtox@@QEBAPEBDXZ 00000001800063e0 f i libucrtd:atox.obj
 0001:000053f0       ?is_valid@?$__crt_unique_heap_ptr@U__crt_multibyte_data@@U__crt_internal_free_policy@@@@QEBA_NXZ 00000001800063f0 f i libucrtd:mbctype.obj
 0001:000053f0       ?is_valid@?$__crt_unique_heap_ptr@U__acrt_ptd@@U__crt_internal_free_policy@@@@QEBA_NXZ 00000001800063f0 f i libucrtd:per_thread_data.obj
 0001:000053f0       ?is_valid@?$__crt_unique_heap_ptr@U__vcrt_ptd@@U__crt_internal_free_policy@@@@QEBA_NXZ 00000001800063f0 f i libvcruntimed:per_thread_data.obj
 0001:000053f0       ?is_valid@?$__crt_unique_heap_ptr@U__crt_lowio_handle_data@@U__crt_internal_free_policy@@@@QEBA_NXZ 00000001800063f0 f i libucrtd:osfinfo.obj
 0001:000053f0       ?is_valid@?$__crt_unique_heap_ptr@DU__crt_public_free_policy@@@@QEBA_NXZ 00000001800063f0 f i libvcruntimed:std_exception.obj
 0001:000053f0       ?is_valid@?$__crt_unique_heap_ptr@EU__crt_internal_free_policy@@@@QEBA_NXZ 00000001800063f0 f i libucrtd:argv_parsing.obj
 0001:000053f0       ??B?$__crt_scoped_stack_ptr@_W@@QEBA_NXZ 00000001800063f0 f i libucrtd:lcmapstringa.obj
 0001:000053f0       ?is_valid@?$__crt_unique_heap_ptr@DU__crt_internal_free_policy@@@@QEBA_NXZ 00000001800063f0 f i libvcruntimed:std_type_info.obj
 0001:000053f0       ?valid@__crt_stdio_stream@@QEBA_NXZ 00000001800063f0 f i libucrtd:output.obj
 0001:00005420       ?release@?$__crt_unique_heap_ptr@U__vcrt_ptd@@U__crt_internal_free_policy@@@@QEAAXXZ 0000000180006420 f i libvcruntimed:per_thread_data.obj
 0001:00005420       ?release@?$__crt_unique_heap_ptr@EU__crt_internal_free_policy@@@@QEAAXXZ 0000000180006420 f i libucrtd:argv_parsing.obj
 0001:00005420       ?release@?$__crt_unique_heap_ptr@DU__crt_internal_free_policy@@@@QEAAXXZ 0000000180006420 f i libvcruntimed:std_type_info.obj
 0001:00005420       ?release@?$__crt_unique_heap_ptr@U__crt_lowio_handle_data@@U__crt_internal_free_policy@@@@QEAAXXZ 0000000180006420 f i libucrtd:osfinfo.obj
 0001:00005420       ?release@?$__crt_unique_heap_ptr@PEAU__crt_stdio_stream_data@@U__crt_internal_free_policy@@@@QEAAXXZ 0000000180006420 f i libucrtd:_file.obj
 0001:00005420       ?release@?$__crt_unique_heap_ptr@PEADU__crt_internal_free_policy@@@@QEAAXXZ 0000000180006420 f i libucrtd:argv_parsing.obj
 0001:00005420       ?release@?$__crt_unique_heap_ptr@U__crt_multibyte_data@@U__crt_internal_free_policy@@@@QEAAXXZ 0000000180006420 f i libucrtd:mbctype.obj
 0001:00005420       ?release@?$__crt_unique_heap_ptr@U__acrt_ptd@@U__crt_internal_free_policy@@@@QEAAXXZ 0000000180006420 f i libucrtd:per_thread_data.obj
 0001:00005450       __std_type_info_compare    0000000180006450 f   libvcruntimed:std_type_info.obj
 0001:00005490       __std_type_info_destroy_list 0000000180006490 f   libvcruntimed:std_type_info.obj
 0001:000054f0       __vcrt_initialize          00000001800064f0 f   libvcruntimed:initialization.obj
 0001:00005530       __vcrt_thread_attach       0000000180006530 f   libvcruntimed:initialization.obj
 0001:00005550       __vcrt_thread_detach       0000000180006550 f   libvcruntimed:initialization.obj
 0001:00005570       __vcrt_uninitialize        0000000180006570 f   libvcruntimed:initialization.obj
 0001:00005590       __vcrt_uninitialize_critical 0000000180006590 f   libvcruntimed:initialization.obj
 0001:000055b0       __DestructExceptionObject  00000001800065b0 f   libvcruntimed:ehhelpers.obj
 0001:000056b0       ?_CallMemberFunction0@@YAXQEAX0@Z 00000001800066b0 f i libvcruntimed:ehhelpers.obj
 0001:00005780       _IsExceptionObjectToBeDestroyed 0000000180006780 f   libvcruntimed:ehhelpers.obj
 0001:000057d0       __AdjustPointer            00000001800067d0 f   libvcruntimed:ehhelpers.obj
 0001:00005850       __FrameUnwindFilter        0000000180006850 f   libvcruntimed:ehhelpers.obj
 0001:00005910       _NLG_Notify                0000000180006910 f   libvcruntimed:notify.obj
 0001:00005930       __NLG_Dispatch2            0000000180006930 f   libvcruntimed:notify.obj
 0001:00005940       __NLG_Return2              0000000180006940 f   libvcruntimed:notify.obj
 0001:00005950       __except_validate_context_record 0000000180006950 f   libvcruntimed:jbcxrval.obj
 0001:000059b0       _vsprintf_s_l              00000001800069b0 f i libvcruntimed:undname.obj
 0001:00005a20       sprintf_s                  0000000180006a20 f i libvcruntimed:undname.obj
 0001:00005ac0       ?detach@?$__crt_unique_heap_ptr@U__acrt_ptd@@U__crt_internal_free_policy@@@@QEAAPEAU__acrt_ptd@@XZ 0000000180006ac0 f i libucrtd:per_thread_data.obj
 0001:00005ac0       ?detach@?$__crt_unique_heap_ptr@U__vcrt_ptd@@U__crt_internal_free_policy@@@@QEAAPEAU__vcrt_ptd@@XZ 0000000180006ac0 f i libvcruntimed:per_thread_data.obj
 0001:00005ac0       ?detach@?$__crt_unique_heap_ptr@PEAU__crt_stdio_stream_data@@U__crt_internal_free_policy@@@@QEAAPEAPEAU__crt_stdio_stream_data@@XZ 0000000180006ac0 f i libucrtd:_file.obj
 0001:00005ac0       ?detach@?$__crt_unique_heap_ptr@EU__crt_internal_free_policy@@@@QEAAPEAEXZ 0000000180006ac0 f i libucrtd:argv_parsing.obj
 0001:00005ac0       ?detach@?$__crt_unique_heap_ptr@DU__crt_public_free_policy@@@@QEAAPEADXZ 0000000180006ac0 f i libvcruntimed:std_exception.obj
 0001:00005ac0       ?detach@?$__crt_unique_heap_ptr@U__crt_multibyte_data@@U__crt_internal_free_policy@@@@QEAAPEAU__crt_multibyte_data@@XZ 0000000180006ac0 f i libucrtd:mbctype.obj
 0001:00005ac0       ?detach@?$__crt_unique_heap_ptr@PEADU__crt_internal_free_policy@@@@QEAAPEAPEADXZ 0000000180006ac0 f i libucrtd:argv_parsing.obj
 0001:00005ac0       ?detach@?$__crt_unique_heap_ptr@U__crt_lowio_handle_data@@U__crt_internal_free_policy@@@@QEAAPEAU__crt_lowio_handle_data@@XZ 0000000180006ac0 f i libucrtd:osfinfo.obj
 0001:00005b30       __vcrt_freefls             0000000180006b30 f   libvcruntimed:per_thread_data.obj
 0001:00005b70       __vcrt_freeptd             0000000180006b70 f   libvcruntimed:per_thread_data.obj
 0001:00005bd0       __vcrt_getptd              0000000180006bd0 f   libvcruntimed:per_thread_data.obj
 0001:00005c00       __vcrt_getptd_noexit       0000000180006c00 f   libvcruntimed:per_thread_data.obj
 0001:00005da0       __vcrt_initialize_ptd      0000000180006da0 f   libvcruntimed:per_thread_data.obj
 0001:00005df0       __vcrt_uninitialize_ptd    0000000180006df0 f   libvcruntimed:per_thread_data.obj
 0001:00005e20       __vcrt_initialize_locks    0000000180006e20 f   libvcruntimed:locks.obj
 0001:00005e90       __vcrt_uninitialize_locks  0000000180006e90 f   libvcruntimed:locks.obj
 0001:00005f00       memcpy_repmovs             0000000180006f00 f   libvcruntimed:memcpy.obj
 0001:00005f20       memmove                    0000000180006f20 f   libvcruntimed:memcpy.obj
 0001:00005f20       memcpy                     0000000180006f20 f   libvcruntimed:memcpy.obj
 0001:00006300       ??$?0AEAViterator@TryBlockMap@__FrameHandler3@@AEAV012@$0A@@?$pair@Viterator@TryBlockMap@__FrameHandler3@@V123@@std@@QEAA@AEAViterator@TryBlockMap@__FrameHandler3@@0@Z 0000000180007300 f i libvcruntimed:risctrnsctrl.obj
 0001:00006410       ??$_CallSETranslator@V__FrameHandler3@@@@YAHPEAUEHExceptionRecord@@PEA_KPEAU_CONTEXT@@PEAU_xDISPATCHER_CONTEXT@@PEBU_s_FuncInfo@@K1H@Z 0000000180007410 f i libvcruntimed:risctrnsctrl.obj
 0001:000064a0       ?dangerous_get_state_array@?$dual_state_global@PEAE@__crt_state_management@@QEAAPEAPEAEXZ 00000001800074a0 f i libucrtd:mbctype.obj
 0001:000064a0       ?debug_info@?$__crt_win32_buffer@DU__crt_win32_buffer_internal_dynamic_resizing@@@@QEBAAEBV__crt_win32_buffer_empty_debug_info@@XZ 00000001800074a0 f i libucrtd:argv_wildcards.obj
 0001:000064a0       ?dangerous_get_state_array@?$dual_state_global@PEAU__crt_multibyte_data@@@__crt_state_management@@QEAAPEAPEAU__crt_multibyte_data@@XZ 00000001800074a0 f i libucrtd:mbctype.obj
 0001:000064a0       ?dangerous_get_state_array@?$dual_state_global@PEAU__crt_locale_data@@@__crt_state_management@@QEAAPEAPEAU__crt_locale_data@@XZ 00000001800074a0 f i libucrtd:per_thread_data.obj
 0001:000064a0       ?get_address_of@?$__crt_unique_heap_ptr@PEADU__crt_internal_free_policy@@@@QEAAPEAPEAPEADXZ 00000001800074a0 f i libucrtd:argv_parsing.obj
 0001:000064a0       ??$forward@AEAViterator@TryBlockMap@__FrameHandler3@@@std@@YAAEAViterator@TryBlockMap@__FrameHandler3@@AEAV123@@Z 00000001800074a0 f i libvcruntimed:risctrnsctrl.obj
 0001:000064a0       ?debug_info@?$__crt_win32_buffer@_WU__crt_win32_buffer_internal_dynamic_resizing@@@@QEBAAEBV__crt_win32_buffer_empty_debug_info@@XZ 00000001800074a0 f i libucrtd:argv_wildcards.obj
 0001:000064a0       ?dangerous_get_state_array@?$dual_state_global@P6AXPEB_W00I_K@Z@__crt_state_management@@QEAAPEAP6AXPEB_W00I_K@ZXZ 00000001800074a0 f i libucrtd:invalid_parameter.obj
 0001:000064a0       ?debug_info@?$__crt_win32_buffer@DU__crt_win32_buffer_no_resizing@@@@QEBAAEBV__crt_win32_buffer_empty_debug_info@@XZ 00000001800074a0 f i libucrtd:getmodulefilenamea.obj
 0001:000064a0       ?get_address_of@?$__crt_unique_handle_t@U__crt_hmodule_traits@@@@QEAAPEAPEAUHINSTANCE__@@XZ 00000001800074a0 f i libucrtd:exit.obj
 0001:000064b0       ??0iterator@HandlerMap@__FrameHandler3@@QEAA@AEAV12@I@Z 00000001800074b0 f i libvcruntimed:frame.obj
 0001:000064b0       ??0iterator@TryBlockMap@__FrameHandler3@@QEAA@AEAV12@I@Z 00000001800074b0 f i libvcruntimed:risctrnsctrl.obj
 0001:000064e0       ?CatchTryBlock@__FrameHandler3@@SAPEBU_s_TryBlockMapEntry@@PEBU_s_FuncInfo@@H@Z 00000001800074e0 f   libvcruntimed:risctrnsctrl.obj
 0001:00006570       ?ExecutionInCatch@__FrameHandler3@@SA_NPEAU_xDISPATCHER_CONTEXT@@PEBU_s_FuncInfo@@@Z 0000000180007570 f   libvcruntimed:risctrnsctrl.obj
 0001:000065c0       ?FrameUnwindToEmptyState@__FrameHandler3@@SAXPEA_KPEAU_xDISPATCHER_CONTEXT@@PEBU_s_FuncInfo@@@Z 00000001800075c0 f   libvcruntimed:risctrnsctrl.obj
 0001:00006660       ?GetEstablisherFrame@__FrameHandler3@@SAPEA_KPEA_KPEAU_xDISPATCHER_CONTEXT@@PEBU_s_FuncInfo@@0@Z 0000000180007660 f   libvcruntimed:risctrnsctrl.obj
 0001:000067d0       ?GetRangeOfTrysToCheck@__FrameHandler3@@SA?AU?$pair@Viterator@TryBlockMap@__FrameHandler3@@V123@@std@@AEAVTryBlockMap@1@HPEAU_xDISPATCHER_CONTEXT@@PEBU_s_FuncInfo@@H@Z 00000001800077d0 f   libvcruntimed:risctrnsctrl.obj
 0001:00006a10       ?UnwindNestedFrames@__FrameHandler3@@SAXPEA_KPEAUEHExceptionRecord@@PEAU_CONTEXT@@0PEAXPEBU_s_FuncInfo@@HHPEBU_s_HandlerType@@PEAU_xDISPATCHER_CONTEXT@@E@Z 0000000180007a10 f   libvcruntimed:risctrnsctrl.obj
 0001:00006b80       _CreateFrameInfo           0000000180007b80 f   libvcruntimed:risctrnsctrl.obj
 0001:00006bf0       _FindAndUnlinkFrame        0000000180007bf0 f   libvcruntimed:risctrnsctrl.obj
 0001:00006c70       _GetImageBase              0000000180007c70 f   libvcruntimed:risctrnsctrl.obj
 0001:00006c90       _GetThrowImageBase         0000000180007c90 f   libvcruntimed:risctrnsctrl.obj
 0001:00006cb0       _SetImageBase              0000000180007cb0 f   libvcruntimed:risctrnsctrl.obj
 0001:00006cd0       _SetThrowImageBase         0000000180007cd0 f   libvcruntimed:risctrnsctrl.obj
 0001:00006cf0       __CxxFrameHandler3         0000000180007cf0 f   libvcruntimed:risctrnsctrl.obj
 0001:00006dd0       ??$__crt_interlocked_exchange_pointer@UHINSTANCE__@@PEAX@@YAPEAUHINSTANCE__@@PEDSEAU0@QEAX@Z 0000000180007dd0 f i libvcruntimed:winapi_downlevel.obj
 0001:00006dd0       ??$__crt_interlocked_exchange_pointer@XPEAX@@YAPEAXPEDSEAXQEAX@Z 0000000180007dd0 f i libvcruntimed:winapi_downlevel.obj
 0001:00006dd0       ??$__crt_interlocked_exchange_pointer@UHINSTANCE__@@PEAU1@@@YAPEAUHINSTANCE__@@PEDSEAU0@QEAU0@@Z 0000000180007dd0 f i libvcruntimed:winapi_downlevel.obj
 0001:00006df0       ?get_invalid_value@__crt_findfile_traits@@SAPEAXXZ 0000000180007df0 f   libucrtd:argv_wildcards.obj
 0001:000072e0       __vcrt_FlsAlloc            00000001800082e0 f   libvcruntimed:winapi_downlevel.obj
 0001:00007330       __vcrt_FlsFree             0000000180008330 f   libvcruntimed:winapi_downlevel.obj
 0001:00007380       __vcrt_FlsGetValue         0000000180008380 f   libvcruntimed:winapi_downlevel.obj
 0001:000073d0       __vcrt_FlsSetValue         00000001800083d0 f   libvcruntimed:winapi_downlevel.obj
 0001:00007430       __vcrt_InitializeCriticalSectionEx 0000000180008430 f   libvcruntimed:winapi_downlevel.obj
 0001:000074a0       ?GetCurrentState@__FrameHandler3@@SAHPEA_KPEAU_xDISPATCHER_CONTEXT@@PEBU_s_FuncInfo@@@Z 00000001800084a0 f   libvcruntimed:ehstate.obj
 0001:00007500       ?GetUnwindTryBlock@__FrameHandler3@@SAHPEA_KPEAU_xDISPATCHER_CONTEXT@@PEBU_s_FuncInfo@@@Z 0000000180008500 f   libvcruntimed:ehstate.obj
 0001:00007550       ?SetState@__FrameHandler3@@SAXPEA_KPEBU_s_FuncInfo@@H@Z 0000000180008550 f   libvcruntimed:ehstate.obj
 0001:00007580       ?SetUnwindTryBlock@__FrameHandler3@@SAXPEA_KPEAU_xDISPATCHER_CONTEXT@@PEBU_s_FuncInfo@@H@Z 0000000180008580 f   libvcruntimed:ehstate.obj
 0001:000075f0       ?StateFromControlPc@__FrameHandler3@@SAHPEBU_s_FuncInfo@@PEAU_xDISPATCHER_CONTEXT@@@Z 00000001800085f0 f   libvcruntimed:ehstate.obj
 0001:00007630       ?StateFromIp@__FrameHandler3@@SAHPEBU_s_FuncInfo@@PEAU_xDISPATCHER_CONTEXT@@_K@Z 0000000180008630 f   libvcruntimed:ehstate.obj
 0001:00007720       ?__RVAtoRealOffset@@YA_KPEAU_xDISPATCHER_CONTEXT@@H@Z 0000000180008720 f i libvcruntimed:ehstate.obj
 0001:00008900       ??$TypeMatchHelper@V__FrameHandler3@@@@YAHPEBU_s_HandlerType@@PEBU_s_CatchableType@@PEBU_s_ThrowInfo@@@Z 0000000180009900 f i libvcruntimed:frame.obj
 0001:00008b00       ??$__InternalCxxFrameHandler@V__FrameHandler3@@@@YA?AW4_EXCEPTION_DISPOSITION@@PEAUEHExceptionRecord@@PEA_KPEAU_CONTEXT@@PEAU_xDISPATCHER_CONTEXT@@PEBU_s_FuncInfo@@H1E@Z 0000000180009b00 f i libvcruntimed:frame.obj
 0001:00008f70       ??0HandlerMap@__FrameHandler3@@QEAA@PEBU_s_TryBlockMapEntry@@_KI@Z 0000000180009f70 f i libvcruntimed:frame.obj
 0001:00008fc0       ??0TryBlockMap@__FrameHandler3@@QEAA@PEBU_s_FuncInfo@@_K@Z 0000000180009fc0 f i libvcruntimed:frame.obj
 0001:00008ff0       ??0bad_exception@std@@QEAA@AEBV01@@Z 0000000180009ff0 f i libvcruntimed:frame.obj
 0001:00009030       ??0bad_exception@std@@QEAA@XZ 000000018000a030 f i libvcruntimed:frame.obj
 0001:00009070       ??0exception@std@@QEAA@AEBV01@@Z 000000018000a070 f i libvcruntimed:frame.obj
 0001:000090d0       ??0exception@std@@QEAA@QEBDH@Z 000000018000a0d0 f i libvcruntimed:frame.obj
 0001:00009120       ??1bad_exception@std@@UEAA@XZ 000000018000a120 f i libvcruntimed:frame.obj
 0001:00009140       ??1exception@std@@UEAA@XZ  000000018000a140 f i libvcruntimed:frame.obj
 0001:00009170       ??8iterator@HandlerMap@__FrameHandler3@@QEBA_NAEBV012@@Z 000000018000a170 f i libvcruntimed:frame.obj
 0001:000091b0       ??8type_info@@QEBA_NAEBV0@@Z 000000018000a1b0 f i libvcruntimed:frame.obj
 0001:00009200       ??9iterator@HandlerMap@__FrameHandler3@@QEBA_NAEBV012@@Z 000000018000a200 f i libvcruntimed:frame.obj
 0001:00009240       ??Diterator@HandlerMap@__FrameHandler3@@QEAA?BU_s_HandlerType@@XZ 000000018000a240 f i libvcruntimed:frame.obj
 0001:00009280       ??Diterator@TryBlockMap@__FrameHandler3@@QEAA?BU_s_TryBlockMapEntry@@XZ 000000018000a280 f i libvcruntimed:frame.obj
 0001:000092d0       ??Eiterator@TryBlockMap@__FrameHandler3@@QEAAAEAV012@XZ 000000018000a2d0 f i libvcruntimed:frame.obj
 0001:000092d0       ??Eiterator@HandlerMap@__FrameHandler3@@QEAAAEAV012@XZ 000000018000a2d0 f i libvcruntimed:frame.obj
 0001:000092f0       ??Miterator@TryBlockMap@__FrameHandler3@@QEBA_NAEBV012@@Z 000000018000a2f0 f i libvcruntimed:frame.obj
 0001:00009330       ??_Ebad_exception@std@@UEAAPEAXI@Z 000000018000a330 f i libvcruntimed:frame.obj
 0001:00009330       ??_Gbad_exception@std@@UEAAPEAXI@Z 000000018000a330 f i libvcruntimed:frame.obj
 0001:00009370       ??_Gexception@std@@UEAAPEAXI@Z 000000018000a370 f i libvcruntimed:frame.obj
 0001:00009370       ??_Eexception@std@@UEAAPEAXI@Z 000000018000a370 f i libvcruntimed:frame.obj
 0001:000093b0       ?BuildCatchObject@__FrameHandler3@@SAXPEAUEHExceptionRecord@@PEAXPEBU_s_HandlerType@@PEBU_s_CatchableType@@@Z 000000018000a3b0 f   libvcruntimed:frame.obj
 0001:000093f0       ?CxxCallCatchBlock@__FrameHandler3@@SAPEAXPEAU_EXCEPTION_RECORD@@@Z 000000018000a3f0 f   libvcruntimed:frame.obj
 0001:00009750       ?FrameUnwindToState@__FrameHandler3@@SAXPEA_KPEAU_xDISPATCHER_CONTEXT@@PEBU_s_FuncInfo@@H@Z 000000018000a750 f   libvcruntimed:frame.obj
 0001:000099a0       ?GetHandlerSearchState@__FrameHandler3@@SAHPEA_KPEAU_xDISPATCHER_CONTEXT@@PEBU_s_FuncInfo@@@Z 000000018000a9a0 f i libvcruntimed:frame.obj
 0001:00009a50       ?GetMaxState@__FrameHandler3@@SAHPEAU_xDISPATCHER_CONTEXT@@PEBU_s_FuncInfo@@@Z 000000018000aa50 f i libvcruntimed:frame.obj
 0001:00009c50       __TypeMatch                000000018000ac50 f   libvcruntimed:frame.obj
 0001:00009c50       ?TypeMatch@__FrameHandler3@@SAHPEBU_s_HandlerType@@PEBU_s_CatchableType@@PEBU_s_ThrowInfo@@@Z 000000018000ac50 f   libvcruntimed:frame.obj
 0001:00009c80       ?_CallMemberFunction1@@YAXQEAX00@Z 000000018000ac80 f i libvcruntimed:frame.obj
 0001:00009cc0       ?_CallMemberFunction2@@YAXQEAX00H@Z 000000018000acc0 f i libvcruntimed:frame.obj
 0001:00009d50       ?begin@HandlerMap@__FrameHandler3@@QEAA?AViterator@12@XZ 000000018000ad50 f i libvcruntimed:frame.obj
 0001:00009d80       ?end@HandlerMap@__FrameHandler3@@QEAA?AViterator@12@XZ 000000018000ad80 f i libvcruntimed:frame.obj
 0001:00009db0       ?getESTypes@__FrameHandler3@@SAPEBU_s_ESTypeList@@PEBU_s_FuncInfo@@@Z 000000018000adb0 f i libvcruntimed:frame.obj
 0001:00009df0       ?getLastEntry@HandlerMap@__FrameHandler3@@QEAAPEBU_s_HandlerType@@XZ 000000018000adf0 f i libvcruntimed:frame.obj
 0001:00009e10       ?getMagicNum@__FrameHandler3@@SAIPEBU_s_FuncInfo@@@Z 000000018000ae10 f i libvcruntimed:frame.obj
 0001:00009e30       ?getNumTryBlocks@TryBlockMap@__FrameHandler3@@QEAAIXZ 000000018000ae30 f i libvcruntimed:frame.obj
 0001:00009e50       ?isEHs@__FrameHandler3@@SA_NPEBU_s_FuncInfo@@@Z 000000018000ae50 f i libvcruntimed:frame.obj
 0001:00009e90       ?isNoExcept@__FrameHandler3@@SA_NPEBU_s_FuncInfo@@@Z 000000018000ae90 f i libvcruntimed:frame.obj
 0001:00009ed0       ?what@exception@std@@UEBAPEBDXZ 000000018000aed0 f i libvcruntimed:frame.obj
 0001:00009f10       __vcrt_EncodePointer       000000018000af10 f i libvcruntimed:frame.obj
 0001:00009f40       memset_repmovs             000000018000af40 f   libvcruntimed:memset.obj
 0001:00009f60       memset                     000000018000af60 f   libvcruntimed:memset.obj
 0001:0000a100       _CallSettingFrame          000000018000b100 f   libvcruntimed:handlers.obj
 0001:0000a150       _CallSettingFrame_LookupContinuationIndex 000000018000b150 f   libvcruntimed:handlers.obj
 0001:0000a180       _CallSettingFrame_NotifyContinuationAddr 000000018000b180 f   libvcruntimed:handlers.obj
 0001:0000a1b0       _CallSettingFrameEncoded   000000018000b1b0 f   libvcruntimed:handlers.obj
 0001:0000a200       ??$?RD@__crt_public_free_policy@@QEBAXQEBD@Z 000000018000b200 f i libvcruntimed:std_exception.obj
 0001:0000a220       ??1?$__crt_unique_heap_ptr@DU__crt_public_free_policy@@@@QEAA@XZ 000000018000b220 f i libvcruntimed:std_exception.obj
 0001:0000a240       ?release@?$__crt_unique_heap_ptr@DU__crt_public_free_policy@@@@QEAAXXZ 000000018000b240 f i libvcruntimed:std_exception.obj
 0001:0000a270       __std_exception_copy       000000018000b270 f   libvcruntimed:std_exception.obj
 0001:0000a3b0       __std_exception_destroy    000000018000b3b0 f   libvcruntimed:std_exception.obj
 0001:0000a3f0       _CxxThrowException         000000018000b3f0 f   libvcruntimed:throw.obj
 0001:0000a520       roundf                     000000018000b520 f   libucrtd:roundf.obj
 0001:0000a5b0       sqrtf                      000000018000b5b0 f   libucrtd:sqrtf.obj
 0001:0000a6f0       _initterm                  000000018000b6f0 f   libucrtd:initterm.obj
 0001:0000a750       _initterm_e                000000018000b750 f   libucrtd:initterm.obj
 0001:0000a840       _seh_filter_dll            000000018000b840 f   libucrtd:exception_filter.obj
 0001:0000a870       _seh_filter_exe            000000018000b870 f   libucrtd:exception_filter.obj
 0001:0000ab10       ??$?B$$A6AXH@Z@__crt_fast_encoded_nullptr_t@@QEBAP6AXH@ZXZ 000000018000bb10 f i libucrtd:signal.obj
 0001:0000ab10       ??$?B$$A6AXXZ@__crt_fast_encoded_nullptr_t@@QEBAP6AXXZXZ 000000018000bb10 f i libucrtd:onexit.obj
 0001:0000ab10       ??$?BX@__crt_fast_encoded_nullptr_t@@QEBAPEAXXZ 000000018000bb10 f i libucrtd:initialization.obj
 0001:0000ab10       ??$?B$$A6AXPEAXK0@Z@__crt_fast_encoded_nullptr_t@@QEBAP6AXPEAXK0@ZXZ 000000018000bb10 f i libucrtd:exit.obj
 0001:0000ab10       ??$?BP6AXXZ@__crt_fast_encoded_nullptr_t@@QEBAPEAP6AXXZXZ 000000018000bb10 f i libucrtd:onexit.obj
 0001:0000abc0       ??$__crt_fast_decode_pointer@PEAX@@YAPEAXQEAX@Z 000000018000bbc0 f i libucrtd:winapi_thunks.obj
 0001:0000abc0       ??$__crt_fast_decode_pointer@P6AXPEAXK0@Z@@YAP6AXPEAXK0@ZQ6AX0K0@Z@Z 000000018000bbc0 f i libucrtd:exit.obj
 0001:0000abc0       ??$__crt_fast_decode_pointer@P6AXPEB_W00I_K@Z@@YAP6AXPEB_W00I_K@ZQ6AX000I1@Z@Z 000000018000bbc0 f i libucrtd:invalid_parameter.obj
 0001:0000abc0       ??$__crt_fast_decode_pointer@P6AHPEAU_exception@@@Z@@YAP6AHPEAU_exception@@@ZQ6AH0@Z@Z 000000018000bbc0 f i libucrtd:matherr.obj
 0001:0000abc0       ??$__crt_fast_decode_pointer@PEAP6AXXZ@@YAPEAP6AXXZQEAP6AXXZ@Z 000000018000bbc0 f i libucrtd:onexit.obj
 0001:0000abc0       ??$__crt_fast_decode_pointer@P6AXXZ@@YAP6AXXZQ6AXXZ@Z 000000018000bbc0 f i libucrtd:onexit.obj
 0001:0000abc0       ??$__crt_fast_decode_pointer@P6AXH@Z@@YAP6AXH@ZQ6AXH@Z@Z 000000018000bbc0 f i libucrtd:signal.obj
 0001:0000abc0       ??$__crt_fast_decode_pointer@P6AH_K@Z@@YAP6AH_K@ZQ6AH0@Z@Z 000000018000bbc0 f i libucrtd:new_handler.obj
 0001:0000ac00       ??$__crt_fast_encode_pointer@P6AXH@Z@@YAP6AXH@ZQ6AXH@Z@Z 000000018000bc00 f i libucrtd:signal.obj
 0001:0000ac00       ??$__crt_fast_encode_pointer@P6AXPEAXK0@Z@@YAP6AXPEAXK0@ZQ6AX0K0@Z@Z 000000018000bc00 f i libucrtd:exit.obj
 0001:0000ac00       ??$__crt_fast_encode_pointer@PEAX@@YAPEAXQEAX@Z 000000018000bc00 f i libucrtd:initialization.obj
 0001:0000ac00       ??$__crt_fast_encode_pointer@P6AXXZ@@YAP6AXXZQ6AXXZ@Z 000000018000bc00 f i libucrtd:onexit.obj
 0001:0000ac00       ??$__crt_fast_encode_pointer@PEAP6AXXZ@@YAPEAP6AXXZQEAP6AXXZ@Z 000000018000bc00 f i libucrtd:onexit.obj
 0001:0000ac40       ??$__crt_get_proc_address@P6AXI@Z@@YAP6AXI@ZQEAUHINSTANCE__@@QEBD@Z 000000018000bc40 f i libucrtd:exit.obj
 0001:0000ac70       ??$__crt_interlocked_read@J@@YAJPEDJ@Z 000000018000bc70 f i libucrtd:exit.obj
 0001:0000ad00       ??1?$__crt_unique_handle_t@U__crt_hmodule_traits@@@@QEAA@XZ 000000018000bd00 f i libucrtd:exit.obj
 0001:0000ae60       ?__acrt_select_exit_lock@@YA?AW4__acrt_lock_id@@XZ 000000018000be60 f i libucrtd:exit.obj
 0001:0000ae70       ?__crt_fast_encode_pointer@@YA?AU__crt_fast_encoded_nullptr_t@@$$T@Z 000000018000be70 f i libucrtd:exit.obj
 0001:0000ae90       ?__crt_interlocked_read_32@@YAHPEDH@Z 000000018000be90 f i libucrtd:exit.obj
 0001:0000aeb0       ?__crt_rotate_pointer_value@@YA_K_KH@Z 000000018000beb0 f i libucrtd:exit.obj
 0001:0000aef0       ?close@?$__crt_unique_handle_t@U__crt_hmodule_traits@@@@QEAAXXZ 000000018000bef0 f i libucrtd:exit.obj
 0001:0000af30       ?close@__crt_hmodule_traits@@SA_NPEAUHINSTANCE__@@@Z 000000018000bf30 f i libucrtd:exit.obj
 0001:0000b040       ?get_invalid_value@__crt_hmodule_traits@@SAPEAUHINSTANCE__@@XZ 000000018000c040 f i libucrtd:exit.obj
 0001:0000b040       ?get_current_state_index@__crt_state_management@@YA_KXZ 000000018000c040 f i libucrtd:environment_initialization.obj
 0001:0000b200       __acrt_initialize_thread_local_exit_callback 000000018000c200 f   libucrtd:exit.obj
 0001:0000b220       _cexit                     000000018000c220 f   libucrtd:exit.obj
 0001:0000b240       _exit                      000000018000c240 f   libucrtd:exit.obj
 0001:0000b260       _is_c_termination_complete 000000018000c260 f   libucrtd:exit.obj
 0001:0000b610       ??$get_module_file_name@$$TAEAY0BAF@DH@?$__crt_char_traits@D@@SAK$$QEA$$TAEAY0BAF@D$$QEAH@Z 000000018000c610 f i libucrtd:argv_parsing.obj
 0001:0000b610       ??$get_module_file_name@AEAPEAUHINSTANCE__@@AEAY0BAF@DK@?$__crt_char_traits@D@@SAKAEAPEAUHINSTANCE__@@AEAY0BAF@D$$QEAK@Z 000000018000c610 f i libucrtd:dbgrpt.obj
 0001:0000bae0       ??$set_program_name@PEAD@?$__crt_char_traits@D@@SAX$$QEAPEAD@Z 000000018000cae0 f i libucrtd:argv_parsing.obj
 0001:0000bc10       __acrt_allocate_buffer_for_argv 000000018000cc10 f   libucrtd:argv_parsing.obj
 0001:0000bd30       _configure_narrow_argv     000000018000cd30 f   libucrtd:argv_parsing.obj
 0001:0000bd50       _set_pgmptr                000000018000cd50 f i libucrtd:argv_parsing.obj
 0001:0000bf80       ??$tcslen@AEAPEAD@?$__crt_char_traits@D@@SA_KAEAPEAD@Z 000000018000cf80 f i libucrtd:environment_initialization.obj
 0001:0000bfcc       ??B?$__crt_unique_heap_ptr@PEADU__crt_internal_free_policy@@@@QEBA_NXZ 000000018000cfcc f i libucrtd:environment_initialization.obj
 0001:0000bfd4       ?detach@?$__crt_unique_heap_ptr@DU__crt_internal_free_policy@@@@QEAAPEADXZ 000000018000cfd4 f i libucrtd:environment_initialization.obj
 0001:0000bfdc       __dcrt_uninitialize_environments_nolock 000000018000cfdc f   libucrtd:environment_initialization.obj
 0001:0000c014       _initialize_narrow_environment 000000018000d014 f   libucrtd:environment_initialization.obj
 0001:0000c01c       _invoke_watson_if_error    000000018000d01c f i libucrtd:environment_initialization.obj
 0001:0000c320       _execute_onexit_table      000000018000d320 f   libucrtd:onexit.obj
 0001:0000c360       _initialize_onexit_table   000000018000d360 f   libucrtd:onexit.obj
 0001:0000c430       __acrt_uninitialize_command_line 000000018000d430 f   libucrtd:argv_data.obj
 0001:0000c6a0       ?initialize@?$dual_state_global@PEAU__crt_locale_data@@@__crt_state_management@@QEAAXQEAU__crt_locale_data@@@Z 000000018000d6a0 f i libucrtd:initialization.obj
 0001:0000c6a0       ?initialize@?$dual_state_global@P6AXH@Z@__crt_state_management@@QEAAXQ6AXH@Z@Z 000000018000d6a0 f i libucrtd:signal.obj
 0001:0000c6a0       ?initialize@?$dual_state_global@PEAU__crt_multibyte_data@@@__crt_state_management@@QEAAXQEAU__crt_multibyte_data@@@Z 000000018000d6a0 f i libucrtd:mbctype.obj
 0001:0000c6a0       ?initialize@?$dual_state_global@P6AHPEAU_exception@@@Z@__crt_state_management@@QEAAXQ6AHPEAU_exception@@@Z@Z 000000018000d6a0 f i libucrtd:matherr.obj
 0001:0000c6a0       ?initialize@?$dual_state_global@P6AH_K@Z@__crt_state_management@@QEAAXQ6AH_K@Z@Z 000000018000d6a0 f i libucrtd:new_handler.obj
 0001:0000c6f0       __acrt_initialize          000000018000d6f0 f   libucrtd:initialization.obj
 0001:0000c720       __acrt_thread_attach       000000018000d720 f   libucrtd:initialization.obj
 0001:0000c740       __acrt_thread_detach       000000018000d740 f   libucrtd:initialization.obj
 0001:0000c750       __acrt_uninitialize        000000018000d750 f   libucrtd:initialization.obj
 0001:0000c780       __acrt_uninitialize_critical 000000018000d780 f   libucrtd:initialization.obj
 0001:0000c7a0       terminate                  000000018000d7a0 f   libucrtd:terminate.obj
 0001:0000c7e0       ??0_LocaleUpdate@@QEAA@QEAU__crt_locale_pointers@@@Z 000000018000d7e0 f i libucrtd:debug_heap.obj
 0001:0000c900       ??1_LocaleUpdate@@QEAA@XZ  000000018000d900 f i libucrtd:debug_heap.obj
 0001:0000c930       ?GetLocaleT@_LocaleUpdate@@QEAAPEAU__crt_locale_pointers@@XZ 000000018000d930 f i libucrtd:debug_heap.obj
 0001:0000e910       _CrtCheckMemory            000000018000f910 f   libucrtd:debug_heap.obj
 0001:0000eaa0       _CrtDumpMemoryLeaks        000000018000faa0 f   libucrtd:debug_heap.obj
 0001:0000eb60       _CrtIsValidHeapPointer     000000018000fb60 f   libucrtd:debug_heap.obj
 0001:0000eba0       _CrtIsValidPointer         000000018000fba0 f   libucrtd:debug_heap.obj
 0001:0000ebe0       _CrtMemCheckpoint          000000018000fbe0 f   libucrtd:debug_heap.obj
 0001:0000ee60       _CrtMemDumpAllObjectsSince 000000018000fe60 f   libucrtd:debug_heap.obj
 0001:0000eec0       _CrtSetDbgFlag             000000018000fec0 f   libucrtd:debug_heap.obj
 0001:0000f020       _CrtSetDumpClient          0000000180010020 f   libucrtd:debug_heap.obj
 0001:0000f050       __acrt_disable_global_locale_sync 0000000180010050 f i libucrtd:debug_heap.obj
 0001:0000f080       __acrt_enable_global_locale_sync 0000000180010080 f i libucrtd:debug_heap.obj
 0001:0000f0b0       __acrt_get_locale_data_prefix 00000001800100b0 f i libucrtd:debug_heap.obj
 0001:0000f0d0       __acrt_locale_changed      00000001800100d0 f i libucrtd:debug_heap.obj
 0001:0000f100       _calloc_dbg                0000000180010100 f   libucrtd:debug_heap.obj
 0001:0000f1a0       _chvalidchk_l              00000001800101a0 f i libucrtd:debug_heap.obj
 0001:0000f1d0       _free_dbg                  00000001800101d0 f   libucrtd:debug_heap.obj
 0001:0000f240       _invoke_watson_if_oneof    0000000180010240 f i libucrtd:debug_heap.obj
 0001:0000f2a0       _ischartype_l              00000001800102a0 f i libucrtd:debug_heap.obj
 0001:0000f330       _malloc_dbg                0000000180010330 f   libucrtd:debug_heap.obj
 0001:0000f370       _msize_dbg                 0000000180010370 f   libucrtd:debug_heap.obj
 0001:0000f510       _realloc_dbg               0000000180010510 f   libucrtd:debug_heap.obj
 0001:0000f580       _recalloc_dbg              0000000180010580 f   libucrtd:debug_heap.obj
 0001:0000fb50       strcpy_s                   0000000180010b50 f   libucrtd:strcpy_s.obj
 0001:0000fb90       strcmp                     0000000180010b90 f   libucrtd:strcmp.obj
 0001:0000fc10       strlen                     0000000180010c10 f   libucrtd:strlen.obj
 0001:0000fcc0       abort                      0000000180010cc0 f   libucrtd:abort.obj
 0001:0000fd40       ??$?0AEBV?$string_output_adapter@D@__crt_stdio_output@@AEB_KAEBQEBDAEBQEAU__crt_locale_pointers@@AEBQEAD@?$format_validation_base@DV?$string_output_adapter@D@__crt_stdio_output@@@__crt_stdio_output@@IEAA@AEBV?$string_output_adapter@D@1@AEB_KAEBQEBDAEBQEAU__crt_locale_pointers@@AEBQEAD@Z 0000000180010d40 f i libucrtd:output.obj
 0001:0000fd90       ??$?0AEBV?$string_output_adapter@D@__crt_stdio_output@@AEB_KAEBQEBDAEBQEAU__crt_locale_pointers@@AEBQEAD@?$standard_base@DV?$string_output_adapter@D@__crt_stdio_output@@@__crt_stdio_output@@IEAA@AEBV?$string_output_adapter@D@1@AEB_KAEBQEBDAEBQEAU__crt_locale_pointers@@AEBQEAD@Z 0000000180010d90 f i libucrtd:output.obj
 0001:0000fe00       ??$?0AEBV?$string_output_adapter@_W@__crt_stdio_output@@AEB_KAEBQEB_WAEBQEAU__crt_locale_pointers@@AEBQEAD@?$format_validation_base@_WV?$string_output_adapter@_W@__crt_stdio_output@@@__crt_stdio_output@@IEAA@AEBV?$string_output_adapter@_W@1@AEB_KAEBQEB_WAEBQEAU__crt_locale_pointers@@AEBQEAD@Z 0000000180010e00 f i libucrtd:output.obj
 0001:0000fe50       ??$?0AEBV?$string_output_adapter@_W@__crt_stdio_output@@AEB_KAEBQEB_WAEBQEAU__crt_locale_pointers@@AEBQEAD@?$standard_base@_WV?$string_output_adapter@_W@__crt_stdio_output@@@__crt_stdio_output@@IEAA@AEBV?$string_output_adapter@_W@1@AEB_KAEBQEB_WAEBQEAU__crt_locale_pointers@@AEBQEAD@Z 0000000180010e50 f i libucrtd:output.obj
 0001:000117d0       ??$count@D@formatting_buffer@__crt_stdio_output@@QEBA_KXZ 00000001800127d0 f i libucrtd:output.obj
 0001:00011820       ??$count@_W@formatting_buffer@__crt_stdio_output@@QEBA_KXZ 0000000180012820 f i libucrtd:output.obj
 0001:00011870       ??$data@_W@formatting_buffer@__crt_stdio_output@@QEAAPEA_WXZ 0000000180012870 f i libucrtd:output.obj
 0001:00011870       ??$data@D@formatting_buffer@__crt_stdio_output@@QEAAPEADXZ 0000000180012870 f i libucrtd:output.obj
 0001:000118c0       ??$ensure_buffer_is_big_enough@D@formatting_buffer@__crt_stdio_output@@QEAA_N_K@Z 00000001800128c0 f i libucrtd:output.obj
 0001:000119f0       ??$ensure_buffer_is_big_enough@_W@formatting_buffer@__crt_stdio_output@@QEAA_N_K@Z 00000001800129f0 f i libucrtd:output.obj
 0001:00011b20       ??$extract_argument_from_va_list@C_J@?$standard_base@DV?$string_output_adapter@D@__crt_stdio_output@@@__crt_stdio_output@@IEAA_NAEA_J@Z 0000000180012b20 f i libucrtd:output.obj
 0001:00011b20       ??$extract_argument_from_va_list@C_J@?$standard_base@_WV?$string_output_adapter@_W@__crt_stdio_output@@@__crt_stdio_output@@IEAA_NAEA_J@Z 0000000180012b20 f i libucrtd:output.obj
 0001:00011b60       ??$extract_argument_from_va_list@E_J@?$standard_base@DV?$string_output_adapter@D@__crt_stdio_output@@@__crt_stdio_output@@IEAA_NAEA_J@Z 0000000180012b60 f i libucrtd:output.obj
 0001:00011b60       ??$extract_argument_from_va_list@E_J@?$standard_base@_WV?$string_output_adapter@_W@__crt_stdio_output@@@__crt_stdio_output@@IEAA_NAEA_J@Z 0000000180012b60 f i libucrtd:output.obj
 0001:00011ba0       ??$extract_argument_from_va_list@F_J@?$standard_base@DV?$string_output_adapter@D@__crt_stdio_output@@@__crt_stdio_output@@IEAA_NAEA_J@Z 0000000180012ba0 f i libucrtd:output.obj
 0001:00011ba0       ??$extract_argument_from_va_list@F_J@?$standard_base@_WV?$string_output_adapter@_W@__crt_stdio_output@@@__crt_stdio_output@@IEAA_NAEA_J@Z 0000000180012ba0 f i libucrtd:output.obj
 0001:00011be0       ??$extract_argument_from_va_list@GD@?$standard_base@DV?$string_output_adapter@D@__crt_stdio_output@@@__crt_stdio_output@@IEAA_NAEAD@Z 0000000180012be0 f i libucrtd:output.obj
 0001:00011c10       ??$extract_argument_from_va_list@G_J@?$standard_base@_WV?$string_output_adapter@_W@__crt_stdio_output@@@__crt_stdio_output@@IEAA_NAEA_J@Z 0000000180012c10 f i libucrtd:output.obj
 0001:00011c10       ??$extract_argument_from_va_list@G_J@?$standard_base@DV?$string_output_adapter@D@__crt_stdio_output@@@__crt_stdio_output@@IEAA_NAEA_J@Z 0000000180012c10 f i libucrtd:output.obj
 0001:00011c50       ??$extract_argument_from_va_list@H_J@?$standard_base@_WV?$string_output_adapter@_W@__crt_stdio_output@@@__crt_stdio_output@@IEAA_NAEA_J@Z 0000000180012c50 f i libucrtd:output.obj
 0001:00011c50       ??$extract_argument_from_va_list@H_J@?$standard_base@DV?$string_output_adapter@D@__crt_stdio_output@@@__crt_stdio_output@@IEAA_NAEA_J@Z 0000000180012c50 f i libucrtd:output.obj
 0001:00011c80       ??$extract_argument_from_va_list@I_J@?$standard_base@DV?$string_output_adapter@D@__crt_stdio_output@@@__crt_stdio_output@@IEAA_NAEA_J@Z 0000000180012c80 f i libucrtd:output.obj
 0001:00011c80       ??$extract_argument_from_va_list@I_J@?$standard_base@_WV?$string_output_adapter@_W@__crt_stdio_output@@@__crt_stdio_output@@IEAA_NAEA_J@Z 0000000180012c80 f i libucrtd:output.obj
 0001:00011cb0       ??$extract_argument_from_va_list@_J_J@?$standard_base@_WV?$string_output_adapter@_W@__crt_stdio_output@@@__crt_stdio_output@@IEAA_NAEA_J@Z 0000000180012cb0 f i libucrtd:output.obj
 0001:00011cb0       ??$extract_argument_from_va_list@_K_J@?$standard_base@DV?$string_output_adapter@D@__crt_stdio_output@@@__crt_stdio_output@@IEAA_NAEA_J@Z 0000000180012cb0 f i libucrtd:output.obj
 0001:00011cb0       ??$extract_argument_from_va_list@PEADPEAD@?$standard_base@_WV?$string_output_adapter@_W@__crt_stdio_output@@@__crt_stdio_output@@IEAA_NAEAPEAD@Z 0000000180012cb0 f i libucrtd:output.obj
 0001:00011cb0       ??$extract_argument_from_va_list@PEAXPEAX@?$standard_base@_WV?$string_output_adapter@_W@__crt_stdio_output@@@__crt_stdio_output@@IEAA_NAEAPEAX@Z 0000000180012cb0 f i libucrtd:output.obj
 0001:00011cb0       ??$extract_argument_from_va_list@PEAUansi_string@?1??type_case_Z@?$output_processor@DV?$string_output_adapter@D@__crt_stdio_output@@V?$format_validation_base@DV?$string_output_adapter@D@__crt_stdio_output@@@2@@__crt_stdio_output@@AEAA_NXZ@PEAU1?1??234@AEAA_NXZ@@?$standard_base@DV?$string_output_adapter@D@__crt_stdio_output@@@__crt_stdio_output@@IEAA_NAEAPEAUansi_string@?1??type_case_Z@?$output_processor@DV?$string_output_adapter@D@__crt_stdio_output@@V?$format_validation_base@DV?$string_output_adapter@D@__crt_stdio_output@@@2@@1@AEAA_NXZ@@Z 0000000180012cb0 f i libucrtd:output.obj
 0001:00011cb0       ??$extract_argument_from_va_list@PEAUansi_string@?1??type_case_Z@?$output_processor@_WV?$string_output_adapter@_W@__crt_stdio_output@@V?$format_validation_base@_WV?$string_output_adapter@_W@__crt_stdio_output@@@2@@__crt_stdio_output@@AEAA_NXZ@PEAU1?1??234@AEAA_NXZ@@?$standard_base@_WV?$string_output_adapter@_W@__crt_stdio_output@@@__crt_stdio_output@@IEAA_NAEAPEAUansi_string@?1??type_case_Z@?$output_processor@_WV?$string_output_adapter@_W@__crt_stdio_output@@V?$format_validation_base@_WV?$string_output_adapter@_W@__crt_stdio_output@@@2@@1@AEAA_NXZ@@Z 0000000180012cb0 f i libucrtd:output.obj
 0001:00011cb0       ??$extract_argument_from_va_list@_J_J@?$standard_base@DV?$string_output_adapter@D@__crt_stdio_output@@@__crt_stdio_output@@IEAA_NAEA_J@Z 0000000180012cb0 f i libucrtd:output.obj
 0001:00011cb0       ??$extract_argument_from_va_list@PEAXPEAX@?$standard_base@DV?$string_output_adapter@D@__crt_stdio_output@@@__crt_stdio_output@@IEAA_NAEAPEAX@Z 0000000180012cb0 f i libucrtd:output.obj
 0001:00011cb0       ??$extract_argument_from_va_list@PEADPEAD@?$standard_base@DV?$string_output_adapter@D@__crt_stdio_output@@@__crt_stdio_output@@IEAA_NAEAPEAD@Z 0000000180012cb0 f i libucrtd:output.obj
 0001:00011cb0       ??$extract_argument_from_va_list@_K_J@?$standard_base@_WV?$string_output_adapter@_W@__crt_stdio_output@@@__crt_stdio_output@@IEAA_NAEA_J@Z 0000000180012cb0 f i libucrtd:output.obj
 0001:00011ce0       ??$extract_argument_from_va_list@U_CRT_DOUBLE@@U1@@?$standard_base@DV?$string_output_adapter@D@__crt_stdio_output@@@__crt_stdio_output@@IEAA_NAEAU_CRT_DOUBLE@@@Z 0000000180012ce0 f i libucrtd:output.obj
 0001:00011ce0       ??$extract_argument_from_va_list@U_CRT_DOUBLE@@U1@@?$standard_base@_WV?$string_output_adapter@_W@__crt_stdio_output@@@__crt_stdio_output@@IEAA_NAEAU_CRT_DOUBLE@@@Z 0000000180012ce0 f i libucrtd:output.obj
 0001:00011d30       ??$extract_argument_from_va_list@_W_W@?$standard_base@DV?$string_output_adapter@D@__crt_stdio_output@@@__crt_stdio_output@@IEAA_NAEA_W@Z 0000000180012d30 f i libucrtd:output.obj
 0001:00011d30       ??$extract_argument_from_va_list@_W_W@?$standard_base@_WV?$string_output_adapter@_W@__crt_stdio_output@@@__crt_stdio_output@@IEAA_NAEA_W@Z 0000000180012d30 f i libucrtd:output.obj
 0001:00011d60       ??$is_wide_character_specifier@D@__crt_stdio_output@@YA_N_KDW4length_modifier@0@@Z 0000000180012d60 f i libucrtd:output.obj
 0001:00011e00       ??$is_wide_character_specifier@_W@__crt_stdio_output@@YA_N_K_WW4length_modifier@0@@Z 0000000180012e00 f i libucrtd:output.obj
 0001:00011ed0       ??$read_va_arg@C@__crt_stdio_output@@YACAEAPEAD@Z 0000000180012ed0 f i libucrtd:output.obj
 0001:00011ed0       ??$read_va_arg@E@__crt_stdio_output@@YAEAEAPEAD@Z 0000000180012ed0 f i libucrtd:output.obj
 0001:00011f40       ??$read_va_arg@G@__crt_stdio_output@@YAGAEAPEAD@Z 0000000180012f40 f i libucrtd:output.obj
 0001:00011f40       ??$read_va_arg@_W@__crt_stdio_output@@YA_WAEAPEAD@Z 0000000180012f40 f i libucrtd:output.obj
 0001:00011f40       ??$read_va_arg@F@__crt_stdio_output@@YAFAEAPEAD@Z 0000000180012f40 f i libucrtd:output.obj
 0001:00011fb0       ??$read_va_arg@H@__crt_stdio_output@@YAHAEAPEAD@Z 0000000180012fb0 f i libucrtd:output.obj
 0001:00011fb0       ??$read_va_arg@I@__crt_stdio_output@@YAIAEAPEAD@Z 0000000180012fb0 f i libucrtd:output.obj
 0001:00012010       ??$read_va_arg@PEAUansi_string@?1??type_case_Z@?$output_processor@_WV?$string_output_adapter@_W@__crt_stdio_output@@V?$format_validation_base@_WV?$string_output_adapter@_W@__crt_stdio_output@@@2@@__crt_stdio_output@@AEAA_NXZ@@__crt_stdio_output@@YAPEAUansi_string@?1??type_case_Z@?$output_processor@_WV?$string_output_adapter@_W@__crt_stdio_output@@V?$format_validation_base@_WV?$string_output_adapter@_W@__crt_stdio_output@@@2@@0@AEAA_NXZ@AEAPEAD@Z 0000000180013010 f i libucrtd:output.obj
 0001:00012010       ??$read_va_arg@U_CRT_DOUBLE@@@__crt_stdio_output@@YA?AU_CRT_DOUBLE@@AEAPEAD@Z 0000000180013010 f i libucrtd:output.obj
 0001:00012010       ??$read_va_arg@PEAD@__crt_stdio_output@@YAPEADAEAPEAD@Z 0000000180013010 f i libucrtd:output.obj
 0001:00012010       ??$read_va_arg@_K@__crt_stdio_output@@YA_KAEAPEAD@Z 0000000180013010 f i libucrtd:output.obj
 0001:00012010       ??$read_va_arg@_J@__crt_stdio_output@@YA_JAEAPEAD@Z 0000000180013010 f i libucrtd:output.obj
 0001:00012010       ??$read_va_arg@PEAX@__crt_stdio_output@@YAPEAXAEAPEAD@Z 0000000180013010 f i libucrtd:output.obj
 0001:00012010       ??$read_va_arg@PEAUansi_string@?1??type_case_Z@?$output_processor@DV?$string_output_adapter@D@__crt_stdio_output@@V?$format_validation_base@DV?$string_output_adapter@D@__crt_stdio_output@@@2@@__crt_stdio_output@@AEAA_NXZ@@__crt_stdio_output@@YAPEAUansi_string@?1??type_case_Z@?$output_processor@DV?$string_output_adapter@D@__crt_stdio_output@@V?$format_validation_base@DV?$string_output_adapter@D@__crt_stdio_output@@@2@@0@AEAA_NXZ@AEAPEAD@Z 0000000180013010 f i libucrtd:output.obj
 0001:00012080       ??$scratch_count@D@formatting_buffer@__crt_stdio_output@@QEBA_KXZ 0000000180013080 f i libucrtd:output.obj
 0001:000120a0       ??$scratch_data@D@formatting_buffer@__crt_stdio_output@@QEAAPEADXZ 00000001800130a0 f i libucrtd:output.obj
 0001:00012110       ??$tcstol@PEBDPEAPEADH@?$__crt_char_traits@D@@SAJ$$QEAPEBD$$QEAPEAPEAD$$QEAH@Z 0000000180013110 f i libucrtd:output.obj
 0001:00012150       ??$tcstol@PEB_WPEAPEA_WH@?$__crt_char_traits@_W@@SAJ$$QEAPEB_W$$QEAPEAPEA_W$$QEAH@Z 0000000180013150 f i libucrtd:output.obj
 0001:00012190       ??$type_case_integer_parse_into_buffer@I@?$output_processor@DV?$string_output_adapter@D@__crt_stdio_output@@V?$format_validation_base@DV?$string_output_adapter@D@__crt_stdio_output@@@2@@__crt_stdio_output@@AEAAXII_N@Z 0000000180013190 f i libucrtd:output.obj
 0001:000122c0       ??$type_case_integer_parse_into_buffer@I@?$output_processor@_WV?$string_output_adapter@_W@__crt_stdio_output@@V?$format_validation_base@_WV?$string_output_adapter@_W@__crt_stdio_output@@@2@@__crt_stdio_output@@AEAAXII_N@Z 00000001800132c0 f i libucrtd:output.obj
 0001:00012400       ??$type_case_integer_parse_into_buffer@_K@?$output_processor@DV?$string_output_adapter@D@__crt_stdio_output@@V?$format_validation_base@DV?$string_output_adapter@D@__crt_stdio_output@@@2@@__crt_stdio_output@@AEAAX_KI_N@Z 0000000180013400 f i libucrtd:output.obj
 0001:00012550       ??$type_case_integer_parse_into_buffer@_K@?$output_processor@_WV?$string_output_adapter@_W@__crt_stdio_output@@V?$format_validation_base@_WV?$string_output_adapter@_W@__crt_stdio_output@@@2@@__crt_stdio_output@@AEAAX_KI_N@Z 0000000180013550 f i libucrtd:output.obj
 0001:000126b0       ??$write_multiple_characters@V?$string_output_adapter@D@__crt_stdio_output@@D@__crt_stdio_output@@YAXAEBV?$string_output_adapter@D@0@DHQEAH@Z 00000001800136b0 f i libucrtd:output.obj
 0001:00012710       ??$write_multiple_characters@V?$string_output_adapter@_W@__crt_stdio_output@@D@__crt_stdio_output@@YAXAEBV?$string_output_adapter@_W@0@DHQEAH@Z 0000000180013710 f i libucrtd:output.obj
 0001:00012770       ??0?$common_data@D@__crt_stdio_output@@IEAA@XZ 0000000180013770 f i libucrtd:output.obj
 0001:00012840       ??0?$common_data@_W@__crt_stdio_output@@IEAA@XZ 0000000180013840 f i libucrtd:output.obj
 0001:00012910       ??0?$output_adapter_data@DV?$string_output_adapter@D@__crt_stdio_output@@@__crt_stdio_output@@IEAA@AEBV?$string_output_adapter@D@1@_KQEBDQEAU__crt_locale_pointers@@QEAD@Z 0000000180013910 f i libucrtd:output.obj
 0001:00012990       ??0?$output_adapter_data@_WV?$string_output_adapter@_W@__crt_stdio_output@@@__crt_stdio_output@@IEAA@AEBV?$string_output_adapter@_W@1@_KQEB_WQEAU__crt_locale_pointers@@QEAD@Z 0000000180013990 f i libucrtd:output.obj
 0001:00012a10       ??0?$output_processor@DV?$string_output_adapter@D@__crt_stdio_output@@V?$format_validation_base@DV?$string_output_adapter@D@__crt_stdio_output@@@2@@__crt_stdio_output@@QEAA@AEBV?$string_output_adapter@D@1@_KQEBDQEAU__crt_locale_pointers@@QEAD@Z 0000000180013a10 f i libucrtd:output.obj
 0001:00012a60       ??0?$output_processor@_WV?$string_output_adapter@_W@__crt_stdio_output@@V?$format_validation_base@_WV?$string_output_adapter@_W@__crt_stdio_output@@@2@@__crt_stdio_output@@QEAA@AEBV?$string_output_adapter@_W@1@_KQEB_WQEAU__crt_locale_pointers@@QEAD@Z 0000000180013a60 f i libucrtd:output.obj
 0001:00012ab0       ??0__crt_deferred_errno_cache@@QEAA@XZ 0000000180013ab0 f i libucrtd:output.obj
 0001:00012ad0       ??0__crt_errno_guard@@QEAA@QEAH@Z 0000000180013ad0 f i libucrtd:output.obj
 0001:00012b10       ??0formatting_buffer@__crt_stdio_output@@QEAA@XZ 0000000180013b10 f i libucrtd:output.obj
 0001:00012b50       ??1?$common_data@D@__crt_stdio_output@@QEAA@XZ 0000000180013b50 f i libucrtd:output.obj
 0001:00012b50       ??1?$common_data@_W@__crt_stdio_output@@QEAA@XZ 0000000180013b50 f i libucrtd:output.obj
 0001:00012b70       ??1?$format_validation_base@DV?$string_output_adapter@D@__crt_stdio_output@@@__crt_stdio_output@@QEAA@XZ 0000000180013b70 f i libucrtd:output.obj
 0001:00012b70       ??1?$format_validation_base@_WV?$string_output_adapter@_W@__crt_stdio_output@@@__crt_stdio_output@@QEAA@XZ 0000000180013b70 f i libucrtd:output.obj
 0001:00012b90       ??1?$output_adapter_data@DV?$string_output_adapter@D@__crt_stdio_output@@@__crt_stdio_output@@QEAA@XZ 0000000180013b90 f i libucrtd:output.obj
 0001:00012b90       ??1?$output_adapter_data@_WV?$string_output_adapter@_W@__crt_stdio_output@@@__crt_stdio_output@@QEAA@XZ 0000000180013b90 f i libucrtd:output.obj
 0001:00012bb0       ??1?$output_processor@DV?$string_output_adapter@D@__crt_stdio_output@@V?$format_validation_base@DV?$string_output_adapter@D@__crt_stdio_output@@@2@@__crt_stdio_output@@QEAA@XZ 0000000180013bb0 f i libucrtd:output.obj
 0001:00012bb0       ??1?$output_processor@_WV?$string_output_adapter@_W@__crt_stdio_output@@V?$format_validation_base@_WV?$string_output_adapter@_W@__crt_stdio_output@@@2@@__crt_stdio_output@@QEAA@XZ 0000000180013bb0 f i libucrtd:output.obj
 0001:00012bd0       ??1?$standard_base@DV?$string_output_adapter@D@__crt_stdio_output@@@__crt_stdio_output@@QEAA@XZ 0000000180013bd0 f i libucrtd:output.obj
 0001:00012bd0       ??1?$standard_base@_WV?$string_output_adapter@_W@__crt_stdio_output@@@__crt_stdio_output@@QEAA@XZ 0000000180013bd0 f i libucrtd:output.obj
 0001:00012bf0       ??1__crt_errno_guard@@QEAA@XZ 0000000180013bf0 f i libucrtd:output.obj
 0001:00012c20       ??1formatting_buffer@__crt_stdio_output@@QEAA@XZ 0000000180013c20 f i libucrtd:output.obj
 0001:00012c50       ??4?$__crt_unique_heap_ptr@DU__crt_internal_free_policy@@@@QEAAAEAV0@$$QEAV0@@Z 0000000180013c50 f i libucrtd:output.obj
 0001:00012c90       ??A?$spectre_mitigated_lookup_table@Ustate_transition_pair@__crt_stdio_output@@$0IA@@__crt_stdio_output@@QEBAAEBUstate_transition_pair@1@_K@Z 0000000180013c90 f i libucrtd:output.obj
 0001:00012cb0       ?adjust_hexit@?$output_processor@_WV?$string_output_adapter@_W@__crt_stdio_output@@V?$format_validation_base@_WV?$string_output_adapter@_W@__crt_stdio_output@@@2@@__crt_stdio_output@@CADH_N@Z 0000000180013cb0 f i libucrtd:output.obj
 0001:00012cb0       ?adjust_hexit@?$output_processor@DV?$string_output_adapter@D@__crt_stdio_output@@V?$format_validation_base@DV?$string_output_adapter@D@__crt_stdio_output@@@2@@__crt_stdio_output@@CADH_N@Z 0000000180013cb0 f i libucrtd:output.obj
 0001:00012d00       ?advance_to_next_pass@?$standard_base@_WV?$string_output_adapter@_W@__crt_stdio_output@@@__crt_stdio_output@@IEAA_NXZ 0000000180013d00 f i libucrtd:output.obj
 0001:00012d00       ?advance_to_next_pass@?$standard_base@DV?$string_output_adapter@D@__crt_stdio_output@@@__crt_stdio_output@@IEAA_NXZ 0000000180013d00 f i libucrtd:output.obj
 0001:00012d50       ?crop_zeroes@__crt_stdio_output@@YAXPEADQEAU__crt_locale_pointers@@@Z 0000000180013d50 f i libucrtd:output.obj
 0001:00012e90       ?find_next_state@?$output_processor@DV?$string_output_adapter@D@__crt_stdio_output@@V?$format_validation_base@DV?$string_output_adapter@D@__crt_stdio_output@@@2@@__crt_stdio_output@@AEBA?AW4state@2@DW432@@Z 0000000180013e90 f i libucrtd:output.obj
 0001:00012f20       ?find_next_state@?$output_processor@_WV?$string_output_adapter@_W@__crt_stdio_output@@V?$format_validation_base@_WV?$string_output_adapter@_W@__crt_stdio_output@@@2@@__crt_stdio_output@@AEBA?AW4state@2@_WW432@@Z 0000000180013f20 f i libucrtd:output.obj
 0001:00012fb0       ?force_decimal_point@__crt_stdio_output@@YAXPEADQEAU__crt_locale_pointers@@@Z 0000000180013fb0 f i libucrtd:output.obj
 0001:000130b0       ?get@__crt_deferred_errno_cache@@QEAAAEAHXZ 00000001800140b0 f i libucrtd:output.obj
 0001:000130e0       ?get_flags@__crt_stdio_stream@@QEBAJXZ 00000001800140e0 f i libucrtd:output.obj
 0001:00013110       ?has_flag@?$output_processor@DV?$string_output_adapter@D@__crt_stdio_output@@V?$format_validation_base@DV?$string_output_adapter@D@__crt_stdio_output@@@2@@__crt_stdio_output@@AEBA_NI@Z 0000000180014110 f i libucrtd:output.obj
 0001:00013110       ?has_flag@?$output_processor@_WV?$string_output_adapter@_W@__crt_stdio_output@@V?$format_validation_base@_WV?$string_output_adapter@_W@__crt_stdio_output@@@2@@__crt_stdio_output@@AEBA_NI@Z 0000000180014110 f i libucrtd:output.obj
 0001:00013150       ?is_string_backed@__crt_stdio_stream@@QEBA_NXZ 0000000180014150 f i libucrtd:output.obj
 0001:00013190       ?narrow_null_string@?$output_processor@DV?$string_output_adapter@D@__crt_stdio_output@@V?$format_validation_base@DV?$string_output_adapter@D@__crt_stdio_output@@@2@@__crt_stdio_output@@CAPEADXZ 0000000180014190 f i libucrtd:output.obj
 0001:00013190       ?narrow_null_string@?$output_processor@_WV?$string_output_adapter@_W@__crt_stdio_output@@V?$format_validation_base@_WV?$string_output_adapter@_W@__crt_stdio_output@@@2@@__crt_stdio_output@@CAPEADXZ 0000000180014190 f i libucrtd:output.obj
 0001:000131a0       ?parse_int_from_format_string@?$output_processor@DV?$string_output_adapter@D@__crt_stdio_output@@V?$format_validation_base@DV?$string_output_adapter@D@__crt_stdio_output@@@2@@__crt_stdio_output@@AEAA_NQEAH@Z 00000001800141a0 f i libucrtd:output.obj
 0001:00013290       ?parse_int_from_format_string@?$output_processor@_WV?$string_output_adapter@_W@__crt_stdio_output@@V?$format_validation_base@_WV?$string_output_adapter@_W@__crt_stdio_output@@@2@@__crt_stdio_output@@AEAA_NQEAH@Z 0000000180014290 f i libucrtd:output.obj
 0001:00013380       ?process@?$output_processor@DV?$string_output_adapter@D@__crt_stdio_output@@V?$format_validation_base@DV?$string_output_adapter@D@__crt_stdio_output@@@2@@__crt_stdio_output@@QEAAHXZ 0000000180014380 f i libucrtd:output.obj
 0001:000136e0       ?process@?$output_processor@_WV?$string_output_adapter@_W@__crt_stdio_output@@V?$format_validation_base@_WV?$string_output_adapter@_W@__crt_stdio_output@@@2@@__crt_stdio_output@@QEAAHXZ 00000001800146e0 f i libucrtd:output.obj
 0001:00013a40       ?set_flag@?$output_processor@DV?$string_output_adapter@D@__crt_stdio_output@@V?$format_validation_base@DV?$string_output_adapter@D@__crt_stdio_output@@@2@@__crt_stdio_output@@AEAAXI@Z 0000000180014a40 f i libucrtd:output.obj
 0001:00013a40       ?set_flag@?$output_processor@_WV?$string_output_adapter@_W@__crt_stdio_output@@V?$format_validation_base@_WV?$string_output_adapter@_W@__crt_stdio_output@@@2@@__crt_stdio_output@@AEAAXI@Z 0000000180014a40 f i libucrtd:output.obj
 0001:00013a60       ?validate_state_for_type_case_a@?$standard_base@DV?$string_output_adapter@D@__crt_stdio_output@@@__crt_stdio_output@@IEBA_NXZ 0000000180014a60 f i libucrtd:output.obj
 0001:00013a60       ?should_format@?$standard_base@_WV?$string_output_adapter@_W@__crt_stdio_output@@@__crt_stdio_output@@IEAA_NXZ 0000000180014a60 f i libucrtd:output.obj
 0001:00013a60       ?validate_and_update_state_at_beginning_of_format_character@?$standard_base@DV?$string_output_adapter@D@__crt_stdio_output@@@__crt_stdio_output@@IEAA_NXZ 0000000180014a60 f i libucrtd:output.obj
 0001:00013a60       ?validate_and_update_state_at_beginning_of_format_character@?$standard_base@_WV?$string_output_adapter@_W@__crt_stdio_output@@@__crt_stdio_output@@IEAA_NXZ 0000000180014a60 f i libucrtd:output.obj
 0001:00013a60       ?should_format@?$standard_base@DV?$string_output_adapter@D@__crt_stdio_output@@@__crt_stdio_output@@IEAA_NXZ 0000000180014a60 f i libucrtd:output.obj
 0001:00013a60       ?validate_state_for_type_case_a@?$standard_base@_WV?$string_output_adapter@_W@__crt_stdio_output@@@__crt_stdio_output@@IEBA_NXZ 0000000180014a60 f i libucrtd:output.obj
 0001:00013a70       ?should_skip_normal_state_processing@?$standard_base@_WV?$string_output_adapter@_W@__crt_stdio_output@@@__crt_stdio_output@@IEAA_NXZ 0000000180014a70 f i libucrtd:output.obj
 0001:00013a70       ?should_skip_normal_state_processing@?$standard_base@DV?$string_output_adapter@D@__crt_stdio_output@@@__crt_stdio_output@@IEAA_NXZ 0000000180014a70 f i libucrtd:output.obj
 0001:00013a70       ?should_skip_type_state_output@?$standard_base@_WV?$string_output_adapter@_W@__crt_stdio_output@@@__crt_stdio_output@@IEBA_NXZ 0000000180014a70 f i libucrtd:output.obj
 0001:00013a70       ?should_skip_type_state_output@?$standard_base@DV?$string_output_adapter@D@__crt_stdio_output@@@__crt_stdio_output@@IEBA_NXZ 0000000180014a70 f i libucrtd:output.obj
 0001:00013a80       ?state_case_dot@?$output_processor@_WV?$string_output_adapter@_W@__crt_stdio_output@@V?$format_validation_base@_WV?$string_output_adapter@_W@__crt_stdio_output@@@2@@__crt_stdio_output@@AEAA_NXZ 0000000180014a80 f i libucrtd:output.obj
 0001:00013a80       ?state_case_dot@?$output_processor@DV?$string_output_adapter@D@__crt_stdio_output@@V?$format_validation_base@DV?$string_output_adapter@D@__crt_stdio_output@@@2@@__crt_stdio_output@@AEAA_NXZ 0000000180014a80 f i libucrtd:output.obj
 0001:00013aa0       ?state_case_flag@?$output_processor@DV?$string_output_adapter@D@__crt_stdio_output@@V?$format_validation_base@DV?$string_output_adapter@D@__crt_stdio_output@@@2@@__crt_stdio_output@@AEAA_NXZ 0000000180014aa0 f i libucrtd:output.obj
 0001:00013b40       ?state_case_flag@?$output_processor@_WV?$string_output_adapter@_W@__crt_stdio_output@@V?$format_validation_base@_WV?$string_output_adapter@_W@__crt_stdio_output@@@2@@__crt_stdio_output@@AEAA_NXZ 0000000180014b40 f i libucrtd:output.obj
 0001:00013be0       ?state_case_normal@?$output_processor@DV?$string_output_adapter@D@__crt_stdio_output@@V?$format_validation_base@DV?$string_output_adapter@D@__crt_stdio_output@@@2@@__crt_stdio_output@@AEAA_NXZ 0000000180014be0 f i libucrtd:output.obj
 0001:00013cc0       ?state_case_normal@?$output_processor@_WV?$string_output_adapter@_W@__crt_stdio_output@@V?$format_validation_base@_WV?$string_output_adapter@_W@__crt_stdio_output@@@2@@__crt_stdio_output@@AEAA_NXZ 0000000180014cc0 f i libucrtd:output.obj
 0001:00013da0       ?state_case_normal_common@?$output_processor@DV?$string_output_adapter@D@__crt_stdio_output@@V?$format_validation_base@DV?$string_output_adapter@D@__crt_stdio_output@@@2@@__crt_stdio_output@@AEAA_NXZ 0000000180014da0 f i libucrtd:output.obj
 0001:00013df0       ?state_case_normal_common@?$output_processor@_WV?$string_output_adapter@_W@__crt_stdio_output@@V?$format_validation_base@_WV?$string_output_adapter@_W@__crt_stdio_output@@@2@@__crt_stdio_output@@AEAA_NXZ 0000000180014df0 f i libucrtd:output.obj
 0001:00013e40       ?state_case_normal_tchar@?$output_processor@DV?$string_output_adapter@D@__crt_stdio_output@@V?$format_validation_base@DV?$string_output_adapter@D@__crt_stdio_output@@@2@@__crt_stdio_output@@AEAA_ND@Z 0000000180014e40 f i libucrtd:output.obj
 0001:00013f80       ?state_case_normal_tchar@?$output_processor@_WV?$string_output_adapter@_W@__crt_stdio_output@@V?$format_validation_base@_WV?$string_output_adapter@_W@__crt_stdio_output@@@2@@__crt_stdio_output@@AEAA_N_W@Z 0000000180014f80 f i libucrtd:output.obj
 0001:00013fa0       ?state_case_percent@?$output_processor@_WV?$string_output_adapter@_W@__crt_stdio_output@@V?$format_validation_base@_WV?$string_output_adapter@_W@__crt_stdio_output@@@2@@__crt_stdio_output@@AEAA_NXZ 0000000180014fa0 f i libucrtd:output.obj
 0001:00013fa0       ?state_case_percent@?$output_processor@DV?$string_output_adapter@D@__crt_stdio_output@@V?$format_validation_base@DV?$string_output_adapter@D@__crt_stdio_output@@@2@@__crt_stdio_output@@AEAA_NXZ 0000000180014fa0 f i libucrtd:output.obj
 0001:00013ff0       ?state_case_precision@?$output_processor@DV?$string_output_adapter@D@__crt_stdio_output@@V?$format_validation_base@DV?$string_output_adapter@D@__crt_stdio_output@@@2@@__crt_stdio_output@@AEAA_NXZ 0000000180014ff0 f i libucrtd:output.obj
 0001:00014070       ?state_case_precision@?$output_processor@_WV?$string_output_adapter@_W@__crt_stdio_output@@V?$format_validation_base@_WV?$string_output_adapter@_W@__crt_stdio_output@@@2@@__crt_stdio_output@@AEAA_NXZ 0000000180015070 f i libucrtd:output.obj
 0001:000140f0       ?state_case_size@?$output_processor@DV?$string_output_adapter@D@__crt_stdio_output@@V?$format_validation_base@DV?$string_output_adapter@D@__crt_stdio_output@@@2@@__crt_stdio_output@@AEAA_NXZ 00000001800150f0 f i libucrtd:output.obj
 0001:00014570       ?state_case_size@?$output_processor@_WV?$string_output_adapter@_W@__crt_stdio_output@@V?$format_validation_base@_WV?$string_output_adapter@_W@__crt_stdio_output@@@2@@__crt_stdio_output@@AEAA_NXZ 0000000180015570 f i libucrtd:output.obj
 0001:000149f0       ?state_case_type@?$output_processor@DV?$string_output_adapter@D@__crt_stdio_output@@V?$format_validation_base@DV?$string_output_adapter@D@__crt_stdio_output@@@2@@__crt_stdio_output@@AEAA_NXZ 00000001800159f0 f i libucrtd:output.obj
 0001:00014e90       ?state_case_type@?$output_processor@_WV?$string_output_adapter@_W@__crt_stdio_output@@V?$format_validation_base@_WV?$string_output_adapter@_W@__crt_stdio_output@@@2@@__crt_stdio_output@@AEAA_NXZ 0000000180015e90 f i libucrtd:output.obj
 0001:000153f0       ?state_case_width@?$output_processor@DV?$string_output_adapter@D@__crt_stdio_output@@V?$format_validation_base@DV?$string_output_adapter@D@__crt_stdio_output@@@2@@__crt_stdio_output@@AEAA_NXZ 00000001800163f0 f i libucrtd:output.obj
 0001:00015480       ?state_case_width@?$output_processor@_WV?$string_output_adapter@_W@__crt_stdio_output@@V?$format_validation_base@_WV?$string_output_adapter@_W@__crt_stdio_output@@@2@@__crt_stdio_output@@AEAA_NXZ 0000000180016480 f i libucrtd:output.obj
 0001:00015510       ?state_count@?$format_validation_base@_WV?$string_output_adapter@_W@__crt_stdio_output@@@__crt_stdio_output@@KAIXZ 0000000180016510 f i libucrtd:output.obj
 0001:00015510       ?state_count@?$format_validation_base@DV?$string_output_adapter@D@__crt_stdio_output@@@__crt_stdio_output@@KAIXZ 0000000180016510 f i libucrtd:output.obj
 0001:00015520       ?state_transition_table@?$format_validation_base@_WV?$string_output_adapter@_W@__crt_stdio_output@@@__crt_stdio_output@@KAAEBV?$spectre_mitigated_lookup_table@Ustate_transition_pair@__crt_stdio_output@@$0IA@@2@XZ 0000000180016520 f i libucrtd:output.obj
 0001:00015520       ?state_transition_table@?$format_validation_base@DV?$string_output_adapter@D@__crt_stdio_output@@@__crt_stdio_output@@KAAEBV?$spectre_mitigated_lookup_table@Ustate_transition_pair@__crt_stdio_output@@$0IA@@2@XZ 0000000180016520 f i libucrtd:output.obj
 0001:00015530       ?tchar_string@?$common_data@D@__crt_stdio_output@@IEAAAEAPEADD@Z 0000000180016530 f i libucrtd:output.obj
 0001:00015550       ?tchar_string@?$common_data@D@__crt_stdio_output@@IEAAAEAPEADXZ 0000000180016550 f i libucrtd:output.obj
 0001:00015570       ?tchar_string@?$common_data@_W@__crt_stdio_output@@IEAAAEAPEA_WXZ 0000000180016570 f i libucrtd:output.obj
 0001:00015590       ?tchar_string@?$common_data@_W@__crt_stdio_output@@IEAAAEAPEA_W_W@Z 0000000180016590 f i libucrtd:output.obj
 0001:000155b0       ?to_integer_size@__crt_stdio_output@@YA_KW4length_modifier@1@@Z 00000001800165b0 f i libucrtd:output.obj
 0001:00015660       ?type_case_X@?$output_processor@DV?$string_output_adapter@D@__crt_stdio_output@@V?$format_validation_base@DV?$string_output_adapter@D@__crt_stdio_output@@@2@@__crt_stdio_output@@AEAA_NXZ 0000000180016660 f i libucrtd:output.obj
 0001:00015680       ?type_case_X@?$output_processor@_WV?$string_output_adapter@_W@__crt_stdio_output@@V?$format_validation_base@_WV?$string_output_adapter@_W@__crt_stdio_output@@@2@@__crt_stdio_output@@AEAA_NXZ 0000000180016680 f i libucrtd:output.obj
 0001:000156a0       ?type_case_Z@?$output_processor@DV?$string_output_adapter@D@__crt_stdio_output@@V?$format_validation_base@DV?$string_output_adapter@D@__crt_stdio_output@@@2@@__crt_stdio_output@@AEAA_NXZ 00000001800166a0 f i libucrtd:output.obj
 0001:000157c0       ?type_case_Z@?$output_processor@_WV?$string_output_adapter@_W@__crt_stdio_output@@V?$format_validation_base@_WV?$string_output_adapter@_W@__crt_stdio_output@@@2@@__crt_stdio_output@@AEAA_NXZ 00000001800167c0 f i libucrtd:output.obj
 0001:000158e0       ?type_case_a@?$output_processor@DV?$string_output_adapter@D@__crt_stdio_output@@V?$format_validation_base@DV?$string_output_adapter@D@__crt_stdio_output@@@2@@__crt_stdio_output@@AEAA_NXZ 00000001800168e0 f i libucrtd:output.obj
 0001:00015cb0       ?type_case_a@?$output_processor@_WV?$string_output_adapter@_W@__crt_stdio_output@@V?$format_validation_base@_WV?$string_output_adapter@_W@__crt_stdio_output@@@2@@__crt_stdio_output@@AEAA_NXZ 0000000180016cb0 f i libucrtd:output.obj
 0001:00016080       ?type_case_c@?$output_processor@DV?$string_output_adapter@D@__crt_stdio_output@@V?$format_validation_base@DV?$string_output_adapter@D@__crt_stdio_output@@@2@@__crt_stdio_output@@AEAA_NXZ 0000000180017080 f i libucrtd:output.obj
 0001:000160a0       ?type_case_c@?$output_processor@_WV?$string_output_adapter@_W@__crt_stdio_output@@V?$format_validation_base@_WV?$string_output_adapter@_W@__crt_stdio_output@@@2@@__crt_stdio_output@@AEAA_NXZ 00000001800170a0 f i libucrtd:output.obj
 0001:000160c0       ?type_case_c_tchar@?$output_processor@DV?$string_output_adapter@D@__crt_stdio_output@@V?$format_validation_base@DV?$string_output_adapter@D@__crt_stdio_output@@@2@@__crt_stdio_output@@AEAA_ND@Z 00000001800170c0 f i libucrtd:output.obj
 0001:00016220       ?type_case_c_tchar@?$output_processor@_WV?$string_output_adapter@_W@__crt_stdio_output@@V?$format_validation_base@_WV?$string_output_adapter@_W@__crt_stdio_output@@@2@@__crt_stdio_output@@AEAA_N_W@Z 0000000180017220 f i libucrtd:output.obj
 0001:00016350       ?type_case_d@?$output_processor@DV?$string_output_adapter@D@__crt_stdio_output@@V?$format_validation_base@DV?$string_output_adapter@D@__crt_stdio_output@@@2@@__crt_stdio_output@@AEAA_NXZ 0000000180017350 f i libucrtd:output.obj
 0001:00016380       ?type_case_d@?$output_processor@_WV?$string_output_adapter@_W@__crt_stdio_output@@V?$format_validation_base@_WV?$string_output_adapter@_W@__crt_stdio_output@@@2@@__crt_stdio_output@@AEAA_NXZ 0000000180017380 f i libucrtd:output.obj
 0001:000163b0       ?type_case_integer@?$output_processor@DV?$string_output_adapter@D@__crt_stdio_output@@V?$format_validation_base@DV?$string_output_adapter@D@__crt_stdio_output@@@2@@__crt_stdio_output@@AEAA_NI_N@Z 00000001800173b0 f i libucrtd:output.obj
 0001:00016800       ?type_case_integer@?$output_processor@_WV?$string_output_adapter@_W@__crt_stdio_output@@V?$format_validation_base@_WV?$string_output_adapter@_W@__crt_stdio_output@@@2@@__crt_stdio_output@@AEAA_NI_N@Z 0000000180017800 f i libucrtd:output.obj
 0001:00016c50       ?type_case_n@?$output_processor@DV?$string_output_adapter@D@__crt_stdio_output@@V?$format_validation_base@DV?$string_output_adapter@D@__crt_stdio_output@@@2@@__crt_stdio_output@@AEAA_NXZ 0000000180017c50 f i libucrtd:output.obj
 0001:00016e90       ?type_case_n@?$output_processor@_WV?$string_output_adapter@_W@__crt_stdio_output@@V?$format_validation_base@_WV?$string_output_adapter@_W@__crt_stdio_output@@@2@@__crt_stdio_output@@AEAA_NXZ 0000000180017e90 f i libucrtd:output.obj
 0001:000170d0       ?type_case_o@?$output_processor@DV?$string_output_adapter@D@__crt_stdio_output@@V?$format_validation_base@DV?$string_output_adapter@D@__crt_stdio_output@@@2@@__crt_stdio_output@@AEAA_NXZ 00000001800180d0 f i libucrtd:output.obj
 0001:00017120       ?type_case_o@?$output_processor@_WV?$string_output_adapter@_W@__crt_stdio_output@@V?$format_validation_base@_WV?$string_output_adapter@_W@__crt_stdio_output@@@2@@__crt_stdio_output@@AEAA_NXZ 0000000180018120 f i libucrtd:output.obj
 0001:00017170       ?type_case_p@?$output_processor@DV?$string_output_adapter@D@__crt_stdio_output@@V?$format_validation_base@DV?$string_output_adapter@D@__crt_stdio_output@@@2@@__crt_stdio_output@@AEAA_NXZ 0000000180018170 f i libucrtd:output.obj
 0001:000171b0       ?type_case_p@?$output_processor@_WV?$string_output_adapter@_W@__crt_stdio_output@@V?$format_validation_base@_WV?$string_output_adapter@_W@__crt_stdio_output@@@2@@__crt_stdio_output@@AEAA_NXZ 00000001800181b0 f i libucrtd:output.obj
 0001:000171f0       ?type_case_s@?$output_processor@DV?$string_output_adapter@D@__crt_stdio_output@@V?$format_validation_base@DV?$string_output_adapter@D@__crt_stdio_output@@@2@@__crt_stdio_output@@AEAA_NXZ 00000001800181f0 f i libucrtd:output.obj
 0001:00017310       ?type_case_s@?$output_processor@_WV?$string_output_adapter@_W@__crt_stdio_output@@V?$format_validation_base@_WV?$string_output_adapter@_W@__crt_stdio_output@@@2@@__crt_stdio_output@@AEAA_NXZ 0000000180018310 f i libucrtd:output.obj
 0001:00017430       ?type_case_s_compute_narrow_string_length@?$output_processor@DV?$string_output_adapter@D@__crt_stdio_output@@V?$format_validation_base@DV?$string_output_adapter@D@__crt_stdio_output@@@2@@__crt_stdio_output@@AEBAHHD@Z 0000000180018430 f i libucrtd:output.obj
 0001:00017460       ?type_case_s_compute_narrow_string_length@?$output_processor@_WV?$string_output_adapter@_W@__crt_stdio_output@@V?$format_validation_base@_WV?$string_output_adapter@_W@__crt_stdio_output@@@2@@__crt_stdio_output@@AEBAHH_W@Z 0000000180018460 f i libucrtd:output.obj
 0001:000174f0       ?type_case_u@?$output_processor@DV?$string_output_adapter@D@__crt_stdio_output@@V?$format_validation_base@DV?$string_output_adapter@D@__crt_stdio_output@@@2@@__crt_stdio_output@@AEAA_NXZ 00000001800184f0 f i libucrtd:output.obj
 0001:00017510       ?type_case_u@?$output_processor@_WV?$string_output_adapter@_W@__crt_stdio_output@@V?$format_validation_base@_WV?$string_output_adapter@_W@__crt_stdio_output@@@2@@__crt_stdio_output@@AEAA_NXZ 0000000180018510 f i libucrtd:output.obj
 0001:00017530       ?type_case_x@?$output_processor@DV?$string_output_adapter@D@__crt_stdio_output@@V?$format_validation_base@DV?$string_output_adapter@D@__crt_stdio_output@@@2@@__crt_stdio_output@@AEAA_NXZ 0000000180018530 f i libucrtd:output.obj
 0001:00017550       ?type_case_x@?$output_processor@_WV?$string_output_adapter@_W@__crt_stdio_output@@V?$format_validation_base@_WV?$string_output_adapter@_W@__crt_stdio_output@@@2@@__crt_stdio_output@@AEAA_NXZ 0000000180018550 f i libucrtd:output.obj
 0001:00017570       ?unset_flag@?$output_processor@DV?$string_output_adapter@D@__crt_stdio_output@@V?$format_validation_base@DV?$string_output_adapter@D@__crt_stdio_output@@@2@@__crt_stdio_output@@AEAAXI@Z 0000000180018570 f i libucrtd:output.obj
 0001:00017570       ?unset_flag@?$output_processor@_WV?$string_output_adapter@_W@__crt_stdio_output@@V?$format_validation_base@_WV?$string_output_adapter@_W@__crt_stdio_output@@@2@@__crt_stdio_output@@AEAAXI@Z 0000000180018570 f i libucrtd:output.obj
 0001:000175a0       ?update_field_width@?$standard_base@DV?$string_output_adapter@D@__crt_stdio_output@@@__crt_stdio_output@@IEAA_NXZ 00000001800185a0 f i libucrtd:output.obj
 0001:000175a0       ?update_field_width@?$standard_base@_WV?$string_output_adapter@_W@__crt_stdio_output@@@__crt_stdio_output@@IEAA_NXZ 00000001800185a0 f i libucrtd:output.obj
 0001:000175d0       ?update_precision@?$standard_base@_WV?$string_output_adapter@_W@__crt_stdio_output@@@__crt_stdio_output@@IEAA_NXZ 00000001800185d0 f i libucrtd:output.obj
 0001:000175d0       ?update_precision@?$standard_base@DV?$string_output_adapter@D@__crt_stdio_output@@@__crt_stdio_output@@IEAA_NXZ 00000001800185d0 f i libucrtd:output.obj
 0001:00017600       ?validate@?$string_output_adapter@D@__crt_stdio_output@@QEBA_NXZ 0000000180018600 f i libucrtd:output.obj
 0001:000176c0       ?validate@?$string_output_adapter@_W@__crt_stdio_output@@QEBA_NXZ 00000001800186c0 f i libucrtd:output.obj
 0001:00017780       ?validate_and_update_state_at_end_of_format_string@?$format_validation_base@DV?$string_output_adapter@D@__crt_stdio_output@@@__crt_stdio_output@@IEBA_NXZ 0000000180018780 f i libucrtd:output.obj
 0001:00017840       ?validate_and_update_state_at_end_of_format_string@?$format_validation_base@_WV?$string_output_adapter@_W@__crt_stdio_output@@@__crt_stdio_output@@IEBA_NXZ 0000000180018840 f i libucrtd:output.obj
 0001:00017900       ?wide_null_string@?$output_processor@DV?$string_output_adapter@D@__crt_stdio_output@@V?$format_validation_base@DV?$string_output_adapter@D@__crt_stdio_output@@@2@@__crt_stdio_output@@CAPEA_WXZ 0000000180018900 f i libucrtd:output.obj
 0001:00017900       ?wide_null_string@?$output_processor@_WV?$string_output_adapter@_W@__crt_stdio_output@@V?$format_validation_base@_WV?$string_output_adapter@_W@__crt_stdio_output@@@2@@__crt_stdio_output@@CAPEA_WXZ 0000000180018900 f i libucrtd:output.obj
 0001:00017910       ?write_character@?$string_output_adapter@D@__crt_stdio_output@@QEBA_NDQEAH@Z 0000000180018910 f i libucrtd:output.obj
 0001:000179d0       ?write_character@?$string_output_adapter@_W@__crt_stdio_output@@QEBA_N_WQEAH@Z 00000001800189d0 f i libucrtd:output.obj
 0001:00017a90       ?write_stored_string_tchar@?$output_processor@DV?$string_output_adapter@D@__crt_stdio_output@@V?$format_validation_base@DV?$string_output_adapter@D@__crt_stdio_output@@@2@@__crt_stdio_output@@AEAA_ND@Z 0000000180018a90 f i libucrtd:output.obj
 0001:00017c50       ?write_stored_string_tchar@?$output_processor@_WV?$string_output_adapter@_W@__crt_stdio_output@@V?$format_validation_base@_WV?$string_output_adapter@_W@__crt_stdio_output@@@2@@__crt_stdio_output@@AEAA_N_W@Z 0000000180018c50 f i libucrtd:output.obj
 0001:00017da0       ?write_string@?$string_output_adapter@D@__crt_stdio_output@@QEBAXQEBDHQEAHAEAV__crt_deferred_errno_cache@@@Z 0000000180018da0 f i libucrtd:output.obj
 0001:00017f10       ?write_string@?$string_output_adapter@_W@__crt_stdio_output@@QEBAXQEB_WHQEAHAEAV__crt_deferred_errno_cache@@@Z 0000000180018f10 f i libucrtd:output.obj
 0001:00018080       __acrt_isleadbyte_l_noupdate 0000000180019080 f i libucrtd:output.obj
 0001:000180b0       __acrt_locale_get_ctype_array_value 00000001800190b0 f i libucrtd:output.obj
 0001:000180f0       __stdio_common_vsnprintf_s 00000001800190f0 f   libucrtd:output.obj
 0001:00018150       __stdio_common_vsnwprintf_s 0000000180019150 f   libucrtd:output.obj
 0001:000181b0       __stdio_common_vsprintf_s  00000001800191b0 f   libucrtd:output.obj
 0001:00018200       _ctype_fast_check_internal 0000000180019200 f i libucrtd:output.obj
 0001:00018230       _isdigit_fast_internal     0000000180019230 f i libucrtd:output.obj
 0001:00018260       _tolower_fast_internal     0000000180019260 f i libucrtd:output.obj
 0001:00018290       ??$is_overflow_condition@K@__crt_strtox@@YA_NIK@Z 0000000180019290 f i libucrtd:atox.obj
 0001:00018300       ??$parse_integer@KV?$c_string_character_source@D@__crt_strtox@@@__crt_strtox@@YAKQEAU__crt_locale_pointers@@V?$c_string_character_source@D@0@H_N@Z 0000000180019300 f i libucrtd:atox.obj
 0001:00018790       ??$parse_integer@KV?$c_string_character_source@_W@__crt_strtox@@@__crt_strtox@@YAKQEAU__crt_locale_pointers@@V?$c_string_character_source@_W@0@H_N@Z 0000000180019790 f i libucrtd:atox.obj
 0001:00018c40       ??0?$c_string_character_source@D@__crt_strtox@@QEAA@QEBDQEAPEBD@Z 0000000180019c40 f i libucrtd:atox.obj
 0001:00018c40       ??0?$c_string_character_source@_W@__crt_strtox@@QEAA@QEB_WQEAPEB_W@Z 0000000180019c40 f i libucrtd:atox.obj
 0001:00018c90       ??1?$c_string_character_source@D@__crt_strtox@@QEAA@XZ 0000000180019c90 f i libucrtd:atox.obj
 0001:00018c90       ??1?$c_string_character_source@_W@__crt_strtox@@QEAA@XZ 0000000180019c90 f i libucrtd:atox.obj
 0001:00018cc0       ?get@?$c_string_character_source@D@__crt_strtox@@QEAADXZ 0000000180019cc0 f i libucrtd:atox.obj
 0001:00018d00       ?get@?$c_string_character_source@_W@__crt_strtox@@QEAA_WXZ 0000000180019d00 f i libucrtd:atox.obj
 0001:00018d40       ?is_space@__crt_strtox@@YA_NDQEAU__crt_locale_pointers@@@Z 0000000180019d40 f i libucrtd:atox.obj
 0001:00018d90       ?is_space@__crt_strtox@@YA_N_WPEAU__crt_locale_pointers@@@Z 0000000180019d90 f i libucrtd:atox.obj
 0001:00018dd0       ?maximum_signed_value@__crt_strtox@@YAJK@Z 0000000180019dd0 f i libucrtd:atox.obj
 0001:00018de0       ?minimum_signed_value@__crt_strtox@@YAJK@Z 0000000180019de0 f i libucrtd:atox.obj
 0001:00018df0       ?parse_digit@__crt_strtox@@YAID@Z 0000000180019df0 f i libucrtd:atox.obj
 0001:00018e60       ?parse_digit@__crt_strtox@@YAI_W@Z 0000000180019e60 f i libucrtd:atox.obj
 0001:00018eb0       ?restore_state@?$c_string_character_source@_W@__crt_strtox@@QEAA_NQEB_W@Z 0000000180019eb0 f i libucrtd:atox.obj
 0001:00018eb0       ?restore_state@?$c_string_character_source@D@__crt_strtox@@QEAA_NQEBD@Z 0000000180019eb0 f i libucrtd:atox.obj
 0001:00018ed0       ?unget@?$c_string_character_source@D@__crt_strtox@@QEAAXD@Z 0000000180019ed0 f i libucrtd:atox.obj
 0001:00018fb0       ?unget@?$c_string_character_source@_W@__crt_strtox@@QEAAX_W@Z 0000000180019fb0 f i libucrtd:atox.obj
 0001:00019090       ?validate@?$c_string_character_source@D@__crt_strtox@@QEBA_NXZ 000000018001a090 f i libucrtd:atox.obj
 0001:00019150       ?validate@?$c_string_character_source@_W@__crt_strtox@@QEBA_NXZ 000000018001a150 f i libucrtd:atox.obj
 0001:00019210       ?wide_character_to_digit@__crt_strtox@@YAH_W@Z 000000018001a210 f i libucrtd:atox.obj
 0001:00019580       __ascii_iswalpha           000000018001a580 f i libucrtd:atox.obj
 0001:000195c0       __ascii_toupper            000000018001a5c0 f i libucrtd:atox.obj
 0001:000195e0       __ascii_towupper           000000018001a5e0 f i libucrtd:atox.obj
 0001:00019610       strncmp                    000000018001a610 f   libucrtd:strncmp.obj
 0001:0001a440       ??$get_module_file_name@AEAPEAUHINSTANCE__@@AEAY0BAF@_WK@?$__crt_char_traits@_W@@SAKAEAPEAUHINSTANCE__@@AEAY0BAF@_W$$QEAK@Z 000000018001b440 f i libucrtd:dbgrpt.obj
 0001:0001a480       ??$tcscpy_s@AEAY0BAF@D_KPEBD@?$__crt_char_traits@D@@SAHAEAY0BAF@D$$QEA_K$$QEAPEBD@Z 000000018001b480 f i libucrtd:dbgrpt.obj
 0001:0001a4c0       ??$tcscpy_s@AEAY0BAF@_W_KPEB_W@?$__crt_char_traits@_W@@SAHAEAY0BAF@_W$$QEA_K$$QEAPEB_W@Z 000000018001b4c0 f i libucrtd:dbgrpt.obj
 0001:0001a500       ??$tcslen@AEAY0BAF@D@?$__crt_char_traits@D@@SA_KAEAY0BAF@D@Z 000000018001b500 f i libucrtd:dbgrpt.obj
 0001:0001a520       ??$tcslen@AEAY0BAF@_W@?$__crt_char_traits@_W@@SA_KAEAY0BAF@_W@Z 000000018001b520 f i libucrtd:dbgrpt.obj
 0001:0001a540       ??$tcslen@AEBQEBD@?$__crt_char_traits@D@@SA_KAEBQEBD@Z 000000018001b540 f i libucrtd:dbgrpt.obj
 0001:0001a560       ??$tcslen@AEBQEB_W@?$__crt_char_traits@_W@@SA_KAEBQEB_W@Z 000000018001b560 f i libucrtd:dbgrpt.obj
 0001:0001a5c0       _CrtDbgReport              000000018001b5c0 f   libucrtd:dbgrpt.obj
 0001:0001a640       _CrtDbgReportW             000000018001b640 f   libucrtd:dbgrpt.obj
 0001:0001a6c0       __acrt_MessageWindowA      000000018001b6c0 f   libucrtd:dbgrpt.obj
 0001:0001a710       __acrt_MessageWindowW      000000018001b710 f   libucrtd:dbgrpt.obj
 0001:0001a760       _snwprintf_s               000000018001b760 f i libucrtd:dbgrpt.obj
 0001:0001a7d0       _vsnwprintf_s_l            000000018001b7d0 f i libucrtd:dbgrpt.obj
 0001:0001a850       wcsncmp                    000000018001b850 f   libucrtd:wcsncmp.obj
 0001:0001a8e0       free                       000000018001b8e0 f   libucrtd:free.obj
 0001:0001a910       malloc                     000000018001b910 f   libucrtd:malloc.obj
 0001:0001a940       _fd_int                    000000018001b940 f   libucrtd:_test.obj
 0001:0001ad40       _handle_error              000000018001bd40 f   libucrtd:libm_error.obj
 0001:0001aed0       _handle_errorf             000000018001bed0 f   libucrtd:libm_error.obj
 0001:0001b060       _handle_nan                000000018001c060 f   libucrtd:libm_error.obj
 0001:0001b0b0       _handle_nanf               000000018001c0b0 f   libucrtd:libm_error.obj
 0001:0001b330       ??0__crt_scoped_get_last_error_reset@@QEAA@XZ 000000018001c330 f i libucrtd:per_thread_data.obj
 0001:0001b350       ??1__crt_scoped_get_last_error_reset@@QEAA@XZ 000000018001c350 f i libucrtd:per_thread_data.obj
 0001:0001b750       ?get_current_state_index@__crt_state_management@@YA_KAEBV__crt_scoped_get_last_error_reset@@@Z 000000018001c750 f i libucrtd:per_thread_data.obj
 0001:0001ba00       ?value@?$dual_state_global@P6AXH@Z@__crt_state_management@@QEAAAEAP6AXH@ZXZ 000000018001ca00 f i libucrtd:signal.obj
 0001:0001ba00       ?value@?$dual_state_global@PEAE@__crt_state_management@@QEAAAEAPEAEXZ 000000018001ca00 f i libucrtd:mbctype.obj
 0001:0001ba00       ?value@?$dual_state_global@P6AHPEAU_exception@@@Z@__crt_state_management@@QEAAAEAP6AHPEAU_exception@@@ZXZ 000000018001ca00 f i libucrtd:matherr.obj
 0001:0001ba00       ?value@?$dual_state_global@P6AH_K@Z@__crt_state_management@@QEAAAEAP6AH_K@ZXZ 000000018001ca00 f i libucrtd:new_handler.obj
 0001:0001ba00       ?value@?$dual_state_global@PEAU__crt_multibyte_data@@@__crt_state_management@@QEAAAEAPEAU__crt_multibyte_data@@XZ 000000018001ca00 f i libucrtd:mbctype.obj
 0001:0001ba00       ?value@?$dual_state_global@P6AXPEB_W00I_K@Z@__crt_state_management@@QEAAAEAP6AXPEB_W00I_K@ZXZ 000000018001ca00 f i libucrtd:invalid_parameter.obj
 0001:0001ba00       ?value@?$dual_state_global@PEAU__crt_locale_data@@@__crt_state_management@@QEAAAEAPEAU__crt_locale_data@@XZ 000000018001ca00 f i libucrtd:per_thread_data.obj
 0001:0001ba20       __acrt_freeptd             000000018001ca20 f   libucrtd:per_thread_data.obj
 0001:0001ba60       __acrt_getptd              000000018001ca60 f   libucrtd:per_thread_data.obj
 0001:0001ba90       __acrt_getptd_head         000000018001ca90 f   libucrtd:per_thread_data.obj
 0001:0001bac0       __acrt_getptd_noexit       000000018001cac0 f   libucrtd:per_thread_data.obj
 0001:0001bad0       __acrt_initialize_ptd      000000018001cad0 f   libucrtd:per_thread_data.obj
 0001:0001bb10       __acrt_uninitialize_ptd    000000018001cb10 f   libucrtd:per_thread_data.obj
 0001:0001bb40       __acrt_initialize_locks    000000018001cb40 f   libucrtd:locks.obj
 0001:0001bbb0       __acrt_lock                000000018001cbb0 f   libucrtd:locks.obj
 0001:0001bbe0       __acrt_uninitialize_locks  000000018001cbe0 f   libucrtd:locks.obj
 0001:0001bc40       __acrt_unlock              000000018001cc40 f   libucrtd:locks.obj
 0001:0001bf50       __acrt_get_developer_information_policy 000000018001cf50 f   libucrtd:win_policies.obj
 0001:0001bf70       __acrt_get_process_end_policy 000000018001cf70 f   libucrtd:win_policies.obj
 0001:0001bf80       __acrt_get_windowing_model_policy 000000018001cf80 f   libucrtd:win_policies.obj
 0001:0001bfa0       ??$initialize_from_array@$$BY00Q6AXPEB_W00I_K@Z@?$dual_state_global@P6AXPEB_W00I_K@Z@__crt_state_management@@QEAAXAEAY00Q6AXPEB_W00I_K@Z@Z 000000018001cfa0 f i libucrtd:invalid_parameter.obj
 0001:0001c000       __acrt_call_reportfault    000000018001d000 f   libucrtd:invalid_parameter.obj
 0001:0001c130       __acrt_initialize_invalid_parameter_handler 000000018001d130 f   libucrtd:invalid_parameter.obj
 0001:0001c160       _invalid_parameter         000000018001d160 f   libucrtd:invalid_parameter.obj
 0001:0001c260       _invalid_parameter_noinfo  000000018001d260 f   libucrtd:invalid_parameter.obj
 0001:0001c290       _invoke_watson             000000018001d290 f   libucrtd:invalid_parameter.obj
 0001:0001c2f0       __acrt_errno_from_os_error 000000018001d2f0 f   libucrtd:errno.obj
 0001:0001c380       __acrt_errno_map_os_error  000000018001d380 f   libucrtd:errno.obj
 0001:0001c3b0       __doserrno                 000000018001d3b0 f   libucrtd:errno.obj
 0001:0001c3e0       _errno                     000000018001d3e0 f   libucrtd:errno.obj
 0001:0001c780       ??$__acrt_mbs_to_wcs_cp@U__crt_win32_buffer_internal_dynamic_resizing@@@@YAHQEBDAEAV?$__crt_win32_buffer@_WU__crt_win32_buffer_internal_dynamic_resizing@@@@I@Z 000000018001d780 f i libucrtd:argv_wildcards.obj
 0001:0001c7d0       ??$__acrt_wcs_to_mbs_cp@U__crt_win32_buffer_internal_dynamic_resizing@@@@YAHQEB_WAEAV?$__crt_win32_buffer@DU__crt_win32_buffer_internal_dynamic_resizing@@@@I@Z 000000018001d7d0 f i libucrtd:argv_wildcards.obj
 0001:0001d220       ??$tcsncpy_s@PEAD_KAEBQEBDAEB_K@?$__crt_char_traits@D@@SAH$$QEAPEAD$$QEA_KAEBQEBDAEB_K@Z 000000018001e220 f i libucrtd:argv_wildcards.obj
 0001:0001d220       ??$tcsncpy_s@PEADAEB_KAEBQEBDAEB_K@?$__crt_char_traits@D@@SAH$$QEAPEADAEB_KAEBQEBD1@Z 000000018001e220 f i libucrtd:argv_wildcards.obj
 0001:0001d220       ??$tcsncpy_s@AEAPEAD_KAEAPEADAEB_K@?$__crt_char_traits@D@@SAHAEAPEAD$$QEA_K0AEB_K@Z 000000018001e220 f i libucrtd:argv_wildcards.obj
 0001:0001d270       ??$tcspbrk@AEAPEADAEAY02$$CBD@?$__crt_char_traits@D@@SAPEADAEAPEADAEAY02$$CBD@Z 000000018001e270 f i libucrtd:argv_wildcards.obj
 0001:0001d2a0       ??0?$__crt_win32_buffer@DU__crt_win32_buffer_internal_dynamic_resizing@@@@QEAA@XZ 000000018001e2a0 f i libucrtd:argv_wildcards.obj
 0001:0001d2a0       ??0?$__crt_win32_buffer@_WU__crt_win32_buffer_internal_dynamic_resizing@@@@QEAA@XZ 000000018001e2a0 f i libucrtd:argv_wildcards.obj
 0001:0001d340       ??1?$__crt_unique_handle_t@U__crt_findfile_traits@@@@QEAA@XZ 000000018001e340 f i libucrtd:argv_wildcards.obj
 0001:0001d360       ??1?$__crt_win32_buffer@_WU__crt_win32_buffer_internal_dynamic_resizing@@@@QEAA@XZ 000000018001e360 f i libucrtd:argv_wildcards.obj
 0001:0001d360       ??1?$__crt_win32_buffer@DU__crt_win32_buffer_internal_dynamic_resizing@@@@QEAA@XZ 000000018001e360 f i libucrtd:argv_wildcards.obj
 0001:0001d550       ?__acrt_get_utf8_acp_compatibility_codepage@@YAIXZ 000000018001e550 f i libucrtd:argv_wildcards.obj
 0001:0001d5f0       ?_deallocate@?$__crt_win32_buffer@_WU__crt_win32_buffer_internal_dynamic_resizing@@@@AEAAXXZ 000000018001e5f0 f i libucrtd:argv_wildcards.obj
 0001:0001d5f0       ?_deallocate@?$__crt_win32_buffer@DU__crt_win32_buffer_internal_dynamic_resizing@@@@AEAAXXZ 000000018001e5f0 f i libucrtd:argv_wildcards.obj
 0001:0001d630       ?allocate@?$__crt_win32_buffer@DU__crt_win32_buffer_internal_dynamic_resizing@@@@QEAAH_K@Z 000000018001e630 f i libucrtd:argv_wildcards.obj
 0001:0001d6b0       ?allocate@?$__crt_win32_buffer@_WU__crt_win32_buffer_internal_dynamic_resizing@@@@QEAAH_K@Z 000000018001e6b0 f i libucrtd:argv_wildcards.obj
 0001:0001d740       ?allocate@__crt_win32_buffer_internal_dynamic_resizing@@SAHQEAPEAX_KAEBV__crt_win32_buffer_empty_debug_info@@@Z 000000018001e740 f i libucrtd:argv_wildcards.obj
 0001:0001d810       ?capacity@?$__crt_win32_buffer@DU__crt_win32_buffer_no_resizing@@@@QEBA_KXZ 000000018001e810 f i libucrtd:getmodulefilenamea.obj
 0001:0001d810       ?capacity@?$__crt_win32_buffer@_WU__crt_win32_buffer_internal_dynamic_resizing@@@@QEBA_KXZ 000000018001e810 f i libucrtd:argv_wildcards.obj
 0001:0001d810       ?capacity@?$__crt_win32_buffer@DU__crt_win32_buffer_internal_dynamic_resizing@@@@QEBA_KXZ 000000018001e810 f i libucrtd:argv_wildcards.obj
 0001:0001d820       ?close@?$__crt_unique_handle_t@U__crt_findfile_traits@@@@QEAAXXZ 000000018001e820 f i libucrtd:argv_wildcards.obj
 0001:0001d860       ?close@__crt_findfile_traits@@SA_NPEAX@Z 000000018001e860 f i libucrtd:argv_wildcards.obj
 0001:0001d8a0       ?data@?$__crt_win32_buffer@_WU__crt_win32_buffer_internal_dynamic_resizing@@@@QEAAPEA_WXZ 000000018001e8a0 f i libucrtd:argv_wildcards.obj
 0001:0001d8a0       ?data@?$__crt_win32_buffer@DU__crt_win32_buffer_internal_dynamic_resizing@@@@QEAAPEADXZ 000000018001e8a0 f i libucrtd:argv_wildcards.obj
 0001:0001d8a0       ?data@?$__crt_win32_buffer@DU__crt_win32_buffer_no_resizing@@@@QEAAPEADXZ 000000018001e8a0 f i libucrtd:getmodulefilenamea.obj
 0001:0001d8b0       ?deallocate@__crt_win32_buffer_internal_dynamic_resizing@@SAXQEAXAEBV__crt_win32_buffer_empty_debug_info@@@Z 000000018001e8b0 f i libucrtd:argv_wildcards.obj
 0001:0001dba0       ?set_to_nullptr@?$__crt_win32_buffer@DU__crt_win32_buffer_internal_dynamic_resizing@@@@QEAAXXZ 000000018001eba0 f i libucrtd:argv_wildcards.obj
 0001:0001dba0       ?set_to_nullptr@?$__crt_win32_buffer@_WU__crt_win32_buffer_internal_dynamic_resizing@@@@QEAAXXZ 000000018001eba0 f i libucrtd:argv_wildcards.obj
 0001:0001dbe0       ?size@?$__crt_win32_buffer@DU__crt_win32_buffer_internal_dynamic_resizing@@@@QEAAX_K@Z 000000018001ebe0 f i libucrtd:argv_wildcards.obj
 0001:0001dbe0       ?size@?$__crt_win32_buffer@_WU__crt_win32_buffer_internal_dynamic_resizing@@@@QEAAX_K@Z 000000018001ebe0 f i libucrtd:argv_wildcards.obj
 0001:0001dbe0       ?size@?$__crt_win32_buffer@DU__crt_win32_buffer_no_resizing@@@@QEAAX_K@Z 000000018001ebe0 f i libucrtd:getmodulefilenamea.obj
 0001:0001dc20       ?strpbrk@@YAPEADQEADQEBD@Z 000000018001ec20 f i libucrtd:argv_wildcards.obj
 0001:0001dc50       __acrt_expand_narrow_argv_wildcards 000000018001ec50 f   libucrtd:argv_wildcards.obj
 0001:0001de20       ??$__acrt_wcs_to_mbs_cp@U__crt_win32_buffer_no_resizing@@@@YAHQEB_WAEAV?$__crt_win32_buffer@DU__crt_win32_buffer_no_resizing@@@@I@Z 000000018001ee20 f i libucrtd:getmodulefilenamea.obj
 0001:0001de70       ??0?$__crt_win32_buffer@DU__crt_win32_buffer_no_resizing@@@@QEAA@QEAD_K@Z 000000018001ee70 f i libucrtd:getmodulefilenamea.obj
 0001:0001dee0       ??1?$__crt_win32_buffer@DU__crt_win32_buffer_no_resizing@@@@QEAA@XZ 000000018001eee0 f i libucrtd:getmodulefilenamea.obj
 0001:0001df10       ?_deallocate@?$__crt_win32_buffer@DU__crt_win32_buffer_no_resizing@@@@AEAAXXZ 000000018001ef10 f i libucrtd:getmodulefilenamea.obj
 0001:0001df50       ?allocate@?$__crt_win32_buffer@DU__crt_win32_buffer_no_resizing@@@@QEAAH_K@Z 000000018001ef50 f i libucrtd:getmodulefilenamea.obj
 0001:0001dfd0       ?allocate@__crt_win32_buffer_no_resizing@@SAHQEAPEAX_KAEBV__crt_win32_buffer_empty_debug_info@@@Z 000000018001efd0 f i libucrtd:getmodulefilenamea.obj
 0001:0001e000       ?deallocate@__crt_win32_buffer_no_resizing@@SAXQEAXAEBV__crt_win32_buffer_empty_debug_info@@@Z 000000018001f000 f i libucrtd:getmodulefilenamea.obj
 0001:0001e010       ?set_to_nullptr@?$__crt_win32_buffer@DU__crt_win32_buffer_no_resizing@@@@QEAAXXZ 000000018001f010 f i libucrtd:getmodulefilenamea.obj
 0001:0001e050       ?size@?$__crt_win32_buffer@DU__crt_win32_buffer_no_resizing@@@@QEBA_KXZ 000000018001f050 f i libucrtd:getmodulefilenamea.obj
 0001:0001e060       __acrt_GetModuleFileNameA  000000018001f060 f   libucrtd:getmodulefilenamea.obj
 0001:0001e1d0       ??$initialize_from_array@$$BY10BAA@E@?$dual_state_global@PEAE@__crt_state_management@@QEAAXAEAY10BAA@E@Z 000000018001f1d0 f i libucrtd:mbctype.obj
 0001:0001e240       ??$initialize_from_array@$$BY10BAB@E@?$dual_state_global@PEAE@__crt_state_management@@QEAAXAEAY10BAB@E@Z 000000018001f240 f i libucrtd:mbctype.obj
 0001:0001edb0       __acrt_initialize_multibyte 000000018001fdb0 f   libucrtd:mbctype.obj
 0001:0001ee80       __acrt_should_sync_with_global_locale 000000018001fe80 f i libucrtd:mbctype.obj
 0001:0001eec0       __acrt_update_thread_multibyte_data 000000018001fec0 f   libucrtd:mbctype.obj
 0001:0001eef0       _setmbcp_nolock            000000018001fef0 f   libucrtd:mbctype.obj
 0001:0001f594       _ismbblead                 0000000180020594 f   libucrtd:ismbbyte.obj
 0001:0001f5b0       __acrt_initialize_command_line 00000001800205b0 f   libucrtd:argv_data.obj
 0001:0001fac0       wcscpy_s                   0000000180020ac0 f   libucrtd:wcscpy_s.obj
 0001:0001fb90       __acrt_MultiByteToWideChar 0000000180020b90 f   libucrtd:multibytetowidechar.obj
 0001:0001fc90       __acrt_WideCharToMultiByte 0000000180020c90 f   libucrtd:widechartomultibyte.obj
 0001:0001fdc0       __dcrt_get_narrow_environment_from_os 0000000180020dc0 f   libucrtd:get_environment_from_os.obj
 0001:00020650       GetCurrentThreadEffectiveToken 0000000180021650 f i libucrtd:winapi_thunks.obj
 0001:00020660       __acrt_AppPolicyGetProcessTerminationMethodInternal 0000000180021660 f   libucrtd:winapi_thunks.obj
 0001:000206b0       __acrt_AppPolicyGetShowDeveloperDiagnosticInternal 00000001800216b0 f   libucrtd:winapi_thunks.obj
 0001:00020700       __acrt_AppPolicyGetWindowingModelInternal 0000000180021700 f   libucrtd:winapi_thunks.obj
 0001:00020750       __acrt_AreFileApisANSI     0000000180021750 f   libucrtd:winapi_thunks.obj
 0001:00020790       __acrt_FlsAlloc            0000000180021790 f   libucrtd:winapi_thunks.obj
 0001:000207e0       __acrt_FlsFree             00000001800217e0 f   libucrtd:winapi_thunks.obj
 0001:00020830       __acrt_FlsGetValue         0000000180021830 f   libucrtd:winapi_thunks.obj
 0001:00020880       __acrt_FlsSetValue         0000000180021880 f   libucrtd:winapi_thunks.obj
 0001:000208e0       __acrt_InitializeCriticalSectionEx 00000001800218e0 f   libucrtd:winapi_thunks.obj
 0001:00020940       __acrt_LCMapStringEx       0000000180021940 f   libucrtd:winapi_thunks.obj
 0001:00020a20       __acrt_LocaleNameToLCID    0000000180021a20 f   libucrtd:winapi_thunks.obj
 0001:00020a70       __acrt_MessageBoxW         0000000180021a70 f   libucrtd:winapi_thunks.obj
 0001:00020ad0       __acrt_can_show_message_box 0000000180021ad0 f   libucrtd:winapi_thunks.obj
 0001:00020b10       __acrt_get_parent_window   0000000180021b10 f   libucrtd:winapi_thunks.obj
 0001:00020b90       __acrt_initialize_winapi_thunks 0000000180021b90 f   libucrtd:winapi_thunks.obj
 0001:00020c10       __acrt_is_interactive      0000000180021c10 f   libucrtd:winapi_thunks.obj
 0001:00020cf0       __acrt_uninitialize_winapi_thunks 0000000180021cf0 f   libucrtd:winapi_thunks.obj
 0001:00020d90       __acrt_initialize_heap     0000000180021d90 f   libucrtd:heap_handle.obj
 0001:00020dc0       __acrt_uninitialize_heap   0000000180021dc0 f   libucrtd:heap_handle.obj
 0001:00021180       __acrt_initialize_lowio    0000000180022180 f   libucrtd:ioinit.obj
 0001:000211d0       __acrt_uninitialize_lowio  00000001800221d0 f   libucrtd:ioinit.obj
 0001:00021250       __acrt_execute_initializers 0000000180022250 f   libucrtd:shared_initialization.obj
 0001:00021340       __acrt_execute_uninitializers 0000000180022340 f   libucrtd:shared_initialization.obj
 0001:000213c0       __acrt_initialize_new_handler 00000001800223c0 f   libucrtd:new_handler.obj
 0001:000213e0       _callnewh                  00000001800223e0 f   libucrtd:new_handler.obj
 0001:00021430       _query_new_handler         0000000180022430 f   libucrtd:new_handler.obj
 0001:00021630       __acrt_get_sigabrt_handler 0000000180022630 f   libucrtd:signal.obj
 0001:00021660       __acrt_initialize_signal_handlers 0000000180022660 f   libucrtd:signal.obj
 0001:000216c0       __fpecode                  00000001800226c0 f   libucrtd:signal.obj
 0001:000216e0       raise                      00000001800226e0 f   libucrtd:signal.obj
 0001:00021ba0       __acrt_has_user_matherr    0000000180022ba0 f   libucrtd:matherr.obj
 0001:00021be0       __acrt_initialize_user_matherr 0000000180022be0 f   libucrtd:matherr.obj
 0001:00021c00       __acrt_invoke_user_matherr 0000000180022c00 f   libucrtd:matherr.obj
 0001:00021c50       ?has_any_of@__crt_stdio_stream@@QEBA_NJ@Z 0000000180022c50 f i libucrtd:_sftbuf.obj
 0001:00021c90       ?set_flags@__crt_stdio_stream@@QEBA_NJ@Z 0000000180022c90 f i libucrtd:_sftbuf.obj
 0001:00021d00       ?unset_flags@__crt_stdio_stream@@QEBA_NJ@Z 0000000180022d00 f i libucrtd:_sftbuf.obj
 0001:00021d60       _chvalidator_l             0000000180022d60 f   libucrtd:isctype.obj
 0001:00021e10       _isctype_l                 0000000180022e10 f   libucrtd:isctype.obj
 0001:00022040       _isleadbyte_fast_internal  0000000180023040 f i libucrtd:isctype.obj
 0001:00022080       _free_base                 0000000180023080 f   libucrtd:free_base.obj
 0001:000220e0       _realloc_base              00000001800230e0 f   libucrtd:realloc_base.obj
 0001:00022200       _expand_base               0000000180023200 f   libucrtd:expand.obj
 0001:00022390       __acrt_update_locale_info  0000000180023390 f   libucrtd:locale_update.obj
 0001:000223e0       __acrt_update_multibyte_info 00000001800233e0 f   libucrtd:locale_update.obj
 0001:00022430       ?value@?$dual_state_global@J@__crt_state_management@@QEAAAEAJXZ 0000000180023430 f i libucrtd:new_mode.obj
 0001:00022450       _query_new_mode            0000000180023450 f   libucrtd:new_mode.obj
 0001:00022470       _CrtDefaultAllocHook       0000000180023470 f   libucrtd:debug_heap_hook.obj
 0001:000225f0       __acrt_set_locale_changed  00000001800235f0 f   libucrtd:wsetlocale.obj
 0001:00022600       __acrt_uninitialize_locale 0000000180023600 f   libucrtd:wsetlocale.obj
 0001:00022630       __ascii_tolower            0000000180023630 f i libucrtd:wsetlocale.obj
 0001:00022650       __ascii_towlower           0000000180023650 f i libucrtd:wsetlocale.obj
 0001:00022670       _CrtGetDebugFillThreshold  0000000180023670 f   libucrtd:debug_fill_threshold.obj
 0001:00022850       __acrt_report_runtime_error 0000000180023850 f   libucrtd:report_runtime_error.obj
 0001:00022ad0       _query_app_type            0000000180023ad0 f   libucrtd:report_runtime_error.obj
 0001:00022ae0       ??$make_c_string_character_source@_WPEAPEA_W@__crt_strtox@@YA?AV?$c_string_character_source@_W@0@QEB_WQEAPEA_W@Z 0000000180023ae0 f i libucrtd:strtox.obj
 0001:00022ae0       ??$make_c_string_character_source@DPEAPEAD@__crt_strtox@@YA?AV?$c_string_character_source@D@0@QEBDQEAPEAD@Z 0000000180023ae0 f i libucrtd:strtox.obj
 0001:00022b20       ??$parse_integer_from_string@JDPEAPEAD@__crt_strtox@@YAJQEBDQEAPEADHQEAU__crt_locale_pointers@@@Z 0000000180023b20 f i libucrtd:strtox.obj
 0001:00022b70       ??$parse_integer_from_string@J_WPEAPEA_W@__crt_strtox@@YAJQEB_WQEAPEA_WHQEAU__crt_locale_pointers@@@Z 0000000180023b70 f i libucrtd:strtox.obj
 0001:00022bc0       strtol                     0000000180023bc0 f   libucrtd:strtox.obj
 0001:00022bf0       wcstol                     0000000180023bf0 f   libucrtd:strtox.obj
 0001:00022c20       _mbtowc_l                  0000000180023c20 f   libucrtd:mbtowc.obj
 0001:00023080       mbtowc                     0000000180024080 f   libucrtd:mbtowc.obj
 0001:000230b0       _wctomb_s_l                00000001800240b0 f   libucrtd:wctomb.obj
 0001:00024990       ??1?$__crt_simd_cleanup_guard@$00@@QEAA@XZ 0000000180025990 f i libucrtd:strnlen.obj
 0001:000249a0       ?compare_equals@?$__crt_simd_traits@$00E@@SA?AT__m256i@@T2@0@Z 00000001800259a0 f i libucrtd:strnlen.obj
 0001:000249e0       ?compare_equals@?$__crt_simd_traits@$00G@@SA?AT__m256i@@T2@0@Z 00000001800259e0 f i libucrtd:strnlen.obj
 0001:00024a20       ?compare_equals@?$__crt_simd_traits@$0A@E@@SA?AT__m128i@@T2@0@Z 0000000180025a20 f i libucrtd:strnlen.obj
 0001:00024a50       ?compare_equals@?$__crt_simd_traits@$0A@G@@SA?AT__m128i@@T2@0@Z 0000000180025a50 f i libucrtd:strnlen.obj
 0001:00024a80       ?compute_byte_mask@?$__crt_simd_pack_traits@$00@@SAHT__m256i@@@Z 0000000180025a80 f i libucrtd:strnlen.obj
 0001:00024aa0       ?compute_byte_mask@?$__crt_simd_pack_traits@$0A@@@SAHT__m128i@@@Z 0000000180025aa0 f i libucrtd:strnlen.obj
 0001:00024ac0       ?get_zero_pack@?$__crt_simd_pack_traits@$00@@SA?AT__m256i@@XZ 0000000180025ac0 f i libucrtd:strnlen.obj
 0001:00024af0       ?get_zero_pack@?$__crt_simd_pack_traits@$0A@@@SA?AT__m128i@@XZ 0000000180025af0 f i libucrtd:strnlen.obj
 0001:00024b10       strnlen                    0000000180025b10 f   libucrtd:strnlen.obj
 0001:00024b40       wcslen                     0000000180025b40 f   libucrtd:strnlen.obj
 0001:00024b60       wcsnlen                    0000000180025b60 f   libucrtd:strnlen.obj
 0001:00024b90       ?__acrt_fp_classify@@YA?AW4__acrt_fp_class@@AEBN@Z 0000000180025b90 f i libucrtd:cvt.obj
 0001:00024c90       ?__acrt_fp_is_negative@@YA_NAEBN@Z 0000000180025c90 f i libucrtd:cvt.obj
 0001:00026650       ?strrchr@@YAPEADQEADH@Z    0000000180027650 f i libucrtd:cvt.obj
 0001:00026670       __acrt_fp_format           0000000180027670 f   libucrtd:cvt.obj
 0001:00026c80       ?lowio_handle@__crt_stdio_stream@@QEBAHXZ 0000000180027c80 f i libucrtd:fileno.obj
 0001:00026cb0       _fileno                    0000000180027cb0 f   libucrtd:fileno.obj
 0001:00026d90       __acrt_initialize_stdio    0000000180027d90 f   libucrtd:_file.obj
 0001:00026f80       __acrt_uninitialize_stdio  0000000180027f80 f   libucrtd:_file.obj
 0001:00027010       _lock_file                 0000000180028010 f   libucrtd:_file.obj
 0001:00027050       _unlock_file               0000000180028050 f   libucrtd:_file.obj
 0001:00027090       _get_printf_count_output   0000000180028090 f   libucrtd:printf_count_output.obj
 0001:000270c0       iswctype                   00000001800280c0 f   libucrtd:iswctype.obj
 0001:00027150       _VCrtDbgReportA            0000000180028150 f   libucrtd:dbgrptt.obj
 0001:00027b30       _VCrtDbgReportW            0000000180028b30 f   libucrtd:dbgrptt.obj
 0001:000286b0       _snprintf_s                00000001800296b0 f i libucrtd:dbgrptt.obj
 0001:00028720       _vsnprintf_s               0000000180029720 f i libucrtd:dbgrptt.obj
 0001:00028770       _vsnprintf_s_l             0000000180029770 f i libucrtd:dbgrptt.obj
 0001:00028930       ??$message_box@$$TAEBQEB_WAEBQEB_WK@?$__crt_char_traits@_W@@SAH$$QEA$$TAEBQEB_W1$$QEAK@Z 0000000180029930 f i libucrtd:crtmbox.obj
 0001:00028930       ??$message_box@PEAUHWND__@@AEBQEB_WAEBQEB_WAEBI@?$__crt_char_traits@_W@@SAH$$QEAPEAUHWND__@@AEBQEB_W1AEBI@Z 0000000180029930 f i libucrtd:crtmbox.obj
 0001:00028980       ??$output_debug_string@AEBQEB_W@?$__crt_char_traits@_W@@SAXAEBQEB_W@Z 0000000180029980 f i libucrtd:crtmbox.obj
 0001:000289a0       __acrt_show_wide_message_box 00000001800299a0 f   libucrtd:crtmbox.obj
 0001:000289d0       ??I@YA?AW4__acrt_fenv_abstract_control@@W40@0@Z 00000001800299d0 f i libucrtd:_fenvutils.obj
 0001:000289d0       ??I@YA?AW4__acrt_fenv_machine_sse_status@@W40@0@Z 00000001800299d0 f i libucrtd:_fenvutils.obj
 0001:000289d0       ??I@YA?AW4__acrt_fenv_abstract_status@@W40@0@Z 00000001800299d0 f i libucrtd:fesetexceptflag.obj
 0001:000289f0       ??_5@YAAEAW4__acrt_fenv_abstract_control@@AEAW40@W40@@Z 00000001800299f0 f i libucrtd:_fenvutils.obj
 0001:000289f0       ??_5@YAAEAW4__acrt_fenv_machine_sse_status@@AEAW40@W40@@Z 00000001800299f0 f i libucrtd:_fenvutils.obj
 0001:000289f0       ??_5@YAAEAW4__acrt_fenv_abstract_status@@AEAW40@W40@@Z 00000001800299f0 f i libucrtd:fesetexceptflag.obj
 0001:00028a20       ??$__acrt_fenv_shift_bits@W4__acrt_fenv_abstract_status@@@@YA?AW4__acrt_fenv_abstract_status@@W40@0I@Z 0000000180029a20 f i libucrtd:_fenvutils.obj
 0001:00028a20       ??$__acrt_fenv_shift_bits@W4__acrt_fenv_abstract_control@@@@YA?AW4__acrt_fenv_abstract_control@@W40@0I@Z 0000000180029a20 f i libucrtd:_fenvutils.obj
 0001:00028a50       ??$__acrt_fenv_translate_bit@W4__acrt_fenv_abstract_control@@W4__acrt_fenv_machine_sse_control@@@@YA?AW4__acrt_fenv_abstract_control@@W4__acrt_fenv_machine_sse_control@@0W40@1@Z 0000000180029a50 f i libucrtd:_fenvutils.obj
 0001:00028ab0       ??$__acrt_fenv_translate_bit@W4__acrt_fenv_abstract_status@@W4__acrt_fenv_machine_sse_status@@@@YA?AW4__acrt_fenv_abstract_status@@W4__acrt_fenv_machine_sse_status@@0W40@1@Z 0000000180029ab0 f i libucrtd:_fenvutils.obj
 0001:00028ab0       ??$__acrt_fenv_translate_bit@W4__acrt_fenv_machine_sse_status@@W4__acrt_fenv_abstract_status@@@@YA?AW4__acrt_fenv_machine_sse_status@@W4__acrt_fenv_abstract_status@@0W40@1@Z 0000000180029ab0 f i libucrtd:_fenvutils.obj
 0001:00028b00       ??$__acrt_fenv_translate_bit@W4__acrt_fenv_machine_sse_control@@W4__acrt_fenv_abstract_control@@@@YA?AW4__acrt_fenv_machine_sse_control@@W4__acrt_fenv_abstract_control@@0W40@1@Z 0000000180029b00 f i libucrtd:_fenvutils.obj
 0001:00028b60       ??$__acrt_fenv_unshift_bits@W4__acrt_fenv_abstract_status@@@@YA?AW4__acrt_fenv_abstract_status@@W40@0I@Z 0000000180029b60 f i libucrtd:_fenvutils.obj
 0001:00028b60       ??$__acrt_fenv_unshift_bits@W4__acrt_fenv_abstract_control@@@@YA?AW4__acrt_fenv_abstract_control@@W40@0I@Z 0000000180029b60 f i libucrtd:_fenvutils.obj
 0001:00029050       ??I@YA?AW4__acrt_fenv_machine_sse_control@@W40@0@Z 000000018002a050 f i libucrtd:_fenvutils.obj
 0001:00029070       ??U@YA?AW4__acrt_fenv_abstract_status@@W40@0@Z 000000018002a070 f i libucrtd:_fenvutils.obj
 0001:00029070       ??U@YA?AW4__acrt_fenv_abstract_control@@W40@0@Z 000000018002a070 f i libucrtd:_fenvutils.obj
 0001:00029090       ??U@YA?AW4__acrt_fenv_machine_sse_control@@W40@0@Z 000000018002a090 f i libucrtd:_fenvutils.obj
 0001:000290b0       ??_5@YAAEAW4__acrt_fenv_machine_sse_control@@AEAW40@W40@@Z 000000018002a0b0 f i libucrtd:_fenvutils.obj
 0001:000290e0       ?__acrt_fenv_shift_abstract_sse_control@@YA?AW4__acrt_fenv_abstract_control@@W41@@Z 000000018002a0e0 f i libucrtd:_fenvutils.obj
 0001:00029130       ?__acrt_fenv_shift_abstract_sse_status@@YA?AW4__acrt_fenv_abstract_status@@W41@@Z 000000018002a130 f i libucrtd:_fenvutils.obj
 0001:00029160       ?__acrt_fenv_unshift_abstract_sse_control@@YA?AW4__acrt_fenv_abstract_control@@W41@@Z 000000018002a160 f i libucrtd:_fenvutils.obj
 0001:000291b0       ?__acrt_fenv_unshift_abstract_sse_status@@YA?AW4__acrt_fenv_abstract_status@@W41@@Z 000000018002a1b0 f i libucrtd:_fenvutils.obj
 0001:00029480       __acrt_fenv_get_common_round_control 000000018002a480 f   libucrtd:_fenvutils.obj
 0001:000294a0       __acrt_fenv_get_control    000000018002a4a0 f   libucrtd:_fenvutils.obj
 0001:000294d0       __acrt_fenv_get_status     000000018002a4d0 f   libucrtd:_fenvutils.obj
 0001:00029500       __acrt_fenv_set_control    000000018002a500 f   libucrtd:_fenvutils.obj
 0001:00029520       __acrt_fenv_set_status     000000018002a520 f   libucrtd:_fenvutils.obj
 0001:00029540       _raise_exc                 000000018002a540 f   libucrtd:fpexcept.obj
 0001:000295a0       _raise_exc_ex              000000018002a5a0 f   libucrtd:fpexcept.obj
 0001:00029c20       _raise_excf                000000018002ac20 f   libucrtd:fpexcept.obj
 0001:00029c80       _set_errno_from_matherr    000000018002ac80 f   libucrtd:fpexcept.obj
 0001:00029cd0       _clrfp                     000000018002acd0 f   libucrtd:fpctrl.obj
 0001:00029d00       _ctrlfp                    000000018002ad00 f   libucrtd:fpctrl.obj
 0001:00029db0       _set_statfp                000000018002adb0 f   libucrtd:fpctrl.obj
 0001:00029df0       _statfp                    000000018002adf0 f   libucrtd:fpctrl.obj
 0001:00029e20       __acrt_add_locale_ref      000000018002ae20 f   libucrtd:locale_refcounting.obj
 0001:00029f80       __acrt_free_locale         000000018002af80 f   libucrtd:locale_refcounting.obj
 0001:0002a300       __acrt_locale_add_lc_time_reference 000000018002b300 f   libucrtd:locale_refcounting.obj
 0001:0002a340       __acrt_locale_free_lc_time_if_unreferenced 000000018002b340 f   libucrtd:locale_refcounting.obj
 0001:0002a3a0       __acrt_locale_release_lc_time_reference 000000018002b3a0 f   libucrtd:locale_refcounting.obj
 0001:0002a3e0       __acrt_release_locale_ref  000000018002b3e0 f   libucrtd:locale_refcounting.obj
 0001:0002a550       __acrt_update_thread_locale_data 000000018002b550 f   libucrtd:locale_refcounting.obj
 0001:0002a5f0       _updatetlocinfoEx_nolock   000000018002b5f0 f   libucrtd:locale_refcounting.obj
 0001:0002a800       qsort                      000000018002b800 f   libucrtd:qsort.obj
 0001:0002b5b0       wcsncpy_s                  000000018002c5b0 f   libucrtd:wcsncpy_s.obj
 0001:0002bc70       strncpy_s                  000000018002cc70 f   libucrtd:strncpy_s.obj
 0001:0002bde0       strpbrk                    000000018002cde0 f   libucrtd:strpbrk.obj
 0001:0002c6d0       _mbsdec                    000000018002d6d0 f   libucrtd:mbsdec.obj
 0001:0002c6d8       _mbsdec_l                  000000018002d6d8 f   libucrtd:mbsdec.obj
 0001:0002c7d0       ??1?$__crt_scoped_stack_ptr@_W@@QEAA@XZ 000000018002d7d0 f i libucrtd:getstringtypea.obj
 0001:0002c7f0       _MallocaComputeSize        000000018002d7f0 f i libucrtd:getstringtypea.obj
 0001:0002c830       _MarkAllocaS               000000018002d830 f i libucrtd:getstringtypea.obj
 0001:0002c860       __acrt_GetStringTypeA      000000018002d860 f   libucrtd:getstringtypea.obj
 0001:0002cac0       _freea_crt                 000000018002dac0 f i libucrtd:getstringtypea.obj
 0001:0002d150       __acrt_LCMapStringA        000000018002e150 f   libucrtd:lcmapstringa.obj
 0001:0002d2e0       __acrt_DownlevelLocaleNameToLCID 000000018002e2e0 f   libucrtd:lcidtoname_downlevel.obj
 0001:0002d340       __acrt_lowio_create_handle_array 000000018002e340 f   libucrtd:osfinfo.obj
 0001:0002d500       __acrt_lowio_destroy_handle_array 000000018002e500 f   libucrtd:osfinfo.obj
 0001:0002d580       __acrt_lowio_ensure_fh_exists 000000018002e580 f   libucrtd:osfinfo.obj
 0001:0002d6e0       __acrt_lowio_lock_fh       000000018002e6e0 f   libucrtd:osfinfo.obj
 0001:0002d720       __acrt_lowio_unlock_fh     000000018002e720 f   libucrtd:osfinfo.obj
 0001:0002d760       _free_osfhnd               000000018002e760 f   libucrtd:osfinfo.obj
 0001:0002d890       _get_osfhandle             000000018002e890 f   libucrtd:osfinfo.obj
 0001:0002da90       __pctype_func              000000018002ea90 f   libucrtd:ctype.obj
 0001:0002dad0       _isatty                    000000018002ead0 f   libucrtd:isatty.obj
 0001:0002df50       ?__acrt_stdio_reset_buffer@@YAXV__crt_stdio_stream@@@Z 000000018002ef50 f i libucrtd:fflush.obj
 0001:0002e080       ?has_all_of@__crt_stdio_stream@@QEBA_NJ@Z 000000018002f080 f i libucrtd:fflush.obj
 0001:0002e160       __acrt_stdio_flush_nolock  000000018002f160 f   libucrtd:fflush.obj
 0001:0002e270       _fflush_nolock             000000018002f270 f   libucrtd:fflush.obj
 0001:0002e300       _flushall                  000000018002f300 f   libucrtd:fflush.obj
 0001:0002e310       _malloc_base               000000018002f310 f   libucrtd:malloc_base.obj
 0001:0002e3b0       __acrt_locale_free_monetary 000000018002f3b0 f   libucrtd:initmon.obj
 0001:0002e5c0       __acrt_locale_free_numeric 000000018002f5c0 f   libucrtd:initnum.obj
 0001:0002e760       __acrt_locale_free_time    000000018002f760 f   libucrtd:inittime.obj
 0001:0002ef50       wcscat_s                   000000018002ff50 f   libucrtd:wcscat_s.obj
 0001:0002ef80       _set_error_mode            000000018002ff80 f   libucrtd:set_error_mode.obj
 0001:0002f080       _isleadbyte_l              0000000180030080 f i libucrtd:_wctype.obj
 0001:0002f150       ?__mbrtowc_utf8@__crt_mbstring@@YA_KPEA_WPEBD_KPEAU_Mbstatet@@@Z 0000000180030150 f   libucrtd:mbrtowc.obj
 0001:0002f1c0       ?__mbsrtowcs_utf8@__crt_mbstring@@YA_KPEA_WPEAPEBD_KPEAU_Mbstatet@@@Z 00000001800301c0 f   libucrtd:mbrtowc.obj
 0001:0002f4c0       ?__c32rtomb_utf8@__crt_mbstring@@YA_KPEAD_UPEAU_Mbstatet@@@Z 00000001800304c0 f   libucrtd:c32rtomb.obj
 0001:0002f740       ?reset_and_return@__crt_mbstring@@YA_K_KPEAU_Mbstatet@@@Z 0000000180030740 f i libucrtd:c32rtomb.obj
 0001:0002f780       ?return_illegal_sequence@__crt_mbstring@@YA_KPEAU_Mbstatet@@@Z 0000000180030780 f i libucrtd:c32rtomb.obj
 0001:0002f7c0       c32rtomb                   00000001800307c0 f   libucrtd:c32rtomb.obj
 0001:0002f920       __acrt_fp_strflt_to_string 0000000180030920 f   libucrtd:_fptostr.obj
 0001:00030420       ??0big_integer@__crt_strtox@@QEAA@AEBU01@@Z 0000000180031420 f i libucrtd:cfout.obj
 0001:00030420       ??4big_integer@__crt_strtox@@QEAAAEAU01@AEBU01@@Z 0000000180031420 f i libucrtd:cfout.obj
 0001:00030480       ??0big_integer@__crt_strtox@@QEAA@XZ 0000000180031480 f i libucrtd:cfout.obj
 0001:00030540       ??8__crt_strtox@@YA_NAEBUbig_integer@0@0@Z 0000000180031540 f i libucrtd:cfout.obj
 0001:000305b0       ??9__crt_strtox@@YA_NAEBUbig_integer@0@0@Z 00000001800315b0 f i libucrtd:cfout.obj
 0001:000305f0       ?add_carry@__crt_strtox@@YAIAEAIII@Z 00000001800315f0 f i libucrtd:cfout.obj
 0001:00030640       ?add_multiply_carry@__crt_strtox@@YAIAEAIIII@Z 0000000180031640 f i libucrtd:cfout.obj
 0001:000306a0       ?bit_scan_reverse@__crt_strtox@@YAII@Z 00000001800316a0 f i libucrtd:cfout.obj
 0001:000306e0       ?count_sequential_high_zeroes@__crt_strtox@@YAII@Z 00000001800316e0 f i libucrtd:cfout.obj
 0001:00030720       ?divide@__crt_strtox@@YA_KAEAUbig_integer@1@AEBU21@@Z 0000000180031720 f i libucrtd:cfout.obj
 0001:000310f0       ?is_zero@__crt_strtox@@YA_NAEBUbig_integer@1@@Z 00000001800320f0 f i libucrtd:cfout.obj
 0001:00031120       ?make_big_integer@__crt_strtox@@YA?AUbig_integer@1@_K@Z 0000000180032120 f i libucrtd:cfout.obj
 0001:000311f0       ?make_big_integer_power_of_two@__crt_strtox@@YA?AUbig_integer@1@I@Z 00000001800321f0 f i libucrtd:cfout.obj
 0001:000312c0       ?multiply@__crt_strtox@@YA_NAEAUbig_integer@1@AEBU21@@Z 00000001800322c0 f i libucrtd:cfout.obj
 0001:00031640       ?multiply@__crt_strtox@@YA_NAEAUbig_integer@1@I@Z 0000000180032640 f i libucrtd:cfout.obj
 0001:00031760       ?multiply_64_32@__crt_strtox@@YA_K_KI@Z 0000000180032760 f i libucrtd:cfout.obj
 0001:00031780       ?multiply_by_power_of_ten@__crt_strtox@@YA_NAEAUbig_integer@1@I@Z 0000000180032780 f i libucrtd:cfout.obj
 0001:00031930       ?multiply_core@__crt_strtox@@YAIQEAIII@Z 0000000180032930 f i libucrtd:cfout.obj
 0001:000319b0       ?shift_left@__crt_strtox@@YA_NAEAUbig_integer@1@I@Z 00000001800329b0 f i libucrtd:cfout.obj
 0001:00031c90       __acrt_fltout              0000000180032c90 f   libucrtd:cfout.obj
 0001:00032040       fegetround                 0000000180033040 f   libucrtd:fegetround.obj
 0001:00032060       ?is_in_use@__crt_stdio_stream@@QEBA_NXZ 0000000180033060 f i libucrtd:closeall.obj
 0001:000320a0       _fcloseall                 00000001800330a0 f   libucrtd:closeall.obj
 0001:000321b0       ?has_crt_buffer@__crt_stdio_stream@@QEBA_NXZ 00000001800331b0 f i libucrtd:_freebuf.obj
 0001:000321d0       __acrt_stdio_free_buffer_nolock 00000001800331d0 f   libucrtd:_freebuf.obj
 0001:000322b0       __acrt_GetStringTypeW      00000001800332b0 f   libucrtd:getstringtypew.obj
 0001:00032ee0       _itoa_s                    0000000180033ee0 f   libucrtd:xtoa.obj
 0001:00032f40       _itow_s                    0000000180033f40 f   libucrtd:xtoa.obj
 0001:00033580       _mbstowcs_s_l              0000000180034580 f   libucrtd:mbstowcs.obj
 0001:00033b50       mbstowcs_s                 0000000180034b50 f   libucrtd:mbstowcs.obj
 0001:000344e0       _wcstombs_s_l              00000001800354e0 f   libucrtd:wcstombs.obj
 0001:00034a20       wcstombs_s                 0000000180035a20 f   libucrtd:wcstombs.obj
 0001:000350e0       strcat_s                   00000001800360e0 f   libucrtd:strcat_s.obj
 0001:00035110       __acrt_OutputDebugStringA  0000000180036110 f   libucrtd:outputdebugstringa.obj
 0001:000351e0       _get_fpsr                  00000001800361e0 f   libucrtd:fpsr.obj
 0001:000351f0       _set_fpsr                  00000001800361f0 f   libucrtd:fpsr.obj
 0001:000351fa       _fclrf                     00000001800361fa f   libucrtd:fpsr.obj
 0001:0003520e       _frnd                      000000018003620e f   libucrtd:fpsr.obj
 0001:00035230       __strncnt                  0000000180036230 f   libucrtd:strncnt.obj
 0001:00035290       __ascii_wcsnicmp           0000000180036290 f   libucrtd:wcsnicmp.obj
 0001:00035510       _commit                    0000000180036510 f   libucrtd:commit.obj
 0001:000370f0       _utf8_no_of_trailbytes     00000001800380f0 f i libucrtd:write.obj
 0001:00037110       _write                     0000000180038110 f   libucrtd:write.obj
 0001:000373b0       _write_nolock              00000001800383b0 f   libucrtd:write.obj
 0001:00037980       ?__mbrtoc32_utf8@__crt_mbstring@@YA_KPEA_UPEBD_KPEAU_Mbstatet@@@Z 0000000180038980 f   libucrtd:mbrtoc32.obj
 0001:00037d40       log10                      0000000180038d40 f   libucrtd:log10.obj
 0001:000382f0       ceil                       00000001800392f0 f   libucrtd:ceil.obj
 0001:000384c0       _controlfp_s               00000001800394c0 f   libucrtd:contrlfp.obj
 0001:000385f0       fegetenv                   00000001800395f0 f   libucrtd:fegetenv.obj
 0001:00038620       fesetenv                   0000000180039620 f   libucrtd:fesetenv.obj
 0001:000386a0       feholdexcept               00000001800396a0 f   libucrtd:feholdexcept.obj
 0001:00038880       _lseeki64_nolock           0000000180039880 f   libucrtd:lseek.obj
 0001:000388b0       _fclose_nolock             00000001800398b0 f   libucrtd:fclose.obj
 0001:00038a40       fclose                     0000000180039a40 f   libucrtd:fclose.obj
 0001:00038b80       ?__wcsrtombs_utf8@__crt_mbstring@@YA_KPEADPEAPEB_W_KPEAU_Mbstatet@@@Z 0000000180039b80 f   libucrtd:wcrtomb.obj
 0001:00038de8       _putwch_nolock             0000000180039de8 f   libucrtd:putwch.obj
 0001:00038e30       __acrt_initialize_fma3     0000000180039e30 f   libucrtd:fma3_available.obj
 0001:00038ee0       _log10_special             0000000180039ee0 f   libucrtd:log_special.obj
 0001:00039240       _clearfp                   000000018003a240 f   libucrtd:ieee.obj
 0001:00039260       _control87                 000000018003a260 f   libucrtd:ieee.obj
 0001:00039720       _close                     000000018003a720 f   libucrtd:close.obj
 0001:00039910       _close_nolock              000000018003a910 f   libucrtd:close.obj
 0001:00039980       ?__acrt_stdio_free_stream@@YAXV__crt_stdio_stream@@@Z 000000018003a980 f   libucrtd:stream.obj
 0001:00039a20       ?deallocate@__crt_stdio_stream@@QEAAXXZ 000000018003aa20 f i libucrtd:stream.obj
 0001:00039a40       ?__c16rtomb_utf8@__crt_mbstring@@YA_KPEAD_SPEAU_Mbstatet@@@Z 000000018003aa40 f   libucrtd:c16rtomb.obj
 0001:00039c54       __dcrt_lowio_ensure_console_output_initialized 000000018003ac54 f   libucrtd:initcon.obj
 0001:00039ca8       __dcrt_terminate_console_output 000000018003aca8 f   libucrtd:initcon.obj
 0001:00039cc4       __dcrt_write_console       000000018003acc4 f   libucrtd:initcon.obj
 0001:00039d90       _FindPESection             000000018003ad90 f   LIBCMTD:pesect.obj
 0001:00039e40       _IsNonwritableInCurrentImage 000000018003ae40 f   LIBCMTD:pesect.obj
 0001:00039ed0       _ValidateImageBase         000000018003aed0 f   LIBCMTD:pesect.obj
 0001:00039f50       ??1type_info@@UEAA@XZ      000000018003af50 f   LIBCMTD:std_type_info_static.obj
 0001:00039f70       ??_Gtype_info@@UEAAPEAXI@Z 000000018003af70 f i LIBCMTD:std_type_info_static.obj
 0001:00039f70       ??_Etype_info@@UEAAPEAXI@Z 000000018003af70 f i LIBCMTD:std_type_info_static.obj
 0001:00039fb0       ??3@YAXPEAX_K@Z            000000018003afb0 f   LIBCMTD:delete_scalar_size.obj
 0001:00039fd0       __GSHandlerCheck_SEH       000000018003afd0 f   LIBCMTD:gshandlerseh.obj
 0001:0003a0a0       __chkstk                   000000018003b0a0 f   LIBCMTD:chkstk.obj
 0001:0003a0a0       _alloca_probe              000000018003b0a0 f   LIBCMTD:chkstk.obj
 0001:0003a100       __GSHandlerCheck_EH        000000018003b100 f   LIBCMTD:gshandlereh.obj
 0001:0003a1b0       ??3@YAXPEAX@Z              000000018003b1b0 f   LIBCMTD:delete_scalar.obj
 0001:0003a1e0       memcmp                     000000018003b1e0 f   libvcruntimed:memcmp.obj
 0001:0003a2b0       strrchr                    000000018003b2b0 f   libvcruntimed:strrchr.obj
 0001:0003a6e0       _guard_dispatch_icall_nop  000000018003b6e0 f   LIBCMTD:guard_dispatch.obj
 0001:0003a700       _guard_xfg_dispatch_icall_nop 000000018003b700 f   LIBCMTD:guard_xfg_dispatch.obj
 0002:00000000       __imp_RtlCaptureContext    000000018003c000     kernel32:KERNEL32.dll
 0002:00000008       __imp_RtlLookupFunctionEntry 000000018003c008     kernel32:KERNEL32.dll
 0002:00000010       __imp_RtlVirtualUnwind     000000018003c010     kernel32:KERNEL32.dll
 0002:00000018       __imp_UnhandledExceptionFilter 000000018003c018     kernel32:KERNEL32.dll
 0002:00000020       __imp_SetUnhandledExceptionFilter 000000018003c020     kernel32:KERNEL32.dll
 0002:00000028       __imp_GetCurrentProcess    000000018003c028     kernel32:KERNEL32.dll
 0002:00000030       __imp_TerminateProcess     000000018003c030     kernel32:KERNEL32.dll
 0002:00000038       __imp_IsProcessorFeaturePresent 000000018003c038     kernel32:KERNEL32.dll
 0002:00000040       __imp_QueryPerformanceCounter 000000018003c040     kernel32:KERNEL32.dll
 0002:00000048       __imp_GetCurrentProcessId  000000018003c048     kernel32:KERNEL32.dll
 0002:00000050       __imp_GetCurrentThreadId   000000018003c050     kernel32:KERNEL32.dll
 0002:00000058       __imp_GetSystemTimeAsFileTime 000000018003c058     kernel32:KERNEL32.dll
 0002:00000060       __imp_InitializeSListHead  000000018003c060     kernel32:KERNEL32.dll
 0002:00000068       __imp_IsDebuggerPresent    000000018003c068     kernel32:KERNEL32.dll
 0002:00000070       __imp_GetStartupInfoW      000000018003c070     kernel32:KERNEL32.dll
 0002:00000078       __imp_GetModuleHandleW     000000018003c078     kernel32:KERNEL32.dll
 0002:00000080       __imp_CreateFileW          000000018003c080     kernel32:KERNEL32.dll
 0002:00000088       __imp_RtlUnwindEx          000000018003c088     kernel32:KERNEL32.dll
 0002:00000090       __imp_InterlockedFlushSList 000000018003c090     kernel32:KERNEL32.dll
 0002:00000098       __imp_GetLastError         000000018003c098     kernel32:KERNEL32.dll
 0002:000000a0       __imp_SetLastError         000000018003c0a0     kernel32:KERNEL32.dll
 0002:000000a8       __imp_EnterCriticalSection 000000018003c0a8     kernel32:KERNEL32.dll
 0002:000000b0       __imp_LeaveCriticalSection 000000018003c0b0     kernel32:KERNEL32.dll
 0002:000000b8       __imp_DeleteCriticalSection 000000018003c0b8     kernel32:KERNEL32.dll
 0002:000000c0       __imp_InitializeCriticalSectionAndSpinCount 000000018003c0c0     kernel32:KERNEL32.dll
 0002:000000c8       __imp_TlsAlloc             000000018003c0c8     kernel32:KERNEL32.dll
 0002:000000d0       __imp_TlsGetValue          000000018003c0d0     kernel32:KERNEL32.dll
 0002:000000d8       __imp_TlsSetValue          000000018003c0d8     kernel32:KERNEL32.dll
 0002:000000e0       __imp_TlsFree              000000018003c0e0     kernel32:KERNEL32.dll
 0002:000000e8       __imp_FreeLibrary          000000018003c0e8     kernel32:KERNEL32.dll
 0002:000000f0       __imp_GetProcAddress       000000018003c0f0     kernel32:KERNEL32.dll
 0002:000000f8       __imp_LoadLibraryExW       000000018003c0f8     kernel32:KERNEL32.dll
 0002:00000100       __imp_EncodePointer        000000018003c100     kernel32:KERNEL32.dll
 0002:00000108       __imp_RaiseException       000000018003c108     kernel32:KERNEL32.dll
 0002:00000110       __imp_RtlPcToFileHeader    000000018003c110     kernel32:KERNEL32.dll
 0002:00000118       __imp_ExitProcess          000000018003c118     kernel32:KERNEL32.dll
 0002:00000120       __imp_GetModuleHandleExW   000000018003c120     kernel32:KERNEL32.dll
 0002:00000128       __imp_GetModuleFileNameW   000000018003c128     kernel32:KERNEL32.dll
 0002:00000130       __imp_HeapAlloc            000000018003c130     kernel32:KERNEL32.dll
 0002:00000138       __imp_HeapSize             000000018003c138     kernel32:KERNEL32.dll
 0002:00000140       __imp_HeapValidate         000000018003c140     kernel32:KERNEL32.dll
 0002:00000148       __imp_GetSystemInfo        000000018003c148     kernel32:KERNEL32.dll
 0002:00000150       __imp_FindClose            000000018003c150     kernel32:KERNEL32.dll
 0002:00000158       __imp_FindFirstFileExW     000000018003c158     kernel32:KERNEL32.dll
 0002:00000160       __imp_FindNextFileW        000000018003c160     kernel32:KERNEL32.dll
 0002:00000168       __imp_IsValidCodePage      000000018003c168     kernel32:KERNEL32.dll
 0002:00000170       __imp_GetACP               000000018003c170     kernel32:KERNEL32.dll
 0002:00000178       __imp_GetOEMCP             000000018003c178     kernel32:KERNEL32.dll
 0002:00000180       __imp_GetCPInfo            000000018003c180     kernel32:KERNEL32.dll
 0002:00000188       __imp_GetCommandLineA      000000018003c188     kernel32:KERNEL32.dll
 0002:00000190       __imp_GetCommandLineW      000000018003c190     kernel32:KERNEL32.dll
 0002:00000198       __imp_MultiByteToWideChar  000000018003c198     kernel32:KERNEL32.dll
 0002:000001a0       __imp_WideCharToMultiByte  000000018003c1a0     kernel32:KERNEL32.dll
 0002:000001a8       __imp_GetEnvironmentStringsW 000000018003c1a8     kernel32:KERNEL32.dll
 0002:000001b0       __imp_FreeEnvironmentStringsW 000000018003c1b0     kernel32:KERNEL32.dll
 0002:000001b8       __imp_LCMapStringW         000000018003c1b8     kernel32:KERNEL32.dll
 0002:000001c0       __imp_GetProcessHeap       000000018003c1c0     kernel32:KERNEL32.dll
 0002:000001c8       __imp_GetStdHandle         000000018003c1c8     kernel32:KERNEL32.dll
 0002:000001d0       __imp_GetFileType          000000018003c1d0     kernel32:KERNEL32.dll
 0002:000001d8       __imp_HeapFree             000000018003c1d8     kernel32:KERNEL32.dll
 0002:000001e0       __imp_HeapReAlloc          000000018003c1e0     kernel32:KERNEL32.dll
 0002:000001e8       __imp_HeapQueryInformation 000000018003c1e8     kernel32:KERNEL32.dll
 0002:000001f0       __imp_WriteFile            000000018003c1f0     kernel32:KERNEL32.dll
 0002:000001f8       __imp_OutputDebugStringW   000000018003c1f8     kernel32:KERNEL32.dll
 0002:00000200       __imp_WriteConsoleW        000000018003c200     kernel32:KERNEL32.dll
 0002:00000208       __imp_GetStringTypeW       000000018003c208     kernel32:KERNEL32.dll
 0002:00000210       __imp_SetStdHandle         000000018003c210     kernel32:KERNEL32.dll
 0002:00000218       __imp_SetFilePointerEx     000000018003c218     kernel32:KERNEL32.dll
 0002:00000220       __imp_FlushFileBuffers     000000018003c220     kernel32:KERNEL32.dll
 0002:00000228       __imp_GetConsoleOutputCP   000000018003c228     kernel32:KERNEL32.dll
 0002:00000230       __imp_GetConsoleMode       000000018003c230     kernel32:KERNEL32.dll
 0002:00000238       __imp_CloseHandle          000000018003c238     kernel32:KERNEL32.dll
 0002:00000240       \177KERNEL32_NULL_THUNK_DATA 000000018003c240     kernel32:KERNEL32.dll
 0002:00000248       __guard_check_icall_fptr   000000018003c248     LIBCMTD:guard_support.obj
 0002:00000250       __guard_xfg_check_icall_fptr 000000018003c250     LIBCMTD:guard_support.obj
 0002:00000258       __guard_dispatch_icall_fptr 000000018003c258     LIBCMTD:guard_support.obj
 0002:00000260       __guard_xfg_dispatch_icall_fptr 000000018003c260     LIBCMTD:guard_support.obj
 0002:00000268       __guard_xfg_table_dispatch_icall_fptr 000000018003c268     LIBCMTD:guard_support.obj
 0002:00000270       __xc_a                     000000018003c270     LIBCMTD:initializers.obj
 0002:00000278       __xc_z                     000000018003c278     LIBCMTD:initializers.obj
 0002:00000280       __xi_a                     000000018003c280     LIBCMTD:initializers.obj
 0002:00000288       __acrt_multibyte_initializer 000000018003c288     libucrtd:multibyte_initializer.obj
 0002:00000290       __acrt_stdio_initializer   000000018003c290     libucrtd:stdio_initializer.obj
 0002:00000298       __acrt_tran_fma3_initializer 000000018003c298     libucrtd:fma3_initializer.obj
 0002:000002a0       __xi_z                     000000018003c2a0     LIBCMTD:initializers.obj
 0002:000002a8       __xp_a                     000000018003c2a8     LIBCMTD:initializers.obj
 0002:000002b0       __acrt_locale_terminator   000000018003c2b0     libucrtd:locale_initializer.obj
 0002:000002b8       __dcrt_console_output_terminator 000000018003c2b8     libucrtd:console_output_initializer.obj
 0002:000002c0       __acrt_stdio_terminator    000000018003c2c0     libucrtd:stdio_initializer.obj
 0002:000002c8       __xp_z                     000000018003c2c8     LIBCMTD:initializers.obj
 0002:000002d0       __xt_a                     000000018003c2d0     LIBCMTD:initializers.obj
 0002:000002d8       __xt_z                     000000018003c2d8     LIBCMTD:initializers.obj
 0002:00000480       __real@3e800000            000000018003c480     handmade.obj
 0002:00000484       __real@3f000000            000000018003c484     handmade.obj
 0002:00000488       __real@3f400000            000000018003c488     handmade.obj
 0002:0000048c       __real@3f800000            000000018003c48c     handmade.obj
 0002:00000490       __real@3fb33333            000000018003c490     handmade.obj
 0002:00000494       __real@40800000            000000018003c494     handmade.obj
 0002:00000498       __real@40a00000            000000018003c498     handmade.obj
 0002:0000049c       __real@41100000            000000018003c49c     handmade.obj
 0002:000004a0       __real@42480000            000000018003c4a0     handmade.obj
 0002:000004a4       __real@437f0000            000000018003c4a4     handmade.obj
 0002:000004a8       __real@bf000000            000000018003c4a8     handmade.obj
 0002:000004ac       __real@bf800000            000000018003c4ac     handmade.obj
 0002:000004b0       __real@c0e00000            000000018003c4b0     handmade.obj
 0002:000004c0       __xmm@7fffffffffffffff7fffffffffffffff 000000018003c4c0     handmade.obj
 0002:000004d0       __xmm@80000000800000008000000080000000 000000018003c4d0     handmade.obj
 0002:000004e0       _pDefaultRawDllMain        000000018003c4e0     LIBCMTD:dll_dllmain.obj
 0002:000004e0       _pRawDllMain               000000018003c4e0     LIBCMTD:dll_dllmain.obj
 0002:000004f8       _pDestructExceptionObject  000000018003c4f8     libvcruntimed:ehhelpers.obj
 0002:00000c00       ??_C@_08EHJDFFNH@__based?$CI@ 000000018003cc00     libvcruntimed:undname.obj
 0002:00000c10       ??_C@_07KOLFKCDI@__cdecl@  000000018003cc10     libvcruntimed:undname.obj
 0002:00000c18       ??_C@_08GHMPAG@__pascal@   000000018003cc18     libvcruntimed:undname.obj
 0002:00000c28       ??_C@_09IFJBGAPI@__stdcall@ 000000018003cc28     libvcruntimed:undname.obj
 0002:00000c38       ??_C@_0L@NPHFGOKO@__thiscall@ 000000018003cc38     libvcruntimed:undname.obj
 0002:00000c48       ??_C@_0L@JMKHOMEK@__fastcall@ 000000018003cc48     libvcruntimed:undname.obj
 0002:00000c58       ??_C@_0N@BCKKPABJ@__vectorcall@ 000000018003cc58     libvcruntimed:undname.obj
 0002:00000c68       ??_C@_09HIJEGCPM@__clrcall@ 000000018003cc68     libvcruntimed:undname.obj
 0002:00000c74       ??_C@_06GHPCKEAG@__eabi@   000000018003cc74     libvcruntimed:undname.obj
 0002:00000c80       ??_C@_09IOPIDJLG@__swift_1@ 000000018003cc80     libvcruntimed:undname.obj
 0002:00000c90       ??_C@_09KFNFGKHF@__swift_2@ 000000018003cc90     libvcruntimed:undname.obj
 0002:00000ca0       ??_C@_07JOMMBBKO@__ptr64@  000000018003cca0     libvcruntimed:undname.obj
 0002:00000ca8       ??_C@_0L@PILCLIHE@__restrict@ 000000018003cca8     libvcruntimed:undname.obj
 0002:00000cb8       ??_C@_0M@GFIIJFMG@__unaligned@ 000000018003ccb8     libvcruntimed:undname.obj
 0002:00000cc8       ??_C@_09DHDLOLLB@restrict?$CI@ 000000018003ccc8     libvcruntimed:undname.obj
 0002:00000cd2       ??_C@_00CNPNBAHC@@         000000018003ccd2     libvcruntimed:undname.obj
 0002:00000cd4       ??_C@_04NIHEBCM@?5new@     000000018003ccd4     libvcruntimed:undname.obj
 0002:00000ce0       ??_C@_07FPCDHGMM@?5delete@ 000000018003cce0     libvcruntimed:undname.obj
 0002:00000ce8       ??_C@_01NEMOKFLO@?$DN@     000000018003cce8     libvcruntimed:undname.obj
 0002:00000cec       ??_C@_02GPIOPFAK@?$DO?$DO@ 000000018003ccec     libvcruntimed:undname.obj
 0002:00000cf0       ??_C@_02FODMEDOG@?$DM?$DM@ 000000018003ccf0     libvcruntimed:undname.obj
 0002:00000cf4       ??_C@_01DCLJPIOD@?$CB@     000000018003ccf4     libvcruntimed:undname.obj
 0002:00000cf8       ??_C@_02EGOFBIJA@?$DN?$DN@ 000000018003ccf8     libvcruntimed:undname.obj
 0002:00000cfc       ??_C@_02FDNJECIE@?$CB?$DN@ 000000018003ccfc     libvcruntimed:undname.obj
 0002:00000d00       ??_C@_02GPECMEKF@?$FL?$FN@ 000000018003cd00     libvcruntimed:undname.obj
 0002:00000d08       ??_C@_08LHJFAFGD@operator@ 000000018003cd08     libvcruntimed:undname.obj
 0002:00000d14       ??_C@_02HBOOOICD@?9?$DO@   000000018003cd14     libvcruntimed:undname.obj
 0002:00000d18       ??_C@_01NBENCBCI@?$CK@     000000018003cd18     libvcruntimed:undname.obj
 0002:00000d1c       ??_C@_02ECNGHCIF@?$CL?$CL@ 000000018003cd1c     libvcruntimed:undname.obj
 0002:00000d20       ??_C@_02BAABKJLB@?9?9@     000000018003cd20     libvcruntimed:undname.obj
 0002:00000d24       ??_C@_01JOAMLHOP@?9@       000000018003cd24     libvcruntimed:undname.obj
 0002:00000d28       ??_C@_01MIFGBAGJ@?$CL@     000000018003cd28     libvcruntimed:undname.obj
 0002:00000d2c       ??_C@_01HNPIGOCE@?$CG@     000000018003cd2c     libvcruntimed:undname.obj
 0002:00000d30       ??_C@_03MNHNFDLC@?9?$DO?$CK@ 000000018003cd30     libvcruntimed:undname.obj
 0002:00000d34       ??_C@_01KMDKNFGN@?1@       000000018003cd34     libvcruntimed:undname.obj
 0002:00000d38       ??_C@_01FGNFDNOH@?$CF@     000000018003cd38     libvcruntimed:undname.obj
 0002:00000d3c       ??_C@_01MNNFJEPP@?$DM@     000000018003cd3c     libvcruntimed:undname.obj
 0002:00000d40       ??_C@_02EHCHHCKH@?$DM?$DN@ 000000018003cd40     libvcruntimed:undname.obj
 0002:00000d44       ??_C@_01PPODPGHN@?$DO@     000000018003cd44     libvcruntimed:undname.obj
 0002:00000d48       ??_C@_02EEKDKGMJ@?$DO?$DN@ 000000018003cd48     libvcruntimed:undname.obj
 0002:00000d4c       ??_C@_01IHBHIGKO@?0@       000000018003cd4c     libvcruntimed:undname.obj
 0002:00000d50       ??_C@_02HCKGKOFO@?$CI?$CJ@ 000000018003cd50     libvcruntimed:undname.obj
 0002:00000d54       ??_C@_01PJKLJHI@?$HO@      000000018003cd54     libvcruntimed:undname.obj
 0002:00000d58       ??_C@_01JKBOJNNK@?$FO@     000000018003cd58     libvcruntimed:undname.obj
 0002:00000d5c       ??_C@_01DNKMNLPK@?$HM@     000000018003cd5c     libvcruntimed:undname.obj
 0002:00000d60       ??_C@_02PPKAJPJL@?$CG?$CG@ 000000018003cd60     libvcruntimed:undname.obj
 0002:00000d64       ??_C@_02NONPIBCD@?$HM?$HM@ 000000018003cd64     libvcruntimed:undname.obj
 0002:00000d68       ??_C@_02FPIMKNGF@?$CK?$DN@ 000000018003cd68     libvcruntimed:undname.obj
 0002:00000d6c       ??_C@_02FOEOMHFC@?$CL?$DN@ 000000018003cd6c     libvcruntimed:undname.obj
 0002:00000d70       ??_C@_02FKMDLLOA@?9?$DN@   000000018003cd70     libvcruntimed:undname.obj
 0002:00000d74       ??_C@_02FJEHGPIO@?1?$DN@   000000018003cd74     libvcruntimed:undname.obj
 0002:00000d78       ??_C@_02FENAOKFI@?$CF?$DN@ 000000018003cd78     libvcruntimed:undname.obj
 0002:00000d7c       ??_C@_03IKFCCPFF@?$DO?$DO?$DN@ 000000018003cd7c     libvcruntimed:undname.obj
 0002:00000d80       ??_C@_03CDNPDDLA@?$DM?$DM?$DN@ 000000018003cd80     libvcruntimed:undname.obj
 0002:00000d84       ??_C@_02FGJGFEAB@?$CG?$DN@ 000000018003cd84     libvcruntimed:undname.obj
 0002:00000d88       ??_C@_02DHLNPPGH@?$HM?$DN@ 000000018003cd88     libvcruntimed:undname.obj
 0002:00000d8c       ??_C@_02MHEGNOJ@?$FO?$DN@  000000018003cd8c     libvcruntimed:undname.obj
 0002:00000d90       ??_C@_09IFPLHPGF@?$GAvftable?8@ 000000018003cd90     libvcruntimed:undname.obj
 0002:00000da0       ??_C@_09BLBHBJP@?$GAvbtable?8@ 000000018003cda0     libvcruntimed:undname.obj
 0002:00000db0       ??_C@_07FEEIOKP@?$GAvcall?8@ 000000018003cdb0     libvcruntimed:undname.obj
 0002:00000db8       ??_C@_08LLFFHHDJ@?$GAtypeof?8@ 000000018003cdb8     libvcruntimed:undname.obj
 0002:00000dc8       ??_C@_0BF@KDPPACIK@?$GAlocal?5static?5guard?8@ 000000018003cdc8     libvcruntimed:undname.obj
 0002:00000de0       ??_C@_08OBABFOLI@?$GAstring?8@ 000000018003cde0     libvcruntimed:undname.obj
 0002:00000df0       ??_C@_0BD@JDLKDPAB@?$GAvbase?5destructor?8@ 000000018003cdf0     libvcruntimed:undname.obj
 0002:00000e08       ??_C@_0BN@DEGPLNFK@?$GAvector?5deleting?5destructor?8@ 000000018003ce08     libvcruntimed:undname.obj
 0002:00000e28       ??_C@_0BO@OBMKPJIG@?$GAdefault?5constructor?5closure?8@ 000000018003ce28     libvcruntimed:undname.obj
 0002:00000e48       ??_C@_0BN@IMDCHIKM@?$GAscalar?5deleting?5destructor?8@ 000000018003ce48     libvcruntimed:undname.obj
 0002:00000e68       ??_C@_0BO@PFGOCPJJ@?$GAvector?5constructor?5iterator?8@ 000000018003ce68     libvcruntimed:undname.obj
 0002:00000e88       ??_C@_0BN@LFPFMEDL@?$GAvector?5destructor?5iterator?8@ 000000018003ce88     libvcruntimed:undname.obj
 0002:00000ea8       ??_C@_0CE@IKBNEHA@?$GAvector?5vbase?5constructor?5itera@ 000000018003cea8     libvcruntimed:undname.obj
 0002:00000ed0       ??_C@_0BL@NILFHHPC@?$GAvirtual?5displacement?5map?8@ 000000018003ced0     libvcruntimed:undname.obj
 0002:00000ef0       ??_C@_0CB@JONCMFFK@?$GAeh?5vector?5constructor?5iterator@ 000000018003cef0     libvcruntimed:undname.obj
 0002:00000f18       ??_C@_0CA@GCEOPDGL@?$GAeh?5vector?5destructor?5iterator?8@ 000000018003cf18     libvcruntimed:undname.obj
 0002:00000f38       ??_C@_0CH@OOJPLCPH@?$GAeh?5vector?5vbase?5constructor?5it@ 000000018003cf38     libvcruntimed:undname.obj
 0002:00000f60       ??_C@_0BL@LLKPOHJI@?$GAcopy?5constructor?5closure?8@ 000000018003cf60     libvcruntimed:undname.obj
 0002:00000f80       ??_C@_0BA@KBCDOMBN@?$GAudt?5returning?8@ 000000018003cf80     libvcruntimed:undname.obj
 0002:00000f90       ??_C@_03KLGMFNMG@?$GAEH@   000000018003cf90     libvcruntimed:undname.obj
 0002:00000f94       ??_C@_05KHLCHHI@?$GARTTI@  000000018003cf94     libvcruntimed:undname.obj
 0002:00000fa0       ??_C@_0BA@KKLDJDLB@?$GAlocal?5vftable?8@ 000000018003cfa0     libvcruntimed:undname.obj
 0002:00000fb0       ??_C@_0CE@IIHCMGGL@?$GAlocal?5vftable?5constructor?5clos@ 000000018003cfb0     libvcruntimed:undname.obj
 0002:00000fd4       ??_C@_06FHBGPFGH@?5new?$FL?$FN@ 000000018003cfd4     libvcruntimed:undname.obj
 0002:00000fe0       ??_C@_09LBNFPBCA@?5delete?$FL?$FN@ 000000018003cfe0     libvcruntimed:undname.obj
 0002:00000ff0       ??_C@_0P@HJKNJFNN@?$GAomni?5callsig?8@ 000000018003cff0     libvcruntimed:undname.obj
 0002:00001000       ??_C@_0BL@CNOONJFP@?$GAplacement?5delete?5closure?8@ 000000018003d000     libvcruntimed:undname.obj
 0002:00001020       ??_C@_0BN@CKNJLHMB@?$GAplacement?5delete?$FL?$FN?5closure?8@ 000000018003d020     libvcruntimed:undname.obj
 0002:00001040       ??_C@_0CG@CFDHKGGD@?$GAmanaged?5vector?5constructor?5ite@ 000000018003d040     libvcruntimed:undname.obj
 0002:00001068       ??_C@_0CF@IMGKMJNO@?$GAmanaged?5vector?5destructor?5iter@ 000000018003d068     libvcruntimed:undname.obj
 0002:00001090       ??_C@_0CG@HLDDJMAG@?$GAeh?5vector?5copy?5constructor?5ite@ 000000018003d090     libvcruntimed:undname.obj
 0002:000010b8       ??_C@_0CM@FCBBDIGB@?$GAeh?5vector?5vbase?5copy?5construct@ 000000018003d0b8     libvcruntimed:undname.obj
 0002:000010e8       ??_C@_0BL@CLIPGLGB@?$GAdynamic?5initializer?5for?5?8@ 000000018003d0e8     libvcruntimed:undname.obj
 0002:00001108       ??_C@_0CB@PDBIFEP@?$GAdynamic?5atexit?5destructor?5for?5@ 000000018003d108     libvcruntimed:undname.obj
 0002:00001130       ??_C@_0CD@CGAJBKEJ@?$GAvector?5copy?5constructor?5iterat@ 000000018003d130     libvcruntimed:undname.obj
 0002:00001158       ??_C@_0CJ@GJELGAMM@?$GAvector?5vbase?5copy?5constructor?5@ 000000018003d158     libvcruntimed:undname.obj
 0002:00001188       ??_C@_0CL@FGIJHLCE@?$GAmanaged?5vector?5copy?5constructo@ 000000018003d188     libvcruntimed:undname.obj
 0002:000011b8       ??_C@_0BM@PMGGMLDN@?$GAlocal?5static?5thread?5guard?8@ 000000018003d1b8     libvcruntimed:undname.obj
 0002:000011d8       ??_C@_0N@BDNMDMOL@operator?5?$CC?$CC?5@ 000000018003d1d8     libvcruntimed:undname.obj
 0002:000011e8       ??_C@_0BC@GGEBGALA@operator?5co_await@ 000000018003d1e8     libvcruntimed:undname.obj
 0002:00001200       ??_C@_0M@GAAIMMOH@operator?$DM?$DN?$DO@ 000000018003d200     libvcruntimed:undname.obj
 0002:00001210       ??_C@_0BC@DAFEJGAK@?5Type?5Descriptor?8@ 000000018003d210     libvcruntimed:undname.obj
 0002:00001228       ??_C@_0BM@LDKODKLH@?5Base?5Class?5Descriptor?5at?5?$CI@ 000000018003d228     libvcruntimed:undname.obj
 0002:00001248       ??_C@_0BD@LGICGFMM@?5Base?5Class?5Array?8@ 000000018003d248     libvcruntimed:undname.obj
 0002:00001260       ??_C@_0BN@MECKDCOJ@?5Class?5Hierarchy?5Descriptor?8@ 000000018003d260     libvcruntimed:undname.obj
 0002:00001280       ??_C@_0BK@CFCOFLF@?5Complete?5Object?5Locator?8@ 000000018003d280     libvcruntimed:undname.obj
 0002:000012a0       ??_C@_0BG@JNJLAMPM@?$GAanonymous?5namespace?8@ 000000018003d2a0     libvcruntimed:undname.obj
 0002:000012c0       ??_C@_0EP@GOHIKHHM@d?3?2agent?2_work?263?2s?2src?2vctools@ 000000018003d2c0     libvcruntimed:per_thread_data.obj
 0002:000013c0       ??_C@_1DM@KHCHBNEB@?$AAa?$AAp?$AAi?$AA?9?$AAm?$AAs?$AA?9?$AAw?$AAi?$AAn?$AA?9?$AAc?$AAo?$AAr?$AAe@ 000000018003d3c0     libvcruntimed:winapi_downlevel.obj
 0002:00001400       ??_C@_1DK@LPPGFMPP@?$AAa?$AAp?$AAi?$AA?9?$AAm?$AAs?$AA?9?$AAw?$AAi?$AAn?$AA?9?$AAc?$AAo?$AAr?$AAe@ 000000018003d400     libvcruntimed:winapi_downlevel.obj
 0002:00001440       ??_C@_1BC@GDMECMAK@?$AAk?$AAe?$AAr?$AAn?$AAe?$AAl?$AA3?$AA2@ 000000018003d440     libvcruntimed:winapi_downlevel.obj
 0002:00001458       ??_C@_17CNPHIMPH@?$AA?$CF?$AAl?$AAs@ 000000018003d458     libvcruntimed:winapi_downlevel.obj
 0002:00001460       ??_C@_1BA@PFFKHIOG@?$AAa?$AAp?$AAi?$AA?9?$AAm?$AAs?$AA?9@ 000000018003d460     libvcruntimed:winapi_downlevel.obj
 0002:00001470       ??_C@_1EM@LBIFGLGH@?$AAc?$AAa?$AAc?$AAh?$AAe?$AAd?$AA_?$AAh?$AAa?$AAn?$AAd?$AAl?$AAe?$AA?5?$AA?$DN@ 000000018003d470     libvcruntimed:winapi_downlevel.obj
 0002:000014c0       ??_C@_1KA@GJDIKNFM@?$AAd?$AA?3?$AA?2?$AAa?$AAg?$AAe?$AAn?$AAt?$AA?2?$AA_?$AAw?$AAo?$AAr?$AAk?$AA?2@ 000000018003d4c0     libvcruntimed:winapi_downlevel.obj
 0002:00001560       ??_C@_1DI@MAHEDLDB@?$AAc?$AAa?$AAc?$AAh?$AAe?$AAd?$AA_?$AAh?$AAa?$AAn?$AAd?$AAl?$AAe?$AA?5?$AA?$DN@ 000000018003d560     libvcruntimed:winapi_downlevel.obj
 0002:000015a0       ??_C@_1FC@IBNCGNKL@?$AAc?$AAa?$AAc?$AAh?$AAe?$AAd?$AA_?$AAf?$AAp?$AA?5?$AA?$DN?$AA?$DN?$AA?5?$AAi?$AAn@ 000000018003d5a0     libvcruntimed:winapi_downlevel.obj
 0002:000015f8       ??_C@_1CI@GDJBAGLP@?$AAc?$AAa?$AAc?$AAh?$AAe?$AAd?$AA_?$AAf?$AAp?$AA?5?$AA?$DN?$AA?$DN?$AA?5?$AAn?$AAe@ 000000018003d5f8     libvcruntimed:winapi_downlevel.obj
 0002:00001628       ??_C@_08KNHFBNJ@FlsAlloc@  000000018003d628     libvcruntimed:winapi_downlevel.obj
 0002:00001640       ??_C@_07PEJMOBNF@FlsFree@  000000018003d640     libvcruntimed:winapi_downlevel.obj
 0002:00001650       ??_C@_0M@GDNOONDI@FlsGetValue@ 000000018003d650     libvcruntimed:winapi_downlevel.obj
 0002:00001668       ??_C@_0M@JCPCPOEF@FlsSetValue@ 000000018003d668     libvcruntimed:winapi_downlevel.obj
 0002:00001680       ??_C@_0BM@HCFOFFN@InitializeCriticalSectionEx@ 000000018003d680     libvcruntimed:winapi_downlevel.obj
 0002:000016a8       ??_7exception@std@@6B@     000000018003d6a8     libvcruntimed:frame.obj
 0002:000016b8       ??_C@_0BC@EOODALEL@Unknown?5exception@ 000000018003d6b8     libvcruntimed:frame.obj
 0002:000016d8       ??_7bad_exception@std@@6B@ 000000018003d6d8     libvcruntimed:frame.obj
 0002:000016e8       ??_C@_0O@DPKOEFFH@bad?5exception@ 000000018003d6e8     libvcruntimed:frame.obj
 0002:00001700       ??_C@_1FK@OACNEHHA@?$AAt?$AAo?$AA?9?$AA?$DO?$AA_?$AAW?$AAh?$AAa?$AAt?$AA?5?$AA?$DN?$AA?$DN?$AA?5?$AAn?$AAu@ 000000018003d700     libvcruntimed:std_exception.obj
 0002:00001760       ??_C@_1IO@PDEKOFJA@?$AAd?$AA?3?$AA?2?$AAa?$AAg?$AAe?$AAn?$AAt?$AA?2?$AA_?$AAw?$AAo?$AAr?$AAk?$AA?2@ 000000018003d760     libvcruntimed:std_exception.obj
 0002:000017f0       ??_C@_05KGFAIMPG@sqrtf@    000000018003d7f0     libucrtd:sqrtf.obj
 0002:00001800       __acrt_exception_action_table 000000018003d800     libucrtd:exception_filter.obj
 0002:000018c0       __acrt_signal_action_table_count 000000018003d8c0     libucrtd:exception_filter.obj
 0002:000018c8       __acrt_signal_action_first_fpe_index 000000018003d8c8     libucrtd:exception_filter.obj
 0002:000018d0       __acrt_signal_action_fpe_count 000000018003d8d0     libucrtd:exception_filter.obj
 0002:000018d8       ??_C@_1BI@BGOHAHKC@?$AAm?$AAs?$AAc?$AAo?$AAr?$AAe?$AAe?$AA?4?$AAd?$AAl?$AAl@ 000000018003d8d8     libucrtd:exit.obj
 0002:000018f0       ??_C@_0P@MIGLKIOC@CorExitProcess@ 000000018003d8f0     libucrtd:exit.obj
 0002:00001900       ??_C@_0DI@KNDIGDEP@minkernel?2crts?2ucrt?2src?2appcrt?2@ 000000018003d900     libucrtd:argv_parsing.obj
 0002:00001940       ??_C@_1JO@PGBIJBAM@?$AAm?$AAo?$AAd?$AAe?$AA?5?$AA?$DN?$AA?$DN?$AA?5?$AA_?$AAc?$AAr?$AAt?$AA_?$AAa?$AAr@ 000000018003d940     libucrtd:argv_parsing.obj
 0002:000019e0       ??_C@_1HA@JMLCANEE@?$AAm?$AAi?$AAn?$AAk?$AAe?$AAr?$AAn?$AAe?$AAl?$AA?2?$AAc?$AAr?$AAt?$AAs?$AA?2@ 000000018003d9e0     libucrtd:argv_parsing.obj
 0002:00001a50       ??_C@_1CM@LHOJELIC@?$AAc?$AAo?$AAm?$AAm?$AAo?$AAn?$AA_?$AAc?$AAo?$AAn?$AAf?$AAi?$AAg?$AAu?$AAr@ 000000018003da50     libucrtd:argv_parsing.obj
 0002:00001a80       ??_C@_0EG@LEHKHOEH@minkernel?2crts?2ucrt?2src?2desktop@ 000000018003da80     libucrtd:environment_initialization.obj
 0002:00001ad0       ??_C@_1IM@IMOFFPLG@?$AAm?$AAi?$AAn?$AAk?$AAe?$AAr?$AAn?$AAe?$AAl?$AA?2?$AAc?$AAr?$AAt?$AAs?$AA?2@ 000000018003dad0     libucrtd:environment_initialization.obj
 0002:00001b60       ??_C@_1CG@MNNNBNAK@?$AAc?$AAr?$AAe?$AAa?$AAt?$AAe?$AA_?$AAe?$AAn?$AAv?$AAi?$AAr?$AAo?$AAn?$AAm@ 000000018003db60     libucrtd:environment_initialization.obj
 0002:00001b90       ??_C@_1HI@OOPIFFGA@?$AAt?$AAr?$AAa?$AAi?$AAt?$AAs?$AA?3?$AA?3?$AAt?$AAc?$AAs?$AAc?$AAp?$AAy?$AA_@ 000000018003db90     libucrtd:environment_initialization.obj
 0002:00001d58       ??_C@_04HJMOFLDF@Free@     000000018003dd58     libucrtd:debug_heap.obj
 0002:00001d60       ??_C@_06EFAGIKOH@Normal@   000000018003dd60     libucrtd:debug_heap.obj
 0002:00001d68       ??_C@_03OGPFLFLO@CRT@      000000018003dd68     libucrtd:debug_heap.obj
 0002:00001d6c       ??_C@_06KMEJCCGM@Ignore@   000000018003dd6c     libucrtd:debug_heap.obj
 0002:00001d74       ??_C@_06PJIGMIJB@Client@   000000018003dd74     libucrtd:debug_heap.obj
 0002:00001d80       ??_C@_1CE@LJFEPPMP@?$AA_?$AAC?$AAr?$AAt?$AAC?$AAh?$AAe?$AAc?$AAk?$AAM?$AAe?$AAm?$AAo?$AAr?$AAy@ 000000018003dd80     libucrtd:debug_heap.obj
 0002:00001db0       ??_C@_1GG@OCLHPJPK@?$AAm?$AAi?$AAn?$AAk?$AAe?$AAr?$AAn?$AAe?$AAl?$AA?2?$AAc?$AAr?$AAt?$AAs?$AA?2@ 000000018003ddb0     libucrtd:debug_heap.obj
 0002:00001e18       ??_C@_0DF@BBEGIFEK@Client?5hook?5allocation?5failure?5@ 000000018003de18     libucrtd:debug_heap.obj
 0002:00001e50       ??_C@_0CB@CCLOLAHO@Client?5hook?5allocation?5failure?4@ 000000018003de50     libucrtd:debug_heap.obj
 0002:00001e74       ??_C@_02DKCKIIND@?$CFs@    000000018003de74     libucrtd:debug_heap.obj
 0002:00001e78       ??_C@_0DC@JEMAGEKG@Error?3?5memory?5allocation?3?5bad?5m@ 000000018003de78     libucrtd:debug_heap.obj
 0002:00001eb0       ??_C@_0DI@KKJPDPGM@Client?5hook?5re?9allocation?5failu@ 000000018003deb0     libucrtd:debug_heap.obj
 0002:00001ee8       ??_C@_0CE@DOFMDOL@Client?5hook?5re?9allocation?5failu@ 000000018003dee8     libucrtd:debug_heap.obj
 0002:00001f10       ??_C@_0FA@EFEIGJKG@Error?3?5memory?5allocation?3?5bad?5m@ 000000018003df10     libucrtd:debug_heap.obj
 0002:00001f60       ??_C@_0EM@LGFLMAGJ@The?5Block?5at?50x?$CFp?5was?5allocated@ 000000018003df60     libucrtd:debug_heap.obj
 0002:00001fb0       ??_C@_1DM@DEDLGNML@?$AA_?$AAC?$AAr?$AAt?$AAI?$AAs?$AAV?$AAa?$AAl?$AAi?$AAd?$AAH?$AAe?$AAa?$AAp@ 000000018003dfb0     libucrtd:debug_heap.obj
 0002:00001ff0       ??_C@_1PC@MCGKJLN@?$AAo?$AAl?$AAd?$AA_?$AAh?$AAe?$AAa?$AAd?$AA?9?$AA?$DO?$AA_?$AAl?$AAi?$AAn?$AAe@ 000000018003dff0     libucrtd:debug_heap.obj
 0002:000020e8       ??_C@_0DA@HFBKENN@Error?3?5possible?5heap?5corruption@ 000000018003e0e8     libucrtd:debug_heap.obj
 0002:00002120       ??_C@_1JM@MCMEPJEP@?$AAr?$AAe?$AAa?$AAl?$AAl?$AAo?$AAc?$AAa?$AAt?$AAi?$AAo?$AAn?$AA_?$AAi?$AAs@ 000000018003e120     libucrtd:debug_heap.obj
 0002:000021c0       ??_C@_1DM@LNOPKAIJ@?$AA_?$AA_?$AAa?$AAc?$AAr?$AAt?$AA_?$AAl?$AAa?$AAs?$AAt?$AA_?$AAb?$AAl?$AAo@ 000000018003e1c0     libucrtd:debug_heap.obj
 0002:00002200       ??_C@_1DO@HABCJBHO@?$AA_?$AA_?$AAa?$AAc?$AAr?$AAt?$AA_?$AAf?$AAi?$AAr?$AAs?$AAt?$AA_?$AAb?$AAl@ 000000018003e200     libucrtd:debug_heap.obj
 0002:00002240       ??_C@_1CC@CKEAHJPH@?$AAb?$AAl?$AAo?$AAc?$AAk?$AA?5?$AA?$CB?$AA?$DN?$AA?5?$AAn?$AAu?$AAl?$AAl?$AAp?$AAt@ 000000018003e240     libucrtd:debug_heap.obj
 0002:00002270       ??_C@_0EJ@HEIBCIMJ@The?5Block?5at?50x?$CFp?5was?5allocated@ 000000018003e270     libucrtd:debug_heap.obj
 0002:000022c0       ??_C@_0BL@KEIPLFAC@Client?5hook?5free?5failure?4?6@ 000000018003e2c0     libucrtd:debug_heap.obj
 0002:000022e0       ??_C@_1FA@KDNEBILF@?$AAi?$AAs?$AA_?$AAb?$AAl?$AAo?$AAc?$AAk?$AA_?$AAt?$AAy?$AAp?$AAe?$AA_?$AAv@ 000000018003e2e0     libucrtd:debug_heap.obj
 0002:00002330       ??_C@_0KI@JGFOHMEB@HEAP?5CORRUPTION?5DETECTED?3?5befor@ 000000018003e330     libucrtd:debug_heap.obj
 0002:000023e0       ??_C@_0IK@PJCGLBOB@HEAP?5CORRUPTION?5DETECTED?3?5befor@ 000000018003e3e0     libucrtd:debug_heap.obj
 0002:00002470       ??_C@_0KE@MBMNHHHN@HEAP?5CORRUPTION?5DETECTED?3?5after@ 000000018003e470     libucrtd:debug_heap.obj
 0002:00002520       ??_C@_0IG@LEMBDCJK@HEAP?5CORRUPTION?5DETECTED?3?5after@ 000000018003e520     libucrtd:debug_heap.obj
 0002:000025b0       ??_C@_1OK@GFEOEJAF@?$AAh?$AAe?$AAa?$AAd?$AAe?$AAr?$AA?9?$AA?$DO?$AA_?$AAl?$AAi?$AAn?$AAe?$AA_?$AAn@ 000000018003e5b0     libucrtd:debug_heap.obj
 0002:000026a0       ??_C@_1ME@GFALMLNA@?$AAh?$AAe?$AAa?$AAd?$AAe?$AAr?$AA?9?$AA?$DO?$AA_?$AAb?$AAl?$AAo?$AAc?$AAk?$AA_@ 000000018003e6a0     libucrtd:debug_heap.obj
 0002:00002768       ??_C@_1DI@ILNOPEPI@?$AA_?$AA_?$AAa?$AAc?$AAr?$AAt?$AA_?$AAl?$AAa?$AAs?$AAt?$AA_?$AAb?$AAl?$AAo@ 000000018003e768     libucrtd:debug_heap.obj
 0002:000027a0       ??_C@_1DK@KEHFGDIJ@?$AA_?$AA_?$AAa?$AAc?$AAr?$AAt?$AA_?$AAf?$AAi?$AAr?$AAs?$AAt?$AA_?$AAb?$AAl@ 000000018003e7a0     libucrtd:debug_heap.obj
 0002:000027e0       ??_C@_1BG@MBKOGDLD@?$AA_?$AAm?$AAs?$AAi?$AAz?$AAe?$AA_?$AAd?$AAb?$AAg@ 000000018003e7e0     libucrtd:debug_heap.obj
 0002:000027f8       ??_C@_07OHKEFPKJ@DAMAGED@  000000018003e7f8     libucrtd:debug_heap.obj
 0002:00002800       ??_C@_0KA@IHNJJKPL@HEAP?5CORRUPTION?5DETECTED?3?5on?5to@ 000000018003e800     libucrtd:debug_heap.obj
 0002:000028a0       ??_C@_0IC@BBJIOOJH@HEAP?5CORRUPTION?5DETECTED?3?5on?5to@ 000000018003e8a0     libucrtd:debug_heap.obj
 0002:00002930       ??_C@_0EG@DGJMPDBH@?$CFhs?5located?5at?50x?$CFp?5is?5?$CFIu?5byte@ 000000018003e930     libucrtd:debug_heap.obj
 0002:00002978       ??_C@_0CI@JMLBEDHJ@?$CFhs?5located?5at?50x?$CFp?5is?5?$CFIu?5byte@ 000000018003e978     libucrtd:debug_heap.obj
 0002:000029a0       ??_C@_0EG@GPFHANHO@Cycle?5in?5block?5list?5detected?5wh@ 000000018003e9a0     libucrtd:debug_heap.obj
 0002:000029e8       ??_C@_0BJ@ELMAOCAJ@Heap?5validation?5failed?4?6@ 000000018003e9e8     libucrtd:debug_heap.obj
 0002:00002a10       ??_C@_1IE@BBIFDGEB@?$AAn?$AAe?$AAw?$AA_?$AAb?$AAi?$AAt?$AAs?$AA?5?$AA?$DN?$AA?$DN?$AA?5?$AA_?$AAC?$AAR@ 000000018003ea10     libucrtd:debug_heap.obj
 0002:00002a98       ??_C@_1BO@GJFDNMNF@?$AA_?$AAC?$AAr?$AAt?$AAS?$AAe?$AAt?$AAD?$AAb?$AAg?$AAF?$AAl?$AAa?$AAg@ 000000018003ea98     libucrtd:debug_heap.obj
 0002:00002ab8       ??_C@_1CC@BBKMONGA@?$AAs?$AAt?$AAa?$AAt?$AAe?$AA?5?$AA?$CB?$AA?$DN?$AA?5?$AAn?$AAu?$AAl?$AAl?$AAp?$AAt@ 000000018003eab8     libucrtd:debug_heap.obj
 0002:00002ae0       ??_C@_1CE@NJJKELF@?$AA_?$AAC?$AAr?$AAt?$AAM?$AAe?$AAm?$AAC?$AAh?$AAe?$AAc?$AAk?$AAp?$AAo?$AAi@ 000000018003eae0     libucrtd:debug_heap.obj
 0002:00002b08       ??_C@_0DP@LEFMFBOD@Bad?5memory?5block?5found?5at?50x?$CFp?4@ 000000018003eb08     libucrtd:debug_heap.obj
 0002:00002b48       ??_C@_0CB@EAAIGELO@Bad?5memory?5block?5found?5at?50x?$CFp?4@ 000000018003eb48     libucrtd:debug_heap.obj
 0002:00002b6c       ??_C@_05MKKEDADM@?$CF?42X?5@ 000000018003eb6c     libucrtd:debug_heap.obj
 0002:00002b78       ??_C@_1CC@DIJAHFFJ@?$AAp?$AAr?$AAi?$AAn?$AAt?$AA_?$AAb?$AAl?$AAo?$AAc?$AAk?$AA_?$AAd?$AAa?$AAt@ 000000018003eb78     libucrtd:debug_heap.obj
 0002:00002ba0       ??_C@_1BI@KALLJECN@?$AA?$CI?$AA?$CK?$AA_?$AAe?$AAr?$AAr?$AAn?$AAo?$AA?$CI?$AA?$CJ?$AA?$CJ@ 000000018003eba0     libucrtd:debug_heap.obj
 0002:00002bb8       ??_C@_0BA@HJBKCELP@?5Data?3?5?$DM?$CFs?$DO?5?$CFs?6@ 000000018003ebb8     libucrtd:debug_heap.obj
 0002:00002bc8       ??_C@_0BE@KCIPKCIA@Dumping?5objects?5?9?$DO?6@ 000000018003ebc8     libucrtd:debug_heap.obj
 0002:00002be0       ??_C@_0BE@OIEFNFL@?$CDFile?5Error?$CD?$CI?$CFd?$CJ?5?3?5@ 000000018003ebe0     libucrtd:debug_heap.obj
 0002:00002bf8       ??_C@_0L@JMEFFCCJ@?$CFhs?$CI?$CFd?$CJ?5?3?5@ 000000018003ebf8     libucrtd:debug_heap.obj
 0002:00002c04       ??_C@_06PKLGBFGM@?$HL?$CFld?$HN?5@ 000000018003ec04     libucrtd:debug_heap.obj
 0002:00002c10       ??_C@_0DD@GHNAAKBB@client?5block?5at?50x?$CFp?0?5subtype?5?$CF@ 000000018003ec10     libucrtd:debug_heap.obj
 0002:00002c48       ??_C@_0CH@FAGDDGPN@normal?5block?5at?50x?$CFp?0?5?$CFIu?5bytes@ 000000018003ec48     libucrtd:debug_heap.obj
 0002:00002c70       ??_C@_0DA@MDLBNIBM@crt?5block?5at?50x?$CFp?0?5subtype?5?$CFx?0?5@ 000000018003ec70     libucrtd:debug_heap.obj
 0002:00002ca0       ??_C@_0BH@GFGKJDCO@Object?5dump?5complete?4?6@ 000000018003eca0     libucrtd:debug_heap.obj
 0002:00002cb8       ??_C@_0BI@JBFPOEJA@Detected?5memory?5leaks?$CB?6@ 000000018003ecb8     libucrtd:debug_heap.obj
 0002:00002cd0       ??_C@_1GI@BBAEIKL@?$AA?$CI?$AA?$CI?$AAd?$AAe?$AAs?$AAt?$AAi?$AAn?$AAa?$AAt?$AAi?$AAo?$AAn?$AA?$CJ?$AA?$CJ@ 000000018003ecd0     libucrtd:strcpy_s.obj
 0002:00002d40       ??_C@_1HI@PBJPCEBC@?$AAm?$AAi?$AAn?$AAk?$AAe?$AAr?$AAn?$AAe?$AAl?$AA?2?$AAc?$AAr?$AAt?$AAs?$AA?2@ 000000018003ed40     libucrtd:strcpy_s.obj
 0002:00002db8       ??_C@_1CA@FHIAGDFH@?$AAc?$AAo?$AAm?$AAm?$AAo?$AAn?$AA_?$AAt?$AAc?$AAs?$AAc?$AAp?$AAy?$AA_?$AAs@ 000000018003edb8     libucrtd:strcpy_s.obj
 0002:00002dd8       ??_C@_1CK@EIOKGPJL@?$AA?$CI?$AA?$CI?$AA?$CI?$AAs?$AAo?$AAu?$AAr?$AAc?$AAe?$AA?$CJ?$AA?$CJ?$AA?$CJ?$AA?5?$AA?$CB?$AA?$DN@ 000000018003edd8     libucrtd:strcpy_s.obj
 0002:00002e08       ??_C@_1CI@HCPHDDLE@?$AAB?$AAu?$AAf?$AAf?$AAe?$AAr?$AA?5?$AAi?$AAs?$AA?5?$AAt?$AAo?$AAo?$AA?5?$AAs@ 000000018003ee08     libucrtd:strcpy_s.obj
 0002:00002e30       ??_C@_1DM@MADKGDLO@?$AA?$CI?$AAL?$AA?$CC?$AAB?$AAu?$AAf?$AAf?$AAe?$AAr?$AA?5?$AAi?$AAs?$AA?5?$AAt?$AAo@ 000000018003ee30     libucrtd:strcpy_s.obj
 0002:00002e70       ??_C@_1DA@LLLMNMKI@?$AAa?$AAb?$AAo?$AAr?$AAt?$AA?$CI?$AA?$CJ?$AA?5?$AAh?$AAa?$AAs?$AA?5?$AAb?$AAe?$AAe@ 000000018003ee70     libucrtd:abort.obj
 0002:00002ea0       ?format_validation_lookup_table_spectre@__crt_stdio_output@@3V?$spectre_mitigated_lookup_table@Ustate_transition_pair@__crt_stdio_output@@$0IA@@1@B 000000018003eea0     libucrtd:output.obj
 0002:000032a0       ??_C@_1GA@MOBAPGIO@?$AAm?$AAi?$AAn?$AAk?$AAe?$AAr?$AAn?$AAe?$AAl?$AA?2?$AAc?$AAr?$AAt?$AAs?$AA?2@ 000000018003f2a0     libucrtd:output.obj
 0002:00003300       ??_C@_1CE@EAKLPBKK@?$AAf?$AAo?$AAr?$AAm?$AAa?$AAt?$AA?5?$AA?$CB?$AA?$DN?$AA?5?$AAn?$AAu?$AAl?$AAl?$AAp@ 000000018003f300     libucrtd:output.obj
 0002:00003328       ??_C@_1CA@PIMGHCEK@?$AAc?$AAo?$AAm?$AAm?$AAo?$AAn?$AA_?$AAv?$AAs?$AAp?$AAr?$AAi?$AAn?$AAt?$AAf@ 000000018003f328     libucrtd:output.obj
 0002:00003350       ??_C@_1EO@EGEEFEFM@?$AAb?$AAu?$AAf?$AAf?$AAe?$AAr?$AA_?$AAc?$AAo?$AAu?$AAn?$AAt?$AA?5?$AA?$DN?$AA?$DN@ 000000018003f350     libucrtd:output.obj
 0002:000033a0       ??_C@_1CE@JEILLNB@?$AAc?$AAo?$AAm?$AAm?$AAo?$AAn?$AA_?$AAv?$AAs?$AAp?$AAr?$AAi?$AAn?$AAt?$AAf@ 000000018003f3a0     libucrtd:output.obj
 0002:000033d0       ??_C@_1EM@OAFHAOLH@?$AAb?$AAu?$AAf?$AAf?$AAe?$AAr?$AA?5?$AA?$CB?$AA?$DN?$AA?5?$AAn?$AAu?$AAl?$AAl?$AAp@ 000000018003f3d0     libucrtd:output.obj
 0002:00003420       ??_C@_1DA@HPBFKMEB@?$AA?$CI?$AA?$CC?$AAB?$AAu?$AAf?$AAf?$AAe?$AAr?$AA?5?$AAt?$AAo?$AAo?$AA?5?$AAs?$AAm@ 000000018003f420     libucrtd:output.obj
 0002:00003450       ??_C@_1CG@LHFJHFBB@?$AAc?$AAo?$AAm?$AAm?$AAo?$AAn?$AA_?$AAv?$AAs?$AAn?$AAp?$AAr?$AAi?$AAn?$AAt@ 000000018003f450     libucrtd:output.obj
 0002:00003478       ??_C@_1CM@JOIJBMEM@?$AA_?$AAf?$AAo?$AAr?$AAm?$AAa?$AAt?$AA_?$AAi?$AAt?$AA?5?$AA?$CB?$AA?$DN?$AA?5?$AAn@ 000000018003f478     libucrtd:output.obj
 0002:000034b0       ??_C@_1HA@DMAAKIJP@?$AAm?$AAi?$AAn?$AAk?$AAe?$AAr?$AAn?$AAe?$AAl?$AA?2?$AAc?$AAr?$AAt?$AAs?$AA?2@ 000000018003f4b0     libucrtd:output.obj
 0002:00003520       ??_C@_1EE@DMAIGNBG@?$AA?$CI?$AA?$CC?$AAI?$AAn?$AAc?$AAo?$AAr?$AAr?$AAe?$AAc?$AAt?$AA?5?$AAf?$AAo?$AAr@ 000000018003f520     libucrtd:output.obj
 0002:00003570       ??_C@_1FG@OBJBDPAC@?$AA?$CI?$AA?$CC?$AAN?$AA?5?$AAl?$AAe?$AAn?$AAg?$AAt?$AAh?$AA?5?$AAm?$AAo?$AAd?$AAi@ 000000018003f570     libucrtd:output.obj
 0002:000035d0       ??_C@_1EC@GJPNJDCN@?$AA_?$AAl?$AAe?$AAn?$AAg?$AAt?$AAh?$AA?5?$AA?$DN?$AA?$DN?$AA?5?$AAl?$AAe?$AAn?$AAg@ 000000018003f5d0     libucrtd:output.obj
 0002:00003618       ??_C@_1DG@CEJKFDMO@?$AAs?$AAt?$AAa?$AAt?$AAe?$AA_?$AAc?$AAa?$AAs?$AAe?$AA_?$AAn?$AAo?$AAr?$AAm@ 000000018003f618     libucrtd:output.obj
 0002:00003650       ??_C@_1CI@DDKMNCPP@?$AA_?$AAc?$AAo?$AAn?$AAt?$AAe?$AAx?$AAt?$AA?5?$AA?$CB?$AA?$DN?$AA?5?$AAn?$AAu?$AAl@ 000000018003f650     libucrtd:output.obj
 0002:00003680       ??_C@_1HK@IIPGOADH@?$AA_?$AA_?$AAc?$AAr?$AAt?$AA_?$AAs?$AAt?$AAd?$AAi?$AAo?$AA_?$AAo?$AAu?$AAt@ 000000018003f680     libucrtd:output.obj
 0002:00003700       ??_C@_1HE@IACOMEJF@?$AA_?$AA_?$AAc?$AAr?$AAt?$AA_?$AAs?$AAt?$AAd?$AAi?$AAo?$AA_?$AAo?$AAu?$AAt@ 000000018003f700     libucrtd:output.obj
 0002:00003780       ??_C@_1GC@BNMHNGKM@?$AA_?$AAs?$AAt?$AAa?$AAt?$AAe?$AA?5?$AA?$DN?$AA?$DN?$AA?5?$AAs?$AAt?$AAa?$AAt?$AAe@ 000000018003f780     libucrtd:output.obj
 0002:000037f0       ??_C@_1BEC@NDOOKIMC@?$AA_?$AA_?$AAc?$AAr?$AAt?$AA_?$AAs?$AAt?$AAd?$AAi?$AAo?$AA_?$AAo?$AAu?$AAt@ 000000018003f7f0     libucrtd:output.obj
 0002:00003940       ??_C@_1EK@PNGFDECN@?$AA?$CI?$AA?$CC?$AA?8?$AAn?$AA?8?$AA?5?$AAf?$AAo?$AAr?$AAm?$AAa?$AAt?$AA?5?$AAs?$AAp@ 000000018003f940     libucrtd:output.obj
 0002:00003990       ??_C@_1EO@GHKFGFKL@?$AA?$CI?$AA?$CC?$AAI?$AAn?$AAv?$AAa?$AAl?$AAi?$AAd?$AA?5?$AAi?$AAn?$AAt?$AAe?$AAg@ 000000018003f990     libucrtd:output.obj
 0002:000039e0       ??_C@_1BDG@KOLEFKPF@?$AA_?$AA_?$AAc?$AAr?$AAt?$AA_?$AAs?$AAt?$AAd?$AAi?$AAo?$AA_?$AAo?$AAu?$AAt@ 000000018003f9e0     libucrtd:output.obj
 0002:00003b18       ??_C@_1O@CEDCILHN@?$AA?$CI?$AAn?$AAu?$AAl?$AAl?$AA?$CJ@ 000000018003fb18     libucrtd:output.obj
 0002:00003b28       ??_C@_06OJHGLDPL@?$CInull?$CJ@ 000000018003fb28     libucrtd:output.obj
 0002:00003b30       ??_C@_1CK@LGDCECDH@?$AA_?$AAf?$AAo?$AAr?$AAm?$AAa?$AAt?$AA_?$AAc?$AAh?$AAa?$AAr?$AA?5?$AA?$CB?$AA?$DN@ 000000018003fb30     libucrtd:output.obj
 0002:00003b60       ??_C@_0DI@KIFBHMNO@minkernel?2crts?2ucrt?2inc?2corecrt@ 000000018003fb60     libucrtd:output.obj
 0002:00003ba0       ??_C@_1BMK@JGIBNIA@?$AA_?$AA_?$AAc?$AAr?$AAt?$AA_?$AAs?$AAt?$AAd?$AAi?$AAo?$AA_?$AAo?$AAu?$AAt@ 000000018003fba0     libucrtd:output.obj
 0002:00003d70       ??_C@_1BLC@INKIGOCN@?$AA_?$AA_?$AAc?$AAr?$AAt?$AA_?$AAs?$AAt?$AAd?$AAi?$AAo?$AA_?$AAo?$AAu?$AAt@ 000000018003fd70     libucrtd:output.obj
 0002:00003f30       ??_C@_1BNK@KHNJGCCP@?$AA_?$AA_?$AAc?$AAr?$AAt?$AA_?$AAs?$AAt?$AAd?$AAi?$AAo?$AA_?$AAo?$AAu?$AAt@ 000000018003ff30     libucrtd:output.obj
 0002:00004110       ??_C@_1BNO@OHFFMOOJ@?$AA_?$AA_?$AAc?$AAr?$AAt?$AA_?$AAs?$AAt?$AAd?$AAi?$AAo?$AA_?$AAo?$AAu?$AAt@ 0000000180040110     libucrtd:output.obj
 0002:000042f0       ??_C@_1BMC@FAGJFBLI@?$AA_?$AA_?$AAc?$AAr?$AAt?$AA_?$AAs?$AAt?$AAd?$AAi?$AAo?$AA_?$AAo?$AAu?$AAt@ 00000001800402f0     libucrtd:output.obj
 0002:000044c0       ??_C@_1BMG@CGPDIFDK@?$AA_?$AA_?$AAc?$AAr?$AAt?$AA_?$AAs?$AAt?$AAd?$AAi?$AAo?$AA_?$AAo?$AAu?$AAt@ 00000001800404c0     libucrtd:output.obj
 0002:00004690       ??_C@_1BNC@OHPDPPJK@?$AA_?$AA_?$AAc?$AAr?$AAt?$AA_?$AAs?$AAt?$AAd?$AAi?$AAo?$AA_?$AAo?$AAu?$AAt@ 0000000180040690     libucrtd:output.obj
 0002:00004870       ??_C@_1BLK@FOLFMPJH@?$AA_?$AA_?$AAc?$AAr?$AAt?$AA_?$AAs?$AAt?$AAd?$AAi?$AAo?$AA_?$AAo?$AAu?$AAt@ 0000000180040870     libucrtd:output.obj
 0002:00004a30       ??_C@_1BNO@NAODCKFA@?$AA_?$AA_?$AAc?$AAr?$AAt?$AA_?$AAs?$AAt?$AAd?$AAi?$AAo?$AA_?$AAo?$AAu?$AAt@ 0000000180040a30     libucrtd:output.obj
 0002:00004c10       ??_C@_1BMG@BBEFGBID@?$AA_?$AA_?$AAc?$AAr?$AAt?$AA_?$AAs?$AAt?$AAd?$AAi?$AAo?$AA_?$AAo?$AAu?$AAt@ 0000000180040c10     libucrtd:output.obj
 0002:00004de0       ??_C@_1BNC@JPKLPOHO@?$AA_?$AA_?$AAc?$AAr?$AAt?$AA_?$AAs?$AAt?$AAd?$AAi?$AAo?$AA_?$AAo?$AAu?$AAt@ 0000000180040de0     libucrtd:output.obj
 0002:00004fc0       ??_C@_1GE@DPGDJKLM@?$AAm?$AAi?$AAn?$AAk?$AAe?$AAr?$AAn?$AAe?$AAl?$AA?2?$AAc?$AAr?$AAt?$AAs?$AA?2@ 0000000180040fc0     libucrtd:atox.obj
 0002:00005030       ??_C@_1EO@MLJCKPIB@?$AAb?$AAa?$AAs?$AAe?$AA?5?$AA?$DN?$AA?$DN?$AA?5?$AA0?$AA?5?$AA?$HM?$AA?$HM?$AA?5?$AA?$CI?$AA2@ 0000000180041030     libucrtd:atox.obj
 0002:00005080       ??_C@_1DI@BANODKFL@?$AA_?$AA_?$AAc?$AAr?$AAt?$AA_?$AAs?$AAt?$AAr?$AAt?$AAo?$AAx?$AA?3?$AA?3?$AAp@ 0000000180041080     libucrtd:atox.obj
 0002:000050b8       ??_C@_1CM@GJENOOEJ@?$AAc?$AA?5?$AA?$DN?$AA?$DN?$AA?5?$AA?8?$AA?2?$AA0?$AA?8?$AA?5?$AA?$HM?$AA?$HM?$AA?5?$AA?$CK?$AA_@ 00000001800410b8     libucrtd:atox.obj
 0002:000050f0       ??_C@_1HA@CONLANFI@?$AA_?$AA_?$AAc?$AAr?$AAt?$AA_?$AAs?$AAt?$AAr?$AAt?$AAo?$AAx?$AA?3?$AA?3?$AAc@ 00000001800410f0     libucrtd:atox.obj
 0002:00005160       ??_C@_1BM@PNEBBBDO@?$AA_?$AAp?$AA?5?$AA?$CB?$AA?$DN?$AA?5?$AAn?$AAu?$AAl?$AAl?$AAp?$AAt?$AAr@ 0000000180041160     libucrtd:atox.obj
 0002:00005180       ??_C@_1HG@FCDBLOEG@?$AA_?$AA_?$AAc?$AAr?$AAt?$AA_?$AAs?$AAt?$AAr?$AAt?$AAo?$AAx?$AA?3?$AA?3?$AAc@ 0000000180041180     libucrtd:atox.obj
 0002:00005200       ??_C@_1GK@MNHIDABG@?$AA_?$AA_?$AAc?$AAr?$AAt?$AA_?$AAs?$AAt?$AAr?$AAt?$AAo?$AAx?$AA?3?$AA?3?$AAc@ 0000000180041200     libucrtd:atox.obj
 0002:00005270       ??_C@_1HA@MKKIHBHP@?$AA_?$AA_?$AAc?$AAr?$AAt?$AA_?$AAs?$AAt?$AAr?$AAt?$AAo?$AAx?$AA?3?$AA?3?$AAc@ 0000000180041270     libucrtd:atox.obj
 0002:000052f8       ??_C@_1BA@GLMCNLEM@?$AAW?$AAa?$AAr?$AAn?$AAi?$AAn?$AAg@ 00000001800412f8     libucrtd:dbgrpt.obj
 0002:00005308       ??_C@_1M@ILHOPKA@?$AAE?$AAr?$AAr?$AAo?$AAr@ 0000000180041308     libucrtd:dbgrpt.obj
 0002:00005318       ??_C@_1CC@CGHMNGDG@?$AAA?$AAs?$AAs?$AAe?$AAr?$AAt?$AAi?$AAo?$AAn?$AA?5?$AAF?$AAa?$AAi?$AAl?$AAe@ 0000000180041318     libucrtd:dbgrpt.obj
 0002:00005350       ??_C@_1OG@PMPPFHAF@?$AA?6?$AA?6?$AAF?$AAo?$AAr?$AA?5?$AAi?$AAn?$AAf?$AAo?$AAr?$AAm?$AAa?$AAt?$AAi@ 0000000180041350     libucrtd:dbgrpt.obj
 0002:00005440       ??_C@_1MG@LJLILFFD@?$AAD?$AAe?$AAb?$AAu?$AAg?$AA?5?$AA?$CF?$AAl?$AAs?$AA?$CB?$AA?6?$AA?6?$AAP?$AAr?$AAo@ 0000000180041440     libucrtd:dbgrpt.obj
 0002:00005510       ??_C@_1MG@OODCADGL@?$AAD?$AAe?$AAb?$AAu?$AAg?$AA?5?$AA?$CF?$AAl?$AAs?$AA?$CB?$AA?6?$AA?6?$AAP?$AAr?$AAo@ 0000000180041510     libucrtd:dbgrpt.obj
 0002:000055d8       ??_C@_0BH@DNAGHKFM@?$DMprogram?5name?5unknown?$DO@ 00000001800415d8     libucrtd:dbgrpt.obj
 0002:000055f0       ??_C@_1CO@EAEJAADC@?$AA?$DM?$AAp?$AAr?$AAo?$AAg?$AAr?$AAa?$AAm?$AA?5?$AAn?$AAa?$AAm?$AAe?$AA?5?$AAu@ 00000001800415f0     libucrtd:dbgrpt.obj
 0002:00005620       ??_C@_1FO@GMJDLAJD@?$AAm?$AAi?$AAn?$AAk?$AAe?$AAr?$AAn?$AAe?$AAl?$AA?2?$AAc?$AAr?$AAt?$AAs?$AA?2@ 0000000180041620     libucrtd:dbgrpt.obj
 0002:00005680       ??_C@_1CM@EHMOGBJJ@?$AAc?$AAo?$AAm?$AAm?$AAo?$AAn?$AA_?$AAm?$AAe?$AAs?$AAs?$AAa?$AAg?$AAe?$AA_@ 0000000180041680     libucrtd:dbgrpt.obj
 0002:000056b0       ??_C@_1PE@ECNALGCA@?$AAt?$AAr?$AAa?$AAi?$AAt?$AAs?$AA?3?$AA?3?$AAt?$AAc?$AAs?$AAc?$AAp?$AAy?$AA_@ 00000001800416b0     libucrtd:dbgrpt.obj
 0002:000057a4       ??_C@_11LOCGONAA@@         00000001800417a4     libucrtd:dbgrpt.obj
 0002:000057a8       ??_C@_1BK@PEDCIPMA@?$AAE?$AAx?$AAp?$AAr?$AAe?$AAs?$AAs?$AAi?$AAo?$AAn?$AA?3?$AA?5@ 00000001800417a8     libucrtd:dbgrpt.obj
 0002:000057c4       ??_C@_15IABLJNFO@?$AA?6?$AA?6@ 00000001800417c4     libucrtd:dbgrpt.obj
 0002:000057d0       ??_C@_1BA@GLLGCPCK@?$AA?6?$AAL?$AAi?$AAn?$AAe?$AA?3?$AA?5@ 00000001800417d0     libucrtd:dbgrpt.obj
 0002:000057e0       ??_C@_1BA@LNHECFIM@?$AA?6?$AAF?$AAi?$AAl?$AAe?$AA?3?$AA?5@ 00000001800417e0     libucrtd:dbgrpt.obj
 0002:000057f0       ??_C@_17LGKOMLJ@?$AA?4?$AA?4?$AA?4@ 00000001800417f0     libucrtd:dbgrpt.obj
 0002:000057f8       ??_C@_1BE@CGCJKGHI@?$AA?6?$AAM?$AAo?$AAd?$AAu?$AAl?$AAe?$AA?3?$AA?5@ 00000001800417f8     libucrtd:dbgrpt.obj
 0002:00005810       ??_C@_1JM@IBOIJEOO@?$AAw?$AAc?$AAs?$AAc?$AAp?$AAy?$AA_?$AAs?$AA?$CI?$AAm?$AAe?$AAs?$AAs?$AAa?$AAg@ 0000000180041810     libucrtd:dbgrpt.obj
 0002:000058b0       ??_C@_1FG@BBOLDHGF@?$AA_?$AAC?$AAr?$AAt?$AAD?$AAb?$AAg?$AAR?$AAe?$AAp?$AAo?$AAr?$AAt?$AA?3?$AA?5@ 00000001800418b0     libucrtd:dbgrpt.obj
 0002:00005910       ??_C@_1EK@MBDPDCGA@?$AAM?$AAi?$AAc?$AAr?$AAo?$AAs?$AAo?$AAf?$AAt?$AA?5?$AAV?$AAi?$AAs?$AAu?$AAa@ 0000000180041910     libucrtd:dbgrpt.obj
 0002:00005990       ??_C@_0DM@DKIFNNOL@minkernel?2crts?2ucrt?2src?2appcrt?2@ 0000000180041990     libucrtd:per_thread_data.obj
 0002:000059d0       ??_C@_1FO@NMANMHOD@?$AAc?$AAa?$AAc?$AAh?$AAe?$AAd?$AA_?$AAs?$AAt?$AAa?$AAt?$AAe?$AA?5?$AA?$DN?$AA?$DN@ 00000001800419d0     libucrtd:win_policies.obj
 0002:00005a30       ??_C@_1HC@GHLNKBJK@?$AAm?$AAi?$AAn?$AAk?$AAe?$AAr?$AAn?$AAe?$AAl?$AA?2?$AAc?$AAr?$AAt?$AAs?$AA?2@ 0000000180041a30     libucrtd:win_policies.obj
 0002:00005c18       ??_C@_1CE@JMFACANE@?$AAr?$AAe?$AAs?$AAu?$AAl?$AAt?$AA?5?$AA?$CB?$AA?$DN?$AA?5?$AAn?$AAu?$AAl?$AAl?$AAp@ 0000000180041c18     libucrtd:errno.obj
 0002:00005c68       ??_C@_0DI@DNFGFCIK@minkernel?2crts?2ucrt?2inc?2corecrt@ 0000000180041c68     libucrtd:argv_wildcards.obj
 0002:00005ca0       ??_C@_1HE@CEMHPOHH@?$AAm?$AAi?$AAn?$AAk?$AAe?$AAr?$AAn?$AAe?$AAl?$AA?2?$AAc?$AAr?$AAt?$AAs?$AA?2@ 0000000180041ca0     libucrtd:argv_wildcards.obj
 0002:00005d18       ??_C@_1DK@IBFFOJGB@?$AAc?$AAo?$AAm?$AAm?$AAo?$AAn?$AA_?$AAe?$AAx?$AAp?$AAa?$AAn?$AAd?$AA_?$AAa@ 0000000180041d18     libucrtd:argv_wildcards.obj
 0002:00005d60       ??_C@_1MC@FLPKOFON@?$AAt?$AAr?$AAa?$AAi?$AAt?$AAs?$AA?3?$AA?3?$AAt?$AAc?$AAs?$AAn?$AAc?$AAp?$AAy@ 0000000180041d60     libucrtd:argv_wildcards.obj
 0002:00005e28       ??_C@_0DK@FPFMIIJB@minkernel?2crts?2ucrt?2src?2appcrt?2@ 0000000180041e28     libucrtd:argv_wildcards.obj
 0002:00005e70       ??_C@_1EA@KOCCBLAD@?$AAc?$AAo?$AAp?$AAy?$AA_?$AAa?$AAn?$AAd?$AA_?$AAa?$AAd?$AAd?$AA_?$AAa?$AAr@ 0000000180041e70     libucrtd:argv_wildcards.obj
 0002:00005eb0       ??_C@_1KM@GDJIGAGL@?$AAt?$AAr?$AAa?$AAi?$AAt?$AAs?$AA?3?$AA?3?$AAt?$AAc?$AAs?$AAn?$AAc?$AAp?$AAy@ 0000000180041eb0     libucrtd:argv_wildcards.obj
 0002:00005f60       ??_C@_1PI@FGFLAGCC@?$AAt?$AAr?$AAa?$AAi?$AAt?$AAs?$AA?3?$AA?3?$AAt?$AAc?$AAs?$AAn?$AAc?$AAp?$AAy@ 0000000180041f60     libucrtd:argv_wildcards.obj
 0002:000060a0       ??_C@_1M@HPNHIDJI@?$AAj?$AAa?$AA?9?$AAJ?$AAP@ 00000001800420a0     libucrtd:mbctype.obj
 0002:000060b0       ??_C@_1M@BIBDDEMK@?$AAz?$AAh?$AA?9?$AAC?$AAN@ 00000001800420b0     libucrtd:mbctype.obj
 0002:000060c0       ??_C@_1M@JLOOOEGK@?$AAk?$AAo?$AA?9?$AAK?$AAR@ 00000001800420c0     libucrtd:mbctype.obj
 0002:000060d0       ??_C@_1M@CLNBBOPM@?$AAz?$AAh?$AA?9?$AAT?$AAW@ 00000001800420d0     libucrtd:mbctype.obj
 0002:000060e0       ??_C@_0DE@HGDKNBFD@minkernel?2crts?2ucrt?2src?2appcrt?2@ 00000001800420e0     libucrtd:mbctype.obj
 0002:00006120       ??_C@_0ED@BLPEHJAI@minkernel?2crts?2ucrt?2src?2desktop@ 0000000180042120     libucrtd:get_environment_from_os.obj
 0002:00006210       ??_C@_1EA@JGEFHKEI@?$AAa?$AAp?$AAi?$AA?9?$AAm?$AAs?$AA?9?$AAw?$AAi?$AAn?$AA?9?$AAc?$AAo?$AAr?$AAe@ 0000000180042210     libucrtd:winapi_thunks.obj
 0002:00006250       ??_C@_1DI@IJCEHOCB@?$AAa?$AAp?$AAi?$AA?9?$AAm?$AAs?$AA?9?$AAw?$AAi?$AAn?$AA?9?$AAc?$AAo?$AAr?$AAe@ 0000000180042250     libucrtd:winapi_thunks.obj
 0002:00006290       ??_C@_1EI@MPIAOHOC@?$AAa?$AAp?$AAi?$AA?9?$AAm?$AAs?$AA?9?$AAw?$AAi?$AAn?$AA?9?$AAc?$AAo?$AAr?$AAe@ 0000000180042290     libucrtd:winapi_thunks.obj
 0002:000062e0       ??_C@_1FK@FPHCKFIE@?$AAa?$AAp?$AAi?$AA?9?$AAm?$AAs?$AA?9?$AAw?$AAi?$AAn?$AA?9?$AAc?$AAo?$AAr?$AAe@ 00000001800422e0     libucrtd:winapi_thunks.obj
 0002:00006340       ??_C@_1EM@DILCGIIO@?$AAa?$AAp?$AAi?$AA?9?$AAm?$AAs?$AA?9?$AAw?$AAi?$AAn?$AA?9?$AAc?$AAo?$AAr?$AAe@ 0000000180042340     libucrtd:winapi_thunks.obj
 0002:00006390       ??_C@_1DM@LNCGDDPN@?$AAa?$AAp?$AAi?$AA?9?$AAm?$AAs?$AA?9?$AAw?$AAi?$AAn?$AA?9?$AAc?$AAo?$AAr?$AAe@ 0000000180042390     libucrtd:winapi_thunks.obj
 0002:000063d0       ??_C@_1DO@FPAPJEMD@?$AAa?$AAp?$AAi?$AA?9?$AAm?$AAs?$AA?9?$AAw?$AAi?$AAn?$AA?9?$AAc?$AAo?$AAr?$AAe@ 00000001800423d0     libucrtd:winapi_thunks.obj
 0002:00006410       ??_C@_1DK@NDHNAHIO@?$AAa?$AAp?$AAi?$AA?9?$AAm?$AAs?$AA?9?$AAw?$AAi?$AAn?$AA?9?$AAc?$AAo?$AAr?$AAe@ 0000000180042410     libucrtd:winapi_thunks.obj
 0002:00006450       ??_C@_1DM@KGHDGBCM@?$AAa?$AAp?$AAi?$AA?9?$AAm?$AAs?$AA?9?$AAw?$AAi?$AAn?$AA?9?$AAc?$AAo?$AAr?$AAe@ 0000000180042450     libucrtd:winapi_thunks.obj
 0002:00006490       ??_C@_1EO@IJIOEFOH@?$AAa?$AAp?$AAi?$AA?9?$AAm?$AAs?$AA?9?$AAw?$AAi?$AAn?$AA?9?$AAr?$AAt?$AAc?$AAo@ 0000000180042490     libucrtd:winapi_thunks.obj
 0002:000064e0       ??_C@_1FG@HHGEKANL@?$AAa?$AAp?$AAi?$AA?9?$AAm?$AAs?$AA?9?$AAw?$AAi?$AAn?$AA?9?$AAs?$AAe?$AAc?$AAu@ 00000001800424e0     libucrtd:winapi_thunks.obj
 0002:00006540       ??_C@_1EG@DBIOJECG@?$AAe?$AAx?$AAt?$AA?9?$AAm?$AAs?$AA?9?$AAw?$AAi?$AAn?$AA?9?$AAn?$AAt?$AAu?$AAs@ 0000000180042540     libucrtd:winapi_thunks.obj
 0002:00006590       ??_C@_1EO@FIHMJCLF@?$AAe?$AAx?$AAt?$AA?9?$AAm?$AAs?$AA?9?$AAw?$AAi?$AAn?$AA?9?$AAn?$AAt?$AAu?$AAs@ 0000000180042590     libucrtd:winapi_thunks.obj
 0002:000065e0       ??_C@_1BC@DNHGCMLG@?$AAa?$AAd?$AAv?$AAa?$AAp?$AAi?$AA3?$AA2@ 00000001800425e0     libucrtd:winapi_thunks.obj
 0002:000065f8       ??_C@_1M@OAIMIKLP@?$AAn?$AAt?$AAd?$AAl?$AAl@ 00000001800425f8     libucrtd:winapi_thunks.obj
 0002:00006610       ??_C@_1EG@DPGNFKGC@?$AAa?$AAp?$AAi?$AA?9?$AAm?$AAs?$AA?9?$AAw?$AAi?$AAn?$AA?9?$AAa?$AAp?$AAp?$AAm@ 0000000180042610     libucrtd:winapi_thunks.obj
 0002:00006658       ??_C@_1O@BCCLBEOE@?$AAu?$AAs?$AAe?$AAr?$AA3?$AA2@ 0000000180042658     libucrtd:winapi_thunks.obj
 0002:00006668       ??_C@_1BA@IAIFMGEF@?$AAe?$AAx?$AAt?$AA?9?$AAm?$AAs?$AA?9@ 0000000180042668     libucrtd:winapi_thunks.obj
 0002:00006680       ??_C@_1HE@OILMBOBA@?$AAm?$AAi?$AAn?$AAk?$AAe?$AAr?$AAn?$AAe?$AAl?$AA?2?$AAc?$AAr?$AAt?$AAs?$AA?2@ 0000000180042680     libucrtd:winapi_thunks.obj
 0002:000066f8       ??_C@_0BA@FHFNEAED@AreFileApisANSI@ 00000001800426f8     libucrtd:winapi_thunks.obj
 0002:00006730       ??_C@_0BA@HNOPNCHB@GetActiveWindow@ 0000000180042730     libucrtd:winapi_thunks.obj
 0002:00006748       ??_C@_0BD@HHGDFDBJ@GetLastActivePopup@ 0000000180042748     libucrtd:winapi_thunks.obj
 0002:00006768       ??_C@_0BI@DFKBFLJE@GetProcessWindowStation@ 0000000180042768     libucrtd:winapi_thunks.obj
 0002:00006788       ??_C@_0BK@DEKFELLI@GetUserObjectInformationW@ 0000000180042788     libucrtd:winapi_thunks.obj
 0002:000067b8       ??_C@_0O@KKBNKAPF@LCMapStringEx@ 00000001800427b8     libucrtd:winapi_thunks.obj
 0002:000067d0       ??_C@_0BB@HBDEELFH@LocaleNameToLCID@ 00000001800427d0     libucrtd:winapi_thunks.obj
 0002:000067f0       ??_C@_0M@CHKKJDAI@MessageBoxA@ 00000001800427f0     libucrtd:winapi_thunks.obj
 0002:00006808       ??_C@_0M@DLDCCGNP@MessageBoxW@ 0000000180042808     libucrtd:winapi_thunks.obj
 0002:00006818       ??_C@_0CF@OJOFEIGO@AppPolicyGetProcessTerminationM@ 0000000180042818     libucrtd:winapi_thunks.obj
 0002:00006848       ??_C@_0CE@OICFMIKE@AppPolicyGetShowDeveloperDiagno@ 0000000180042848     libucrtd:winapi_thunks.obj
 0002:00006870       ??_C@_0BL@ODDJNEDA@AppPolicyGetWindowingModel@ 0000000180042870     libucrtd:winapi_thunks.obj
 0002:00006890       ??_C@_1DA@NBILLKNO@?$AAl?$AAo?$AAc?$AAa?$AAl?$AA_?$AAa?$AAc?$AAt?$AAi?$AAo?$AAn?$AA?5?$AA?$CB?$AA?$DN@ 0000000180042890     libucrtd:signal.obj
 0002:000068c0       ??_C@_1FO@CCGDPEKE@?$AAm?$AAi?$AAn?$AAk?$AAe?$AAr?$AAn?$AAe?$AAl?$AA?2?$AAc?$AAr?$AAt?$AAs?$AA?2@ 00000001800428c0     libucrtd:signal.obj
 0002:00006920       ??_C@_1M@DMJEIKHL@?$AAr?$AAa?$AAi?$AAs?$AAe@ 0000000180042920     libucrtd:signal.obj
 0002:00006930       ??_C@_1DO@MLNEDKGB@?$AA?$CI?$AA?$CC?$AAI?$AAn?$AAv?$AAa?$AAl?$AAi?$AAd?$AA?5?$AAs?$AAi?$AAg?$AAn?$AAa@ 0000000180042930     libucrtd:signal.obj
 0002:00006970       __lc_time_c                0000000180042970     libucrtd:nlsdata.obj
 0002:00006c30       ??_C@_03KOEHGMDN@Sun@      0000000180042c30     libucrtd:nlsdata.obj
 0002:00006c34       ??_C@_03PDAGKDH@Mon@       0000000180042c34     libucrtd:nlsdata.obj
 0002:00006c38       ??_C@_03NAGEINEP@Tue@      0000000180042c38     libucrtd:nlsdata.obj
 0002:00006c3c       ??_C@_03MHOMLAJA@Wed@      0000000180042c3c     libucrtd:nlsdata.obj
 0002:00006c40       ??_C@_03IOFIKPDN@Thu@      0000000180042c40     libucrtd:nlsdata.obj
 0002:00006c44       ??_C@_03IDIOELNC@Fri@      0000000180042c44     libucrtd:nlsdata.obj
 0002:00006c48       ??_C@_03FEFJNEK@Sat@       0000000180042c48     libucrtd:nlsdata.obj
 0002:00006c4c       ??_C@_06OOPIFAJ@Sunday@    0000000180042c4c     libucrtd:nlsdata.obj
 0002:00006c54       ??_C@_06JLEDEDGH@Monday@   0000000180042c54     libucrtd:nlsdata.obj
 0002:00006c60       ??_C@_07BAAGCFCM@Tuesday@  0000000180042c60     libucrtd:nlsdata.obj
 0002:00006c68       ??_C@_09DLIGFAKA@Wednesday@ 0000000180042c68     libucrtd:nlsdata.obj
 0002:00006c78       ??_C@_08HACCIKIA@Thursday@ 0000000180042c78     libucrtd:nlsdata.obj
 0002:00006c84       ??_C@_06JECMNKMI@Friday@   0000000180042c84     libucrtd:nlsdata.obj
 0002:00006c90       ??_C@_08INBOOONO@Saturday@ 0000000180042c90     libucrtd:nlsdata.obj
 0002:00006c9c       ??_C@_03JIHJHPIE@Jan@      0000000180042c9c     libucrtd:nlsdata.obj
 0002:00006ca0       ??_C@_03HJBDCHOM@Feb@      0000000180042ca0     libucrtd:nlsdata.obj
 0002:00006ca4       ??_C@_03ODNJBKGA@Mar@      0000000180042ca4     libucrtd:nlsdata.obj
 0002:00006ca8       ??_C@_03LEOLGMJP@Apr@      0000000180042ca8     libucrtd:nlsdata.obj
 0002:00006cac       ??_C@_03CNMDKL@May@        0000000180042cac     libucrtd:nlsdata.obj
 0002:00006cb0       ??_C@_03IDFGHECI@Jun@      0000000180042cb0     libucrtd:nlsdata.obj
 0002:00006cb4       ??_C@_03LBGABGKK@Jul@      0000000180042cb4     libucrtd:nlsdata.obj
 0002:00006cb8       ??_C@_03IFJFEIGA@Aug@      0000000180042cb8     libucrtd:nlsdata.obj
 0002:00006cbc       ??_C@_03GGCAPAJC@Sep@      0000000180042cbc     libucrtd:nlsdata.obj
 0002:00006cc0       ??_C@_03BMAOKBAD@Oct@      0000000180042cc0     libucrtd:nlsdata.obj
 0002:00006cc4       ??_C@_03JPJOFNIA@Nov@      0000000180042cc4     libucrtd:nlsdata.obj
 0002:00006cc8       ??_C@_03MKABNOCG@Dec@      0000000180042cc8     libucrtd:nlsdata.obj
 0002:00006cd0       ??_C@_07CGJPFGJA@January@  0000000180042cd0     libucrtd:nlsdata.obj
 0002:00006cd8       ??_C@_08GNJGEPFN@February@ 0000000180042cd8     libucrtd:nlsdata.obj
 0002:00006ce4       ??_C@_05HPCKOFNC@March@    0000000180042ce4     libucrtd:nlsdata.obj
 0002:00006cec       ??_C@_05DMJDNLEJ@April@    0000000180042cec     libucrtd:nlsdata.obj
 0002:00006cf4       ??_C@_04CNLMGBGM@June@     0000000180042cf4     libucrtd:nlsdata.obj
 0002:00006cfc       ??_C@_04MIEPOIFP@July@     0000000180042cfc     libucrtd:nlsdata.obj
 0002:00006d04       ??_C@_06LBBHFDDG@August@   0000000180042d04     libucrtd:nlsdata.obj
 0002:00006d10       ??_C@_09BHHEALKD@September@ 0000000180042d10     libucrtd:nlsdata.obj
 0002:00006d20       ??_C@_07JJNFCEND@October@  0000000180042d20     libucrtd:nlsdata.obj
 0002:00006d28       ??_C@_08HCHEGEOA@November@ 0000000180042d28     libucrtd:nlsdata.obj
 0002:00006d38       ??_C@_08EDHMEBNP@December@ 0000000180042d38     libucrtd:nlsdata.obj
 0002:00006d44       ??_C@_02DEDBPAFC@AM@       0000000180042d44     libucrtd:nlsdata.obj
 0002:00006d48       ??_C@_02CJNFDJBF@PM@       0000000180042d48     libucrtd:nlsdata.obj
 0002:00006d50       ??_C@_08BPBNCDIB@MM?1dd?1yy@ 0000000180042d50     libucrtd:nlsdata.obj
 0002:00006d60       ??_C@_0BE@CKGJFCPC@dddd?0?5MMMM?5dd?0?5yyyy@ 0000000180042d60     libucrtd:nlsdata.obj
 0002:00006d78       ??_C@_08JCCMCCIL@HH?3mm?3ss@ 0000000180042d78     libucrtd:nlsdata.obj
 0002:00006d88       ??_C@_17MBGCMIPB@?$AAS?$AAu?$AAn@ 0000000180042d88     libucrtd:nlsdata.obj
 0002:00006d90       ??_C@_17KBOMKBF@?$AAM?$AAo?$AAn@ 0000000180042d90     libucrtd:nlsdata.obj
 0002:00006d98       ??_C@_17BMKGEGOJ@?$AAT?$AAu?$AAe@ 0000000180042d98     libucrtd:nlsdata.obj
 0002:00006da0       ??_C@_17CJEDCEPE@?$AAW?$AAe?$AAd@ 0000000180042da0     libucrtd:nlsdata.obj
 0002:00006da8       ??_C@_17PDPHAADD@?$AAT?$AAh?$AAu@ 0000000180042da8     libucrtd:nlsdata.obj
 0002:00006db0       ??_C@_17HFOLPPLP@?$AAF?$AAr?$AAi@ 0000000180042db0     libucrtd:nlsdata.obj
 0002:00006db8       ??_C@_17GGIBDPIH@?$AAS?$AAa?$AAt@ 0000000180042db8     libucrtd:nlsdata.obj
 0002:00006dc0       ??_C@_1O@IHNHDHPB@?$AAS?$AAu?$AAn?$AAd?$AAa?$AAy@ 0000000180042dc0     libucrtd:nlsdata.obj
 0002:00006dd0       ??_C@_1O@MMNBFLIA@?$AAM?$AAo?$AAn?$AAd?$AAa?$AAy@ 0000000180042dd0     libucrtd:nlsdata.obj
 0002:00006de0       ??_C@_1BA@ENFBFFEK@?$AAT?$AAu?$AAe?$AAs?$AAd?$AAa?$AAy@ 0000000180042de0     libucrtd:nlsdata.obj
 0002:00006df0       ??_C@_1BE@EBOGMDOH@?$AAW?$AAe?$AAd?$AAn?$AAe?$AAs?$AAd?$AAa?$AAy@ 0000000180042df0     libucrtd:nlsdata.obj
 0002:00006e08       ??_C@_1BC@HHMNLIHE@?$AAT?$AAh?$AAu?$AAr?$AAs?$AAd?$AAa?$AAy@ 0000000180042e08     libucrtd:nlsdata.obj
 0002:00006e20       ??_C@_1O@PDICJHAG@?$AAF?$AAr?$AAi?$AAd?$AAa?$AAy@ 0000000180042e20     libucrtd:nlsdata.obj
 0002:00006e30       ??_C@_1BC@ENMNNPAJ@?$AAS?$AAa?$AAt?$AAu?$AAr?$AAd?$AAa?$AAy@ 0000000180042e30     libucrtd:nlsdata.obj
 0002:00006e48       ??_C@_17DKNBKCHM@?$AAJ?$AAa?$AAn@ 0000000180042e48     libucrtd:nlsdata.obj
 0002:00006e50       ??_C@_17LMDJEKJN@?$AAF?$AAe?$AAb@ 0000000180042e50     libucrtd:nlsdata.obj
 0002:00006e58       ??_C@_17CKNLEDEC@?$AAM?$AAa?$AAr@ 0000000180042e58     libucrtd:nlsdata.obj
 0002:00006e60       ??_C@_17LFPOIHDD@?$AAA?$AAp?$AAr@ 0000000180042e60     libucrtd:nlsdata.obj
 0002:00006e68       ??_C@_17PNNKMEED@?$AAM?$AAa?$AAy@ 0000000180042e68     libucrtd:nlsdata.obj
 0002:00006e70       ??_C@_17KCJGOCPB@?$AAJ?$AAu?$AAn@ 0000000180042e70     libucrtd:nlsdata.obj
 0002:00006e78       ??_C@_17IJPCKHK@?$AAJ?$AAu?$AAl@ 0000000180042e78     libucrtd:nlsdata.obj
 0002:00006e80       ??_C@_17ICPELBCN@?$AAA?$AAu?$AAg@ 0000000180042e80     libucrtd:nlsdata.obj
 0002:00006e88       ??_C@_17HCHCOKMG@?$AAS?$AAe?$AAp@ 0000000180042e88     libucrtd:nlsdata.obj
 0002:00006e90       ??_C@_17FNLKOI@?$AAO?$AAc?$AAt@ 0000000180042e90     libucrtd:nlsdata.obj
 0002:00006e98       ??_C@_17BBDMLCIG@?$AAN?$AAo?$AAv@ 0000000180042e98     libucrtd:nlsdata.obj
 0002:00006ea0       ??_C@_17EGKACKIF@?$AAD?$AAe?$AAc@ 0000000180042ea0     libucrtd:nlsdata.obj
 0002:00006ea8       ??_C@_1BA@EFMEIEBA@?$AAJ?$AAa?$AAn?$AAu?$AAa?$AAr?$AAy@ 0000000180042ea8     libucrtd:nlsdata.obj
 0002:00006eb8       ??_C@_1BC@JGDDFFAM@?$AAF?$AAe?$AAb?$AAr?$AAu?$AAa?$AAr?$AAy@ 0000000180042eb8     libucrtd:nlsdata.obj
 0002:00006ed0       ??_C@_1M@IKEENEDF@?$AAM?$AAa?$AAr?$AAc?$AAh@ 0000000180042ed0     libucrtd:nlsdata.obj
 0002:00006ee0       ??_C@_1M@GJNLMHFD@?$AAA?$AAp?$AAr?$AAi?$AAl@ 0000000180042ee0     libucrtd:nlsdata.obj
 0002:00006ef0       ??_C@_19EPFLPGAP@?$AAJ?$AAu?$AAn?$AAe@ 0000000180042ef0     libucrtd:nlsdata.obj
 0002:00006f00       ??_C@_19BIFMLPCD@?$AAJ?$AAu?$AAl?$AAy@ 0000000180042f00     libucrtd:nlsdata.obj
 0002:00006f10       ??_C@_1O@PAHLKOAC@?$AAA?$AAu?$AAg?$AAu?$AAs?$AAt@ 0000000180042f10     libucrtd:nlsdata.obj
 0002:00006f20       ??_C@_1BE@DKAAMBJL@?$AAS?$AAe?$AAp?$AAt?$AAe?$AAm?$AAb?$AAe?$AAr@ 0000000180042f20     libucrtd:nlsdata.obj
 0002:00006f38       ??_C@_1BA@EPANDLNG@?$AAO?$AAc?$AAt?$AAo?$AAb?$AAe?$AAr@ 0000000180042f38     libucrtd:nlsdata.obj
 0002:00006f48       ??_C@_1BC@BGLIFPF@?$AAN?$AAo?$AAv?$AAe?$AAm?$AAb?$AAe?$AAr@ 0000000180042f48     libucrtd:nlsdata.obj
 0002:00006f60       ??_C@_1BC@FEMKIFH@?$AAD?$AAe?$AAc?$AAe?$AAm?$AAb?$AAe?$AAr@ 0000000180042f60     libucrtd:nlsdata.obj
 0002:00006f74       ??_C@_15ODEHAHHF@?$AAA?$AAM@ 0000000180042f74     libucrtd:nlsdata.obj
 0002:00006f7c       ??_C@_15CLMNNGEL@?$AAP?$AAM@ 0000000180042f7c     libucrtd:nlsdata.obj
 0002:00006f88       ??_C@_1BC@IEBCMHCM@?$AAM?$AAM?$AA?1?$AAd?$AAd?$AA?1?$AAy?$AAy@ 0000000180042f88     libucrtd:nlsdata.obj
 0002:00006fa0       ??_C@_1CI@KNAKOEBC@?$AAd?$AAd?$AAd?$AAd?$AA?0?$AA?5?$AAM?$AAM?$AAM?$AAM?$AA?5?$AAd?$AAd?$AA?0?$AA?5@ 0000000180042fa0     libucrtd:nlsdata.obj
 0002:00006fc8       ??_C@_1BC@GDGBMEMK@?$AAH?$AAH?$AA?3?$AAm?$AAm?$AA?3?$AAs?$AAs@ 0000000180042fc8     libucrtd:nlsdata.obj
 0002:00006fe0       ??_C@_1M@BMHNFIME@?$AAe?$AAn?$AA?9?$AAU?$AAS@ 0000000180042fe0     libucrtd:nlsdata.obj
 0002:00006ff0       ??_C@_1DC@OGOLMDEL@?$AAp?$AAu?$AAb?$AAl?$AAi?$AAc?$AA_?$AAs?$AAt?$AAr?$AAe?$AAa?$AAm?$AA?5?$AA?$CB@ 0000000180042ff0     libucrtd:_sftbuf.obj
 0002:00007028       ??_C@_1CI@JELMFMDH@?$AAc?$AA?5?$AA?$DO?$AA?$DN?$AA?5?$AA?9?$AA1?$AA?5?$AA?$CG?$AA?$CG?$AA?5?$AAc?$AA?5?$AA?$DM?$AA?$DN@ 0000000180043028     libucrtd:isctype.obj
 0002:00007050       ??_C@_1GG@KPBGDFHJ@?$AAm?$AAi?$AAn?$AAk?$AAe?$AAr?$AAn?$AAe?$AAl?$AA?2?$AAc?$AAr?$AAt?$AAs?$AA?2@ 0000000180043050     libucrtd:isctype.obj
 0002:000070c0       ??_C@_1FO@GEKPJHID@?$AAm?$AAi?$AAn?$AAk?$AAe?$AAr?$AAn?$AAe?$AAl?$AA?2?$AAc?$AAr?$AAt?$AAs?$AA?2@ 00000001800430c0     libucrtd:expand.obj
 0002:00007120       ??_C@_1BK@JMCGJOCC@?$AA_?$AAe?$AAx?$AAp?$AAa?$AAn?$AAd?$AA_?$AAb?$AAa?$AAs?$AAe@ 0000000180043120     libucrtd:expand.obj
 0002:00007140       ??_C@_1IC@DCNEKBE@?$AAm?$AAi?$AAn?$AAk?$AAe?$AAr?$AAn?$AAe?$AAl?$AA?2?$AAc?$AAr?$AAt?$AAs?$AA?2@ 0000000180043140     libucrtd:report_runtime_error.obj
 0002:000071c8       ??_C@_1DI@BLFJHKKP@?$AA_?$AA_?$AAa?$AAc?$AAr?$AAt?$AA_?$AAr?$AAe?$AAp?$AAo?$AAr?$AAt?$AA_?$AAr@ 00000001800431c8     libucrtd:report_runtime_error.obj
 0002:00007200       ??_C@_1LE@MHPGJGKE@?$AAw?$AAc?$AAs?$AAc?$AAp?$AAy?$AA_?$AAs?$AA?$CI?$AAo?$AAu?$AAt?$AAm?$AAs?$AAg@ 0000000180043200     libucrtd:report_runtime_error.obj
 0002:000072b8       ??_C@_1DE@JNGNBFGO@?$AAR?$AAu?$AAn?$AAt?$AAi?$AAm?$AAe?$AA?5?$AAE?$AAr?$AAr?$AAo?$AAr?$AA?$CB?$AA?6@ 00000001800432b8     libucrtd:report_runtime_error.obj
 0002:000072f0       ??_C@_1HK@FJJNAABO@?$AAw?$AAc?$AAs?$AAc?$AAp?$AAy?$AA_?$AAs?$AA?$CI?$AAp?$AAr?$AAo?$AAg?$AAn?$AAa@ 00000001800432f0     libucrtd:report_runtime_error.obj
 0002:00007370       ??_C@_1HI@FLHKGEBE@?$AAw?$AAc?$AAs?$AAn?$AAc?$AAp?$AAy?$AA_?$AAs?$AA?$CI?$AAp?$AAc?$AAh?$AA?0?$AA?5@ 0000000180043370     libucrtd:report_runtime_error.obj
 0002:000073f0       ??_C@_1IG@MNNKBLBI@?$AAw?$AAc?$AAs?$AAc?$AAa?$AAt?$AA_?$AAs?$AA?$CI?$AAo?$AAu?$AAt?$AAm?$AAs?$AAg@ 00000001800433f0     libucrtd:report_runtime_error.obj
 0002:00007480       ??_C@_1IG@DFBBBDAN@?$AAw?$AAc?$AAs?$AAc?$AAa?$AAt?$AA_?$AAs?$AA?$CI?$AAo?$AAu?$AAt?$AAm?$AAs?$AAg@ 0000000180043480     libucrtd:report_runtime_error.obj
 0002:00007510       ??_C@_1BBC@DECGKMGJ@?$AA_?$AAl?$AAo?$AAc?$AA_?$AAu?$AAp?$AAd?$AAa?$AAt?$AAe?$AA?4?$AAG?$AAe?$AAt@ 0000000180043510     libucrtd:mbtowc.obj
 0002:00007630       ??_C@_1GE@CGIHMDEJ@?$AAm?$AAi?$AAn?$AAk?$AAe?$AAr?$AAn?$AAe?$AAl?$AA?2?$AAc?$AAr?$AAt?$AAs?$AA?2@ 0000000180043630     libucrtd:mbtowc.obj
 0002:000076a0       ??_C@_1HA@KNBGJAIN@?$AAU?$AAT?$AAF?$AA?9?$AA8?$AA?5?$AAi?$AAs?$AAn?$AA?8?$AAt?$AA?5?$AAs?$AAu?$AAp@ 00000001800436a0     libucrtd:mbtowc.obj
 0002:00007710       ??_C@_1BBA@EIIJPPL@?$AA_?$AAl?$AAo?$AAc?$AA_?$AAu?$AAp?$AAd?$AAa?$AAt?$AAe?$AA?4?$AAG?$AAe?$AAt@ 0000000180043710     libucrtd:mbtowc.obj
 0002:00007820       ??_C@_1IE@CDCHDACI@?$AA_?$AAl?$AAo?$AAc?$AA_?$AAu?$AAp?$AAd?$AAa?$AAt?$AAe?$AA?4?$AAG?$AAe?$AAt@ 0000000180043820     libucrtd:mbtowc.obj
 0002:000078a8       ??_C@_1DK@NBNOAGKB@?$AAd?$AAe?$AAs?$AAt?$AAi?$AAn?$AAa?$AAt?$AAi?$AAo?$AAn?$AA_?$AAc?$AAo?$AAu@ 00000001800438a8     libucrtd:wctomb.obj
 0002:000078f0       ??_C@_1GE@FCCEPHFG@?$AAm?$AAi?$AAn?$AAk?$AAe?$AAr?$AAn?$AAe?$AAl?$AA?2?$AAc?$AAr?$AAt?$AAs?$AA?2@ 00000001800438f0     libucrtd:wctomb.obj
 0002:00007958       ??_C@_1BI@IEADNOHF@?$AA_?$AAw?$AAc?$AAt?$AAo?$AAm?$AAb?$AA_?$AAs?$AA_?$AAl@ 0000000180043958     libucrtd:wctomb.obj
 0002:00007970       ??_C@_1CM@ENFEGCNE@?$AAd?$AAe?$AAs?$AAt?$AAi?$AAn?$AAa?$AAt?$AAi?$AAo?$AAn?$AA_?$AAc?$AAo?$AAu@ 0000000180043970     libucrtd:wctomb.obj
 0002:00007a50       ??_C@_03OEIAHPBN@INF@      0000000180043a50     libucrtd:cvt.obj
 0002:00007a54       ??_C@_03OJHLLCGB@inf@      0000000180043a54     libucrtd:cvt.obj
 0002:00007a58       ??_C@_03LKNCIKJB@NAN@      0000000180043a58     libucrtd:cvt.obj
 0002:00007a5c       ??_C@_03LHCJEHON@nan@      0000000180043a5c     libucrtd:cvt.obj
 0002:00007a60       ??_C@_09OFJJIMPC@NAN?$CISNAN?$CJ@ 0000000180043a60     libucrtd:cvt.obj
 0002:00007a70       ??_C@_09IPFBKMDL@nan?$CIsnan?$CJ@ 0000000180043a70     libucrtd:cvt.obj
 0002:00007a80       ??_C@_08IKHNHAJ@NAN?$CIIND?$CJ@ 0000000180043a80     libucrtd:cvt.obj
 0002:00007a90       ??_C@_08OFCDMILK@nan?$CIind?$CJ@ 0000000180043a90     libucrtd:cvt.obj
 0002:00007aa0       ??_C@_1FO@GKAKAPLI@?$AAm?$AAi?$AAn?$AAk?$AAe?$AAr?$AAn?$AAe?$AAl?$AA?2?$AAc?$AAr?$AAt?$AAs?$AA?2@ 0000000180043aa0     libucrtd:cvt.obj
 0002:00007b00       ??_C@_1DE@EHGIGIDK@?$AAf?$AAp?$AA_?$AAf?$AAo?$AAr?$AAm?$AAa?$AAt?$AA_?$AAn?$AAa?$AAn?$AA_?$AAo@ 0000000180043b00     libucrtd:cvt.obj
 0002:00007b40       ??_C@_1LI@PCMLJPCO@?$AAs?$AAt?$AAr?$AAc?$AAp?$AAy?$AA_?$AAs?$AA?$CI?$AA?5?$AAr?$AAe?$AAs?$AAu?$AAl@ 0000000180043b40     libucrtd:cvt.obj
 0002:00007c00       ??_C@_1KO@LJHOFBCD@?$AAr?$AAe?$AAs?$AAu?$AAl?$AAt?$AA_?$AAb?$AAu?$AAf?$AAf?$AAe?$AAr?$AA_?$AAc@ 0000000180043c00     libucrtd:cvt.obj
 0002:00007cb0       ??_C@_1CK@BOLHOMFO@?$AAf?$AAp?$AA_?$AAf?$AAo?$AAr?$AAm?$AAa?$AAt?$AA_?$AAe?$AA_?$AAi?$AAn?$AAt@ 0000000180043cb0     libucrtd:cvt.obj
 0002:00007ce0       ??_C@_1BBE@LHDOMEDC@?$AAs?$AAt?$AAr?$AAc?$AAp?$AAy?$AA_?$AAs?$AA?$CI?$AA?5?$AAp?$AA?0?$AA?5?$AAr?$AAe@ 0000000180043ce0     libucrtd:cvt.obj
 0002:00007df4       ??_C@_05KLBDPFGC@e?$CL000@ 0000000180043df4     libucrtd:cvt.obj
 0002:00007e00       ??_C@_1IC@FILKPBAB@?$AAr?$AAe?$AAs?$AAu?$AAl?$AAt?$AA_?$AAb?$AAu?$AAf?$AAf?$AAe?$AAr?$AA_?$AAc@ 0000000180043e00     libucrtd:cvt.obj
 0002:00007e88       ??_C@_1BI@PNBDLNBB@?$AAf?$AAp?$AA_?$AAf?$AAo?$AAr?$AAm?$AAa?$AAt?$AA_?$AAa@ 0000000180043e88     libucrtd:cvt.obj
 0002:00007ea0       ??_C@_1DC@MGKAFPFD@?$AAr?$AAe?$AAs?$AAu?$AAl?$AAt?$AA_?$AAb?$AAu?$AAf?$AAf?$AAe?$AAr?$AA?5?$AA?$CB@ 0000000180043ea0     libucrtd:cvt.obj
 0002:00007ed8       ??_C@_1CC@LDAHJAKK@?$AA_?$AA_?$AAa?$AAc?$AAr?$AAt?$AA_?$AAf?$AAp?$AA_?$AAf?$AAo?$AAr?$AAm?$AAa@ 0000000180043ed8     libucrtd:cvt.obj
 0002:00007f00       ??_C@_1DA@NMLJJOCO@?$AAr?$AAe?$AAs?$AAu?$AAl?$AAt?$AA_?$AAb?$AAu?$AAf?$AAf?$AAe?$AAr?$AA_?$AAc@ 0000000180043f00     libucrtd:cvt.obj
 0002:00007f30       ??_C@_1DE@MNOPBCOK@?$AAs?$AAc?$AAr?$AAa?$AAt?$AAc?$AAh?$AA_?$AAb?$AAu?$AAf?$AAf?$AAe?$AAr?$AA?5@ 0000000180043f30     libucrtd:cvt.obj
 0002:00007f68       ??_C@_1DC@CKBKNFKH@?$AAs?$AAc?$AAr?$AAa?$AAt?$AAc?$AAh?$AA_?$AAb?$AAu?$AAf?$AAf?$AAe?$AAr?$AA_@ 0000000180043f68     libucrtd:cvt.obj
 0002:00007fa0       ??_C@_1EI@JAHBOGIM@?$AA?$CI?$AA?$CC?$AAU?$AAn?$AAs?$AAu?$AAp?$AAp?$AAo?$AAr?$AAt?$AAe?$AAd?$AA?5?$AAf@ 0000000180043fa0     libucrtd:cvt.obj
 0002:00007fe8       ??_C@_1BO@MHPFFFJJ@?$AAs?$AAt?$AAr?$AAe?$AAa?$AAm?$AA?4?$AAv?$AAa?$AAl?$AAi?$AAd?$AA?$CI?$AA?$CJ@ 0000000180043fe8     libucrtd:fileno.obj
 0002:00008010       ??_C@_1GA@KCAHHNGP@?$AAm?$AAi?$AAn?$AAk?$AAe?$AAr?$AAn?$AAe?$AAl?$AA?2?$AAc?$AAr?$AAt?$AAs?$AA?2@ 0000000180044010     libucrtd:fileno.obj
 0002:00008070       ??_C@_1BA@JGHIEKKM@?$AA_?$AAf?$AAi?$AAl?$AAe?$AAn?$AAo@ 0000000180044070     libucrtd:fileno.obj
 0002:00008080       ??_C@_0CP@GDJHIDC@minkernel?2crts?2ucrt?2src?2appcrt?2@ 0000000180044080     libucrtd:_file.obj
 0002:000080b0       ??_C@_1GA@LFAOKOOP@?$AAm?$AAi?$AAn?$AAk?$AAe?$AAr?$AAn?$AAe?$AAl?$AA?2?$AAc?$AAr?$AAt?$AAs?$AA?2@ 00000001800440b0     libucrtd:dbgrptt.obj
 0002:00008110       ??_C@_1CA@KHJHLKA@?$AA_?$AAV?$AAC?$AAr?$AAt?$AAD?$AAb?$AAg?$AAR?$AAe?$AAp?$AAo?$AAr?$AAt?$AAA@ 0000000180044110     libucrtd:dbgrptt.obj
 0002:00008130       ??_C@_1FA@JPHJBHEM@?$AA_?$AAi?$AAt?$AAo?$AAa?$AA_?$AAs?$AA?$CI?$AAn?$AAL?$AAi?$AAn?$AAe?$AA?0?$AA?5@ 0000000180044130     libucrtd:dbgrptt.obj
 0002:00008180       ??_C@_0CG@BNGLOCEO@Second?5Chance?5Assertion?5Failed?3@ 0000000180044180     libucrtd:dbgrptt.obj
 0002:000081a8       ??_C@_0P@DFJNDPOP@?$DMfile?5unknown?$DO@ 00000001800441a8     libucrtd:dbgrptt.obj
 0002:000081b8       ??_C@_07BHGABMGB@?0?5Line?5@ 00000001800441b8     libucrtd:dbgrptt.obj
 0002:000081c0       ??_C@_01EEMJAFIK@?6@       00000001800441c0     libucrtd:dbgrptt.obj
 0002:000081d0       ??_C@_1JI@GAALPGBM@?$AAs?$AAt?$AAr?$AAc?$AAp?$AAy?$AA_?$AAs?$AA?$CI?$AAs?$AAz?$AAU?$AAs?$AAe?$AAr@ 00000001800441d0     libucrtd:dbgrptt.obj
 0002:00008268       ??_C@_0CL@EACFGMNB@_CrtDbgReport?3?5String?5too?5long?5@ 0000000180044268     libucrtd:dbgrptt.obj
 0002:000082a0       ??_C@_1KK@GIGAEDMO@?$AAs?$AAt?$AAr?$AAc?$AAp?$AAy?$AA_?$AAs?$AA?$CI?$AAs?$AAz?$AAL?$AAi?$AAn?$AAe@ 00000001800442a0     libucrtd:dbgrptt.obj
 0002:00008350       ??_C@_0BD@CAENFOHP@Assertion?5failed?3?5@ 0000000180044350     libucrtd:dbgrptt.obj
 0002:00008368       ??_C@_0BC@LAIDCHCH@Assertion?5failed?$CB@ 0000000180044368     libucrtd:dbgrptt.obj
 0002:00008380       ??_C@_1FK@NPGBPOFO@?$AAs?$AAt?$AAr?$AAc?$AAa?$AAt?$AA_?$AAs?$AA?$CI?$AAs?$AAz?$AAL?$AAi?$AAn?$AAe@ 0000000180044380     libucrtd:dbgrptt.obj
 0002:000083e0       ??_C@_1EI@CACDLAFK@?$AAs?$AAt?$AAr?$AAc?$AAa?$AAt?$AA_?$AAs?$AA?$CI?$AAs?$AAz?$AAL?$AAi?$AAn?$AAe@ 00000001800443e0     libucrtd:dbgrptt.obj
 0002:00008428       ??_C@_01LIIJDEN@?$AN@      0000000180044428     libucrtd:dbgrptt.obj
 0002:00008430       ??_C@_1EI@LDHJEDO@?$AAs?$AAt?$AAr?$AAc?$AAa?$AAt?$AA_?$AAs?$AA?$CI?$AAs?$AAz?$AAL?$AAi?$AAn?$AAe@ 0000000180044430     libucrtd:dbgrptt.obj
 0002:00008478       ??_C@_0M@IPILFDFN@?$CFs?$CI?$CFd?$CJ?5?3?5?$CFs@ 0000000180044478     libucrtd:dbgrptt.obj
 0002:00008490       ??_C@_1JG@CPKCIOEE@?$AAs?$AAt?$AAr?$AAc?$AAp?$AAy?$AA_?$AAs?$AA?$CI?$AAs?$AAz?$AAO?$AAu?$AAt?$AAM@ 0000000180044490     libucrtd:dbgrptt.obj
 0002:00008530       ??_C@_1FI@IBIOIHEG@?$AAs?$AAt?$AAr?$AAc?$AAp?$AAy?$AA_?$AAs?$AA?$CI?$AAs?$AAz?$AAO?$AAu?$AAt?$AAM@ 0000000180044530     libucrtd:dbgrptt.obj
 0002:00008590       ??_C@_1IM@OOKIFKOH@?$AAe?$AA?5?$AA?$DN?$AA?5?$AAm?$AAb?$AAs?$AAt?$AAo?$AAw?$AAc?$AAs?$AA_?$AAs?$AA?$CI@ 0000000180044590     libucrtd:dbgrptt.obj
 0002:00008620       ??_C@_1MC@IGEECMDB@?$AAw?$AAc?$AAs?$AAc?$AAp?$AAy?$AA_?$AAs?$AA?$CI?$AAs?$AAz?$AAO?$AAu?$AAt?$AAM@ 0000000180044620     libucrtd:dbgrptt.obj
 0002:000086f0       ??_C@_1HO@PJOFIKFE@?$AA_?$AAC?$AAr?$AAt?$AAD?$AAb?$AAg?$AAR?$AAe?$AAp?$AAo?$AAr?$AAt?$AA?3?$AA?5@ 00000001800446f0     libucrtd:dbgrptt.obj
 0002:00008770       ??_C@_1CA@HPALHDOD@?$AA_?$AAV?$AAC?$AAr?$AAt?$AAD?$AAb?$AAg?$AAR?$AAe?$AAp?$AAo?$AAr?$AAt?$AAW@ 0000000180044770     libucrtd:dbgrptt.obj
 0002:00008790       ??_C@_1FA@CNLLOMHI@?$AA_?$AAi?$AAt?$AAo?$AAw?$AA_?$AAs?$AA?$CI?$AAn?$AAL?$AAi?$AAn?$AAe?$AA?0?$AA?5@ 0000000180044790     libucrtd:dbgrptt.obj
 0002:000087e0       ??_C@_1EM@MJFLEDMB@?$AAS?$AAe?$AAc?$AAo?$AAn?$AAd?$AA?5?$AAC?$AAh?$AAa?$AAn?$AAc?$AAe?$AA?5?$AAA@ 00000001800447e0     libucrtd:dbgrptt.obj
 0002:00008830       ??_C@_1BO@OCHMLCAG@?$AA?$DM?$AAf?$AAi?$AAl?$AAe?$AA?5?$AAu?$AAn?$AAk?$AAn?$AAo?$AAw?$AAn?$AA?$DO@ 0000000180044830     libucrtd:dbgrptt.obj
 0002:00008850       ??_C@_1BA@ELMMDCFC@?$AA?0?$AA?5?$AAL?$AAi?$AAn?$AAe?$AA?5@ 0000000180044850     libucrtd:dbgrptt.obj
 0002:00008860       ??_C@_13LBAGMAIH@?$AA?6@   0000000180044860     libucrtd:dbgrptt.obj
 0002:00008870       ??_C@_1JK@KHFABAEO@?$AAw?$AAc?$AAs?$AAc?$AAp?$AAy?$AA_?$AAs?$AA?$CI?$AAs?$AAz?$AAU?$AAs?$AAe?$AAr@ 0000000180044870     libucrtd:dbgrptt.obj
 0002:00008910       ??_C@_1KO@DGAHENCH@?$AAw?$AAc?$AAs?$AAc?$AAp?$AAy?$AA_?$AAs?$AA?$CI?$AAs?$AAz?$AAL?$AAi?$AAn?$AAe@ 0000000180044910     libucrtd:dbgrptt.obj
 0002:000089c0       ??_C@_1CG@FFFGGODN@?$AAA?$AAs?$AAs?$AAe?$AAr?$AAt?$AAi?$AAo?$AAn?$AA?5?$AAf?$AAa?$AAi?$AAl?$AAe@ 00000001800449c0     libucrtd:dbgrptt.obj
 0002:000089e8       ??_C@_1CE@OJBNHDMO@?$AAA?$AAs?$AAs?$AAe?$AAr?$AAt?$AAi?$AAo?$AAn?$AA?5?$AAf?$AAa?$AAi?$AAl?$AAe@ 00000001800449e8     libucrtd:dbgrptt.obj
 0002:00008a10       ??_C@_1FK@HPADHBBD@?$AAw?$AAc?$AAs?$AAc?$AAa?$AAt?$AA_?$AAs?$AA?$CI?$AAs?$AAz?$AAL?$AAi?$AAn?$AAe@ 0000000180044a10     libucrtd:dbgrptt.obj
 0002:00008a70       ??_C@_1EK@NMDFGHMF@?$AAw?$AAc?$AAs?$AAc?$AAa?$AAt?$AA_?$AAs?$AA?$CI?$AAs?$AAz?$AAL?$AAi?$AAn?$AAe@ 0000000180044a70     libucrtd:dbgrptt.obj
 0002:00008abc       ??_C@_13CMNBPIDO@?$AA?$AN@ 0000000180044abc     libucrtd:dbgrptt.obj
 0002:00008ac0       ??_C@_1EK@PHCBEDKB@?$AAw?$AAc?$AAs?$AAc?$AAa?$AAt?$AA_?$AAs?$AA?$CI?$AAs?$AAz?$AAL?$AAi?$AAn?$AAe@ 0000000180044ac0     libucrtd:dbgrptt.obj
 0002:00008b10       ??_C@_1BM@GIBPMLNL@?$AA?$CF?$AAl?$AAs?$AA?$CI?$AA?$CF?$AAd?$AA?$CJ?$AA?5?$AA?3?$AA?5?$AA?$CF?$AAl?$AAs@ 0000000180044b10     libucrtd:dbgrptt.obj
 0002:00008b30       ??_C@_1JI@EACPGHID@?$AAw?$AAc?$AAs?$AAc?$AAp?$AAy?$AA_?$AAs?$AA?$CI?$AAs?$AAz?$AAO?$AAu?$AAt?$AAM@ 0000000180044b30     libucrtd:dbgrptt.obj
 0002:00008bd0       ??_C@_1FI@DBAIJPJE@?$AAw?$AAc?$AAs?$AAc?$AAp?$AAy?$AA_?$AAs?$AA?$CI?$AAs?$AAz?$AAO?$AAu?$AAt?$AAM@ 0000000180044bd0     libucrtd:dbgrptt.obj
 0002:00008c30       ??_C@_1IK@LEBMBAP@?$AAw?$AAc?$AAs?$AAt?$AAo?$AAm?$AAb?$AAs?$AA_?$AAs?$AA?$CI?$AAn?$AAu?$AAl?$AAl@ 0000000180044c30     libucrtd:dbgrptt.obj
 0002:00008cc0       ??_C@_1MA@LBAMNNOB@?$AAs?$AAt?$AAr?$AAc?$AAp?$AAy?$AA_?$AAs?$AA?$CI?$AAs?$AAz?$AAO?$AAu?$AAt?$AAM@ 0000000180044cc0     libucrtd:dbgrptt.obj
 0002:00008d80       ??_C@_0DP@GNPEPHJD@_CrtDbgReport?3?5String?5too?5long?5@ 0000000180044d80     libucrtd:dbgrptt.obj
 0002:00008dc0       ??_C@_1IE@CPGKIAGP@?$AAw?$AAc?$AAs?$AAt?$AAo?$AAm?$AAb?$AAs?$AA_?$AAs?$AA?$CI?$AA?$CG?$AAr?$AAe?$AAt@ 0000000180044dc0     libucrtd:dbgrptt.obj
 0002:00008e44       ??_C@_05HGHHAHAP@log10@    0000000180044e44     libucrtd:fpexcept.obj
 0002:00008e50       ??_C@_1BKC@NBNHJIDM@?$AA?$CI?$AAp?$AAt?$AAl?$AAo?$AAc?$AAi?$AA?9?$AA?$DO?$AAl?$AAc?$AA_?$AAc?$AAa?$AAt@ 0000000180044e50     libucrtd:locale_refcounting.obj
 0002:00009000       ??_C@_1HK@HCNMEOLA@?$AAm?$AAi?$AAn?$AAk?$AAe?$AAr?$AAn?$AAe?$AAl?$AA?2?$AAc?$AAr?$AAt?$AAs?$AA?2@ 0000000180045000     libucrtd:locale_refcounting.obj
 0002:000090a8       ??_C@_1DI@OOEEHOBJ@?$AAb?$AAa?$AAs?$AAe?$AA?5?$AA?$CB?$AA?$DN?$AA?5?$AAn?$AAu?$AAl?$AAl?$AAp?$AAt?$AAr@ 00000001800450a8     libucrtd:qsort.obj
 0002:000090e0       ??_C@_1GA@KPPCKKGE@?$AAm?$AAi?$AAn?$AAk?$AAe?$AAr?$AAn?$AAe?$AAl?$AA?2?$AAc?$AAr?$AAt?$AAs?$AA?2@ 00000001800450e0     libucrtd:qsort.obj
 0002:00009140       ??_C@_1M@INMHODIG@?$AAq?$AAs?$AAo?$AAr?$AAt@ 0000000180045140     libucrtd:qsort.obj
 0002:00009150       ??_C@_1BE@NJBEBBME@?$AAw?$AAi?$AAd?$AAt?$AAh?$AA?5?$AA?$DO?$AA?5?$AA0@ 0000000180045150     libucrtd:qsort.obj
 0002:00009168       ??_C@_1CA@LIDFOMIN@?$AAc?$AAo?$AAm?$AAp?$AA?5?$AA?$CB?$AA?$DN?$AA?5?$AAn?$AAu?$AAl?$AAl?$AAp?$AAt?$AAr@ 0000000180045168     libucrtd:qsort.obj
 0002:00009188       ??_C@_1CC@CHNFGJIC@?$AAc?$AAo?$AAm?$AAm?$AAo?$AAn?$AA_?$AAt?$AAc?$AAs?$AAn?$AAc?$AAp?$AAy?$AA_@ 0000000180045188     libucrtd:wcsncpy_s.obj
 0002:000091b0       ??_C@_1CE@BLLJFLOH@?$AAs?$AAt?$AAr?$AAi?$AAn?$AAg?$AA?5?$AA?$CB?$AA?$DN?$AA?5?$AAn?$AAu?$AAl?$AAl?$AAp@ 00000001800451b0     libucrtd:mbsdec.obj
 0002:000091e0       ??_C@_1GO@DDOMFNGF@?$AAm?$AAi?$AAn?$AAk?$AAe?$AAr?$AAn?$AAe?$AAl?$AA?2?$AAc?$AAr?$AAt?$AAs?$AA?2@ 00000001800451e0     libucrtd:mbsdec.obj
 0002:00009250       ??_C@_1BE@KLNCOLCD@?$AA_?$AAm?$AAb?$AAs?$AAd?$AAe?$AAc?$AA_?$AAl@ 0000000180045250     libucrtd:mbsdec.obj
 0002:00009268       ??_C@_1CG@CMGPGAOD@?$AAc?$AAu?$AAr?$AAr?$AAe?$AAn?$AAt?$AA?5?$AA?$CB?$AA?$DN?$AA?5?$AAn?$AAu?$AAl?$AAl@ 0000000180045268     libucrtd:mbsdec.obj
 0002:00009290       ??_C@_1FE@KNPCCODH@?$AA?$CI?$AA?$CC?$AAC?$AAo?$AAr?$AAr?$AAu?$AAp?$AAt?$AAe?$AAd?$AA?5?$AAp?$AAo?$AAi@ 0000000180045290     libucrtd:getstringtypea.obj
 0002:000092f0       ??_C@_1EM@GPJLADAA@?$AAV?$AAC?$AAC?$AAR?$AAT?$AA?2?$AAv?$AAc?$AAr?$AAu?$AAn?$AAt?$AAi?$AAm?$AAe@ 00000001800452f0     libucrtd:getstringtypea.obj
 0002:00009340       ??_C@_0DJ@HCPJODDK@minkernel?2crts?2ucrt?2src?2appcrt?2@ 0000000180045340     libucrtd:getstringtypea.obj
 0002:00009380       ??_C@_0DH@IKPCBLP@minkernel?2crts?2ucrt?2src?2appcrt?2@ 0000000180045380     libucrtd:lcmapstringa.obj
 0002:0000a200       ??_C@_15EMKDOKLE@?$AAa?$AAr@ 0000000180046200     libucrtd:lcidtoname_downlevel.obj
 0002:0000a208       ??_C@_15KNPADPLH@?$AAb?$AAg@ 0000000180046208     libucrtd:lcidtoname_downlevel.obj
 0002:0000a210       ??_C@_15EDMHLDMO@?$AAc?$AAa@ 0000000180046210     libucrtd:lcidtoname_downlevel.obj
 0002:0000a218       ??_C@_1O@BPEAJADD@?$AAz?$AAh?$AA?9?$AAC?$AAH?$AAS@ 0000000180046218     libucrtd:lcidtoname_downlevel.obj
 0002:0000a228       ??_C@_15LJNHCMNK@?$AAc?$AAs@ 0000000180046228     libucrtd:lcidtoname_downlevel.obj
 0002:0000a230       ??_C@_15FOMCIDHG@?$AAd?$AAa@ 0000000180046230     libucrtd:lcidtoname_downlevel.obj
 0002:0000a238       ??_C@_15NBKABECB@?$AAd?$AAe@ 0000000180046238     libucrtd:lcidtoname_downlevel.obj
 0002:0000a240       ??_C@_15GHPEIIAO@?$AAe?$AAl@ 0000000180046240     libucrtd:lcidtoname_downlevel.obj
 0002:0000a248       ??_C@_15MNPNEAIF@?$AAe?$AAn@ 0000000180046248     libucrtd:lcidtoname_downlevel.obj
 0002:0000a250       ??_C@_15GPIOMPMH@?$AAe?$AAs@ 0000000180046250     libucrtd:lcidtoname_downlevel.obj
 0002:0000a258       ??_C@_15NGLOAKJC@?$AAf?$AAi@ 0000000180046258     libucrtd:lcidtoname_downlevel.obj
 0002:0000a260       ??_C@_15FBKGNKAM@?$AAf?$AAr@ 0000000180046260     libucrtd:lcidtoname_downlevel.obj
 0002:0000a268       ??_C@_15KGGCNEFK@?$AAh?$AAe@ 0000000180046268     libucrtd:lcidtoname_downlevel.obj
 0002:0000a270       ??_C@_15PGHLIDMF@?$AAh?$AAu@ 0000000180046270     libucrtd:lcidtoname_downlevel.obj
 0002:0000a278       ??_C@_15BIEMAPLM@?$AAi?$AAs@ 0000000180046278     libucrtd:lcidtoname_downlevel.obj
 0002:0000a280       ??_C@_15IFJLDHAF@?$AAi?$AAt@ 0000000180046280     libucrtd:lcidtoname_downlevel.obj
 0002:0000a288       ??_C@_15GEMIOCAG@?$AAj?$AAa@ 0000000180046288     libucrtd:lcidtoname_downlevel.obj
 0002:0000a290       ??_C@_15EPELEGJA@?$AAk?$AAo@ 0000000180046290     libucrtd:lcidtoname_downlevel.obj
 0002:0000a298       ??_C@_15NDDHIMN@?$AAn?$AAl@ 0000000180046298     libucrtd:lcidtoname_downlevel.obj
 0002:0000a2a0       ??_C@_15BPIGNHCD@?$AAn?$AAo@ 00000001800462a0     libucrtd:lcidtoname_downlevel.obj
 0002:0000a2a8       ??_C@_15DEOPBLCG@?$AAp?$AAl@ 00000001800462a8     libucrtd:lcidtoname_downlevel.obj
 0002:0000a2b0       ??_C@_15KBECGEFG@?$AAp?$AAt@ 00000001800462b0     libucrtd:lcidtoname_downlevel.obj
 0002:0000a2b8       ??_C@_15GLJCBFMD@?$AAr?$AAo@ 00000001800462b8     libucrtd:lcidtoname_downlevel.obj
 0002:0000a2c0       ??_C@_15FEDGKCDI@?$AAr?$AAu@ 00000001800462c0     libucrtd:lcidtoname_downlevel.obj
 0002:0000a2c8       ??_C@_15GLKMLLHM@?$AAh?$AAr@ 00000001800462c8     libucrtd:lcidtoname_downlevel.obj
 0002:0000a2d0       ??_C@_15CPKMFBDB@?$AAs?$AAk@ 00000001800462d0     libucrtd:lcidtoname_downlevel.obj
 0002:0000a2d8       ??_C@_15BAAIOGMK@?$AAs?$AAq@ 00000001800462d8     libucrtd:lcidtoname_downlevel.obj
 0002:0000a2e0       ??_C@_15INNPNOHD@?$AAs?$AAv@ 00000001800462e0     libucrtd:lcidtoname_downlevel.obj
 0002:0000a2e8       ??_C@_15CABMMOGH@?$AAt?$AAh@ 00000001800462e8     libucrtd:lcidtoname_downlevel.obj
 0002:0000a2f0       ??_C@_15BPLIHJJM@?$AAt?$AAr@ 00000001800462f0     libucrtd:lcidtoname_downlevel.obj
 0002:0000a2f8       ??_C@_15NEOEKKDJ@?$AAu?$AAr@ 00000001800462f8     libucrtd:lcidtoname_downlevel.obj
 0002:0000a300       ??_C@_15NFICGAJK@?$AAi?$AAd@ 0000000180046300     libucrtd:lcidtoname_downlevel.obj
 0002:0000a308       ??_C@_15PJPFLCCM@?$AAu?$AAk@ 0000000180046308     libucrtd:lcidtoname_downlevel.obj
 0002:0000a310       ??_C@_15HPJPHDM@?$AAb?$AAe@ 0000000180046310     libucrtd:lcidtoname_downlevel.obj
 0002:0000a318       ??_C@_15LCHLGJII@?$AAs?$AAl@ 0000000180046318     libucrtd:lcidtoname_downlevel.obj
 0002:0000a320       ??_C@_15PCFJPHHO@?$AAe?$AAt@ 0000000180046320     libucrtd:lcidtoname_downlevel.obj
 0002:0000a328       ??_C@_15HPFPGODN@?$AAl?$AAv@ 0000000180046328     libucrtd:lcidtoname_downlevel.obj
 0002:0000a330       ??_C@_15NFFGKGLG@?$AAl?$AAt@ 0000000180046330     libucrtd:lcidtoname_downlevel.obj
 0002:0000a338       ??_C@_15BDAKCCHN@?$AAf?$AAa@ 0000000180046338     libucrtd:lcidtoname_downlevel.obj
 0002:0000a340       ??_C@_15NFGIAIAJ@?$AAv?$AAi@ 0000000180046340     libucrtd:lcidtoname_downlevel.obj
 0002:0000a348       ??_C@_15LMKNDMHN@?$AAh?$AAy@ 0000000180046348     libucrtd:lcidtoname_downlevel.obj
 0002:0000a350       ??_C@_15IJBHMCFL@?$AAa?$AAz@ 0000000180046350     libucrtd:lcidtoname_downlevel.obj
 0002:0000a358       ??_C@_15EKOFJABL@?$AAe?$AAu@ 0000000180046358     libucrtd:lcidtoname_downlevel.obj
 0002:0000a360       ??_C@_15BGHADCNK@?$AAm?$AAk@ 0000000180046360     libucrtd:lcidtoname_downlevel.obj
 0002:0000a368       ??_C@_15JDNICKHM@?$AAa?$AAf@ 0000000180046368     libucrtd:lcidtoname_downlevel.obj
 0002:0000a370       ??_C@_15KPJEDBKD@?$AAk?$AAa@ 0000000180046370     libucrtd:lcidtoname_downlevel.obj
 0002:0000a378       ??_C@_15PDNFFFEO@?$AAf?$AAo@ 0000000180046378     libucrtd:lcidtoname_downlevel.obj
 0002:0000a380       ??_C@_15OMLEGLOC@?$AAh?$AAi@ 0000000180046380     libucrtd:lcidtoname_downlevel.obj
 0002:0000a388       ??_C@_15IDNNENKK@?$AAm?$AAs@ 0000000180046388     libucrtd:lcidtoname_downlevel.obj
 0002:0000a390       ??_C@_15MACJNBMH@?$AAk?$AAk@ 0000000180046390     libucrtd:lcidtoname_downlevel.obj
 0002:0000a398       ??_C@_15DKDJEOND@?$AAk?$AAy@ 0000000180046398     libucrtd:lcidtoname_downlevel.obj
 0002:0000a3a0       ??_C@_15DFGDLJBG@?$AAs?$AAw@ 00000001800463a0     libucrtd:lcidtoname_downlevel.obj
 0002:0000a3a8       ??_C@_15BBFAICNG@?$AAu?$AAz@ 00000001800463a8     libucrtd:lcidtoname_downlevel.obj
 0002:0000a3b0       ??_C@_15DKNDCGEA@?$AAt?$AAt@ 00000001800463b0     libucrtd:lcidtoname_downlevel.obj
 0002:0000a3b8       ??_C@_15MGIFMDPL@?$AAp?$AAa@ 00000001800463b8     libucrtd:lcidtoname_downlevel.obj
 0002:0000a3c0       ??_C@_15HCNDBBA@?$AAg?$AAu@ 00000001800463c0     libucrtd:lcidtoname_downlevel.obj
 0002:0000a3c8       ??_C@_15FNBEIBON@?$AAt?$AAa@ 00000001800463c8     libucrtd:lcidtoname_downlevel.obj
 0002:0000a3d0       ??_C@_15NCHGBGLK@?$AAt?$AAe@ 00000001800463d0     libucrtd:lcidtoname_downlevel.obj
 0002:0000a3d8       ??_C@_15PHPHCBPF@?$AAk?$AAn@ 00000001800463d8     libucrtd:lcidtoname_downlevel.obj
 0002:0000a3e0       ??_C@_15DLGBCKMP@?$AAm?$AAr@ 00000001800463e0     libucrtd:lcidtoname_downlevel.obj
 0002:0000a3e8       ??_C@_15EABBLBFF@?$AAs?$AAa@ 00000001800463e8     libucrtd:lcidtoname_downlevel.obj
 0002:0000a3f0       ??_C@_15CBKOMCOI@?$AAm?$AAn@ 00000001800463f0     libucrtd:lcidtoname_downlevel.obj
 0002:0000a3f8       ??_C@_15CKDMCJAF@?$AAg?$AAl@ 00000001800463f8     libucrtd:lcidtoname_downlevel.obj
 0002:0000a400       ??_C@_17CNJFBPG@?$AAk?$AAo?$AAk@ 0000000180046400     libucrtd:lcidtoname_downlevel.obj
 0002:0000a408       ??_C@_17FFBJICPL@?$AAs?$AAy?$AAr@ 0000000180046408     libucrtd:lcidtoname_downlevel.obj
 0002:0000a410       ??_C@_17KPNDCPAF@?$AAd?$AAi?$AAv@ 0000000180046410     libucrtd:lcidtoname_downlevel.obj
 0002:0000a418       ??_C@_1M@OKAHONE@?$AAa?$AAr?$AA?9?$AAS?$AAA@ 0000000180046418     libucrtd:lcidtoname_downlevel.obj
 0002:0000a428       ??_C@_1M@FFFIGIGK@?$AAb?$AAg?$AA?9?$AAB?$AAG@ 0000000180046428     libucrtd:lcidtoname_downlevel.obj
 0002:0000a438       ??_C@_1M@BJNKEDC@?$AAc?$AAa?$AA?9?$AAE?$AAS@ 0000000180046438     libucrtd:lcidtoname_downlevel.obj
 0002:0000a448       ??_C@_1M@IJJHFJHA@?$AAc?$AAs?$AA?9?$AAC?$AAZ@ 0000000180046448     libucrtd:lcidtoname_downlevel.obj
 0002:0000a458       ??_C@_1M@CLPEOBGI@?$AAd?$AAa?$AA?9?$AAD?$AAK@ 0000000180046458     libucrtd:lcidtoname_downlevel.obj
 0002:0000a468       ??_C@_1M@MCMADGCB@?$AAd?$AAe?$AA?9?$AAD?$AAE@ 0000000180046468     libucrtd:lcidtoname_downlevel.obj
 0002:0000a478       ??_C@_1M@OOCKEMAM@?$AAe?$AAl?$AA?9?$AAG?$AAR@ 0000000180046478     libucrtd:lcidtoname_downlevel.obj
 0002:0000a488       ??_C@_1M@DDNJFGID@?$AAf?$AAi?$AA?9?$AAF?$AAI@ 0000000180046488     libucrtd:lcidtoname_downlevel.obj
 0002:0000a498       ??_C@_1M@GLIPPMAC@?$AAf?$AAr?$AA?9?$AAF?$AAR@ 0000000180046498     libucrtd:lcidtoname_downlevel.obj
 0002:0000a4a8       ??_C@_1M@GFMCHPE@?$AAh?$AAe?$AA?9?$AAI?$AAL@ 00000001800464a8     libucrtd:lcidtoname_downlevel.obj
 0002:0000a4b8       ??_C@_1M@MHLPGNKM@?$AAh?$AAu?$AA?9?$AAH?$AAU@ 00000001800464b8     libucrtd:lcidtoname_downlevel.obj
 0002:0000a4c8       ??_C@_1M@LPDDNNPN@?$AAi?$AAs?$AA?9?$AAI?$AAS@ 00000001800464c8     libucrtd:lcidtoname_downlevel.obj
 0002:0000a4d8       ??_C@_1M@MADIPODN@?$AAi?$AAt?$AA?9?$AAI?$AAT@ 00000001800464d8     libucrtd:lcidtoname_downlevel.obj
 0002:0000a4e8       ??_C@_1M@IHBJJGG@?$AAn?$AAl?$AA?9?$AAN?$AAL@ 00000001800464e8     libucrtd:lcidtoname_downlevel.obj
 0002:0000a4f8       ??_C@_1M@EANAGDL@?$AAn?$AAb?$AA?9?$AAN?$AAO@ 00000001800464f8     libucrtd:lcidtoname_downlevel.obj
 0002:0000a508       ??_C@_1M@NEIEMEGP@?$AAp?$AAl?$AA?9?$AAP?$AAL@ 0000000180046508     libucrtd:lcidtoname_downlevel.obj
 0002:0000a518       ??_C@_1M@BOCFIGEP@?$AAp?$AAt?$AA?9?$AAB?$AAR@ 0000000180046518     libucrtd:lcidtoname_downlevel.obj
 0002:0000a528       ??_C@_1M@IMPFOPBG@?$AAr?$AAo?$AA?9?$AAR?$AAO@ 0000000180046528     libucrtd:lcidtoname_downlevel.obj
 0002:0000a538       ??_C@_1M@IDNNEJMM@?$AAr?$AAu?$AA?9?$AAR?$AAU@ 0000000180046538     libucrtd:lcidtoname_downlevel.obj
 0002:0000a548       ??_C@_1M@LILEEOGM@?$AAh?$AAr?$AA?9?$AAH?$AAR@ 0000000180046548     libucrtd:lcidtoname_downlevel.obj
 0002:0000a558       ??_C@_1M@FKIFEHPB@?$AAs?$AAk?$AA?9?$AAS?$AAK@ 0000000180046558     libucrtd:lcidtoname_downlevel.obj
 0002:0000a568       ??_C@_1M@LJMAMNPJ@?$AAs?$AAq?$AA?9?$AAA?$AAL@ 0000000180046568     libucrtd:lcidtoname_downlevel.obj
 0002:0000a578       ??_C@_1M@GIAKDKJK@?$AAs?$AAv?$AA?9?$AAS?$AAE@ 0000000180046578     libucrtd:lcidtoname_downlevel.obj
 0002:0000a588       ??_C@_1M@MKJKIKCL@?$AAt?$AAh?$AA?9?$AAT?$AAH@ 0000000180046588     libucrtd:lcidtoname_downlevel.obj
 0002:0000a598       ??_C@_1M@MFLCCMPB@?$AAt?$AAr?$AA?9?$AAT?$AAR@ 0000000180046598     libucrtd:lcidtoname_downlevel.obj
 0002:0000a5a8       ??_C@_1M@OIJHDKJN@?$AAu?$AAr?$AA?9?$AAP?$AAK@ 00000001800465a8     libucrtd:lcidtoname_downlevel.obj
 0002:0000a5b8       ??_C@_1M@LHIPCIEK@?$AAi?$AAd?$AA?9?$AAI?$AAD@ 00000001800465b8     libucrtd:lcidtoname_downlevel.obj
 0002:0000a5c8       ??_C@_1M@MFMOBGI@?$AAu?$AAk?$AA?9?$AAU?$AAA@ 00000001800465c8     libucrtd:lcidtoname_downlevel.obj
 0002:0000a5d8       ??_C@_1M@OBGLJIPL@?$AAb?$AAe?$AA?9?$AAB?$AAY@ 00000001800465d8     libucrtd:lcidtoname_downlevel.obj
 0002:0000a5e8       ??_C@_1M@BCFAJEAD@?$AAs?$AAl?$AA?9?$AAS?$AAI@ 00000001800465e8     libucrtd:lcidtoname_downlevel.obj
 0002:0000a5f8       ??_C@_1M@FKFFEDDN@?$AAe?$AAt?$AA?9?$AAE?$AAE@ 00000001800465f8     libucrtd:lcidtoname_downlevel.obj
 0002:0000a608       ??_C@_1M@KGKKAACI@?$AAl?$AAv?$AA?9?$AAL?$AAV@ 0000000180046608     libucrtd:lcidtoname_downlevel.obj
 0002:0000a618       ??_C@_1M@IFGBIJO@?$AAl?$AAt?$AA?9?$AAL?$AAT@ 0000000180046618     libucrtd:lcidtoname_downlevel.obj
 0002:0000a628       ??_C@_1M@FGEAHEDM@?$AAf?$AAa?$AA?9?$AAI?$AAR@ 0000000180046628     libucrtd:lcidtoname_downlevel.obj
 0002:0000a638       ??_C@_1M@KBMAIBFN@?$AAv?$AAi?$AA?9?$AAV?$AAN@ 0000000180046638     libucrtd:lcidtoname_downlevel.obj
 0002:0000a648       ??_C@_1M@GPCBKDJK@?$AAh?$AAy?$AA?9?$AAA?$AAM@ 0000000180046648     libucrtd:lcidtoname_downlevel.obj
 0002:0000a658       ??_C@_1BG@BECMDDJB@?$AAa?$AAz?$AA?9?$AAA?$AAZ?$AA?9?$AAL?$AAa?$AAt?$AAn@ 0000000180046658     libucrtd:lcidtoname_downlevel.obj
 0002:0000a670       ??_C@_1M@MAOFCAEA@?$AAe?$AAu?$AA?9?$AAE?$AAS@ 0000000180046670     libucrtd:lcidtoname_downlevel.obj
 0002:0000a680       ??_C@_1M@IGHABKPI@?$AAm?$AAk?$AA?9?$AAM?$AAK@ 0000000180046680     libucrtd:lcidtoname_downlevel.obj
 0002:0000a690       ??_C@_1M@IAIGNEJG@?$AAt?$AAn?$AA?9?$AAZ?$AAA@ 0000000180046690     libucrtd:lcidtoname_downlevel.obj
 0002:0000a6a0       ??_C@_1M@IIJCOJFA@?$AAx?$AAh?$AA?9?$AAZ?$AAA@ 00000001800466a0     libucrtd:lcidtoname_downlevel.obj
 0002:0000a6b0       ??_C@_1M@LGPJHNJH@?$AAz?$AAu?$AA?9?$AAZ?$AAA@ 00000001800466b0     libucrtd:lcidtoname_downlevel.obj
 0002:0000a6c0       ??_C@_1M@HOKAOIO@?$AAa?$AAf?$AA?9?$AAZ?$AAA@ 00000001800466c0     libucrtd:lcidtoname_downlevel.obj
 0002:0000a6d0       ??_C@_1M@DPCLHLIE@?$AAk?$AAa?$AA?9?$AAG?$AAE@ 00000001800466d0     libucrtd:lcidtoname_downlevel.obj
 0002:0000a6e0       ??_C@_1M@BLKMHJBI@?$AAf?$AAo?$AA?9?$AAF?$AAO@ 00000001800466e0     libucrtd:lcidtoname_downlevel.obj
 0002:0000a6f0       ??_C@_1M@LGGJAPPB@?$AAh?$AAi?$AA?9?$AAI?$AAN@ 00000001800466f0     libucrtd:lcidtoname_downlevel.obj
 0002:0000a700       ??_C@_1M@FIKPIHFE@?$AAm?$AAt?$AA?9?$AAM?$AAT@ 0000000180046700     libucrtd:lcidtoname_downlevel.obj
 0002:0000a710       ??_C@_1M@HEGGPBFA@?$AAs?$AAe?$AA?9?$AAN?$AAO@ 0000000180046710     libucrtd:lcidtoname_downlevel.obj
 0002:0000a720       ??_C@_1M@EIBJEEPA@?$AAm?$AAs?$AA?9?$AAM?$AAY@ 0000000180046720     libucrtd:lcidtoname_downlevel.obj
 0002:0000a730       ??_C@_1M@FHLBGMPP@?$AAk?$AAk?$AA?9?$AAK?$AAZ@ 0000000180046730     libucrtd:lcidtoname_downlevel.obj
 0002:0000a740       ??_C@_1M@NGJJLCGI@?$AAk?$AAy?$AA?9?$AAK?$AAG@ 0000000180046740     libucrtd:lcidtoname_downlevel.obj
 0002:0000a750       ??_C@_1M@GIENNBFC@?$AAs?$AAw?$AA?9?$AAK?$AAE@ 0000000180046750     libucrtd:lcidtoname_downlevel.obj
 0002:0000a760       ??_C@_1BG@NDGMJIMJ@?$AAu?$AAz?$AA?9?$AAU?$AAZ?$AA?9?$AAL?$AAa?$AAt?$AAn@ 0000000180046760     libucrtd:lcidtoname_downlevel.obj
 0002:0000a778       ??_C@_1M@IDCCIHBC@?$AAt?$AAt?$AA?9?$AAR?$AAU@ 0000000180046778     libucrtd:lcidtoname_downlevel.obj
 0002:0000a788       ??_C@_1M@LOICPMOJ@?$AAb?$AAn?$AA?9?$AAI?$AAN@ 0000000180046788     libucrtd:lcidtoname_downlevel.obj
 0002:0000a798       ??_C@_1M@KPKKNEAH@?$AAp?$AAa?$AA?9?$AAI?$AAN@ 0000000180046798     libucrtd:lcidtoname_downlevel.obj
 0002:0000a7a8       ??_C@_1M@PJGPPBOG@?$AAg?$AAu?$AA?9?$AAI?$AAN@ 00000001800467a8     libucrtd:lcidtoname_downlevel.obj
 0002:0000a7b8       ??_C@_1M@KMKMOPHI@?$AAt?$AAa?$AA?9?$AAI?$AAN@ 00000001800467b8     libucrtd:lcidtoname_downlevel.obj
 0002:0000a7c8       ??_C@_1M@KFEHEPAC@?$AAt?$AAe?$AA?9?$AAI?$AAN@ 00000001800467c8     libucrtd:lcidtoname_downlevel.obj
 0002:0000a7d8       ??_C@_1M@CDCLMGHI@?$AAk?$AAn?$AA?9?$AAI?$AAN@ 00000001800467d8     libucrtd:lcidtoname_downlevel.obj
 0002:0000a7e8       ??_C@_1M@MIODLDKF@?$AAm?$AAl?$AA?9?$AAI?$AAN@ 00000001800467e8     libucrtd:lcidtoname_downlevel.obj
 0002:0000a7f8       ??_C@_1M@PBIEACPO@?$AAm?$AAr?$AA?9?$AAI?$AAN@ 00000001800467f8     libucrtd:lcidtoname_downlevel.obj
 0002:0000a808       ??_C@_1M@NIDEAGPH@?$AAs?$AAa?$AA?9?$AAI?$AAN@ 0000000180046808     libucrtd:lcidtoname_downlevel.obj
 0002:0000a818       ??_C@_1M@FHIHCBIO@?$AAm?$AAn?$AA?9?$AAM?$AAN@ 0000000180046818     libucrtd:lcidtoname_downlevel.obj
 0002:0000a828       ??_C@_1M@JAIJPENP@?$AAc?$AAy?$AA?9?$AAG?$AAB@ 0000000180046828     libucrtd:lcidtoname_downlevel.obj
 0002:0000a838       ??_C@_1M@PHGFBEPN@?$AAg?$AAl?$AA?9?$AAE?$AAS@ 0000000180046838     libucrtd:lcidtoname_downlevel.obj
 0002:0000a848       ??_C@_1O@KPIPDNCP@?$AAk?$AAo?$AAk?$AA?9?$AAI?$AAN@ 0000000180046848     libucrtd:lcidtoname_downlevel.obj
 0002:0000a858       ??_C@_1O@KNHJLDJA@?$AAs?$AAy?$AAr?$AA?9?$AAS?$AAY@ 0000000180046858     libucrtd:lcidtoname_downlevel.obj
 0002:0000a868       ??_C@_1O@MKEKBLAH@?$AAd?$AAi?$AAv?$AA?9?$AAM?$AAV@ 0000000180046868     libucrtd:lcidtoname_downlevel.obj
 0002:0000a878       ??_C@_1O@OHDCKDDF@?$AAq?$AAu?$AAz?$AA?9?$AAB?$AAO@ 0000000180046878     libucrtd:lcidtoname_downlevel.obj
 0002:0000a888       ??_C@_1M@LEPJNLFD@?$AAn?$AAs?$AA?9?$AAZ?$AAA@ 0000000180046888     libucrtd:lcidtoname_downlevel.obj
 0002:0000a898       ??_C@_1M@OMLEIIJB@?$AAm?$AAi?$AA?9?$AAN?$AAZ@ 0000000180046898     libucrtd:lcidtoname_downlevel.obj
 0002:0000a8a8       ??_C@_1M@PMPEAILG@?$AAa?$AAr?$AA?9?$AAI?$AAQ@ 00000001800468a8     libucrtd:lcidtoname_downlevel.obj
 0002:0000a8b8       ??_C@_1M@CNKPNOEE@?$AAd?$AAe?$AA?9?$AAC?$AAH@ 00000001800468b8     libucrtd:lcidtoname_downlevel.obj
 0002:0000a8c8       ??_C@_1M@LKMGMLKO@?$AAe?$AAn?$AA?9?$AAG?$AAB@ 00000001800468c8     libucrtd:lcidtoname_downlevel.obj
 0002:0000a8d8       ??_C@_1M@PGKJFFGL@?$AAe?$AAs?$AA?9?$AAM?$AAX@ 00000001800468d8     libucrtd:lcidtoname_downlevel.obj
 0002:0000a8e8       ??_C@_1M@DNNANBDC@?$AAf?$AAr?$AA?9?$AAB?$AAE@ 00000001800468e8     libucrtd:lcidtoname_downlevel.obj
 0002:0000a8f8       ??_C@_1M@HLGMDFHM@?$AAi?$AAt?$AA?9?$AAC?$AAH@ 00000001800468f8     libucrtd:lcidtoname_downlevel.obj
 0002:0000a908       ??_C@_1M@CLLBGJH@?$AAn?$AAl?$AA?9?$AAB?$AAE@ 0000000180046908     libucrtd:lcidtoname_downlevel.obj
 0002:0000a918       ??_C@_1M@BODBOGLF@?$AAn?$AAn?$AA?9?$AAN?$AAO@ 0000000180046918     libucrtd:lcidtoname_downlevel.obj
 0002:0000a928       ??_C@_1M@HFFAHKAD@?$AAp?$AAt?$AA?9?$AAP?$AAT@ 0000000180046928     libucrtd:lcidtoname_downlevel.obj
 0002:0000a938       ??_C@_1BG@LNOAKHIE@?$AAs?$AAr?$AA?9?$AAS?$AAP?$AA?9?$AAL?$AAa?$AAt?$AAn@ 0000000180046938     libucrtd:lcidtoname_downlevel.obj
 0002:0000a950       ??_C@_1M@HBMHBGAK@?$AAs?$AAv?$AA?9?$AAF?$AAI@ 0000000180046950     libucrtd:lcidtoname_downlevel.obj
 0002:0000a960       ??_C@_1BG@DGCJGJBE@?$AAa?$AAz?$AA?9?$AAA?$AAZ?$AA?9?$AAC?$AAy?$AAr?$AAl@ 0000000180046960     libucrtd:lcidtoname_downlevel.obj
 0002:0000a978       ??_C@_1M@KEJDAAHB@?$AAs?$AAe?$AA?9?$AAS?$AAE@ 0000000180046978     libucrtd:lcidtoname_downlevel.obj
 0002:0000a988       ??_C@_1M@HEIBJJAD@?$AAm?$AAs?$AA?9?$AAB?$AAN@ 0000000180046988     libucrtd:lcidtoname_downlevel.obj
 0002:0000a998       ??_C@_1BG@PBGJMCEM@?$AAu?$AAz?$AA?9?$AAU?$AAZ?$AA?9?$AAC?$AAy?$AAr?$AAl@ 0000000180046998     libucrtd:lcidtoname_downlevel.obj
 0002:0000a9b0       ??_C@_1O@LAOBCMDF@?$AAq?$AAu?$AAz?$AA?9?$AAE?$AAC@ 00000001800469b0     libucrtd:lcidtoname_downlevel.obj
 0002:0000a9c0       ??_C@_1M@POEEMAIO@?$AAa?$AAr?$AA?9?$AAE?$AAG@ 00000001800469c0     libucrtd:lcidtoname_downlevel.obj
 0002:0000a9d0       ??_C@_1M@EFAKDEDL@?$AAz?$AAh?$AA?9?$AAH?$AAK@ 00000001800469d0     libucrtd:lcidtoname_downlevel.obj
 0002:0000a9e0       ??_C@_1M@HKKIJHGI@?$AAd?$AAe?$AA?9?$AAA?$AAT@ 00000001800469e0     libucrtd:lcidtoname_downlevel.obj
 0002:0000a9f0       ??_C@_1M@KBFBEHJF@?$AAe?$AAn?$AA?9?$AAA?$AAU@ 00000001800469f0     libucrtd:lcidtoname_downlevel.obj
 0002:0000aa00       ??_C@_1M@MNPLFAAH@?$AAe?$AAs?$AA?9?$AAE?$AAS@ 0000000180046a00     libucrtd:lcidtoname_downlevel.obj
 0002:0000aa10       ??_C@_1M@HJOOJFMA@?$AAf?$AAr?$AA?9?$AAC?$AAA@ 0000000180046a10     libucrtd:lcidtoname_downlevel.obj
 0002:0000aa20       ??_C@_1BG@JPOFPNAB@?$AAs?$AAr?$AA?9?$AAS?$AAP?$AA?9?$AAC?$AAy?$AAr?$AAl@ 0000000180046a20     libucrtd:lcidtoname_downlevel.obj
 0002:0000aa38       ??_C@_1M@LNFOCMOB@?$AAs?$AAe?$AA?9?$AAF?$AAI@ 0000000180046a38     libucrtd:lcidtoname_downlevel.obj
 0002:0000aa48       ??_C@_1O@MGJBOAMB@?$AAq?$AAu?$AAz?$AA?9?$AAP?$AAE@ 0000000180046a48     libucrtd:lcidtoname_downlevel.obj
 0002:0000aa58       ??_C@_1M@GJINLBOK@?$AAa?$AAr?$AA?9?$AAL?$AAY@ 0000000180046a58     libucrtd:lcidtoname_downlevel.obj
 0002:0000aa68       ??_C@_1M@GGMNHJNL@?$AAz?$AAh?$AA?9?$AAS?$AAG@ 0000000180046a68     libucrtd:lcidtoname_downlevel.obj
 0002:0000aa78       ??_C@_1M@HOIKODND@?$AAd?$AAe?$AA?9?$AAL?$AAU@ 0000000180046a78     libucrtd:lcidtoname_downlevel.obj
 0002:0000aa88       ??_C@_1M@DDOCCGFG@?$AAe?$AAn?$AA?9?$AAC?$AAA@ 0000000180046a88     libucrtd:lcidtoname_downlevel.obj
 0002:0000aa98       ??_C@_1M@BNOEMJLF@?$AAe?$AAs?$AA?9?$AAG?$AAT@ 0000000180046a98     libucrtd:lcidtoname_downlevel.obj
 0002:0000aaa8       ??_C@_1M@EOGNKEK@?$AAf?$AAr?$AA?9?$AAC?$AAH@ 0000000180046aa8     libucrtd:lcidtoname_downlevel.obj
 0002:0000aab8       ??_C@_1M@FLIDJFHL@?$AAh?$AAr?$AA?9?$AAB?$AAA@ 0000000180046ab8     libucrtd:lcidtoname_downlevel.obj
 0002:0000aac8       ??_C@_1O@FMCELNAJ@?$AAs?$AAm?$AAj?$AA?9?$AAN?$AAO@ 0000000180046ac8     libucrtd:lcidtoname_downlevel.obj
 0002:0000aad8       ??_C@_1M@JHGLJMGJ@?$AAa?$AAr?$AA?9?$AAD?$AAZ@ 0000000180046ad8     libucrtd:lcidtoname_downlevel.obj
 0002:0000aae8       ??_C@_1M@JKKFDCNP@?$AAz?$AAh?$AA?9?$AAM?$AAO@ 0000000180046ae8     libucrtd:lcidtoname_downlevel.obj
 0002:0000aaf8       ??_C@_1M@GEEFALPE@?$AAd?$AAe?$AA?9?$AAL?$AAI@ 0000000180046af8     libucrtd:lcidtoname_downlevel.obj
 0002:0000ab08       ??_C@_1M@IGEOFBG@?$AAe?$AAn?$AA?9?$AAN?$AAZ@ 0000000180046b08     libucrtd:lcidtoname_downlevel.obj
 0002:0000ab18       ??_C@_1M@KDBONEHP@?$AAe?$AAs?$AA?9?$AAC?$AAR@ 0000000180046b18     libucrtd:lcidtoname_downlevel.obj
 0002:0000ab28       ??_C@_1M@FHMDOHNN@?$AAf?$AAr?$AA?9?$AAL?$AAU@ 0000000180046b28     libucrtd:lcidtoname_downlevel.obj
 0002:0000ab38       ??_C@_1BG@NFKKMAFG@?$AAb?$AAs?$AA?9?$AAB?$AAA?$AA?9?$AAL?$AAa?$AAt?$AAn@ 0000000180046b38     libucrtd:lcidtoname_downlevel.obj
 0002:0000ab50       ??_C@_1O@IMNBEMCI@?$AAs?$AAm?$AAj?$AA?9?$AAS?$AAE@ 0000000180046b50     libucrtd:lcidtoname_downlevel.obj
 0002:0000ab60       ??_C@_1M@DHHMBNDP@?$AAa?$AAr?$AA?9?$AAM?$AAA@ 0000000180046b60     libucrtd:lcidtoname_downlevel.obj
 0002:0000ab70       ??_C@_1M@BNBLJCGH@?$AAe?$AAn?$AA?9?$AAI?$AAE@ 0000000180046b70     libucrtd:lcidtoname_downlevel.obj
 0002:0000ab80       ??_C@_1M@GEPAFMDL@?$AAe?$AAs?$AA?9?$AAP?$AAA@ 0000000180046b80     libucrtd:lcidtoname_downlevel.obj
 0002:0000ab90       ??_C@_1M@OJONDMDL@?$AAf?$AAr?$AA?9?$AAM?$AAC@ 0000000180046b90     libucrtd:lcidtoname_downlevel.obj
 0002:0000aba0       ??_C@_1BG@OBCNFJB@?$AAs?$AAr?$AA?9?$AAB?$AAA?$AA?9?$AAL?$AAa?$AAt?$AAn@ 0000000180046ba0     libucrtd:lcidtoname_downlevel.obj
 0002:0000abb8       ??_C@_1O@KEMEEGPO@?$AAs?$AAm?$AAa?$AA?9?$AAN?$AAO@ 0000000180046bb8     libucrtd:lcidtoname_downlevel.obj
 0002:0000abc8       ??_C@_1M@ELMGFODK@?$AAa?$AAr?$AA?9?$AAT?$AAN@ 0000000180046bc8     libucrtd:lcidtoname_downlevel.obj
 0002:0000abd8       ??_C@_1M@BHDLHFAF@?$AAe?$AAn?$AA?9?$AAZ?$AAA@ 0000000180046bd8     libucrtd:lcidtoname_downlevel.obj
 0002:0000abe8       ??_C@_1M@BMGIGLIF@?$AAe?$AAs?$AA?9?$AAD?$AAO@ 0000000180046be8     libucrtd:lcidtoname_downlevel.obj
 0002:0000abf8       ??_C@_1BG@CMBHIPBE@?$AAs?$AAr?$AA?9?$AAB?$AAA?$AA?9?$AAC?$AAy?$AAr?$AAl@ 0000000180046bf8     libucrtd:lcidtoname_downlevel.obj
 0002:0000ac10       ??_C@_1O@HEDBLHNP@?$AAs?$AAm?$AAa?$AA?9?$AAS?$AAE@ 0000000180046c10     libucrtd:lcidtoname_downlevel.obj
 0002:0000ac20       ??_C@_1M@DAGCADIM@?$AAa?$AAr?$AA?9?$AAO?$AAM@ 0000000180046c20     libucrtd:lcidtoname_downlevel.obj
 0002:0000ac30       ??_C@_1M@FODLMICG@?$AAe?$AAn?$AA?9?$AAJ?$AAM@ 0000000180046c30     libucrtd:lcidtoname_downlevel.obj
 0002:0000ac40       ??_C@_1M@DNMLCIHB@?$AAe?$AAs?$AA?9?$AAV?$AAE@ 0000000180046c40     libucrtd:lcidtoname_downlevel.obj
 0002:0000ac50       ??_C@_1O@EOKHMKJK@?$AAs?$AAm?$AAs?$AA?9?$AAF?$AAI@ 0000000180046c50     libucrtd:lcidtoname_downlevel.obj
 0002:0000ac60       ??_C@_1M@CAFJMKOF@?$AAa?$AAr?$AA?9?$AAY?$AAE@ 0000000180046c60     libucrtd:lcidtoname_downlevel.obj
 0002:0000ac70       ??_C@_1M@CBFHIJLI@?$AAe?$AAn?$AA?9?$AAC?$AAB@ 0000000180046c70     libucrtd:lcidtoname_downlevel.obj
 0002:0000ac80       ??_C@_1M@BGNFLDN@?$AAe?$AAs?$AA?9?$AAC?$AAO@ 0000000180046c80     libucrtd:lcidtoname_downlevel.obj
 0002:0000ac90       ??_C@_1O@JMPHMAMC@?$AAs?$AAm?$AAn?$AA?9?$AAF?$AAI@ 0000000180046c90     libucrtd:lcidtoname_downlevel.obj
 0002:0000aca0       ??_C@_1M@JLANABKE@?$AAa?$AAr?$AA?9?$AAS?$AAY@ 0000000180046ca0     libucrtd:lcidtoname_downlevel.obj
 0002:0000acb0       ??_C@_1M@HPKGCFGN@?$AAe?$AAn?$AA?9?$AAB?$AAZ@ 0000000180046cb0     libucrtd:lcidtoname_downlevel.obj
 0002:0000acc0       ??_C@_1M@OLJCMLGM@?$AAe?$AAs?$AA?9?$AAP?$AAE@ 0000000180046cc0     libucrtd:lcidtoname_downlevel.obj
 0002:0000acd0       ??_C@_1M@MKKGFKLE@?$AAa?$AAr?$AA?9?$AAJ?$AAO@ 0000000180046cd0     libucrtd:lcidtoname_downlevel.obj
 0002:0000ace0       ??_C@_1M@EKPGLDNI@?$AAe?$AAn?$AA?9?$AAT?$AAT@ 0000000180046ce0     libucrtd:lcidtoname_downlevel.obj
 0002:0000acf0       ??_C@_1M@OONGHFHE@?$AAe?$AAs?$AA?9?$AAA?$AAR@ 0000000180046cf0     libucrtd:lcidtoname_downlevel.obj
 0002:0000ad00       ??_C@_1M@OOJFGBHE@?$AAa?$AAr?$AA?9?$AAL?$AAB@ 0000000180046d00     libucrtd:lcidtoname_downlevel.obj
 0002:0000ad10       ??_C@_1M@GCEJHNEG@?$AAe?$AAn?$AA?9?$AAZ?$AAW@ 0000000180046d10     libucrtd:lcidtoname_downlevel.obj
 0002:0000ad20       ??_C@_1M@JNOCAHJI@?$AAe?$AAs?$AA?9?$AAE?$AAC@ 0000000180046d20     libucrtd:lcidtoname_downlevel.obj
 0002:0000ad30       ??_C@_1M@JEFHPGGB@?$AAa?$AAr?$AA?9?$AAK?$AAW@ 0000000180046d30     libucrtd:lcidtoname_downlevel.obj
 0002:0000ad40       ??_C@_1M@MLKIBJOJ@?$AAe?$AAn?$AA?9?$AAP?$AAH@ 0000000180046d40     libucrtd:lcidtoname_downlevel.obj
 0002:0000ad50       ??_C@_1M@BDNIPEND@?$AAe?$AAs?$AA?9?$AAC?$AAL@ 0000000180046d50     libucrtd:lcidtoname_downlevel.obj
 0002:0000ad60       ??_C@_1M@MPNMEKBD@?$AAa?$AAr?$AA?9?$AAA?$AAE@ 0000000180046d60     libucrtd:lcidtoname_downlevel.obj
 0002:0000ad70       ??_C@_1M@KBJALCPI@?$AAe?$AAs?$AA?9?$AAU?$AAY@ 0000000180046d70     libucrtd:lcidtoname_downlevel.obj
 0002:0000ad80       ??_C@_1M@LLCCOAGA@?$AAa?$AAr?$AA?9?$AAB?$AAH@ 0000000180046d80     libucrtd:lcidtoname_downlevel.obj
 0002:0000ad90       ??_C@_1M@PBFNCDEL@?$AAe?$AAs?$AA?9?$AAP?$AAY@ 0000000180046d90     libucrtd:lcidtoname_downlevel.obj
 0002:0000ada0       ??_C@_1M@EDGINPNP@?$AAa?$AAr?$AA?9?$AAQ?$AAA@ 0000000180046da0     libucrtd:lcidtoname_downlevel.obj
 0002:0000adb0       ??_C@_1M@MKDBIIJI@?$AAe?$AAs?$AA?9?$AAB?$AAO@ 0000000180046db0     libucrtd:lcidtoname_downlevel.obj
 0002:0000adc0       ??_C@_1M@CPKKEBLD@?$AAe?$AAs?$AA?9?$AAS?$AAV@ 0000000180046dc0     libucrtd:lcidtoname_downlevel.obj
 0002:0000add0       ??_C@_1M@NDBGMMJL@?$AAe?$AAs?$AA?9?$AAH?$AAN@ 0000000180046dd0     libucrtd:lcidtoname_downlevel.obj
 0002:0000ade0       ??_C@_1M@JIJIBHDP@?$AAe?$AAs?$AA?9?$AAN?$AAI@ 0000000180046de0     libucrtd:lcidtoname_downlevel.obj
 0002:0000adf0       ??_C@_1M@CGFMKEEK@?$AAe?$AAs?$AA?9?$AAP?$AAR@ 0000000180046df0     libucrtd:lcidtoname_downlevel.obj
 0002:0000ae00       ??_C@_1O@ICJHKIIK@?$AAz?$AAh?$AA?9?$AAC?$AAH?$AAT@ 0000000180046e00     libucrtd:lcidtoname_downlevel.obj
 0002:0000ae10       ??_C@_15CLNEJCE@?$AAs?$AAr@ 0000000180046e10     libucrtd:lcidtoname_downlevel.obj
 0002:0000bc60       ??_C@_1M@KAHEKEIG@?$AAa?$AAf?$AA?9?$AAz?$AAa@ 0000000180047c60     libucrtd:lcidtoname_downlevel.obj
 0002:0000bc70       ??_C@_1M@GIECOABL@?$AAa?$AAr?$AA?9?$AAa?$AAe@ 0000000180047c70     libucrtd:lcidtoname_downlevel.obj
 0002:0000bc80       ??_C@_1M@BMLMEKGI@?$AAa?$AAr?$AA?9?$AAb?$AAh@ 0000000180047c80     libucrtd:lcidtoname_downlevel.obj
 0002:0000bc90       ??_C@_1M@DAPFDGGB@?$AAa?$AAr?$AA?9?$AAd?$AAz@ 0000000180047c90     libucrtd:lcidtoname_downlevel.obj
 0002:0000bca0       ??_C@_1M@FJNKGKIG@?$AAa?$AAr?$AA?9?$AAe?$AAg@ 0000000180047ca0     libucrtd:lcidtoname_downlevel.obj
 0002:0000bcb0       ??_C@_1M@FLGKKCLO@?$AAa?$AAr?$AA?9?$AAi?$AAq@ 0000000180047cb0     libucrtd:lcidtoname_downlevel.obj
 0002:0000bcc0       ??_C@_1M@GNDIPALM@?$AAa?$AAr?$AA?9?$AAj?$AAo@ 0000000180047cc0     libucrtd:lcidtoname_downlevel.obj
 0002:0000bcd0       ??_C@_1M@DDMJFMGJ@?$AAa?$AAr?$AA?9?$AAk?$AAw@ 0000000180047cd0     libucrtd:lcidtoname_downlevel.obj
 0002:0000bce0       ??_C@_1M@EJALMLHM@?$AAa?$AAr?$AA?9?$AAl?$AAb@ 0000000180047ce0     libucrtd:lcidtoname_downlevel.obj
 0002:0000bcf0       ??_C@_1M@MOBDBLOC@?$AAa?$AAr?$AA?9?$AAl?$AAy@ 0000000180047cf0     libucrtd:lcidtoname_downlevel.obj
 0002:0000bd00       ??_C@_1M@JAOCLHDH@?$AAa?$AAr?$AA?9?$AAm?$AAa@ 0000000180047d00     libucrtd:lcidtoname_downlevel.obj
 0002:0000bd10       ??_C@_1M@JHPMKJIE@?$AAa?$AAr?$AA?9?$AAo?$AAm@ 0000000180047d10     libucrtd:lcidtoname_downlevel.obj
 0002:0000bd20       ??_C@_1M@OEPGHFNH@?$AAa?$AAr?$AA?9?$AAq?$AAa@ 0000000180047d20     libucrtd:lcidtoname_downlevel.obj
 0002:0000bd30       ??_C@_1M@KJDONENM@?$AAa?$AAr?$AA?9?$AAs?$AAa@ 0000000180047d30     libucrtd:lcidtoname_downlevel.obj
 0002:0000bd40       ??_C@_1M@DMJDKLKM@?$AAa?$AAr?$AA?9?$AAs?$AAy@ 0000000180047d40     libucrtd:lcidtoname_downlevel.obj
 0002:0000bd50       ??_C@_1M@OMFIPEDC@?$AAa?$AAr?$AA?9?$AAt?$AAn@ 0000000180047d50     libucrtd:lcidtoname_downlevel.obj
 0002:0000bd60       ??_C@_1M@IHMHGAON@?$AAa?$AAr?$AA?9?$AAy?$AAe@ 0000000180047d60     libucrtd:lcidtoname_downlevel.obj
 0002:0000bd70       ??_C@_1BG@KDCPGJGB@?$AAa?$AAz?$AA?9?$AAa?$AAz?$AA?9?$AAc?$AAy?$AAr?$AAl@ 0000000180047d70     libucrtd:lcidtoname_downlevel.obj
 0002:0000bd88       ??_C@_1BG@IBCKDDOE@?$AAa?$AAz?$AA?9?$AAa?$AAz?$AA?9?$AAl?$AAa?$AAt?$AAn@ 0000000180047d88     libucrtd:lcidtoname_downlevel.obj
 0002:0000bda0       ??_C@_1M@EGPFDCPD@?$AAb?$AAe?$AA?9?$AAb?$AAy@ 0000000180047da0     libucrtd:lcidtoname_downlevel.obj
 0002:0000bdb0       ??_C@_1M@PCMGMCGC@?$AAb?$AAg?$AA?9?$AAb?$AAg@ 0000000180047db0     libucrtd:lcidtoname_downlevel.obj
 0002:0000bdc0       ??_C@_1M@BJBMFGOB@?$AAb?$AAn?$AA?9?$AAi?$AAn@ 0000000180047dc0     libucrtd:lcidtoname_downlevel.obj
 0002:0000bdd0       ??_C@_1BG@EAKMMACD@?$AAb?$AAs?$AA?9?$AAb?$AAa?$AA?9?$AAl?$AAa?$AAt?$AAn@ 0000000180047dd0     libucrtd:lcidtoname_downlevel.obj
 0002:0000bde8       ??_C@_1M@KGADAODK@?$AAc?$AAa?$AA?9?$AAe?$AAs@ 0000000180047de8     libucrtd:lcidtoname_downlevel.obj
 0002:0000bdf8       ??_C@_1M@COAJPDHI@?$AAc?$AAs?$AA?9?$AAc?$AAz@ 0000000180047df8     libucrtd:lcidtoname_downlevel.obj
 0002:0000be08       ??_C@_1M@DHBHFONH@?$AAc?$AAy?$AA?9?$AAg?$AAb@ 0000000180047e08     libucrtd:lcidtoname_downlevel.obj
 0002:0000be18       ??_C@_1M@IMGKELGA@?$AAd?$AAa?$AA?9?$AAd?$AAk@ 0000000180047e18     libucrtd:lcidtoname_downlevel.obj
 0002:0000be28       ??_C@_1M@NNDGDNGA@?$AAd?$AAe?$AA?9?$AAa?$AAt@ 0000000180047e28     libucrtd:lcidtoname_downlevel.obj
 0002:0000be38       ??_C@_1M@IKDBHEEM@?$AAd?$AAe?$AA?9?$AAc?$AAh@ 0000000180047e38     libucrtd:lcidtoname_downlevel.obj
 0002:0000be48       ??_C@_1M@GFFOJMCJ@?$AAd?$AAe?$AA?9?$AAd?$AAe@ 0000000180047e48     libucrtd:lcidtoname_downlevel.obj
 0002:0000be58       ??_C@_1M@MDNLKBPM@?$AAd?$AAe?$AA?9?$AAl?$AAi@ 0000000180047e58     libucrtd:lcidtoname_downlevel.obj
 0002:0000be68       ??_C@_1M@NJBEEJNL@?$AAd?$AAe?$AA?9?$AAl?$AAu@ 0000000180047e68     libucrtd:lcidtoname_downlevel.obj
 0002:0000be78       ??_C@_1O@GNNELBAP@?$AAd?$AAi?$AAv?$AA?9?$AAm?$AAv@ 0000000180047e78     libucrtd:lcidtoname_downlevel.obj
 0002:0000be88       ??_C@_1M@EJLEOGAE@?$AAe?$AAl?$AA?9?$AAg?$AAr@ 0000000180047e88     libucrtd:lcidtoname_downlevel.obj
 0002:0000be98       ??_C@_1M@GMPONJN@?$AAe?$AAn?$AA?9?$AAa?$AAu@ 0000000180047e98     libucrtd:lcidtoname_downlevel.obj
 0002:0000bea8       ??_C@_1M@NIDIIPGF@?$AAe?$AAn?$AA?9?$AAb?$AAz@ 0000000180047ea8     libucrtd:lcidtoname_downlevel.obj
 0002:0000beb8       ??_C@_1M@JEHMIMFO@?$AAe?$AAn?$AA?9?$AAc?$AAa@ 0000000180047eb8     libucrtd:lcidtoname_downlevel.obj
 0002:0000bec8       ??_C@_1M@IGMJCDLA@?$AAe?$AAn?$AA?9?$AAc?$AAb@ 0000000180047ec8     libucrtd:lcidtoname_downlevel.obj
 0002:0000bed8       ??_C@_1M@BNFIGBKG@?$AAe?$AAn?$AA?9?$AAg?$AAb@ 0000000180047ed8     libucrtd:lcidtoname_downlevel.obj
 0002:0000bee8       ??_C@_1M@LKIFDIGP@?$AAe?$AAn?$AA?9?$AAi?$AAe@ 0000000180047ee8     libucrtd:lcidtoname_downlevel.obj
 0002:0000bef8       ??_C@_1M@PJKFGCCO@?$AAe?$AAn?$AA?9?$AAj?$AAm@ 0000000180047ef8     libucrtd:lcidtoname_downlevel.obj
 0002:0000bf08       ??_C@_1M@KPPKEPBO@?$AAe?$AAn?$AA?9?$AAn?$AAz@ 0000000180047f08     libucrtd:lcidtoname_downlevel.obj
 0002:0000bf18       ??_C@_1M@GMDGLDOB@?$AAe?$AAn?$AA?9?$AAp?$AAh@ 0000000180047f18     libucrtd:lcidtoname_downlevel.obj
 0002:0000bf28       ??_C@_1M@ONGIBJNA@?$AAe?$AAn?$AA?9?$AAt?$AAt@ 0000000180047f28     libucrtd:lcidtoname_downlevel.obj
 0002:0000bf38       ??_C@_1M@LLODPCMM@?$AAe?$AAn?$AA?9?$AAu?$AAs@ 0000000180047f38     libucrtd:lcidtoname_downlevel.obj
 0002:0000bf48       ??_C@_1M@LAKFNPAN@?$AAe?$AAn?$AA?9?$AAz?$AAa@ 0000000180047f48     libucrtd:lcidtoname_downlevel.obj
 0002:0000bf58       ??_C@_1M@MFNHNHEO@?$AAe?$AAn?$AA?9?$AAz?$AAw@ 0000000180047f58     libucrtd:lcidtoname_downlevel.obj
 0002:0000bf68       ??_C@_1M@EJEINPHM@?$AAe?$AAs?$AA?9?$AAa?$AAr@ 0000000180047f68     libucrtd:lcidtoname_downlevel.obj
 0002:0000bf78       ??_C@_1M@GNKPCCJA@?$AAe?$AAs?$AA?9?$AAb?$AAo@ 0000000180047f78     libucrtd:lcidtoname_downlevel.obj
 0002:0000bf88       ??_C@_1M@LEEGFONL@?$AAe?$AAs?$AA?9?$AAc?$AAl@ 0000000180047f88     libucrtd:lcidtoname_downlevel.obj
 0002:0000bf98       ??_C@_1M@KGPDPBDF@?$AAe?$AAs?$AA?9?$AAc?$AAo@ 0000000180047f98     libucrtd:lcidtoname_downlevel.obj
 0002:0000bfa8       ??_C@_1M@EIAHOHH@?$AAe?$AAs?$AA?9?$AAc?$AAr@ 0000000180047fa8     libucrtd:lcidtoname_downlevel.obj
 0002:0000bfb8       ??_C@_1M@LLPGMBIN@?$AAe?$AAs?$AA?9?$AAd?$AAo@ 0000000180047fb8     libucrtd:lcidtoname_downlevel.obj
 0002:0000bfc8       ??_C@_1M@DKHMKNJA@?$AAe?$AAs?$AA?9?$AAe?$AAc@ 0000000180047fc8     libucrtd:lcidtoname_downlevel.obj
 0002:0000bfd8       ??_C@_1M@GKGFPKAP@?$AAe?$AAs?$AA?9?$AAe?$AAs@ 0000000180047fd8     libucrtd:lcidtoname_downlevel.obj
 0002:0000bfe8       ??_C@_1M@LKHKGDLN@?$AAe?$AAs?$AA?9?$AAg?$AAt@ 0000000180047fe8     libucrtd:lcidtoname_downlevel.obj
 0002:0000bff8       ??_C@_1M@HEIIGGJD@?$AAe?$AAs?$AA?9?$AAh?$AAn@ 0000000180047ff8     libucrtd:lcidtoname_downlevel.obj
 0002:0000c008       ??_C@_1M@FBDHPPGD@?$AAe?$AAs?$AA?9?$AAm?$AAx@ 0000000180048008     libucrtd:lcidtoname_downlevel.obj
 0002:0000c018       ??_C@_1M@DPAGLNDH@?$AAe?$AAs?$AA?9?$AAn?$AAi@ 0000000180048018     libucrtd:lcidtoname_downlevel.obj
 0002:0000c028       ??_C@_1M@MDGOPGDD@?$AAe?$AAs?$AA?9?$AAp?$AAa@ 0000000180048028     libucrtd:lcidtoname_downlevel.obj
 0002:0000c038       ??_C@_1M@EMAMGBGE@?$AAe?$AAs?$AA?9?$AAp?$AAe@ 0000000180048038     libucrtd:lcidtoname_downlevel.obj
 0002:0000c048       ??_C@_1M@IBMCAOEC@?$AAe?$AAs?$AA?9?$AAp?$AAr@ 0000000180048048     libucrtd:lcidtoname_downlevel.obj
 0002:0000c058       ??_C@_1M@FGMDIJED@?$AAe?$AAs?$AA?9?$AAp?$AAy@ 0000000180048058     libucrtd:lcidtoname_downlevel.obj
 0002:0000c068       ??_C@_1M@IIDEOLLL@?$AAe?$AAs?$AA?9?$AAs?$AAv@ 0000000180048068     libucrtd:lcidtoname_downlevel.obj
 0002:0000c078       ??_C@_1M@GAOBIPA@?$AAe?$AAs?$AA?9?$AAu?$AAy@ 0000000180048078     libucrtd:lcidtoname_downlevel.obj
 0002:0000c088       ??_C@_1M@JKFFICHJ@?$AAe?$AAs?$AA?9?$AAv?$AAe@ 0000000180048088     libucrtd:lcidtoname_downlevel.obj
 0002:0000c098       ??_C@_1M@PNMLOJDF@?$AAe?$AAt?$AA?9?$AAe?$AAe@ 0000000180048098     libucrtd:lcidtoname_downlevel.obj
 0002:0000c0a8       ??_C@_1M@GHHLIKEI@?$AAe?$AAu?$AA?9?$AAe?$AAs@ 00000001800480a8     libucrtd:lcidtoname_downlevel.obj
 0002:0000c0b8       ??_C@_1M@PBNONODE@?$AAf?$AAa?$AA?9?$AAi?$AAr@ 00000001800480b8     libucrtd:lcidtoname_downlevel.obj
 0002:0000c0c8       ??_C@_1M@JEEHPMIL@?$AAf?$AAi?$AA?9?$AAf?$AAi@ 00000001800480c8     libucrtd:lcidtoname_downlevel.obj
 0002:0000c0d8       ??_C@_1M@LMDCNDBA@?$AAf?$AAo?$AA?9?$AAf?$AAo@ 00000001800480d8     libucrtd:lcidtoname_downlevel.obj
 0002:0000c0e8       ??_C@_1M@JKEOHLDK@?$AAf?$AAr?$AA?9?$AAb?$AAe@ 00000001800480e8     libucrtd:lcidtoname_downlevel.obj
 0002:0000c0f8       ??_C@_1M@NOHADPMI@?$AAf?$AAr?$AA?9?$AAc?$AAa@ 00000001800480f8     libucrtd:lcidtoname_downlevel.obj
 0002:0000c108       ??_C@_1M@KDHIHAEC@?$AAf?$AAr?$AA?9?$AAc?$AAh@ 0000000180048108     libucrtd:lcidtoname_downlevel.obj
 0002:0000c118       ??_C@_1M@MMBBFGAK@?$AAf?$AAr?$AA?9?$AAf?$AAr@ 0000000180048118     libucrtd:lcidtoname_downlevel.obj
 0002:0000c128       ??_C@_1M@PAFNENNF@?$AAf?$AAr?$AA?9?$AAl?$AAu@ 0000000180048128     libucrtd:lcidtoname_downlevel.obj
 0002:0000c138       ??_C@_1M@EOHDJGDD@?$AAf?$AAr?$AA?9?$AAm?$AAc@ 0000000180048138     libucrtd:lcidtoname_downlevel.obj
 0002:0000c148       ??_C@_1M@FAPLLOPF@?$AAg?$AAl?$AA?9?$AAe?$AAs@ 0000000180048148     libucrtd:lcidtoname_downlevel.obj
 0002:0000c158       ??_C@_1M@FOPBFLOO@?$AAg?$AAu?$AA?9?$AAi?$AAn@ 0000000180048158     libucrtd:lcidtoname_downlevel.obj
 0002:0000c168       ??_C@_1M@KBMCINPM@?$AAh?$AAe?$AA?9?$AAi?$AAl@ 0000000180048168     libucrtd:lcidtoname_downlevel.obj
 0002:0000c178       ??_C@_1M@BBPHKFPJ@?$AAh?$AAi?$AA?9?$AAi?$AAn@ 0000000180048178     libucrtd:lcidtoname_downlevel.obj
 0002:0000c188       ??_C@_1M@PMBNDPHD@?$AAh?$AAr?$AA?9?$AAb?$AAa@ 0000000180048188     libucrtd:lcidtoname_downlevel.obj
 0002:0000c198       ??_C@_1M@BPCKOEGE@?$AAh?$AAr?$AA?9?$AAh?$AAr@ 0000000180048198     libucrtd:lcidtoname_downlevel.obj
 0002:0000c1a8       ??_C@_1M@GACBMHKE@?$AAh?$AAu?$AA?9?$AAh?$AAu@ 00000001800481a8     libucrtd:lcidtoname_downlevel.obj
 0002:0000c1b8       ??_C@_1M@MILPAJJC@?$AAh?$AAy?$AA?9?$AAa?$AAm@ 00000001800481b8     libucrtd:lcidtoname_downlevel.obj
 0002:0000c1c8       ??_C@_1M@BABBICEC@?$AAi?$AAd?$AA?9?$AAi?$AAd@ 00000001800481c8     libucrtd:lcidtoname_downlevel.obj
 0002:0000c1d8       ??_C@_1M@BIKNHHPF@?$AAi?$AAs?$AA?9?$AAi?$AAs@ 00000001800481d8     libucrtd:lcidtoname_downlevel.obj
 0002:0000c1e8       ??_C@_1M@NMPCJPHE@?$AAi?$AAt?$AA?9?$AAc?$AAh@ 00000001800481e8     libucrtd:lcidtoname_downlevel.obj
 0002:0000c1f8       ??_C@_1M@GHKGFEDF@?$AAi?$AAt?$AA?9?$AAi?$AAt@ 00000001800481f8     libucrtd:lcidtoname_downlevel.obj
 0002:0000c208       ??_C@_1M@NIEJCJJA@?$AAj?$AAa?$AA?9?$AAj?$AAp@ 0000000180048208     libucrtd:lcidtoname_downlevel.obj
 0002:0000c218       ??_C@_1M@JILFNBIM@?$AAk?$AAa?$AA?9?$AAg?$AAe@ 0000000180048218     libucrtd:lcidtoname_downlevel.obj
 0002:0000c228       ??_C@_1M@PACPMGPH@?$AAk?$AAk?$AA?9?$AAk?$AAz@ 0000000180048228     libucrtd:lcidtoname_downlevel.obj
 0002:0000c238       ??_C@_1M@IELFGMHA@?$AAk?$AAn?$AA?9?$AAi?$AAn@ 0000000180048238     libucrtd:lcidtoname_downlevel.obj
 0002:0000c248       ??_C@_1O@IBBJHCH@?$AAk?$AAo?$AAk?$AA?9?$AAi?$AAn@ 0000000180048248     libucrtd:lcidtoname_downlevel.obj
 0002:0000c258       ??_C@_1M@DMHAEOGC@?$AAk?$AAo?$AA?9?$AAk?$AAr@ 0000000180048258     libucrtd:lcidtoname_downlevel.obj
 0002:0000c268       ??_C@_1M@HBAHBIGA@?$AAk?$AAy?$AA?9?$AAk?$AAg@ 0000000180048268     libucrtd:lcidtoname_downlevel.obj
 0002:0000c278       ??_C@_1M@KPMILCJG@?$AAl?$AAt?$AA?9?$AAl?$AAt@ 0000000180048278     libucrtd:lcidtoname_downlevel.obj
 0002:0000c288       ??_C@_1M@BDEKKCA@?$AAl?$AAv?$AA?9?$AAl?$AAv@ 0000000180048288     libucrtd:lcidtoname_downlevel.obj
 0002:0000c298       ??_C@_1M@ELCKCCJJ@?$AAm?$AAi?$AA?9?$AAn?$AAz@ 0000000180048298     libucrtd:lcidtoname_downlevel.obj
 0002:0000c2a8       ??_C@_1M@CBOOLAPA@?$AAm?$AAk?$AA?9?$AAm?$AAk@ 00000001800482a8     libucrtd:lcidtoname_downlevel.obj
 0002:0000c2b8       ??_C@_1M@GPHNBJKN@?$AAm?$AAl?$AA?9?$AAi?$AAn@ 00000001800482b8     libucrtd:lcidtoname_downlevel.obj
 0002:0000c2c8       ??_C@_1M@PABJILIG@?$AAm?$AAn?$AA?9?$AAm?$AAn@ 00000001800482c8     libucrtd:lcidtoname_downlevel.obj
 0002:0000c2d8       ??_C@_1M@FGBKKIPG@?$AAm?$AAr?$AA?9?$AAi?$AAn@ 00000001800482d8     libucrtd:lcidtoname_downlevel.obj
 0002:0000c2e8       ??_C@_1M@NDBPDDAL@?$AAm?$AAs?$AA?9?$AAb?$AAn@ 00000001800482e8     libucrtd:lcidtoname_downlevel.obj
 0002:0000c2f8       ??_C@_1M@OPIHOOPI@?$AAm?$AAs?$AA?9?$AAm?$AAy@ 00000001800482f8     libucrtd:lcidtoname_downlevel.obj
 0002:0000c308       ??_C@_1M@PPDBCNFM@?$AAm?$AAt?$AA?9?$AAm?$AAt@ 0000000180048308     libucrtd:lcidtoname_downlevel.obj
 0002:0000c318       ??_C@_1M@KDJDKMDD@?$AAn?$AAb?$AA?9?$AAn?$AAo@ 0000000180048318     libucrtd:lcidtoname_downlevel.obj
 0002:0000c328       ??_C@_1M@KFCFLMJP@?$AAn?$AAl?$AA?9?$AAb?$AAe@ 0000000180048328     libucrtd:lcidtoname_downlevel.obj
 0002:0000c338       ??_C@_1M@KPOPDDGO@?$AAn?$AAl?$AA?9?$AAn?$AAl@ 0000000180048338     libucrtd:lcidtoname_downlevel.obj
 0002:0000c348       ??_C@_1M@LJKPEMLN@?$AAn?$AAn?$AA?9?$AAn?$AAo@ 0000000180048348     libucrtd:lcidtoname_downlevel.obj
 0002:0000c358       ??_C@_1M@BDGHHBFL@?$AAn?$AAs?$AA?9?$AAz?$AAa@ 0000000180048358     libucrtd:lcidtoname_downlevel.obj
 0002:0000c368       ??_C@_1M@IDEHOAP@?$AAp?$AAa?$AA?9?$AAi?$AAn@ 0000000180048368     libucrtd:lcidtoname_downlevel.obj
 0002:0000c378       ??_C@_1M@HDBKGOGH@?$AAp?$AAl?$AA?9?$AAp?$AAl@ 0000000180048378     libucrtd:lcidtoname_downlevel.obj
 0002:0000c388       ??_C@_1M@LJLLCMEH@?$AAp?$AAt?$AA?9?$AAb?$AAr@ 0000000180048388     libucrtd:lcidtoname_downlevel.obj
 0002:0000c398       ??_C@_1M@NCMONAAL@?$AAp?$AAt?$AA?9?$AAp?$AAt@ 0000000180048398     libucrtd:lcidtoname_downlevel.obj
 0002:0000c3a8       ??_C@_1O@EAKMAJDN@?$AAq?$AAu?$AAz?$AA?9?$AAb?$AAo@ 00000001800483a8     libucrtd:lcidtoname_downlevel.obj
 0002:0000c3b8       ??_C@_1O@BHHPIGDN@?$AAq?$AAu?$AAz?$AA?9?$AAe?$AAc@ 00000001800483b8     libucrtd:lcidtoname_downlevel.obj
 0002:0000c3c8       ??_C@_1O@GBAPEKMJ@?$AAq?$AAu?$AAz?$AA?9?$AAp?$AAe@ 00000001800483c8     libucrtd:lcidtoname_downlevel.obj
 0002:0000c3d8       ??_C@_1M@CLGLEFBO@?$AAr?$AAo?$AA?9?$AAr?$AAo@ 00000001800483d8     libucrtd:lcidtoname_downlevel.obj
 0002:0000c3e8       ??_C@_1M@CEEDODME@?$AAr?$AAu?$AA?9?$AAr?$AAu@ 00000001800483e8     libucrtd:lcidtoname_downlevel.obj
 0002:0000c3f8       ??_C@_1M@HPKKKMPP@?$AAs?$AAa?$AA?9?$AAi?$AAn@ 00000001800483f8     libucrtd:lcidtoname_downlevel.obj
 0002:0000c408       ??_C@_1M@BKMAIGOJ@?$AAs?$AAe?$AA?9?$AAf?$AAi@ 0000000180048408     libucrtd:lcidtoname_downlevel.obj
 0002:0000c418       ??_C@_1M@NDPIFLFI@?$AAs?$AAe?$AA?9?$AAn?$AAo@ 0000000180048418     libucrtd:lcidtoname_downlevel.obj
 0002:0000c428       ??_C@_1M@DANKKHJ@?$AAs?$AAe?$AA?9?$AAs?$AAe@ 0000000180048428     libucrtd:lcidtoname_downlevel.obj
 0002:0000c438       ??_C@_1M@PNBLONPJ@?$AAs?$AAk?$AA?9?$AAs?$AAk@ 0000000180048438     libucrtd:lcidtoname_downlevel.obj
 0002:0000c448       ??_C@_1M@LFMODOAL@?$AAs?$AAl?$AA?9?$AAs?$AAi@ 0000000180048448     libucrtd:lcidtoname_downlevel.obj
 0002:0000c458       ??_C@_1O@DFKOMPG@?$AAs?$AAm?$AAa?$AA?9?$AAn?$AAo@ 0000000180048458     libucrtd:lcidtoname_downlevel.obj
 0002:0000c468       ??_C@_1O@NDKPBNNH@?$AAs?$AAm?$AAa?$AA?9?$AAs?$AAe@ 0000000180048468     libucrtd:lcidtoname_downlevel.obj
 0002:0000c478       ??_C@_1O@PLLKBHAB@?$AAs?$AAm?$AAj?$AA?9?$AAn?$AAo@ 0000000180048478     libucrtd:lcidtoname_downlevel.obj
 0002:0000c488       ??_C@_1O@CLEPOGCA@?$AAs?$AAm?$AAj?$AA?9?$AAs?$AAe@ 0000000180048488     libucrtd:lcidtoname_downlevel.obj
 0002:0000c498       ??_C@_1O@DLGJGKMK@?$AAs?$AAm?$AAn?$AA?9?$AAf?$AAi@ 0000000180048498     libucrtd:lcidtoname_downlevel.obj
 0002:0000c4a8       ??_C@_1O@OJDJGAJC@?$AAs?$AAm?$AAs?$AA?9?$AAf?$AAi@ 00000001800484a8     libucrtd:lcidtoname_downlevel.obj
 0002:0000c4b8       ??_C@_1M@BOFOGHPB@?$AAs?$AAq?$AA?9?$AAa?$AAl@ 00000001800484b8     libucrtd:lcidtoname_downlevel.obj
 0002:0000c4c8       ??_C@_1BG@LJBBIPGB@?$AAs?$AAr?$AA?9?$AAb?$AAa?$AA?9?$AAc?$AAy?$AAr?$AAl@ 00000001800484c8     libucrtd:lcidtoname_downlevel.obj
 0002:0000c4e0       ??_C@_1BG@JLBENFOE@?$AAs?$AAr?$AA?9?$AAb?$AAa?$AA?9?$AAl?$AAa?$AAt?$AAn@ 00000001800484e0     libucrtd:lcidtoname_downlevel.obj
 0002:0000c4f8       ??_C@_1BG@KODPNHE@?$AAs?$AAr?$AA?9?$AAs?$AAp?$AA?9?$AAc?$AAy?$AAr?$AAl@ 00000001800484f8     libucrtd:lcidtoname_downlevel.obj
 0002:0000c510       ??_C@_1BG@CIOGKHPB@?$AAs?$AAr?$AA?9?$AAs?$AAp?$AA?9?$AAl?$AAa?$AAt?$AAn@ 0000000180048510     libucrtd:lcidtoname_downlevel.obj
 0002:0000c528       ??_C@_1M@NGFJLMAC@?$AAs?$AAv?$AA?9?$AAf?$AAi@ 0000000180048528     libucrtd:lcidtoname_downlevel.obj
 0002:0000c538       ??_C@_1M@MPJEJAJC@?$AAs?$AAv?$AA?9?$AAs?$AAe@ 0000000180048538     libucrtd:lcidtoname_downlevel.obj
 0002:0000c548       ??_C@_1M@MPNDHLFK@?$AAs?$AAw?$AA?9?$AAk?$AAe@ 0000000180048548     libucrtd:lcidtoname_downlevel.obj
 0002:0000c558       ??_C@_1O@KOHBJJI@?$AAs?$AAy?$AAr?$AA?9?$AAs?$AAy@ 0000000180048558     libucrtd:lcidtoname_downlevel.obj
 0002:0000c568       ??_C@_1M@LDCEFHA@?$AAt?$AAa?$AA?9?$AAi?$AAn@ 0000000180048568     libucrtd:lcidtoname_downlevel.obj
 0002:0000c578       ??_C@_1M@CNJOFAK@?$AAt?$AAe?$AA?9?$AAi?$AAn@ 0000000180048578     libucrtd:lcidtoname_downlevel.obj
 0002:0000c588       ??_C@_1M@GNAECACD@?$AAt?$AAh?$AA?9?$AAt?$AAh@ 0000000180048588     libucrtd:lcidtoname_downlevel.obj
 0002:0000c598       ??_C@_1M@CHBIHOJO@?$AAt?$AAn?$AA?9?$AAz?$AAa@ 0000000180048598     libucrtd:lcidtoname_downlevel.obj
 0002:0000c5a8       ??_C@_1M@GCCMIGPJ@?$AAt?$AAr?$AA?9?$AAt?$AAr@ 00000001800485a8     libucrtd:lcidtoname_downlevel.obj
 0002:0000c5b8       ??_C@_1M@CELMCNBK@?$AAt?$AAt?$AA?9?$AAr?$AAu@ 00000001800485b8     libucrtd:lcidtoname_downlevel.obj
 0002:0000c5c8       ??_C@_1M@KLMCELGA@?$AAu?$AAk?$AA?9?$AAu?$AAa@ 00000001800485c8     libucrtd:lcidtoname_downlevel.obj
 0002:0000c5d8       ??_C@_1M@EPAJJAJF@?$AAu?$AAr?$AA?9?$AAp?$AAk@ 00000001800485d8     libucrtd:lcidtoname_downlevel.obj
 0002:0000c5e8       ??_C@_1BG@GEGPMCDJ@?$AAu?$AAz?$AA?9?$AAu?$AAz?$AA?9?$AAc?$AAy?$AAr?$AAl@ 00000001800485e8     libucrtd:lcidtoname_downlevel.obj
 0002:0000c600       ??_C@_1BG@EGGKJILM@?$AAu?$AAz?$AA?9?$AAu?$AAz?$AA?9?$AAl?$AAa?$AAt?$AAn@ 0000000180048600     libucrtd:lcidtoname_downlevel.obj
 0002:0000c618       ??_C@_1M@GFOCLFF@?$AAv?$AAi?$AA?9?$AAv?$AAn@ 0000000180048618     libucrtd:lcidtoname_downlevel.obj
 0002:0000c628       ??_C@_1M@CPAMEDFI@?$AAx?$AAh?$AA?9?$AAz?$AAa@ 0000000180048628     libucrtd:lcidtoname_downlevel.obj
 0002:0000c638       ??_C@_1O@EBKIFIGN@?$AAz?$AAh?$AA?9?$AAc?$AAh?$AAs@ 0000000180048638     libucrtd:lcidtoname_downlevel.obj
 0002:0000c648       ??_C@_1O@NMHPGANE@?$AAz?$AAh?$AA?9?$AAc?$AAh?$AAt@ 0000000180048648     libucrtd:lcidtoname_downlevel.obj
 0002:0000c658       ??_C@_1M@LPINJOMC@?$AAz?$AAh?$AA?9?$AAc?$AAn@ 0000000180048658     libucrtd:lcidtoname_downlevel.obj
 0002:0000c668       ??_C@_1M@OCJEJODD@?$AAz?$AAh?$AA?9?$AAh?$AAk@ 0000000180048668     libucrtd:lcidtoname_downlevel.obj
 0002:0000c678       ??_C@_1M@DNDLJINH@?$AAz?$AAh?$AA?9?$AAm?$AAo@ 0000000180048678     libucrtd:lcidtoname_downlevel.obj
 0002:0000c688       ??_C@_1M@MBFDNDND@?$AAz?$AAh?$AA?9?$AAs?$AAg@ 0000000180048688     libucrtd:lcidtoname_downlevel.obj
 0002:0000c698       ??_C@_1M@IMEPLEPE@?$AAz?$AAh?$AA?9?$AAt?$AAw@ 0000000180048698     libucrtd:lcidtoname_downlevel.obj
 0002:0000c6a8       ??_C@_1M@BBGHNHJP@?$AAz?$AAu?$AA?9?$AAz?$AAa@ 00000001800486a8     libucrtd:lcidtoname_downlevel.obj
 0002:0000c6b8       ??_C@_0DB@JFFPGLDM@minkernel?2crts?2ucrt?2src?2appcrt?2@ 00000001800486b8     libucrtd:osfinfo.obj
 0002:0000c6f0       ??_C@_1EM@BPODPNEJ@?$AAs?$AAt?$AAa?$AAt?$AAi?$AAc?$AA_?$AAc?$AAa?$AAs?$AAt?$AA?$DM?$AAu?$AAn?$AAs@ 00000001800486f0     libucrtd:osfinfo.obj
 0002:0000c740       ??_C@_1GC@LDGKBAFM@?$AAm?$AAi?$AAn?$AAk?$AAe?$AAr?$AAn?$AAe?$AAl?$AA?2?$AAc?$AAr?$AAt?$AAs?$AA?2@ 0000000180048740     libucrtd:osfinfo.obj
 0002:0000c7a8       ??_C@_1DM@JELNOMLN@?$AA_?$AA_?$AAa?$AAc?$AAr?$AAt?$AA_?$AAl?$AAo?$AAw?$AAi?$AAo?$AA_?$AAe?$AAn@ 00000001800487a8     libucrtd:osfinfo.obj
 0002:0000c7f0       ??_C@_1FK@MGHFJLAL@?$AAf?$AAh?$AA?5?$AA?$DO?$AA?$DN?$AA?5?$AA0?$AA?5?$AA?$CG?$AA?$CG?$AA?5?$AA?$CI?$AAu?$AAn?$AAs@ 00000001800487f0     libucrtd:osfinfo.obj
 0002:0000c850       ??_C@_1BO@EMBOBGKE@?$AA_?$AAg?$AAe?$AAt?$AA_?$AAo?$AAs?$AAf?$AAh?$AAa?$AAn?$AAd?$AAl?$AAe@ 0000000180048850     libucrtd:osfinfo.obj
 0002:0000c870       ??_C@_1CI@ILOIOBLM@?$AA_?$AAo?$AAs?$AAf?$AAi?$AAl?$AAe?$AA?$CI?$AAf?$AAh?$AA?$CJ?$AA?5?$AA?$CG?$AA?5?$AAF@ 0000000180048870     libucrtd:osfinfo.obj
 0002:0000c8a0       __newctype                 00000001800488a0     libucrtd:ctype.obj
 0002:0000cba0       __newclmap                 0000000180048ba0     libucrtd:ctype.obj
 0002:0000cd20       __newcumap                 0000000180048d20     libucrtd:ctype.obj
 0002:0000cea0       _wctype                    0000000180048ea0     libucrtd:ctype.obj
 0002:0000d0b0       ??_C@_1FO@LPCLHKGE@?$AA?$CI?$AAf?$AAh?$AA?5?$AA?$DO?$AA?$DN?$AA?5?$AA0?$AA?5?$AA?$CG?$AA?$CG?$AA?5?$AA?$CI?$AAu?$AAn@ 00000001800490b0     libucrtd:isatty.obj
 0002:0000d110       ??_C@_1GA@DEPMKPD@?$AAm?$AAi?$AAn?$AAk?$AAe?$AAr?$AAn?$AAe?$AAl?$AA?2?$AAc?$AAr?$AAt?$AAs?$AA?2@ 0000000180049110     libucrtd:isatty.obj
 0002:0000d170       ??_C@_1BA@LEBDGIHM@?$AA_?$AAi?$AAs?$AAa?$AAt?$AAt?$AAy@ 0000000180049170     libucrtd:isatty.obj
 0002:0000d180       ??_C@_1CA@EOJJMFA@?$AAc?$AAo?$AAm?$AAm?$AAo?$AAn?$AA_?$AAt?$AAc?$AAs?$AAc?$AAa?$AAt?$AA_?$AAs@ 0000000180049180     libucrtd:wcscat_s.obj
 0002:0000d1a0       ??_C@_1DM@FHLMIEG@?$AAS?$AAt?$AAr?$AAi?$AAn?$AAg?$AA?5?$AAi?$AAs?$AA?5?$AAn?$AAo?$AAt?$AA?5?$AAn@ 00000001800491a0     libucrtd:wcscat_s.obj
 0002:0000d1e0       ??_C@_1FA@MJKDNFFB@?$AA?$CI?$AAL?$AA?$CC?$AAS?$AAt?$AAr?$AAi?$AAn?$AAg?$AA?5?$AAi?$AAs?$AA?5?$AAn?$AAo@ 00000001800491e0     libucrtd:wcscat_s.obj
 0002:0000d230       ??_C@_1DE@BCNCAIK@?$AA?$CI?$AA?$CC?$AAI?$AAn?$AAv?$AAa?$AAl?$AAi?$AAd?$AA?5?$AAe?$AAr?$AAr?$AAo?$AAr@ 0000000180049230     libucrtd:set_error_mode.obj
 0002:0000d270       ??_C@_1GO@EBFPMMIJ@?$AAm?$AAi?$AAn?$AAk?$AAe?$AAr?$AAn?$AAe?$AAl?$AA?2?$AAc?$AAr?$AAt?$AAs?$AA?2@ 0000000180049270     libucrtd:set_error_mode.obj
 0002:0000d2e0       ??_C@_1CA@LFDHAMEM@?$AA_?$AAs?$AAe?$AAt?$AA_?$AAe?$AAr?$AAr?$AAo?$AAr?$AA_?$AAm?$AAo?$AAd?$AAe@ 00000001800492e0     libucrtd:set_error_mode.obj
 0002:0000d300       ??_C@_1GG@MCCIENJO@?$AAm?$AAi?$AAn?$AAk?$AAe?$AAr?$AAn?$AAe?$AAl?$AA?2?$AAc?$AAr?$AAt?$AAs?$AA?2@ 0000000180049300     libucrtd:mbrtowc.obj
 0002:0000d370       ??_C@_1EK@MCEFBPIK@?$AAr?$AAe?$AAt?$AAv?$AAa?$AAl?$AA?5?$AA?$CB?$AA?$DN?$AA?5?$AA_?$AA_?$AAc?$AAr?$AAt@ 0000000180049370     libucrtd:mbrtowc.obj
 0002:0000d3c0       ??_C@_1EK@OANGPA@?$AA1?$AA?5?$AA?$DM?$AA?$DN?$AA?5?$AAt?$AAr?$AAa?$AAi?$AAl?$AA_?$AAb?$AAy?$AAt?$AAe@ 00000001800493c0     libucrtd:c32rtomb.obj
 0002:0000d410       ??_C@_1GI@FBFKMNDD@?$AAm?$AAi?$AAn?$AAk?$AAe?$AAr?$AAn?$AAe?$AAl?$AA?2?$AAc?$AAr?$AAt?$AAs?$AA?2@ 0000000180049410     libucrtd:c32rtomb.obj
 0002:0000d480       ??_C@_1EA@DDDCIHI@?$AAc?$AA3?$AA2?$AA?5?$AA?$DM?$AA?5?$AA?$CI?$AA1?$AAu?$AA?5?$AA?$DM?$AA?$DM?$AA?5?$AA?$CI?$AA7@ 0000000180049480     libucrtd:c32rtomb.obj
 0002:0000d4c0       ??_C@_1CE@MCCHPLBM@?$AAb?$AAu?$AAf?$AAf?$AAe?$AAr?$AA?5?$AA?$CB?$AA?$DN?$AA?5?$AAn?$AAu?$AAl?$AAl?$AAp@ 00000001800494c0     libucrtd:_fptostr.obj
 0002:0000d4f0       ??_C@_1GI@IMEEHIAK@?$AAm?$AAi?$AAn?$AAk?$AAe?$AAr?$AAn?$AAe?$AAl?$AA?2?$AAc?$AAr?$AAt?$AAs?$AA?2@ 00000001800494f0     libucrtd:_fptostr.obj
 0002:0000d558       ??_C@_1DG@NMGBKPMI@?$AA_?$AA_?$AAa?$AAc?$AAr?$AAt?$AA_?$AAf?$AAp?$AA_?$AAs?$AAt?$AAr?$AAf?$AAl@ 0000000180049558     libucrtd:_fptostr.obj
 0002:0000d590       ??_C@_1CC@ONIJBMJF@?$AAb?$AAu?$AAf?$AAf?$AAe?$AAr?$AA_?$AAc?$AAo?$AAu?$AAn?$AAt?$AA?5?$AA?$DO?$AA?5@ 0000000180049590     libucrtd:_fptostr.obj
 0002:0000d5c0       ??_C@_1IE@EAOKIIFP@?$AAb?$AAu?$AAf?$AAf?$AAe?$AAr?$AA_?$AAc?$AAo?$AAu?$AAn?$AAt?$AA?5?$AA?$DO?$AA?5@ 00000001800495c0     libucrtd:_fptostr.obj
 0002:0000d648       ??_C@_1CA@EDEEBMBB@?$AAp?$AAf?$AAl?$AAt?$AA?5?$AA?$CB?$AA?$DN?$AA?5?$AAn?$AAu?$AAl?$AAl?$AAp?$AAt?$AAr@ 0000000180049648     libucrtd:_fptostr.obj
 0002:0000d670       ?large_power_data@?1??multiply_by_power_of_ten@__crt_strtox@@YA_NAEAUbig_integer@2@I@Z@4QBIB 0000000180049670     libucrtd:cfout.obj
 0002:0000df80       ?large_power_indices@?1??multiply_by_power_of_ten@__crt_strtox@@YA_NAEAUbig_integer@2@I@Z@4QBUunpack_index@?1??12@YA_N0I@Z@B 0000000180049f80     libucrtd:cfout.obj
 0002:0000e018       ?small_powers_of_ten@?1??multiply_by_power_of_ten@__crt_strtox@@YA_NAEAUbig_integer@2@I@Z@4QBIB 000000018004a018     libucrtd:cfout.obj
 0002:0000e040       ??_C@_1DI@GICAMMFM@?$AA?$CI?$AA?$CC?$AAD?$AAi?$AAv?$AAi?$AAs?$AAi?$AAo?$AAn?$AA?5?$AAb?$AAy?$AA?5?$AAz@ 000000018004a040     libucrtd:cfout.obj
 0002:0000e080       ??_C@_1GO@BFGDDONN@?$AAm?$AAi?$AAn?$AAk?$AAe?$AAr?$AAn?$AAe?$AAl?$AA?2?$AAc?$AAr?$AAt?$AAs?$AA?2@ 000000018004a080     libucrtd:cfout.obj
 0002:0000e0f0       ??_C@_1GC@DDAKNBNC@?$AAm?$AAi?$AAn?$AAk?$AAe?$AAr?$AAn?$AAe?$AAl?$AA?2?$AAc?$AAr?$AAt?$AAs?$AA?2@ 000000018004a0f0     libucrtd:cfout.obj
 0002:0000e158       ??_C@_1BM@FAAOAKKO@?$AA_?$AA_?$AAa?$AAc?$AAr?$AAt?$AA_?$AAf?$AAl?$AAt?$AAo?$AAu?$AAt@ 000000018004a158     libucrtd:cfout.obj
 0002:0000e180       ??_C@_1EI@OACEJKEP@?$AAs?$AAt?$AAr?$AAc?$AAp?$AAy?$AA_?$AAs?$AA?$CI?$AAr?$AAe?$AAs?$AAu?$AAl?$AAt@ 000000018004a180     libucrtd:cfout.obj
 0002:0000e1c8       ??_C@_01GBGANLPD@0@        000000018004a1c8     libucrtd:cfout.obj
 0002:0000e1d0       ??_C@_1FC@KIECGFMP@?$AAs?$AAt?$AAr?$AAc?$AAp?$AAy?$AA_?$AAs?$AA?$CI?$AAr?$AAe?$AAs?$AAu?$AAl?$AAt@ 000000018004a1d0     libucrtd:cfout.obj
 0002:0000e224       ??_C@_05DNEBIAHO@1?$CDINF@ 000000018004a224     libucrtd:cfout.obj
 0002:0000e230       ??_C@_1FC@NFPJEIBD@?$AAs?$AAt?$AAr?$AAc?$AAp?$AAy?$AA_?$AAs?$AA?$CI?$AAr?$AAe?$AAs?$AAu?$AAl?$AAt@ 000000018004a230     libucrtd:cfout.obj
 0002:0000e284       ??_C@_06IMKFLFPG@1?$CDQNAN@ 000000018004a284     libucrtd:cfout.obj
 0002:0000e290       ??_C@_1FC@DEJHIMLO@?$AAs?$AAt?$AAr?$AAc?$AAp?$AAy?$AA_?$AAs?$AA?$CI?$AAr?$AAe?$AAs?$AAu?$AAl?$AAt@ 000000018004a290     libucrtd:cfout.obj
 0002:0000e2e4       ??_C@_06PGGFOGJG@1?$CDSNAN@ 000000018004a2e4     libucrtd:cfout.obj
 0002:0000e2f0       ??_C@_1FC@KMLHLFPC@?$AAs?$AAt?$AAr?$AAc?$AAp?$AAy?$AA_?$AAs?$AA?$CI?$AAr?$AAe?$AAs?$AAu?$AAl?$AAt@ 000000018004a2f0     libucrtd:cfout.obj
 0002:0000e344       ??_C@_05PHHOCPM@1?$CDIND@  000000018004a344     libucrtd:cfout.obj
 0002:0000e350       ??_C@_1DE@KHKADFOO@?$AAm?$AAa?$AAn?$AAt?$AAi?$AAs?$AAs?$AAa?$AA_?$AAb?$AAu?$AAf?$AAf?$AAe?$AAr@ 000000018004a350     libucrtd:cfout.obj
 0002:0000e390       ??_C@_1FI@LFKLOPAC@?$AA?$CI?$AA?$CC?$AAu?$AAn?$AAe?$AAx?$AAp?$AAe?$AAc?$AAt?$AAe?$AAd?$AA?5?$AAi?$AAn@ 000000018004a390     libucrtd:cfout.obj
 0002:0000e3f0       ??_C@_1FG@MLHBDPBG@?$AAq?$AAu?$AAo?$AAt?$AAi?$AAe?$AAn?$AAt?$AA?5?$AA?$DM?$AA?5?$AAd?$AAi?$AAg?$AAi@ 000000018004a3f0     libucrtd:cfout.obj
 0002:0000e450       ??_C@_1GE@GPOPIOIG@?$AAm?$AAi?$AAn?$AAk?$AAe?$AAr?$AAn?$AAe?$AAl?$AA?2?$AAc?$AAr?$AAt?$AAs?$AA?2@ 000000018004a450     libucrtd:_freebuf.obj
 0002:0000e4c0       ??_C@_1GA@HBEFGMHK@?$AAm?$AAi?$AAn?$AAk?$AAe?$AAr?$AAn?$AAe?$AAl?$AA?2?$AAc?$AAr?$AAt?$AAs?$AA?2@ 000000018004a4c0     libucrtd:xtoa.obj
 0002:0000e520       ??_C@_1BM@HMPEMLNP@?$AAc?$AAo?$AAm?$AAm?$AAo?$AAn?$AA_?$AAx?$AAt?$AAo?$AAx?$AA_?$AAs@ 000000018004a520     libucrtd:xtoa.obj
 0002:0000e540       ??_C@_1HA@JFIOFNKD@?$AAb?$AAu?$AAf?$AAf?$AAe?$AAr?$AA_?$AAc?$AAo?$AAu?$AAn?$AAt?$AA?5?$AA?$DO?$AA?5@ 000000018004a540     libucrtd:xtoa.obj
 0002:0000e5b0       ??_C@_1DE@PCJGDBBD@?$AA2?$AA?5?$AA?$DM?$AA?$DN?$AA?5?$AAr?$AAa?$AAd?$AAi?$AAx?$AA?5?$AA?$CG?$AA?$CG?$AA?5?$AAr@ 000000018004a5b0     libucrtd:xtoa.obj
 0002:0000e5e8       ??_C@_1CM@LONILNIJ@?$AAl?$AAe?$AAn?$AAg?$AAt?$AAh?$AA?5?$AA?$DM?$AA?5?$AAb?$AAu?$AAf?$AAf?$AAe?$AAr@ 000000018004a5e8     libucrtd:xtoa.obj
 0002:0000e618       ??_C@_1BI@OLPLFKOE@?$AAc?$AAo?$AAm?$AAm?$AAo?$AAn?$AA_?$AAx?$AAt?$AAo?$AAx@ 000000018004a618     libucrtd:xtoa.obj
 0002:0000e630       ??_C@_1BK@FPAMLIDG@?$AAs?$AA?5?$AA?$CB?$AA?$DN?$AA?5?$AAn?$AAu?$AAl?$AAl?$AAp?$AAt?$AAr@ 000000018004a630     libucrtd:mbstowcs.obj
 0002:0000e650       ??_C@_1GI@KABMHNPH@?$AAm?$AAi?$AAn?$AAk?$AAe?$AAr?$AAn?$AAe?$AAl?$AA?2?$AAc?$AAr?$AAt?$AAs?$AA?2@ 000000018004a650     libucrtd:mbstowcs.obj
 0002:0000e6b8       ??_C@_1CG@JEHFHLNG@?$AA_?$AAm?$AAb?$AAs?$AAt?$AAo?$AAw?$AAc?$AAs?$AA_?$AAl?$AA_?$AAh?$AAe?$AAl@ 000000018004a6b8     libucrtd:mbstowcs.obj
 0002:0000e6e0       ??_C@_1JM@MEKBACIG@?$AA?$CI?$AAp?$AAw?$AAc?$AAs?$AA?5?$AA?$DN?$AA?$DN?$AA?5?$AAn?$AAu?$AAl?$AAl?$AAp?$AAt@ 000000018004a6e0     libucrtd:mbstowcs.obj
 0002:0000e780       ??_C@_1BM@PHENIGHD@?$AA_?$AAm?$AAb?$AAs?$AAt?$AAo?$AAw?$AAc?$AAs?$AA_?$AAs?$AA_?$AAl@ 000000018004a780     libucrtd:mbstowcs.obj
 0002:0000e7a0       ??_C@_1CM@LLECFMFH@?$AAb?$AAu?$AAf?$AAf?$AAe?$AAr?$AAS?$AAi?$AAz?$AAe?$AA?5?$AA?$DM?$AA?$DN?$AA?5?$AAI@ 000000018004a7a0     libucrtd:mbstowcs.obj
 0002:0000e7d0       ??_C@_1CO@JNPEPJAL@?$AAr?$AAe?$AAt?$AAs?$AAi?$AAz?$AAe?$AA?5?$AA?$DM?$AA?$DN?$AA?5?$AAs?$AAi?$AAz?$AAe@ 000000018004a7d0     libucrtd:mbstowcs.obj
 0002:0000e828       ??_C@_1CA@NOKNKDIG@?$AAp?$AAw?$AAc?$AAs?$AA?5?$AA?$CB?$AA?$DN?$AA?5?$AAn?$AAu?$AAl?$AAl?$AAp?$AAt?$AAr@ 000000018004a828     libucrtd:wcstombs.obj
 0002:0000e850       ??_C@_1GI@EEJDEALP@?$AAm?$AAi?$AAn?$AAk?$AAe?$AAr?$AAn?$AAe?$AAl?$AA?2?$AAc?$AAr?$AAt?$AAs?$AA?2@ 000000018004a850     libucrtd:wcstombs.obj
 0002:0000e8b8       ??_C@_1CG@LLJCAOHF@?$AA_?$AAw?$AAc?$AAs?$AAt?$AAo?$AAm?$AAb?$AAs?$AA_?$AAl?$AA_?$AAh?$AAe?$AAl@ 000000018004a8b8     libucrtd:wcstombs.obj
 0002:0000e8e0       ??_C@_1JI@DFNKFCLG@?$AA?$CI?$AAd?$AAs?$AAt?$AA?5?$AA?$CB?$AA?$DN?$AA?5?$AAn?$AAu?$AAl?$AAl?$AAp?$AAt?$AAr@ 000000018004a8e0     libucrtd:wcstombs.obj
 0002:0000e978       ??_C@_1BM@BDMCLLDL@?$AA_?$AAw?$AAc?$AAs?$AAt?$AAo?$AAm?$AAb?$AAs?$AA_?$AAs?$AA_?$AAl@ 000000018004a978     libucrtd:wcstombs.obj
 0002:0000e998       ??_C@_1CM@KEOGBFLI@?$AAs?$AAi?$AAz?$AAe?$AAI?$AAn?$AAB?$AAy?$AAt?$AAe?$AAs?$AA?5?$AA?$DO?$AA?5?$AAr@ 000000018004a998     libucrtd:wcstombs.obj
 0002:0000e9e0       ??_C@_1JE@ECKHFIFP@?$AA?$CI?$AA?$CC?$AAI?$AAn?$AAv?$AAa?$AAl?$AAi?$AAd?$AA?5?$AAf?$AAi?$AAl?$AAe?$AA?5@ 000000018004a9e0     libucrtd:commit.obj
 0002:0000ea80       ??_C@_1GA@MPOOLHCO@?$AAm?$AAi?$AAn?$AAk?$AAe?$AAr?$AAn?$AAe?$AAl?$AA?2?$AAc?$AAr?$AAt?$AAs?$AA?2@ 000000018004aa80     libucrtd:commit.obj
 0002:0000eae0       ??_C@_1BA@FLNMBBIM@?$AA_?$AAc?$AAo?$AAm?$AAm?$AAi?$AAt@ 000000018004aae0     libucrtd:commit.obj
 0002:0000eaf0       ??_C@_1CM@OKGMMMDH@?$AA?$CI?$AA_?$AAo?$AAs?$AAf?$AAi?$AAl?$AAe?$AA?$CI?$AAf?$AAh?$AA?$CJ?$AA?5?$AA?$CG?$AA?5@ 000000018004aaf0     libucrtd:commit.obj
 0002:0000eb20       ??_C@_1FO@CAMPMGCN@?$AAm?$AAi?$AAn?$AAk?$AAe?$AAr?$AAn?$AAe?$AAl?$AA?2?$AAc?$AAr?$AAt?$AAs?$AA?2@ 000000018004ab20     libucrtd:write.obj
 0002:0000eb80       ??_C@_1O@KOFKDHPL@?$AA_?$AAw?$AAr?$AAi?$AAt?$AAe@ 000000018004ab80     libucrtd:write.obj
 0002:0000eb90       ??_C@_1CK@MMEFCHHN@?$AA?$CB?$AA_?$AAd?$AAb?$AAc?$AAs?$AAB?$AAu?$AAf?$AAf?$AAe?$AAr?$AAU?$AAs?$AAe@ 000000018004ab90     libucrtd:write.obj
 0002:0000ebc0       ??_C@_1EG@LICJGLJJ@?$AA1?$AA?5?$AA?$DM?$AA?5?$AAm?$AAb?$AA_?$AAl?$AAe?$AAn?$AA?5?$AA?$CG?$AA?$CG?$AA?5?$AAm@ 000000018004abc0     libucrtd:write.obj
 0002:0000ec10       ??_C@_1FC@NFILPJB@?$AAm?$AAb?$AA_?$AAb?$AAu?$AAf?$AA_?$AAu?$AAs?$AAe?$AAd?$AA?5?$AA?$CL?$AA?5?$AAb@ 000000018004ac10     libucrtd:write.obj
 0002:0000ec70       ??_C@_1FC@HEJOPHLA@?$AAa?$AAv?$AAa?$AAi?$AAl?$AAa?$AAb?$AAl?$AAe?$AA_?$AAb?$AAy?$AAt?$AAe?$AAs@ 000000018004ac70     libucrtd:write.obj
 0002:0000ecc8       ??_C@_1DI@CNMHHHLG@?$AAi?$AAs?$AAl?$AAe?$AAa?$AAd?$AAb?$AAy?$AAt?$AAe?$AA?$CI?$AA_?$AAd?$AAb?$AAc@ 000000018004acc8     libucrtd:write.obj
 0002:0000ed00       ??_C@_1BM@NCANHCIP@?$AA_?$AAw?$AAr?$AAi?$AAt?$AAe?$AA_?$AAn?$AAo?$AAl?$AAo?$AAc?$AAk@ 000000018004ad00     libucrtd:write.obj
 0002:0000ed20       ??_C@_1CK@CPEAGIIP@?$AAb?$AAu?$AAf?$AAf?$AAe?$AAr?$AA_?$AAs?$AAi?$AAz?$AAe?$AA?5?$AA?$CF?$AA?5?$AA2@ 000000018004ad20     libucrtd:write.obj
 0002:0000efa0       __real@3ff0000000000000    000000018004afa0     libucrtd:ceil.obj
 0002:0000efa8       ??_C@_1DG@JNDMIEJL@?$AA?$CI?$AA?$CC?$AAI?$AAn?$AAv?$AAa?$AAl?$AAi?$AAd?$AA?5?$AAi?$AAn?$AAp?$AAu?$AAt@ 000000018004afa8     libucrtd:contrlfp.obj
 0002:0000efe0       ??_C@_1FO@HHLKCIKB@?$AAm?$AAi?$AAn?$AAk?$AAe?$AAr?$AAn?$AAe?$AAl?$AA?2?$AAc?$AAr?$AAt?$AAs?$AA?2@ 000000018004afe0     libucrtd:contrlfp.obj
 0002:0000f040       ??_C@_1BK@CDOALEA@?$AA_?$AAc?$AAo?$AAn?$AAt?$AAr?$AAo?$AAl?$AAf?$AAp?$AA_?$AAs@ 000000018004b040     libucrtd:contrlfp.obj
 0002:0000f060       ??_C@_1FO@KIIHJNFN@?$AAm?$AAi?$AAn?$AAk?$AAe?$AAr?$AAn?$AAe?$AAl?$AA?2?$AAc?$AAr?$AAt?$AAs?$AA?2@ 000000018004b060     libucrtd:lseek.obj
 0002:0000f0c0       ??_C@_1DM@LMLOLGJ@?$AA?$CI?$AA?$CC?$AAI?$AAn?$AAv?$AAa?$AAl?$AAi?$AAd?$AA?5?$AAf?$AAi?$AAl?$AAe?$AA?5@ 000000018004b0c0     libucrtd:lseek.obj
 0002:0000f100       ??_C@_1GA@DKNOMDCL@?$AAm?$AAi?$AAn?$AAk?$AAe?$AAr?$AAn?$AAe?$AAl?$AA?2?$AAc?$AAr?$AAt?$AAs?$AA?2@ 000000018004b100     libucrtd:fclose.obj
 0002:0000f160       ??_C@_1O@EGMJNCOI@?$AAf?$AAc?$AAl?$AAo?$AAs?$AAe@ 000000018004b160     libucrtd:fclose.obj
 0002:0000f170       ??_C@_1BO@JINCABEC@?$AA_?$AAf?$AAc?$AAl?$AAo?$AAs?$AAe?$AA_?$AAn?$AAo?$AAl?$AAo?$AAc?$AAk@ 000000018004b170     libucrtd:fclose.obj
 0002:0000f190       __log10_256_lead           000000018004b190     libucrtd:log10_256_lead_tail_table.obj
 0002:0000f9a0       __log10_256_tail           000000018004b9a0     libucrtd:log10_256_lead_tail_table.obj
 0002:000101b0       __log_F_inv_qword          000000018004c1b0     libucrtd:log_f_inv_qword_table.obj
 0002:000109c0       ??_C@_1EK@PDBKILLM@?$AA?$CI?$AAm?$AAa?$AAs?$AAk?$AA?$CG?$AA?$HO?$AA?$CI?$AA_?$AAM?$AAC?$AAW?$AA_?$AAD?$AAN@ 000000018004c9c0     libucrtd:ieee.obj
 0002:00010a10       ??_C@_1GC@IEFABLII@?$AAm?$AAi?$AAn?$AAk?$AAe?$AAr?$AAn?$AAe?$AAl?$AA?2?$AAc?$AAr?$AAt?$AAs?$AA?2@ 000000018004ca10     libucrtd:ieee.obj
 0002:00010a80       ??_C@_1FO@IPDGALOE@?$AAm?$AAi?$AAn?$AAk?$AAe?$AAr?$AAn?$AAe?$AAl?$AA?2?$AAc?$AAr?$AAt?$AAs?$AA?2@ 000000018004ca80     libucrtd:close.obj
 0002:00010ae0       ??_C@_1O@EDEJGJBM@?$AA_?$AAc?$AAl?$AAo?$AAs?$AAe@ 000000018004cae0     libucrtd:close.obj
 0002:00010af0       ??_C@_1BA@BALFACEM@?$AAC?$AAO?$AAN?$AAO?$AAU?$AAT?$AA$@ 000000018004caf0     libucrtd:initcon.obj
 0002:00010b08       ??_7type_info@@6B@         000000018004cb08     LIBCMTD:std_type_info_static.obj
 0002:00010b70       _load_config_used          000000018004cb70     LIBCMTD:loadcfg.obj
 0002:00010d00       ??_R4exception@std@@6B@    000000018004cd00     libvcruntimed:frame.obj
 0002:00010d28       ??_R3exception@std@@8      000000018004cd28     libvcruntimed:frame.obj
 0002:00010d40       ??_R2exception@std@@8      000000018004cd40     libvcruntimed:frame.obj
 0002:00010d50       ??_R1A@?0A@EA@exception@std@@8 000000018004cd50     libvcruntimed:frame.obj
 0002:00010d78       ??_R4bad_exception@std@@6B@ 000000018004cd78     libvcruntimed:frame.obj
 0002:00010da0       ??_R3bad_exception@std@@8  000000018004cda0     libvcruntimed:frame.obj
 0002:00010db8       ??_R2bad_exception@std@@8  000000018004cdb8     libvcruntimed:frame.obj
 0002:00010dd0       ??_R1A@?0A@EA@bad_exception@std@@8 000000018004cdd0     libvcruntimed:frame.obj
 0002:00010df8       ??_R4type_info@@6B@        000000018004cdf8     LIBCMTD:std_type_info_static.obj
 0002:00010e20       ??_R3type_info@@8          000000018004ce20     LIBCMTD:std_type_info_static.obj
 0002:00010e38       ??_R2type_info@@8          000000018004ce38     LIBCMTD:std_type_info_static.obj
 0002:00010e48       ??_R1A@?0A@EA@type_info@@8 000000018004ce48     LIBCMTD:std_type_info_static.obj
 0002:00011160       __rtc_iaa                  000000018004d160     LIBCMTD:initsect.obj
 0002:00011168       __rtc_izz                  000000018004d168     LIBCMTD:initsect.obj
 0002:00011170       __rtc_taa                  000000018004d170     LIBCMTD:initsect.obj
 0002:00011178       __rtc_tzz                  000000018004d178     LIBCMTD:initsect.obj
 0002:00012338       _TI2?AVbad_exception@std@@ 000000018004e338     libvcruntimed:frame.obj
 0002:00012358       _CTA2?AVbad_exception@std@@ 000000018004e358     libvcruntimed:frame.obj
 0002:00012370       _CT??_R0?AVbad_exception@std@@@8??0bad_exception@std@@QEAA@AEBV01@@Z24 000000018004e370     libvcruntimed:frame.obj
 0002:00012398       _CT??_R0?AVexception@std@@@8??0exception@std@@QEAA@AEBV01@@Z24 000000018004e398     libvcruntimed:frame.obj
 0002:00012434       __IMPORT_DESCRIPTOR_KERNEL32 000000018004e434     kernel32:KERNEL32.dll
 0002:00012448       __NULL_IMPORT_DESCRIPTOR   000000018004e448     kernel32:KERNEL32.dll
 0003:00005000       __security_cookie_complement 0000000180054000     LIBCMTD:gs_cookie.obj
 0003:00005008       __security_cookie          0000000180054008     LIBCMTD:gs_cookie.obj
 0003:00005010       _fltused                   0000000180054010     LIBCMTD:fltused.obj
 0003:00005014       __scrt_native_dllmain_reason 0000000180054014     LIBCMTD:utility.obj
 0003:00005018       __isa_available            0000000180054018     LIBCMTD:cpu_disp.obj
 0003:0000501c       __isa_enabled              000000018005401c     LIBCMTD:cpu_disp.obj
 0003:00005020       __memcpy_nt_iters          0000000180054020     LIBCMTD:cpu_disp.obj
 0003:00005028       __memset_nt_iters          0000000180054028     LIBCMTD:cpu_disp.obj
 0003:00005044       _crtDbgFlag                0000000180054044     libucrtd:debug_heap.obj
 0003:00005048       _crtBreakAlloc             0000000180054048     libucrtd:debug_heap.obj
 0003:00005050       __abort_behavior           0000000180054050     libucrtd:abort.obj
 0003:00005070       __acrt_initial_multibyte_data 0000000180054070     libucrtd:mbctype.obj
 0003:000055b0       __acrt_initial_locale_data 00000001800545b0     libucrtd:nlsdata.obj
 0003:00005708       __acrt_initial_locale_pointers 0000000180054708     libucrtd:nlsdata.obj
 0003:00005718       __acrt_wide_c_locale_string 0000000180054718     libucrtd:nlsdata.obj
 0003:00005720       _pfnAllocHook              0000000180054720     libucrtd:debug_heap_hook.obj
 0003:00005730       _iob                       0000000180054730     libucrtd:_file.obj
 0003:00005838       _CrtDbgMode                0000000180054838     libucrtd:dbgrptt.obj
 0003:00005848       _CrtDbgFile                0000000180054848     libucrtd:dbgrptt.obj
 0003:00005860       _crtAssertBusy             0000000180054860     libucrtd:dbgrptt.obj
 0003:00005868       __globallocalestatus       0000000180054868     libucrtd:glstatus.obj
 0003:00005870       __acrt_lconv_c             0000000180054870     libucrtd:localeconv.obj
 0003:00005908       __acrt_lconv_static_decimal 0000000180054908     libucrtd:localeconv.obj
 0003:0000590c       __acrt_lconv_static_W_decimal 000000018005490c     libucrtd:localeconv.obj
 0003:00005910       _pwctype                   0000000180054910     libucrtd:ctype.obj
 0003:00005920       _lookuptrailbytes          0000000180054920     libucrtd:read.obj
 0003:00005a30       ??_R0?AVbad_exception@std@@@8 0000000180054a30     libvcruntimed:frame.obj
 0003:00005a58       ??_R0?AVexception@std@@@8  0000000180054a58     libvcruntimed:frame.obj
 0003:00005a80       ??_R0?AVtype_info@@@8      0000000180054a80     LIBCMTD:std_type_info_static.obj
 0003:00006020       ?__type_info_root_node@@3U__type_info_node@@A 0000000180055020     LIBCMTD:tncleanup.obj
 0003:00006030       ?_OptionsStorage@?1??__local_stdio_printf_options@@9@4_KA 0000000180055030     LIBCMTD:default_local_stdio_options.obj
 0003:00006038       ?_OptionsStorage@?1??__local_stdio_scanf_options@@9@4_KA 0000000180055038     LIBCMTD:default_local_stdio_options.obj
 0003:00006040       __scrt_current_native_startup_state 0000000180055040     LIBCMTD:utility.obj
 0003:00006048       __scrt_native_startup_lock 0000000180055048     LIBCMTD:utility.obj
 0003:00006088       __scrt_debugger_hook_flag  0000000180055088     LIBCMTD:utility_desktop.obj
 0003:00006090       __castguard_check_failure_os_handled_fptr 0000000180055090     LIBCMTD:guard_support.obj
 0003:00006098       __favor                    0000000180055098     LIBCMTD:cpu_disp.obj
 0003:000060a0       ?__WinRTOutOfMemoryExceptionCallback@@3P6APEAXXZEA 00000001800550a0     libvcruntimed:ehhelpers.obj
 0003:000060a8       ?pArgList@UnDecorator@@0PEAVReplicator@@EA 00000001800550a8     libvcruntimed:undname.obj
 0003:000060b0       ?pZNameList@UnDecorator@@0PEAVReplicator@@EA 00000001800550b0     libvcruntimed:undname.obj
 0003:000060b8       ?pTemplateArgList@UnDecorator@@0PEAVReplicator@@EA 00000001800550b8     libvcruntimed:undname.obj
 0003:000060c0       ?gName@UnDecorator@@0PEBDEB 00000001800550c0     libvcruntimed:undname.obj
 0003:000060c8       ?name@UnDecorator@@0PEBDEB 00000001800550c8     libvcruntimed:undname.obj
 0003:000060d0       ?disableFlags@UnDecorator@@0KA 00000001800550d0     libvcruntimed:undname.obj
 0003:000060d4       ?fExplicitTemplateParams@UnDecorator@@0_NA 00000001800550d4     libvcruntimed:undname.obj
 0003:000060d5       ?fGetTemplateArgumentList@UnDecorator@@0_NA 00000001800550d5     libvcruntimed:undname.obj
 0003:000060d8       ?m_pGetParameter@UnDecorator@@0P6APEADJ@ZEA 00000001800550d8     libvcruntimed:undname.obj
 0003:000060e0       ?m_CHPENameOffset@UnDecorator@@0KA 00000001800550e0     libvcruntimed:undname.obj
 0003:000060e4       ?m_recursionLevel@UnDecorator@@0KA 00000001800550e4     libvcruntimed:undname.obj
 0003:00006200       __pPurecall                0000000180055200     libvcruntimed:purevirt_data.obj
 0003:00006218       ?c_exit_complete@?1???R<lambda_6e4b09c48022b2350581041d5f6b0c4c>@@QEBA@XZ@4_NA 0000000180055218     libucrtd:exit.obj
 0003:00006328       _environ_table             0000000180055328     libucrtd:environment_initialization.obj
 0003:00006330       _wenviron_table            0000000180055330     libucrtd:environment_initialization.obj
 0003:00006338       __dcrt_initial_wide_environment 0000000180055338     libucrtd:environment_initialization.obj
 0003:00006340       __dcrt_initial_narrow_environment 0000000180055340     libucrtd:environment_initialization.obj
 0003:00006348       __acrt_atexit_table        0000000180055348     libucrtd:onexit.obj
 0003:00006360       __acrt_at_quick_exit_table 0000000180055360     libucrtd:onexit.obj
 0003:000063a8       _pfnDumpClient             00000001800553a8     libucrtd:debug_heap.obj
 0003:00006608       _mbctype                   0000000180055608     libucrtd:mbctype.obj
 0003:00006610       _mbcasemap                 0000000180055610     libucrtd:mbctype.obj
 0003:00006618       __acrt_current_multibyte_data 0000000180055618     libucrtd:mbctype.obj
 0003:00006628       _pgmptr                    0000000180055628     libucrtd:argv_data.obj
 0003:00006630       __argc                     0000000180055630     libucrtd:argv_data.obj
 0003:00006638       __argv                     0000000180055638     libucrtd:argv_data.obj
 0003:00006640       __wargv                    0000000180055640     libucrtd:argv_data.obj
 0003:00006648       _acmdln                    0000000180055648     libucrtd:argv_data.obj
 0003:00006650       _wcmdln                    0000000180055650     libucrtd:argv_data.obj
 0003:00006810       __acrt_heap                0000000180055810     libucrtd:heap_handle.obj
 0003:00006820       __pioinfo                  0000000180055820     libucrtd:ioinit.obj
 0003:00006c20       _nhandle                   0000000180055c20     libucrtd:ioinit.obj
 0003:00006c58       __acrt_current_locale_data 0000000180055c58     libucrtd:nlsdata.obj
 0003:00006c60       __acrt_stdout_buffer       0000000180055c60     libucrtd:_sftbuf.obj
 0003:00006c68       __acrt_stderr_buffer       0000000180055c68     libucrtd:_sftbuf.obj
 0003:00006c74       __acrt_locale_changed_data 0000000180055c74     libucrtd:wsetlocale.obj
 0003:000072b0       _nstream                   00000001800562b0     libucrtd:_file.obj
 0003:000072b8       __piob                     00000001800562b8     libucrtd:_file.obj
 0003:000072c8       _pfnReportHook             00000001800562c8     libucrtd:dbgrptt.obj
 0003:000072d0       _pReportHookList           00000001800562d0     libucrtd:dbgrptt.obj
 0003:000072d8       _pReportHookListW          00000001800562d8     libucrtd:dbgrptt.obj
 0003:000072e0       __acrt_lconv_static_null   00000001800562e0     libucrtd:localeconv.obj
 0003:000072e4       __acrt_lconv_static_W_null 00000001800562e4     libucrtd:localeconv.obj
 0003:000072f8       __fma3_is_available        00000001800562f8     libucrtd:fma3_available.obj
 0003:000072fc       __use_fma3_lib             00000001800562fc     libucrtd:fma3_available.obj
 0003:00007308       __scrt_ucrt_dll_is_in_use  0000000180056308     <common>
 0003:00007310       __dyn_tls_init_callback    0000000180056310     <common>

 entry point at        0001:00003ca0

 Static symbols

 0000:fffa4000       .debug$S                   0000000180000000     handmade.exp
 0000:fffa4000       .debug$S                   0000000180000000     kernel32:KERNEL32.dll
 0000:fffa4000       .debug$S                   0000000180000000     kernel32:KERNEL32.dll
 0000:fffa4000       .debug$S                   0000000180000000     kernel32:KERNEL32.dll
 0000:fffa4000       .debug$S                   0000000180000000     kernel32:KERNEL32.dll
 0000:fffa4000       .debug$S                   0000000180000000     kernel32:KERNEL32.dll
 0000:fffa4000       .debug$S                   0000000180000000     kernel32:KERNEL32.dll
 0000:fffa4000       .debug$S                   0000000180000000     kernel32:KERNEL32.dll
 0000:fffa4000       .debug$S                   0000000180000000     kernel32:KERNEL32.dll
 0000:fffa4000       .debug$S                   0000000180000000     kernel32:KERNEL32.dll
 0000:fffa4000       .debug$S                   0000000180000000     kernel32:KERNEL32.dll
 0000:fffa4000       .debug$S                   0000000180000000     kernel32:KERNEL32.dll
 0000:fffa4000       .debug$S                   0000000180000000     kernel32:KERNEL32.dll
 0000:fffa4000       .debug$S                   0000000180000000     kernel32:KERNEL32.dll
 0000:fffa4000       .debug$S                   0000000180000000     kernel32:KERNEL32.dll
 0000:fffa4000       .debug$S                   0000000180000000     kernel32:KERNEL32.dll
 0000:fffa4000       .debug$S                   0000000180000000     kernel32:KERNEL32.dll
 0000:fffa4000       .debug$S                   0000000180000000     kernel32:KERNEL32.dll
 0000:fffa4000       .debug$S                   0000000180000000     kernel32:KERNEL32.dll
 0000:fffa4000       .debug$S                   0000000180000000     kernel32:KERNEL32.dll
 0000:fffa4000       .debug$S                   0000000180000000     kernel32:KERNEL32.dll
 0000:fffa4000       .debug$S                   0000000180000000     kernel32:KERNEL32.dll
 0000:fffa4000       .debug$S                   0000000180000000     kernel32:KERNEL32.dll
 0000:fffa4000       .debug$S                   0000000180000000     kernel32:KERNEL32.dll
 0000:fffa4000       .debug$S                   0000000180000000     kernel32:KERNEL32.dll
 0000:fffa4000       .debug$S                   0000000180000000     kernel32:KERNEL32.dll
 0000:fffa4000       .debug$S                   0000000180000000     kernel32:KERNEL32.dll
 0000:fffa4000       .debug$S                   0000000180000000     kernel32:KERNEL32.dll
 0000:fffa4000       .debug$S                   0000000180000000     kernel32:KERNEL32.dll
 0000:fffa4000       .debug$S                   0000000180000000     kernel32:KERNEL32.dll
 0000:fffa4000       .debug$S                   0000000180000000     kernel32:KERNEL32.dll
 0000:fffa4000       .debug$S                   0000000180000000     kernel32:KERNEL32.dll
 0000:fffa4000       .debug$S                   0000000180000000     kernel32:KERNEL32.dll
 0000:fffa4000       .debug$S                   0000000180000000     kernel32:KERNEL32.dll
 0000:fffa4000       .debug$S                   0000000180000000     kernel32:KERNEL32.dll
 0000:fffa4000       .debug$S                   0000000180000000     kernel32:KERNEL32.dll
 0000:fffa4000       .debug$S                   0000000180000000     kernel32:KERNEL32.dll
 0000:fffa4000       .debug$S                   0000000180000000     kernel32:KERNEL32.dll
 0000:fffa4000       .debug$S                   0000000180000000     kernel32:KERNEL32.dll
 0000:fffa4000       .debug$S                   0000000180000000     kernel32:KERNEL32.dll
 0000:fffa4000       .debug$S                   0000000180000000     kernel32:KERNEL32.dll
 0000:fffa4000       .debug$S                   0000000180000000     kernel32:KERNEL32.dll
 0000:fffa4000       .debug$S                   0000000180000000     kernel32:KERNEL32.dll
 0000:fffa4000       .debug$S                   0000000180000000     kernel32:KERNEL32.dll
 0000:fffa4000       .debug$S                   0000000180000000     kernel32:KERNEL32.dll
 0000:fffa4000       .debug$S                   0000000180000000     kernel32:KERNEL32.dll
 0000:fffa4000       .debug$S                   0000000180000000     kernel32:KERNEL32.dll
 0000:fffa4000       .debug$S                   0000000180000000     kernel32:KERNEL32.dll
 0000:fffa4000       .debug$S                   0000000180000000     kernel32:KERNEL32.dll
 0000:fffa4000       .debug$S                   0000000180000000     kernel32:KERNEL32.dll
 0000:fffa4000       .debug$S                   0000000180000000     kernel32:KERNEL32.dll
 0000:fffa4000       .debug$S                   0000000180000000     kernel32:KERNEL32.dll
 0000:fffa4000       .debug$S                   0000000180000000     kernel32:KERNEL32.dll
 0000:fffa4000       .debug$S                   0000000180000000     kernel32:KERNEL32.dll
 0000:fffa4000       .debug$S                   0000000180000000     kernel32:KERNEL32.dll
 0000:fffa4000       .debug$S                   0000000180000000     kernel32:KERNEL32.dll
 0000:fffa4000       .debug$S                   0000000180000000     kernel32:KERNEL32.dll
 0000:fffa4000       .debug$S                   0000000180000000     kernel32:KERNEL32.dll
 0000:fffa4000       .debug$S                   0000000180000000     kernel32:KERNEL32.dll
 0000:fffa4000       .debug$S                   0000000180000000     kernel32:KERNEL32.dll
 0000:fffa4000       .debug$S                   0000000180000000     kernel32:KERNEL32.dll
 0000:fffa4000       .debug$S                   0000000180000000     kernel32:KERNEL32.dll
 0000:fffa4000       .debug$S                   0000000180000000     kernel32:KERNEL32.dll
 0000:fffa4000       .debug$S                   0000000180000000     kernel32:KERNEL32.dll
 0000:fffa4000       .debug$S                   0000000180000000     kernel32:KERNEL32.dll
 0000:fffa4000       .debug$S                   0000000180000000     kernel32:KERNEL32.dll
 0000:fffa4000       .debug$S                   0000000180000000     kernel32:KERNEL32.dll
 0000:fffa4000       .debug$S                   0000000180000000     kernel32:KERNEL32.dll
 0000:fffa4000       .debug$S                   0000000180000000     kernel32:KERNEL32.dll
 0000:fffa4000       .debug$S                   0000000180000000     kernel32:KERNEL32.dll
 0000:fffa4000       .debug$S                   0000000180000000     kernel32:KERNEL32.dll
 0000:fffa4000       .debug$S                   0000000180000000     kernel32:KERNEL32.dll
 0000:fffa4000       .debug$S                   0000000180000000     kernel32:KERNEL32.dll
 0000:fffa4000       .debug$S                   0000000180000000     kernel32:KERNEL32.dll
 0000:fffa4000       .debug$S                   0000000180000000     kernel32:KERNEL32.dll
 0000:fffa4000       .debug$S                   0000000180000000     kernel32:KERNEL32.dll
 0000:fffa4000       .debug$S                   0000000180000000     kernel32:KERNEL32.dll
 0000:fffa4000       .debug$S                   0000000180000000     kernel32:KERNEL32.dll
 0000:fffa4000       .debug$S                   0000000180000000     kernel32:KERNEL32.dll
 0000:fffa4000       .debug$S                   0000000180000000     kernel32:KERNEL32.dll
 0000:fffa4000       .debug$S                   0000000180000000     kernel32:KERNEL32.dll
 0000:fffa4000       .debug$S                   0000000180000000     kernel32:KERNEL32.dll
 0000:fffa4000       .debug$S                   0000000180000000     kernel32:KERNEL32.dll
 0000:fffa4000       .debug$S                   0000000180000000     kernel32:KERNEL32.dll
 0000:fffa4000       .debug$S                   0000000180000000     kernel32:KERNEL32.dll
 0000:fffa4000       .debug$S                   0000000180000000     kernel32:KERNEL32.dll
 0000:fffa4000       .debug$S                   0000000180000000     kernel32:KERNEL32.dll
 0000:fffa4000       .debug$S                   0000000180000000     kernel32:KERNEL32.dll
 0001:00000000       ?InitalizeArena@@YAXPEAUmemory_arena@@_KPEAE@Z 0000000180001000 f   handmade.obj
 0001:000000b0       ?GetTileValue@@YAIPEAUtile_map@@III@Z 00000001800010b0 f   handmade.obj
 0001:000001a0       ?GetTileValue@@YAIPEAUtile_map@@Utile_map_position@@@Z 00000001800011a0 f   handmade.obj
 0001:000001f0       ?IsTileMapPointEmpty@@YAHPEAUtile_map@@Utile_map_position@@@Z 00000001800011f0 f   handmade.obj
 0001:00000270       ?SetTileValue@@YAXPEAUmemory_arena@@PEAUtile_map@@IIII@Z 0000000180001270 f   handmade.obj
 0001:000003e0       ?AreOnSameTile@@YAHPEAUtile_map_position@@0@Z 00000001800013e0 f   handmade.obj
 0001:00000450       ?GameOutputSound@@YAXPEAUthread_context@@PEAUgame_state@@PEAUgame_sound_output_buffer@@H@Z 0000000180001450 f   handmade.obj
 0001:00000500       ?DrawRectangle@@YAXPEAUgame_offscreen_buffer@@MMMMMMM@Z 0000000180001500 f   handmade.obj
 0001:00000700       ?DrawBitmap@@YAXPEAUgame_offscreen_buffer@@PEAUloaded_bitmap@@MMHH@Z 0000000180001700 f   handmade.obj
 0001:00000b60       ?DEBUGLoadBMP@@YA?AUloaded_bitmap@@PEAUthread_context@@P6A?AUdebug_read_file_result@@0PEAD@Z1@Z 0000000180001b60 f   handmade.obj
 0001:00000e40       ?GetEntity@@YAPEAUentity@@PEAUgame_state@@I@Z 0000000180001e40 f   handmade.obj
 0001:00000e90       ?InitalizePlayer@@YAXPEAUentity@@@Z 0000000180001e90 f   handmade.obj
 0001:00000f20       ?AddEntity@@YAIPEAUgame_state@@@Z 0000000180001f20 f   handmade.obj
 0001:00000fd0       ?MovePlayer@@YAXPEAUgame_state@@PEAUentity@@MUv2@@@Z 0000000180001fd0 f   handmade.obj
 0001:00003850       $$000000                   0000000180004850     LIBCMTD:amdsecgs.obj
 0001:00003890       ?dllmain_crt_dispatch@@YAHQEAUHINSTANCE__@@KQEAX@Z 0000000180004890 f   LIBCMTD:dll_dllmain.obj
 0001:00003920       ?dllmain_crt_process_attach@@YAHQEAUHINSTANCE__@@QEAX@Z 0000000180004920 f   LIBCMTD:dll_dllmain.obj
 0001:00003a60       ?dllmain_crt_process_detach@@YAH_N@Z 0000000180004a60 f   LIBCMTD:dll_dllmain.obj
 0001:00003b00       ?dllmain_dispatch@@YAHQEAUHINSTANCE__@@KQEAX@Z 0000000180004b00 f   LIBCMTD:dll_dllmain.obj
 0001:00003c40       ?dllmain_raw@@YAHQEAUHINSTANCE__@@KQEAX@Z 0000000180004c40 f   LIBCMTD:dll_dllmain.obj
 0001:00003ec0       capture_current_context    0000000180004ec0 f   LIBCMTD:gs_report.obj
 0001:00003ec0       ?capture_current_context@@YAXQEAU_CONTEXT@@@Z 0000000180004ec0 f   libucrtd:invalid_parameter.obj
 0001:00003f60       capture_previous_context   0000000180004f60 f   LIBCMTD:gs_report.obj
 0001:00004020       __get_entropy              0000000180005020 f   LIBCMTD:gs_support.obj
 0001:00004250       ?find_pe_section@@YAPEAU_IMAGE_SECTION_HEADER@@QEAE_K@Z 0000000180005250 f   LIBCMTD:utility.obj
 0001:00004330       ?is_potentially_valid_image_base@@YA_NQEAX@Z 0000000180005330 f   LIBCMTD:utility.obj
 0001:00005380       ??0<lambda_8d0ee55de4b1038c4002e0adecdf1839>@@QEAA@AEBQEAU__acrt_ptd@@@Z 0000000180006380 f i libucrtd:per_thread_data.obj
 0001:00005380       ??0<lambda_8f455de75cd7d7f24b4096f044d8b9e6>@@QEAA@AEBQEAU__acrt_ptd@@@Z 0000000180006380 f i libucrtd:per_thread_data.obj
 0001:00005380       ??0<lambda_e157831efee4ea0afb0a2ace5dd5fd0d>@@QEAA@AEBQEAU__acrt_ptd@@@Z 0000000180006380 f i libucrtd:per_thread_data.obj
 0001:00005380       ??0<lambda_4e7105787b7b0e0227fbf2b2d883fa65>@@QEAA@AEBH@Z 0000000180006380 f i libucrtd:close.obj
 0001:00005380       ??0<lambda_5533cddd4bda0037814beee657757329>@@QEAA@AEBH@Z 0000000180006380 f i libucrtd:commit.obj
 0001:00005380       ??0<lambda_df1553121bfa390f1154bd84936f2730>@@QEAA@AEAV?$__crt_unique_heap_ptr@PEADU__crt_internal_free_policy@@@@@Z 0000000180006380 f i libucrtd:argv_parsing.obj
 0001:00005380       ??0<lambda_d121dba8a4adeaf3a9819e48611155df>@@QEAA@AEBQEAU_onexit_table_t@@@Z 0000000180006380 f i libucrtd:onexit.obj
 0001:000053e0       ?begin@?$argument_list@D@?A0x5f5c8891@@QEBAPEAPEADXZ 00000001800063e0 f i libucrtd:argv_wildcards.obj
 0001:000055a0       init_memcpy_functions      00000001800065a0 f   libvcruntimed:initialization.obj
 0001:000056e0       ?_FilterSetCurrentException@@YAKPEAU_EXCEPTION_POINTERS@@E@Z 00000001800066e0 f   libvcruntimed:ehhelpers.obj
 0001:00005900       $$000000                   0000000180006900     libvcruntimed:notify.obj
 0001:00005a80       ??0scoped_get_last_error_reset@?A0xb3e1f75e@@QEAA@XZ 0000000180006a80 f   libvcruntimed:per_thread_data.obj
 0001:00005aa0       ??1scoped_get_last_error_reset@?A0xb3e1f75e@@QEAA@XZ 0000000180006aa0 f   libvcruntimed:per_thread_data.obj
 0001:00005af0       ?store_and_initialize_ptd@@YA_NQEAU__vcrt_ptd@@@Z 0000000180006af0 f   libvcruntimed:per_thread_data.obj
 0001:00005ef0       $$000000                   0000000180006ef0     libvcruntimed:memcpy.obj
 0001:00006360       ??$SehTransFilter@V__FrameHandler3@@@@YAHPEAU_EXCEPTION_POINTERS@@PEAUEHExceptionRecord@@PEA_KPEAU_CONTEXT@@PEAU_xDISPATCHER_CONTEXT@@PEBU_s_FuncInfo@@HPEAH@Z 0000000180007360 f   libvcruntimed:risctrnsctrl.obj
 0001:00006df0       ?invalid_function_sentinel@@YAPEAXXZ 0000000180007df0 f   libvcruntimed:winapi_downlevel.obj
 0001:00006df0       ?invalid_function_sentinel@@YAPEAXXZ 0000000180007df0 f   libucrtd:winapi_thunks.obj
 0001:00006e00       ?try_get_FlsAlloc@@YAP6AKP6AXPEAX@Z@ZXZ 0000000180007e00 f   libvcruntimed:winapi_downlevel.obj
 0001:00006e30       ?try_get_FlsFree@@YAP6AHK@ZXZ 0000000180007e30 f   libvcruntimed:winapi_downlevel.obj
 0001:00006e60       ?try_get_FlsGetValue@@YAP6APEAXK@ZXZ 0000000180007e60 f   libvcruntimed:winapi_downlevel.obj
 0001:00006e90       ?try_get_FlsSetValue@@YAP6AHKPEAX@ZXZ 0000000180007e90 f   libvcruntimed:winapi_downlevel.obj
 0001:00006ec0       ?try_get_InitializeCriticalSectionEx@@YAP6AHPEAU_RTL_CRITICAL_SECTION@@KK@ZXZ 0000000180007ec0 f   libvcruntimed:winapi_downlevel.obj
 0001:00006ef0       ?try_get_first_available_module@@YAPEAUHINSTANCE__@@QEBW4module_id@?A0x84e3c32f@@0@Z 0000000180007ef0 f   libvcruntimed:winapi_downlevel.obj
 0001:00006f50       ?try_get_function@@YAPEAXW4function_id@?A0x84e3c32f@@QEBDQEBW4module_id@2@2@Z 0000000180007f50 f   libvcruntimed:winapi_downlevel.obj
 0001:000070c0       ?try_get_module@@YAPEAUHINSTANCE__@@W4module_id@?A0x84e3c32f@@@Z 00000001800080c0 f   libvcruntimed:winapi_downlevel.obj
 0001:00007220       ?try_get_proc_address_from_first_available_module@@YAPEAXQEBDQEBW4module_id@?A0x84e3c32f@@1@Z 0000000180008220 f   libvcruntimed:winapi_downlevel.obj
 0001:00007270       ?try_load_library_from_system_directory@@YAPEAUHINSTANCE__@@QEB_W@Z 0000000180008270 f   libvcruntimed:winapi_downlevel.obj
 0001:00007740       ?adjustIp@@YA_KPEAU_xDISPATCHER_CONTEXT@@_K@Z 0000000180008740 f   libvcruntimed:ehstate.obj
 0001:00007750       ??$BuildCatchObjectHelperInternal@V__FrameHandler3@@@@YAHPEAUEHExceptionRecord@@PEAXPEBU_s_HandlerType@@PEBU_s_CatchableType@@@Z 0000000180008750 f   libvcruntimed:frame.obj
 0001:00007b30       ??$BuildCatchObjectInternal@V__FrameHandler3@@@@YAXPEAUEHExceptionRecord@@PEAXPEBU_s_HandlerType@@PEBU_s_CatchableType@@@Z 0000000180008b30 f   libvcruntimed:frame.obj
 0001:00007c80       ??$CatchIt@V__FrameHandler3@@@@YAXPEAUEHExceptionRecord@@PEA_KPEAU_CONTEXT@@PEAU_xDISPATCHER_CONTEXT@@PEBU_s_FuncInfo@@PEBU_s_HandlerType@@PEBU_s_CatchableType@@PEBU_s_TryBlockMapEntry@@H1EE@Z 0000000180008c80 f   libvcruntimed:frame.obj
 0001:00007dc0       ??$FindHandler@V__FrameHandler3@@@@YAXPEAUEHExceptionRecord@@PEA_KPEAU_CONTEXT@@PEAU_xDISPATCHER_CONTEXT@@PEBU_s_FuncInfo@@EH1@Z 0000000180008dc0 f   libvcruntimed:frame.obj
 0001:000085a0       ??$FindHandlerForForeignException@V__FrameHandler3@@@@YAXPEAUEHExceptionRecord@@PEA_KPEAU_CONTEXT@@PEAU_xDISPATCHER_CONTEXT@@PEBU_s_FuncInfo@@HH1@Z 00000001800095a0 f   libvcruntimed:frame.obj
 0001:00008fc0       ??0<lambda_92619d2358a28f41a33ba319515a20b9>@@QEAA@AEBQEAU__acrt_ptd@@AEBQEAPEAU__crt_locale_data@@@Z 0000000180009fc0 f i libucrtd:per_thread_data.obj
 0001:00008fc0       ??0<lambda_bd5a608237428601b7e45fbdc72b1ae8>@@QEAA@AEBQEAU__acrt_ptd@@AEBQEAPEAU__crt_multibyte_data@@@Z 0000000180009fc0 f i libucrtd:mbctype.obj
 0001:00009650       ?ExFilterRethrow@@YAHPEAU_EXCEPTION_POINTERS@@PEAUEHExceptionRecord@@PEAH@Z 000000018000a650 f   libvcruntimed:frame.obj
 0001:00009a70       ?IsInExceptionSpec@@YAEPEAUEHExceptionRecord@@PEBU_s_ESTypeList@@@Z 000000018000aa70 f   libvcruntimed:frame.obj
 0001:00009b90       ?Is_bad_exception_allowed@@YAEPEBU_s_ESTypeList@@@Z 000000018000ab90 f   libvcruntimed:frame.obj
 0001:00009d10       ?__RethrowException@@YAXPEAUEHExceptionRecord@@@Z 000000018000ad10 f   libvcruntimed:frame.obj
 0001:00009f30       $$000000                   000000018000af30     libvcruntimed:memset.obj
 0001:0000a0f0       $$000000                   000000018000b0f0     libvcruntimed:handlers.obj
 0001:0000a7d0       ?xcptlookup@@YAPEAU__crt_signal_action_t@@KQEAU1@@Z 000000018000b7d0 f   libucrtd:exception_filter.obj
 0001:0000aaf0       $LN33                      000000018000baf0     libucrtd:exception_filter.obj
 0001:0000ab30       ??$?RV<lambda_d80eeec6fff315bfe5c115232f3240e3>@@AEAV<lambda_6e4b09c48022b2350581041d5f6b0c4c>@@V<lambda_2358e3775559c9db80273638284d5e45>@@@?$__crt_seh_guarded_call@X@@QEAAX$$QEAV<lambda_d80eeec6fff315bfe5c115232f3240e3>@@AEAV<lambda_6e4b09c48022b2350581041d5f6b0c4c>@@$$QEAV<lambda_2358e3775559c9db80273638284d5e45>@@@Z 000000018000bb30 f   libucrtd:exit.obj
 0001:0000ab70       ??$__acrt_lock_and_call@V<lambda_6e4b09c48022b2350581041d5f6b0c4c>@@@@YAXW4__acrt_lock_id@@$$QEAV<lambda_6e4b09c48022b2350581041d5f6b0c4c>@@@Z 000000018000bb70 f   libucrtd:exit.obj
 0001:0000ac90       ??0<lambda_04ddeca75b7c13fd67716e8dfcef87ee>@@QEAA@AEBW4__acrt_lock_id@@@Z 000000018000bc90 f   libucrtd:per_thread_data.obj
 0001:0000ac90       ??0<lambda_0ae27a3a962d80f24befdcbee591983d>@@QEAA@AEBW4__acrt_lock_id@@@Z 000000018000bc90 f   libucrtd:per_thread_data.obj
 0001:0000ac90       ??0<lambda_2d41944a1d46af3157314b8a01080d33>@@QEAA@AEBW4__acrt_lock_id@@@Z 000000018000bc90 f   libucrtd:per_thread_data.obj
 0001:0000ac90       ??0<lambda_6992ecaafeb10aed2b74cb1fae11a551>@@QEAA@AEBW4__acrt_lock_id@@@Z 000000018000bc90 f   libucrtd:per_thread_data.obj
 0001:0000ac90       ??0<lambda_74a0ef281e44d15e1136f792f539efb3>@@QEAA@AEBW4__acrt_lock_id@@@Z 000000018000bc90 f   libucrtd:per_thread_data.obj
 0001:0000ac90       ??0<lambda_aa500f224e6afead328df44964fe2772>@@QEAA@AEBW4__acrt_lock_id@@@Z 000000018000bc90 f   libucrtd:per_thread_data.obj
 0001:0000ac90       ??0<lambda_aa87e3671a710a21b5dc78c0bdf72e11>@@QEAA@AEBW4__acrt_lock_id@@@Z 000000018000bc90 f   libucrtd:per_thread_data.obj
 0001:0000ac90       ??0<lambda_dc504788e8f1664fe9b84e20bfb512f2>@@QEAA@AEBW4__acrt_lock_id@@@Z 000000018000bc90 f   libucrtd:per_thread_data.obj
 0001:0000ac90       ??0<lambda_38119f0e861e05405d8a144b9b982f0a>@@QEAA@AEBW4__acrt_lock_id@@@Z 000000018000bc90 f   libucrtd:wsetlocale.obj
 0001:0000ac90       ??0<lambda_410d79af7f07d98d83a3f525b3859a53>@@QEAA@AEBW4__acrt_lock_id@@@Z 000000018000bc90 f   libucrtd:wsetlocale.obj
 0001:0000ac90       ??0<lambda_53fc7fc888e23d815d7080162c0aeeb2>@@QEAA@AEBH@Z 000000018000bc90 f   libucrtd:close.obj
 0001:0000ac90       ??0<lambda_8ddc48ad9d26c778cb15812d1d88fc8a>@@QEAA@AEBH@Z 000000018000bc90 f   libucrtd:close.obj
 0001:0000ac90       ??0<lambda_47cffbaa968af5c721c38a4a6f8da44d>@@QEAA@AEBH@Z 000000018000bc90 f   libucrtd:commit.obj
 0001:0000ac90       ??0<lambda_4e3dbe6921bc0b5a1a6bc6573fdc859e>@@QEAA@AEBH@Z 000000018000bc90 f   libucrtd:commit.obj
 0001:0000ac90       ??0<lambda_728235dc0fc2b1f82d1fa5b3e7102d8f>@@QEAA@AEBW4__acrt_lock_id@@@Z 000000018000bc90 f   libucrtd:mbctype.obj
 0001:0000ac90       ??0<lambda_efa02eb69bf647d2f7ff0dd6f1103f72>@@QEAA@AEBW4__acrt_lock_id@@@Z 000000018000bc90 f   libucrtd:mbctype.obj
 0001:0000ac90       ??0<lambda_450d765d439847d4c735a33c368b5fc0>@@QEAA@AEBW4__acrt_lock_id@@@Z 000000018000bc90 f   libucrtd:signal.obj
 0001:0000ac90       ??0<lambda_601a2a7da3b7a96e9554ac7215c4b07c>@@QEAA@AEBW4__acrt_lock_id@@@Z 000000018000bc90 f   libucrtd:signal.obj
 0001:0000ac90       ??0<lambda_2358e3775559c9db80273638284d5e45>@@QEAA@AEBW4__acrt_lock_id@@@Z 000000018000bc90 f   libucrtd:exit.obj
 0001:0000ac90       ??0<lambda_d80eeec6fff315bfe5c115232f3240e3>@@QEAA@AEBW4__acrt_lock_id@@@Z 000000018000bc90 f   libucrtd:exit.obj
 0001:0000ac90       ??0<lambda_6a47f4c8fd0152770a780fc1d70204eb>@@QEAA@AEBW4__acrt_lock_id@@@Z 000000018000bc90 f   libucrtd:onexit.obj
 0001:0000ac90       ??0<lambda_6aaa2265f5b6a89667e7d7630012e97a>@@QEAA@AEBW4__acrt_lock_id@@@Z 000000018000bc90 f   libucrtd:onexit.obj
 0001:0000ac90       ??0<lambda_886d6c58226a84441f68b9f2b8217b83>@@QEAA@AEBW4__acrt_lock_id@@@Z 000000018000bc90 f   libucrtd:fflush.obj
 0001:0000ac90       ??0<lambda_f7f22ab5edc0698d5f6905b0d3f44752>@@QEAA@AEBW4__acrt_lock_id@@@Z 000000018000bc90 f   libucrtd:fflush.obj
 0001:0000acb0       ??0<lambda_6e4b09c48022b2350581041d5f6b0c4c>@@QEAA@AEBW4_crt_exit_cleanup_mode@@AEBW4_crt_exit_return_mode@@AEA_N@Z 000000018000bcb0 f   libucrtd:exit.obj
 0001:0000acb0       ??0<lambda_ab61a845afdef5b7c387490eaf3616ee>@@QEAA@AEAHAEB_N0@Z 000000018000bcb0 f   libucrtd:fflush.obj
 0001:0000ad20       ??R<lambda_04ddeca75b7c13fd67716e8dfcef87ee>@@QEBAXXZ 000000018000bd20 f   libucrtd:per_thread_data.obj
 0001:0000ad20       ??R<lambda_6992ecaafeb10aed2b74cb1fae11a551>@@QEBAXXZ 000000018000bd20 f   libucrtd:per_thread_data.obj
 0001:0000ad20       ??R<lambda_aa500f224e6afead328df44964fe2772>@@QEBAXXZ 000000018000bd20 f   libucrtd:per_thread_data.obj
 0001:0000ad20       ??R<lambda_dc504788e8f1664fe9b84e20bfb512f2>@@QEBAXXZ 000000018000bd20 f   libucrtd:per_thread_data.obj
 0001:0000ad20       ??R<lambda_38119f0e861e05405d8a144b9b982f0a>@@QEBAXXZ 000000018000bd20 f   libucrtd:wsetlocale.obj
 0001:0000ad20       ??R<lambda_728235dc0fc2b1f82d1fa5b3e7102d8f>@@QEBAXXZ 000000018000bd20 f   libucrtd:mbctype.obj
 0001:0000ad20       ??R<lambda_601a2a7da3b7a96e9554ac7215c4b07c>@@QEBAXXZ 000000018000bd20 f   libucrtd:signal.obj
 0001:0000ad20       ??R<lambda_2358e3775559c9db80273638284d5e45>@@QEBAXXZ 000000018000bd20 f   libucrtd:exit.obj
 0001:0000ad20       ??R<lambda_6aaa2265f5b6a89667e7d7630012e97a>@@QEBAXXZ 000000018000bd20 f   libucrtd:onexit.obj
 0001:0000ad20       ??R<lambda_f7f22ab5edc0698d5f6905b0d3f44752>@@QEBAXXZ 000000018000bd20 f   libucrtd:fflush.obj
 0001:0000ad40       ??R<lambda_6e4b09c48022b2350581041d5f6b0c4c>@@QEBA@XZ 000000018000bd40 f   libucrtd:exit.obj
 0001:0000ae40       ??R<lambda_0ae27a3a962d80f24befdcbee591983d>@@QEBAXXZ 000000018000be40 f   libucrtd:per_thread_data.obj
 0001:0000ae40       ??R<lambda_2d41944a1d46af3157314b8a01080d33>@@QEBAXXZ 000000018000be40 f   libucrtd:per_thread_data.obj
 0001:0000ae40       ??R<lambda_74a0ef281e44d15e1136f792f539efb3>@@QEBAXXZ 000000018000be40 f   libucrtd:per_thread_data.obj
 0001:0000ae40       ??R<lambda_aa87e3671a710a21b5dc78c0bdf72e11>@@QEBAXXZ 000000018000be40 f   libucrtd:per_thread_data.obj
 0001:0000ae40       ??R<lambda_410d79af7f07d98d83a3f525b3859a53>@@QEBAXXZ 000000018000be40 f   libucrtd:wsetlocale.obj
 0001:0000ae40       ??R<lambda_efa02eb69bf647d2f7ff0dd6f1103f72>@@QEBAXXZ 000000018000be40 f   libucrtd:mbctype.obj
 0001:0000ae40       ??R<lambda_450d765d439847d4c735a33c368b5fc0>@@QEBAXXZ 000000018000be40 f   libucrtd:signal.obj
 0001:0000ae40       ??R<lambda_d80eeec6fff315bfe5c115232f3240e3>@@QEBAXXZ 000000018000be40 f   libucrtd:exit.obj
 0001:0000ae40       ??R<lambda_6a47f4c8fd0152770a780fc1d70204eb>@@QEBAXXZ 000000018000be40 f   libucrtd:onexit.obj
 0001:0000ae40       ??R<lambda_886d6c58226a84441f68b9f2b8217b83>@@QEBAXXZ 000000018000be40 f   libucrtd:fflush.obj
 0001:0000aed0       ?atexit_exception_filter@@YAHK@Z 000000018000bed0 f   libucrtd:exit.obj
 0001:0000af70       ?common_exit@@YAXHW4_crt_exit_cleanup_mode@@W4_crt_exit_return_mode@@@Z 000000018000bf70 f   libucrtd:exit.obj
 0001:0000b000       ?exit_or_terminate_process@@YAXI@Z 000000018000c000 f   libucrtd:exit.obj
 0001:0000b050       ?is_managed_app@@YA_NXZ    000000018000c050 f   libucrtd:exit.obj
 0001:0000b100       ?should_call_terminate_process@@YA_NXZ 000000018000c100 f   libucrtd:exit.obj
 0001:0000b160       ?try_cor_exit_process@@YAXI@Z 000000018000c160 f   libucrtd:exit.obj
 0001:0000b280       ??$common_configure_argv@D@@YAHW4_crt_argv_mode@@@Z 000000018000c280 f   libucrtd:argv_parsing.obj
 0001:0000b650       ??$parse_command_line@D@@YAXPEADPEAPEAD0PEA_K2@Z 000000018000c650 f   libucrtd:argv_parsing.obj
 0001:0000bb00       ??R<lambda_df1553121bfa390f1154bd84936f2730>@@QEBAHXZ 000000018000cb00 f   libucrtd:argv_parsing.obj
 0001:0000bb60       ?do_locale_initialization@@YAXD@Z 000000018000cb60 f   libucrtd:argv_parsing.obj
 0001:0000bb80       ?expand_argv_wildcards@@YAHQEAPEADQEAPEAPEAD@Z 000000018000cb80 f   libucrtd:argv_parsing.obj
 0001:0000bbb0       ?get_argv@@YAAEAPEAPEADD@Z 000000018000cbb0 f   libucrtd:argv_parsing.obj
 0001:0000bbc0       ?get_command_line@@YAPEADD@Z 000000018000cbc0 f   libucrtd:argv_parsing.obj
 0001:0000bbd0       ?should_copy_another_character@@YA_ND@Z 000000018000cbd0 f   libucrtd:argv_parsing.obj
 0001:0000bd64       ??$common_initialize_environment_nolock@D@@YAHXZ 000000018000cd64 f   libucrtd:environment_initialization.obj
 0001:0000bddc       ??$create_environment@D@@YAQEAPEADQEAD@Z 000000018000cddc f   libucrtd:environment_initialization.obj
 0001:0000bf38       ??$free_environment@D@@YAXQEAPEAD@Z 000000018000cf38 f   libucrtd:environment_initialization.obj
 0001:0000bf38       ??$free_environment@_W@@YAXQEAPEA_W@Z 000000018000cf38 f   libucrtd:environment_initialization.obj
 0001:0000bf94       ??$uninitialize_environment_internal@D@@YAXAEAPEAPEAD@Z 000000018000cf94 f   libucrtd:environment_initialization.obj
 0001:0000bfb0       ??$uninitialize_environment_internal@_W@@YAXAEAPEAPEA_W@Z 000000018000cfb0 f   libucrtd:environment_initialization.obj
 0001:0000c050       ??$?RV<lambda_6a47f4c8fd0152770a780fc1d70204eb>@@AEAV<lambda_d121dba8a4adeaf3a9819e48611155df>@@V<lambda_6aaa2265f5b6a89667e7d7630012e97a>@@@?$__crt_seh_guarded_call@H@@QEAAH$$QEAV<lambda_6a47f4c8fd0152770a780fc1d70204eb>@@AEAV<lambda_d121dba8a4adeaf3a9819e48611155df>@@$$QEAV<lambda_6aaa2265f5b6a89667e7d7630012e97a>@@@Z 000000018000d050 f   libucrtd:onexit.obj
 0001:0000c0a0       ??$__acrt_lock_and_call@V<lambda_d121dba8a4adeaf3a9819e48611155df>@@@@YAHW4__acrt_lock_id@@$$QEAV<lambda_d121dba8a4adeaf3a9819e48611155df>@@@Z 000000018000d0a0 f   libucrtd:onexit.obj
 0001:0000c0f0       ??R<lambda_d121dba8a4adeaf3a9819e48611155df>@@QEBAHXZ 000000018000d0f0 f   libucrtd:onexit.obj
 0001:0000c3e0       initialize_global_variables 000000018000d3e0 f   libucrtd:initialization.obj
 0001:0000c400       initialize_c               000000018000d400 f   libucrtd:initialization.obj
 0001:0000c430       uninitialize_c             000000018000d430 f   libucrtd:initialization.obj
 0001:0000c430       uninitialize_global_state_isolation 000000018000d430 f   libucrtd:initialization.obj
 0001:0000c440       initialize_environment     000000018000d440 f   libucrtd:initialization.obj
 0001:0000c440       initialize_global_state_isolation 000000018000d440 f   libucrtd:initialization.obj
 0001:0000c450       uninitialize_environment   000000018000d450 f   libucrtd:initialization.obj
 0001:0000c480       initialize_pointers        000000018000d480 f   libucrtd:initialization.obj
 0001:0000c4e0       uninitialize_vcruntime     000000018000d4e0 f   libucrtd:initialization.obj
 0001:0000c500       uninitialize_allocated_memory 000000018000d500 f   libucrtd:initialization.obj
 0001:0000c540       uninitialize_allocated_io_buffers 000000018000d540 f   libucrtd:initialization.obj
 0001:0000c5c0       report_memory_leaks        000000018000d5c0 f   libucrtd:initialization.obj
 0001:0000c5f0       ??$uninitialize@V<lambda_af27fe6ede5d83bbdbd622796c194e9c>@@@?$dual_state_global@PEAU__crt_multibyte_data@@@__crt_state_management@@QEAAX$$QEAV<lambda_af27fe6ede5d83bbdbd622796c194e9c>@@@Z 000000018000d5f0 f   libucrtd:initialization.obj
 0001:0000c640       ??R<lambda_af27fe6ede5d83bbdbd622796c194e9c>@@QEBAXAEAPEAU__crt_multibyte_data@@@Z 000000018000d640 f   libucrtd:initialization.obj
 0001:0000c940       ?block_from_header@@YAPEAEQEAU_CrtMemBlockHeader@@@Z 000000018000d940 f   libucrtd:debug_heap.obj
 0001:0000c950       ?check_block@@YA_NQEAU_CrtMemBlockHeader@@@Z 000000018000d950 f   libucrtd:debug_heap.obj
 0001:0000cd10       ?check_bytes@@YA_NQEBEE_K@Z 000000018000dd10 f   libucrtd:debug_heap.obj
 0001:0000cd80       ?dump_all_object_since_nolock@@YAXQEBU_CrtMemState@@@Z 000000018000dd80 f   libucrtd:debug_heap.obj
 0001:0000d140       ?free_dbg_nolock@@YAXQEAXH@Z 000000018000e140 f   libucrtd:debug_heap.obj
 0001:0000d790       ?header_from_block@@YAPEAU_CrtMemBlockHeader@@QEBX@Z 000000018000e790 f   libucrtd:debug_heap.obj
 0001:0000d7a0       ?heap_alloc_dbg@@YAPEAX_KHQEBDH@Z 000000018000e7a0 f   libucrtd:debug_heap.obj
 0001:0000d840       ?heap_alloc_dbg_internal@@YAPEAX_KHQEBDH@Z 000000018000e840 f   libucrtd:debug_heap.obj
 0001:0000dc80       ?is_bad_read_pointer@@YA_NQEBX_K@Z 000000018000ec80 f   libucrtd:debug_heap.obj
 0001:0000dd90       ?is_block_an_aligned_allocation@@YA_NQEBX@Z 000000018000ed90 f   libucrtd:debug_heap.obj
 0001:0000ddd0       ?is_block_type_valid@@YA_NH@Z 000000018000edd0 f   libucrtd:debug_heap.obj
 0001:0000de20       ?print_block_data@@YAXQEAU__crt_locale_pointers@@QEAU_CrtMemBlockHeader@@@Z 000000018000ee20 f   libucrtd:debug_heap.obj
 0001:0000e050       ?realloc_dbg_nolock@@YAPEAXQEAXQEA_KHQEBDH_N@Z 000000018000f050 f   libucrtd:debug_heap.obj
 0001:0000e870       ?validate_heap_if_required_nolock@@YAXXZ 000000018000f870 f   libucrtd:debug_heap.obj
 0001:0000f680       ??$common_tcscpy_s@D@@YAHQEAD_KQEBD@Z 0000000180010680 f   libucrtd:strcpy_s.obj
 0001:0000fb80       $$000000                   0000000180010b80     libucrtd:strcmp.obj
 0001:0000fc00       $$000000                   0000000180010c00     libucrtd:strlen.obj
 0001:0000fec0       ??$common_vsnprintf_s@D@@YAH_KQEAD00QEBDQEAU__crt_locale_pointers@@1@Z 0000000180010ec0 f   libucrtd:output.obj
 0001:00010480       ??$common_vsnprintf_s@_W@@YAH_KQEA_W00QEB_WQEAU__crt_locale_pointers@@QEAD@Z 0000000180011480 f   libucrtd:output.obj
 0001:00010a50       ??$common_vsprintf@Vformat_validation_base@__crt_stdio_output@@D@@YAH_KQEAD0QEBDQEAU__crt_locale_pointers@@1@Z 0000000180011a50 f   libucrtd:output.obj
 0001:00010f30       ??$common_vsprintf@Vformat_validation_base@__crt_stdio_output@@_W@@YAH_KQEA_W0QEB_WQEAU__crt_locale_pointers@@QEAD@Z 0000000180011f30 f   libucrtd:output.obj
 0001:00011400       ??$common_vsprintf_s@D@@YAH_KQEAD0QEBDQEAU__crt_locale_pointers@@1@Z 0000000180012400 f   libucrtd:output.obj
 0001:000136bc       $LN39                      00000001800146bc     libucrtd:output.obj
 0001:00013a1c       $LN39                      0000000180014a1c     libucrtd:output.obj
 0001:00014508       $LN54                      0000000180015508     libucrtd:output.obj
 0001:00014530       $LN53                      0000000180015530     libucrtd:output.obj
 0001:00014988       $LN54                      0000000180015988     libucrtd:output.obj
 0001:000149b0       $LN53                      00000001800159b0     libucrtd:output.obj
 0001:00014e24       $LN44                      0000000180015e24     libucrtd:output.obj
 0001:00014e54       $LN43                      0000000180015e54     libucrtd:output.obj
 0001:0001537c       $LN44                      000000018001637c     libucrtd:output.obj
 0001:000153ac       $LN43                      00000001800163ac     libucrtd:output.obj
 0001:00015630       $LN19                      0000000180016630     libucrtd:output.obj
 0001:00019600       $$000000                   000000018001a600     libucrtd:strncmp.obj
 0001:00019690       ??$common_message_window@D@@YAHHQEAXQEBD111@Z 000000018001a690 f   libucrtd:dbgrpt.obj
 0001:00019d60       ??$common_message_window@_W@@YAHHQEAXQEB_W111@Z 000000018001ad60 f   libucrtd:dbgrpt.obj
 0001:0001a580       ?get_output_message_format@@YAPEB_WD@Z 000000018001b580 f   libucrtd:dbgrpt.obj
 0001:0001a590       ?get_output_message_format@@YAPEB_W_W@Z 000000018001b590 f   libucrtd:dbgrpt.obj
 0001:0001a5a0       ?get_program_name_unknown_text@@YAPEBDD@Z 000000018001b5a0 f   libucrtd:dbgrpt.obj
 0001:0001a5b0       ?get_program_name_unknown_text@@YAPEB_W_W@Z 000000018001b5b0 f   libucrtd:dbgrpt.obj
 0001:0001ab70       _call_matherr              000000018001bb70 f   libucrtd:libm_error.obj
 0001:0001ac00       _exception_enabled         000000018001bc00 f   libucrtd:libm_error.obj
 0001:0001b0f0       ??$?RV<lambda_0ae27a3a962d80f24befdcbee591983d>@@AEAV<lambda_8d0ee55de4b1038c4002e0adecdf1839>@@V<lambda_dc504788e8f1664fe9b84e20bfb512f2>@@@?$__crt_seh_guarded_call@X@@QEAAX$$QEAV<lambda_0ae27a3a962d80f24befdcbee591983d>@@AEAV<lambda_8d0ee55de4b1038c4002e0adecdf1839>@@$$QEAV<lambda_dc504788e8f1664fe9b84e20bfb512f2>@@@Z 000000018001c0f0 f   libucrtd:per_thread_data.obj
 0001:0001b130       ??$?RV<lambda_2d41944a1d46af3157314b8a01080d33>@@AEAV<lambda_8f455de75cd7d7f24b4096f044d8b9e6>@@V<lambda_aa500f224e6afead328df44964fe2772>@@@?$__crt_seh_guarded_call@X@@QEAAX$$QEAV<lambda_2d41944a1d46af3157314b8a01080d33>@@AEAV<lambda_8f455de75cd7d7f24b4096f044d8b9e6>@@$$QEAV<lambda_aa500f224e6afead328df44964fe2772>@@@Z 000000018001c130 f   libucrtd:per_thread_data.obj
 0001:0001b170       ??$?RV<lambda_74a0ef281e44d15e1136f792f539efb3>@@AEAV<lambda_e157831efee4ea0afb0a2ace5dd5fd0d>@@V<lambda_04ddeca75b7c13fd67716e8dfcef87ee>@@@?$__crt_seh_guarded_call@X@@QEAAX$$QEAV<lambda_74a0ef281e44d15e1136f792f539efb3>@@AEAV<lambda_e157831efee4ea0afb0a2ace5dd5fd0d>@@$$QEAV<lambda_04ddeca75b7c13fd67716e8dfcef87ee>@@@Z 000000018001c170 f   libucrtd:per_thread_data.obj
 0001:0001b1b0       ??$?RV<lambda_aa87e3671a710a21b5dc78c0bdf72e11>@@AEAV<lambda_92619d2358a28f41a33ba319515a20b9>@@V<lambda_6992ecaafeb10aed2b74cb1fae11a551>@@@?$__crt_seh_guarded_call@X@@QEAAX$$QEAV<lambda_aa87e3671a710a21b5dc78c0bdf72e11>@@AEAV<lambda_92619d2358a28f41a33ba319515a20b9>@@$$QEAV<lambda_6992ecaafeb10aed2b74cb1fae11a551>@@@Z 000000018001c1b0 f   libucrtd:per_thread_data.obj
 0001:0001b1f0       ??$__acrt_lock_and_call@V<lambda_8d0ee55de4b1038c4002e0adecdf1839>@@@@YAXW4__acrt_lock_id@@$$QEAV<lambda_8d0ee55de4b1038c4002e0adecdf1839>@@@Z 000000018001c1f0 f   libucrtd:per_thread_data.obj
 0001:0001b240       ??$__acrt_lock_and_call@V<lambda_8f455de75cd7d7f24b4096f044d8b9e6>@@@@YAXW4__acrt_lock_id@@$$QEAV<lambda_8f455de75cd7d7f24b4096f044d8b9e6>@@@Z 000000018001c240 f   libucrtd:per_thread_data.obj
 0001:0001b290       ??$__acrt_lock_and_call@V<lambda_92619d2358a28f41a33ba319515a20b9>@@@@YAXW4__acrt_lock_id@@$$QEAV<lambda_92619d2358a28f41a33ba319515a20b9>@@@Z 000000018001c290 f   libucrtd:per_thread_data.obj
 0001:0001b2e0       ??$__acrt_lock_and_call@V<lambda_e157831efee4ea0afb0a2ace5dd5fd0d>@@@@YAXW4__acrt_lock_id@@$$QEAV<lambda_e157831efee4ea0afb0a2ace5dd5fd0d>@@@Z 000000018001c2e0 f   libucrtd:per_thread_data.obj
 0001:0001b370       ??R<lambda_8d0ee55de4b1038c4002e0adecdf1839>@@QEBAXXZ 000000018001c370 f   libucrtd:per_thread_data.obj
 0001:0001b390       ??R<lambda_8f455de75cd7d7f24b4096f044d8b9e6>@@QEBAXXZ 000000018001c390 f   libucrtd:per_thread_data.obj
 0001:0001b3b0       ??R<lambda_92619d2358a28f41a33ba319515a20b9>@@QEBAXXZ 000000018001c3b0 f   libucrtd:per_thread_data.obj
 0001:0001b3e0       ??R<lambda_e157831efee4ea0afb0a2ace5dd5fd0d>@@QEBAXXZ 000000018001c3e0 f   libucrtd:per_thread_data.obj
 0001:0001b450       ?construct_ptd@@YAXQEAU__acrt_ptd@@QEAPEAU__crt_locale_data@@@Z 000000018001c450 f   libucrtd:per_thread_data.obj
 0001:0001b530       ?construct_ptd_array@@YAXQEAU__acrt_ptd@@@Z 000000018001c530 f   libucrtd:per_thread_data.obj
 0001:0001b5a0       ?destroy_fls@@YAXPEAX@Z    000000018001c5a0 f   libucrtd:per_thread_data.obj
 0001:0001b5e0       ?destroy_ptd@@YAXQEAU__acrt_ptd@@@Z 000000018001c5e0 f   libucrtd:per_thread_data.obj
 0001:0001b700       ?destroy_ptd_array@@YAXQEAU__acrt_ptd@@@Z 000000018001c700 f   libucrtd:per_thread_data.obj
 0001:0001b760       ?internal_get_ptd_head@@YAPEAU__acrt_ptd@@XZ 000000018001c760 f   libucrtd:per_thread_data.obj
 0001:0001b890       ?internal_getptd_noexit@@YAPEAU__acrt_ptd@@XZ 000000018001c890 f   libucrtd:per_thread_data.obj
 0001:0001b900       ?replace_current_thread_locale_nolock@@YAXQEAU__acrt_ptd@@QEAU__crt_locale_data@@@Z 000000018001c900 f   libucrtd:per_thread_data.obj
 0001:0001b9c0       ?try_get_ptd_head@@YAPEAU__acrt_ptd@@XZ 000000018001c9c0 f   libucrtd:per_thread_data.obj
 0001:0001bc70       ??$get_cached_win_policy@Udeveloper_information_policy_properties@?1??__acrt_get_developer_information_policy@@YA?AW4developer_information_policy@@XZ@@@YA?AW4developer_information_policy@@W4AppPolicyShowDeveloperDiagnostic@@@Z 000000018001cc70 f   libucrtd:win_policies.obj
 0001:0001bd40       ??$get_cached_win_policy@Uwindowing_model_policy_properties@?1??__acrt_get_windowing_model_policy@@YA?AW4windowing_model_policy@@XZ@@@YA?AW4windowing_model_policy@@W4AppPolicyWindowingModel@@@Z 000000018001cd40 f   libucrtd:win_policies.obj
 0001:0001be10       ??$get_win_policy@Uprocess_end_policy_properties@?1??__acrt_get_process_end_policy@@YA?AW4process_end_policy@@XZ@@@YA?AW4process_end_policy@@W4AppPolicyProcessTerminationMethod@@@Z 000000018001ce10 f   libucrtd:win_policies.obj
 0001:0001be60       ?appmodel_get_policy@developer_information_policy_properties@?1??__acrt_get_developer_information_policy@@YA?AW4developer_information_policy@@XZ@SAJPEAW4AppPolicyShowDeveloperDiagnostic@@@Z 000000018001ce60 f   libucrtd:win_policies.obj
 0001:0001be80       ?appmodel_get_policy@process_end_policy_properties@?1??__acrt_get_process_end_policy@@YA?AW4process_end_policy@@XZ@SAJPEAW4AppPolicyProcessTerminationMethod@@@Z 000000018001ce80 f   libucrtd:win_policies.obj
 0001:0001bea0       ?appmodel_get_policy@windowing_model_policy_properties@?1??__acrt_get_windowing_model_policy@@YA?AW4windowing_model_policy@@XZ@SAJPEAW4AppPolicyWindowingModel@@@Z 000000018001cea0 f   libucrtd:win_policies.obj
 0001:0001bec0       ?appmodel_policy_to_policy_type@developer_information_policy_properties@?1??__acrt_get_developer_information_policy@@YA?AW4developer_information_policy@@XZ@SA?AW43@J@Z 000000018001cec0 f   libucrtd:win_policies.obj
 0001:0001bee0       ?appmodel_policy_to_policy_type@process_end_policy_properties@?1??__acrt_get_process_end_policy@@YA?AW4process_end_policy@@XZ@SA?AW43@W4AppPolicyProcessTerminationMethod@@@Z 000000018001cee0 f   libucrtd:win_policies.obj
 0001:0001bf00       ?appmodel_policy_to_policy_type@windowing_model_policy_properties@?1??__acrt_get_windowing_model_policy@@YA?AW4windowing_model_policy@@XZ@SA?AW43@J@Z 000000018001cf00 f   libucrtd:win_policies.obj
 0001:0001c410       ?<lambda_invoker_cdecl>@<lambda_a1ce4c8ae42411fd470c77163914f50e>@@CAHPEBX0@Z 000000018001d410 f   libucrtd:argv_wildcards.obj
 0001:0001c440       ??$__acrt_convert_wcs_mbs_cp@D_WV<lambda_7c9dea7b4ca7285d2cdb541a38da6275>@@U__crt_win32_buffer_internal_dynamic_resizing@@@@YAHQEBDAEAV?$__crt_win32_buffer@_WU__crt_win32_buffer_internal_dynamic_resizing@@@@AEBV<lambda_7c9dea7b4ca7285d2cdb541a38da6275>@@I@Z 000000018001d440 f   libucrtd:argv_wildcards.obj
 0001:0001c5e0       ??$__acrt_convert_wcs_mbs_cp@_WDV<lambda_d8593a27d1aa8c02be35c86a17d324c4>@@U__crt_win32_buffer_internal_dynamic_resizing@@@@YAHQEB_WAEAV?$__crt_win32_buffer@DU__crt_win32_buffer_internal_dynamic_resizing@@@@AEBV<lambda_d8593a27d1aa8c02be35c86a17d324c4>@@I@Z 000000018001d5e0 f   libucrtd:argv_wildcards.obj
 0001:0001c820       ??$common_expand_argv_wildcards@D@@YAHQEAPEADQEAPEAPEAD@Z 000000018001d820 f   libucrtd:argv_wildcards.obj
 0001:0001cc50       ??$copy_and_add_argument_to_buffer@D@@YAHQEBD0_KAEAV?$argument_list@D@?A0x5f5c8891@@@Z 000000018001dc50 f   libucrtd:argv_wildcards.obj
 0001:0001ce00       ??$expand_argument_wildcards@D@@YAHQEAD0AEAV?$argument_list@D@?A0x5f5c8891@@@Z 000000018001de00 f   libucrtd:argv_wildcards.obj
 0001:0001d300       ??0?$argument_list@D@?A0x5f5c8891@@QEAA@XZ 000000018001e300 f   libucrtd:argv_wildcards.obj
 0001:0001d390       ??1?$argument_list@D@?A0x5f5c8891@@QEAA@XZ 000000018001e390 f   libucrtd:argv_wildcards.obj
 0001:0001d400       ??B<lambda_a1ce4c8ae42411fd470c77163914f50e>@@QEBAP6AHPEBX0@ZXZ 000000018001e400 f   libucrtd:argv_wildcards.obj
 0001:0001d410       ??R<lambda_7c9dea7b4ca7285d2cdb541a38da6275>@@QEBAHIQEBDQEA_W_K@Z 000000018001e410 f   libucrtd:argv_wildcards.obj
 0001:0001d460       ??R<lambda_a1ce4c8ae42411fd470c77163914f50e>@@QEBAHPEBX0@Z 000000018001e460 f   libucrtd:argv_wildcards.obj
 0001:0001d4a0       ??R<lambda_cfae5a0e6efa98e0d1aa03c4cec8f74e>@@QEBA_ND@Z 000000018001e4a0 f   libucrtd:argv_wildcards.obj
 0001:0001d4f0       ??R<lambda_f788ae46380686e8b737efdd8c720d07>@@QEBAHIQEB_WQEAD_K@Z 000000018001e4f0 f   libucrtd:getmodulefilenamea.obj
 0001:0001d4f0       ??R<lambda_d8593a27d1aa8c02be35c86a17d324c4>@@QEBAHIQEB_WQEAD_K@Z 000000018001e4f0 f   libucrtd:argv_wildcards.obj
 0001:0001d7a0       ?append@?$argument_list@D@?A0x5f5c8891@@QEAAHQEAD@Z 000000018001e7a0 f   libucrtd:argv_wildcards.obj
 0001:0001d8e0       ?end@?$argument_list@D@?A0x5f5c8891@@QEBAPEAPEADXZ 000000018001e8e0 f   libucrtd:argv_wildcards.obj
 0001:0001d8f0       ?expand_if_necessary@?$argument_list@D@?A0x5f5c8891@@AEAAHXZ 000000018001e8f0 f   libucrtd:argv_wildcards.obj
 0001:0001dad0       ?get_file_name@@YAPEADQEAV?$__crt_win32_buffer@DU__crt_win32_buffer_internal_dynamic_resizing@@@@QEA_W@Z 000000018001ead0 f   libucrtd:argv_wildcards.obj
 0001:0001db20       ?get_wide@@YAPEA_WQEAV?$__crt_win32_buffer@_WU__crt_win32_buffer_internal_dynamic_resizing@@@@QEAD@Z 000000018001eb20 f   libucrtd:argv_wildcards.obj
 0001:0001db70       ?previous_character@@YAPEADQEAD0@Z 000000018001eb70 f   libucrtd:argv_wildcards.obj
 0001:0001dc00       ?size@?$argument_list@D@?A0x5f5c8891@@QEBA_KXZ 000000018001ec00 f   libucrtd:argv_wildcards.obj
 0001:0001dc80       ??$__acrt_convert_wcs_mbs_cp@_WDV<lambda_f788ae46380686e8b737efdd8c720d07>@@U__crt_win32_buffer_no_resizing@@@@YAHQEB_WAEAV?$__crt_win32_buffer@DU__crt_win32_buffer_no_resizing@@@@AEBV<lambda_f788ae46380686e8b737efdd8c720d07>@@I@Z 000000018001ec80 f   libucrtd:getmodulefilenamea.obj
 0001:0001e140       ??$?RV<lambda_efa02eb69bf647d2f7ff0dd6f1103f72>@@AEAV<lambda_bd5a608237428601b7e45fbdc72b1ae8>@@V<lambda_728235dc0fc2b1f82d1fa5b3e7102d8f>@@@?$__crt_seh_guarded_call@X@@QEAAX$$QEAV<lambda_efa02eb69bf647d2f7ff0dd6f1103f72>@@AEAV<lambda_bd5a608237428601b7e45fbdc72b1ae8>@@$$QEAV<lambda_728235dc0fc2b1f82d1fa5b3e7102d8f>@@@Z 000000018001f140 f   libucrtd:mbctype.obj
 0001:0001e180       ??$__acrt_lock_and_call@V<lambda_bd5a608237428601b7e45fbdc72b1ae8>@@@@YAXW4__acrt_lock_id@@$$QEAV<lambda_bd5a608237428601b7e45fbdc72b1ae8>@@@Z 000000018001f180 f   libucrtd:mbctype.obj
 0001:0001e2b0       ??R<lambda_bd5a608237428601b7e45fbdc72b1ae8>@@QEBAXXZ 000000018001f2b0 f   libucrtd:mbctype.obj
 0001:0001e3d0       ?CPtoLocaleName@@YAPEB_WH@Z 000000018001f3d0 f   libucrtd:mbctype.obj
 0001:0001e470       ?getSystemCP@@YAHH@Z       000000018001f470 f   libucrtd:mbctype.obj
 0001:0001e550       ?setSBCS@@YAXPEAU__crt_multibyte_data@@@Z 000000018001f550 f   libucrtd:mbctype.obj
 0001:0001e650       ?setSBUpLow@@YAXPEAU__crt_multibyte_data@@@Z 000000018001f650 f   libucrtd:mbctype.obj
 0001:0001ea40       ?setmbcp_internal@@YAHH_NQEAU__acrt_ptd@@QEAPEAU__crt_multibyte_data@@@Z 000000018001fa40 f   libucrtd:mbctype.obj
 0001:0001eca0       ?update_thread_multibyte_data_internal@@YAPEAU__crt_multibyte_data@@QEAU__acrt_ptd@@QEAPEAU1@@Z 000000018001fca0 f   libucrtd:mbctype.obj
 0001:0001f3e0       memcpy_s                   00000001800203e0 f   libucrtd:cfout.obj
 0001:0001f3e0       memcpy_s                   00000001800203e0 f   libucrtd:mbctype.obj
 0001:0001f51c       ?x_ismbbtype_l@@YAHPEAU__crt_locale_pointers@@IHH@Z 000000018002051c f   libucrtd:ismbbyte.obj
 0001:0001f5e0       ??$common_tcscpy_s@_W@@YAHQEA_W_KQEB_W@Z 00000001800205e0 f   libucrtd:wcscpy_s.obj
 0001:0001faf0       ?filter_mbtowcs_flags@@YAKIK@Z 0000000180020af0 f   libucrtd:multibytetowidechar.obj
 0001:0001fbf0       ?filter_wcstomb_flags@@YAKIK@Z 0000000180020bf0 f   libucrtd:widechartomultibyte.obj
 0001:0001fee0       ?try_get_AppPolicyGetProcessTerminationMethod@@YAP6AJPEAXPEAW4AppPolicyProcessTerminationMethod@@@ZXZ 0000000180020ee0 f   libucrtd:winapi_thunks.obj
 0001:0001ff10       ?try_get_AppPolicyGetShowDeveloperDiagnostic@@YAP6AJPEAXPEAW4AppPolicyShowDeveloperDiagnostic@@@ZXZ 0000000180020f10 f   libucrtd:winapi_thunks.obj
 0001:0001ff40       ?try_get_AppPolicyGetWindowingModel@@YAP6AJPEAXPEAW4AppPolicyWindowingModel@@@ZXZ 0000000180020f40 f   libucrtd:winapi_thunks.obj
 0001:0001ff70       ?try_get_AreFileApisANSI@@YAP6AHXZXZ 0000000180020f70 f   libucrtd:winapi_thunks.obj
 0001:0001ffa0       ?try_get_FlsAlloc@@YAP6AKP6AXPEAX@Z@ZXZ 0000000180020fa0 f   libucrtd:winapi_thunks.obj
 0001:0001ffd0       ?try_get_FlsFree@@YAP6AHK@ZXZ 0000000180020fd0 f   libucrtd:winapi_thunks.obj
 0001:00020000       ?try_get_FlsGetValue@@YAP6APEAXK@ZXZ 0000000180021000 f   libucrtd:winapi_thunks.obj
 0001:00020030       ?try_get_FlsSetValue@@YAP6AHKPEAX@ZXZ 0000000180021030 f   libucrtd:winapi_thunks.obj
 0001:00020060       ?try_get_GetActiveWindow@@YAP6APEAUHWND__@@XZXZ 0000000180021060 f   libucrtd:winapi_thunks.obj
 0001:00020090       ?try_get_GetLastActivePopup@@YAP6APEAUHWND__@@PEAU1@@ZXZ 0000000180021090 f   libucrtd:winapi_thunks.obj
 0001:000200c0       ?try_get_GetProcessWindowStation@@YAP6APEAUHWINSTA__@@XZXZ 00000001800210c0 f   libucrtd:winapi_thunks.obj
 0001:000200f0       ?try_get_GetUserObjectInformationW@@YAP6AHPEAXH0KPEAK@ZXZ 00000001800210f0 f   libucrtd:winapi_thunks.obj
 0001:00020120       ?try_get_InitializeCriticalSectionEx@@YAP6AHPEAU_RTL_CRITICAL_SECTION@@KK@ZXZ 0000000180021120 f   libucrtd:winapi_thunks.obj
 0001:00020150       ?try_get_LCMapStringEx@@YAP6AHPEB_WK0HPEA_WHPEAU_nlsversioninfo@@PEAX_J@ZXZ 0000000180021150 f   libucrtd:winapi_thunks.obj
 0001:00020180       ?try_get_LocaleNameToLCID@@YAP6AKPEB_WK@ZXZ 0000000180021180 f   libucrtd:winapi_thunks.obj
 0001:000201b0       ?try_get_MessageBoxA@@YAP6AHPEAUHWND__@@PEBD1I@ZXZ 00000001800211b0 f   libucrtd:winapi_thunks.obj
 0001:000201e0       ?try_get_MessageBoxW@@YAP6AHPEAUHWND__@@PEB_W1I@ZXZ 00000001800211e0 f   libucrtd:winapi_thunks.obj
 0001:00020210       ?try_get_first_available_module@@YAPEAUHINSTANCE__@@QEBW4module_id@?A0x391cf84c@@0@Z 0000000180021210 f   libucrtd:winapi_thunks.obj
 0001:00020270       ?try_get_function@@YAPEAXW4function_id@?A0x391cf84c@@QEBDQEBW4module_id@2@2@Z 0000000180021270 f   libucrtd:winapi_thunks.obj
 0001:00020410       ?try_get_module@@YAPEAUHINSTANCE__@@W4module_id@?A0x391cf84c@@@Z 0000000180021410 f   libucrtd:winapi_thunks.obj
 0001:00020570       ?try_get_proc_address_from_first_available_module@@YAPEAXQEBDQEBW4module_id@?A0x391cf84c@@1@Z 0000000180021570 f   libucrtd:winapi_thunks.obj
 0001:000205c0       ?try_load_library_from_system_directory@@YAPEAUHINSTANCE__@@QEB_W@Z 00000001800215c0 f   libucrtd:winapi_thunks.obj
 0001:00020de0       ?get_std_handle_id@@YAKH@Z 0000000180021de0 f   libucrtd:ioinit.obj
 0001:00020e30       ?initialize_inherited_file_handles_nolock@@YAXXZ 0000000180021e30 f   libucrtd:ioinit.obj
 0001:00020fe0       ?initialize_stdio_handles_nolock@@YAXXZ 0000000180021fe0 f   libucrtd:ioinit.obj
 0001:00021470       ??$?RV<lambda_450d765d439847d4c735a33c368b5fc0>@@AEAV<lambda_44731a7d0e6d81c3e6aa82d741081786>@@V<lambda_601a2a7da3b7a96e9554ac7215c4b07c>@@@?$__crt_seh_guarded_call@P6AXH@Z@@QEAAP6AXH@Z$$QEAV<lambda_450d765d439847d4c735a33c368b5fc0>@@AEAV<lambda_44731a7d0e6d81c3e6aa82d741081786>@@$$QEAV<lambda_601a2a7da3b7a96e9554ac7215c4b07c>@@@Z 0000000180022470 f   libucrtd:signal.obj
 0001:000214c0       ??$__acrt_lock_and_call@V<lambda_44731a7d0e6d81c3e6aa82d741081786>@@@@YAP6AXH@ZW4__acrt_lock_id@@$$QEAV<lambda_44731a7d0e6d81c3e6aa82d741081786>@@@Z 00000001800224c0 f   libucrtd:signal.obj
 0001:00021510       ??R<lambda_44731a7d0e6d81c3e6aa82d741081786>@@QEBAP6AXH@ZXZ 0000000180022510 f   libucrtd:signal.obj
 0001:00021540       ?get_global_action_nolock@@YAPEAP6AXH@ZH@Z 0000000180022540 f   libucrtd:signal.obj
 0001:000215d0       ?siglookup@@YAPEAU__crt_signal_action_t@@HQEAU1@@Z 00000001800225d0 f   libucrtd:signal.obj
 0001:00021b70       $LN58                      0000000180022b70     libucrtd:signal.obj
 0001:00021b7c       $LN57                      0000000180022b7c     libucrtd:signal.obj
 0001:00022070       ?select_heap@@YAPEAXQEAX@Z 0000000180023070 f   libucrtd:free_base.obj
 0001:00022190       ?is_contraction_possible@@YA_N_K@Z 0000000180023190 f   libucrtd:expand.obj
 0001:00022490       ??$?RV<lambda_410d79af7f07d98d83a3f525b3859a53>@@AEAV<lambda_3e16ef9562a7dcce91392c22ab16ea36>@@V<lambda_38119f0e861e05405d8a144b9b982f0a>@@@?$__crt_seh_guarded_call@X@@QEAAX$$QEAV<lambda_410d79af7f07d98d83a3f525b3859a53>@@AEAV<lambda_3e16ef9562a7dcce91392c22ab16ea36>@@$$QEAV<lambda_38119f0e861e05405d8a144b9b982f0a>@@@Z 0000000180023490 f   libucrtd:wsetlocale.obj
 0001:000224d0       ??$__acrt_lock_and_call@V<lambda_3e16ef9562a7dcce91392c22ab16ea36>@@@@YAXW4__acrt_lock_id@@$$QEAV<lambda_3e16ef9562a7dcce91392c22ab16ea36>@@@Z 00000001800234d0 f   libucrtd:wsetlocale.obj
 0001:00022520       ??$uninitialize@V<lambda_363eea9039da1e8169e2d060c7fe5cbc>@@@?$dual_state_global@PEAU__crt_locale_data@@@__crt_state_management@@QEAAX$$QEAV<lambda_363eea9039da1e8169e2d060c7fe5cbc>@@@Z 0000000180023520 f   libucrtd:wsetlocale.obj
 0001:00022570       ??R<lambda_363eea9039da1e8169e2d060c7fe5cbc>@@QEBAXAEAPEAU__crt_locale_data@@@Z 0000000180023570 f   libucrtd:wsetlocale.obj
 0001:000225b0       ??R<lambda_3e16ef9562a7dcce91392c22ab16ea36>@@QEBA@XZ 00000001800235b0 f   libucrtd:wsetlocale.obj
 0001:00022680       ?issue_debug_notification@@YA_NQEB_W@Z 0000000180023680 f   libucrtd:report_runtime_error.obj
 0001:000226e0       ?should_write_error_to_console@@YA_NXZ 00000001800236e0 f   libucrtd:report_runtime_error.obj
 0001:00022720       ?write_string_to_console@@YAXQEB_W@Z 0000000180023720 f   libucrtd:report_runtime_error.obj
 0001:00023630       ??$common_strnlen@$00G@@YA_KQEBG_K@Z 0000000180024630 f   libucrtd:strnlen.obj
 0001:00023690       ??$common_strnlen@$0A@E@@YA_KQEBE_K@Z 0000000180024690 f   libucrtd:strnlen.obj
 0001:000236f0       ??$common_strnlen@$0A@G@@YA_KQEBG_K@Z 00000001800246f0 f   libucrtd:strnlen.obj
 0001:00023750       ??$common_strnlen_c@$00G@@YA_KQEBG_K@Z 0000000180024750 f   libucrtd:strnlen.obj
 0001:000237d0       ??$common_strnlen_c@$0A@E@@YA_KQEBE_K@Z 00000001800247d0 f   libucrtd:strnlen.obj
 0001:00023850       ??$common_strnlen_c@$0A@G@@YA_KQEBG_K@Z 0000000180024850 f   libucrtd:strnlen.obj
 0001:000238d0       ??$common_strnlen_simd@$00$00G@@YA_KQEBG_K@Z 00000001800248d0 f   libucrtd:strnlen.obj
 0001:00023b70       ??$common_strnlen_simd@$00$0A@G@@YA_KQEBG_K@Z 0000000180024b70 f   libucrtd:strnlen.obj
 0001:00023e60       ??$common_strnlen_simd@$0A@$00E@@YA_KQEBE_K@Z 0000000180024e60 f   libucrtd:strnlen.obj
 0001:000240e0       ??$common_strnlen_simd@$0A@$00G@@YA_KQEBG_K@Z 00000001800250e0 f   libucrtd:strnlen.obj
 0001:00024380       ??$common_strnlen_simd@$0A@$0A@E@@YA_KQEBE_K@Z 0000000180025380 f   libucrtd:strnlen.obj
 0001:00024650       ??$common_strnlen_simd@$0A@$0A@G@@YA_KQEBG_K@Z 0000000180025650 f   libucrtd:strnlen.obj
 0001:00024940       ??$last_reached@$00@@YA_NQEBX0@Z 0000000180025940 f   libucrtd:strnlen.obj
 0001:00024950       ??$last_reached@$0A@@@YA_NQEBX0@Z 0000000180025950 f   libucrtd:strnlen.obj
 0001:00024ce0       ?fe_to_nearest@@YA_NQEBN_KF@Z 0000000180025ce0 f   libucrtd:cvt.obj
 0001:00024e30       ?fp_format_a@@YAHQEBNPEAD_KQEAD2H_NIQEAU__crt_locale_pointers@@W4__acrt_rounding_mode@@@Z 0000000180025e30 f   libucrtd:cvt.obj
 0001:000256d0       ?fp_format_e@@YAHQEBNQEAD_K12H_NIQEAU__crt_locale_pointers@@W4__acrt_rounding_mode@@@Z 00000001800266d0 f   libucrtd:cvt.obj
 0001:000258f0       ?fp_format_e_internal@@YAHQEAD_KH_NIQEAU_strflt@@2QEAU__crt_locale_pointers@@@Z 00000001800268f0 f   libucrtd:cvt.obj
 0001:00025d20       ?fp_format_f@@YAHQEBNQEAD_K12HQEAU__crt_locale_pointers@@W4__acrt_rounding_mode@@@Z 0000000180026d20 f   libucrtd:cvt.obj
 0001:00025e80       ?fp_format_f_internal@@YAHQEAD_KHQEAU_strflt@@_NQEAU__crt_locale_pointers@@@Z 0000000180026e80 f   libucrtd:cvt.obj
 0001:00026120       ?fp_format_g@@YAHQEBNQEAD_K12H_NIQEAU__crt_locale_pointers@@@Z 0000000180027120 f   libucrtd:cvt.obj
 0001:00026360       ?fp_format_nan_or_infinity@@YAHW4__acrt_fp_class@@_NPEAD_K1@Z 0000000180027360 f   libucrtd:cvt.obj
 0001:000264d0       ?shift_bytes@@YAXQEAD_K0H@Z 00000001800274d0 f   libucrtd:cvt.obj
 0001:00026520       ?should_round_up@@YA_NQEBN_KFW4__acrt_rounding_mode@@@Z 0000000180027520 f   libucrtd:cvt.obj
 0001:00026c38       $LN42                      0000000180027c38     libucrtd:cvt.obj
 0001:00026c4c       $LN41                      0000000180027c4c     libucrtd:cvt.obj
 0001:000287f0       ??$common_show_message_box@_W@@YAHQEB_W0I@Z 00000001800297f0 f   libucrtd:crtmbox.obj
 0001:00028b90       ??$to_abstract_status@W4__acrt_fenv_machine_sse_status@@@@YA?AW4__acrt_fenv_abstract_status@@W4__acrt_fenv_machine_sse_status@@@Z 0000000180029b90 f   libucrtd:_fenvutils.obj
 0001:00028bb0       ??$translate_control_exception_mask@W4__acrt_fenv_abstract_control@@W4__acrt_fenv_machine_sse_control@@@@YA?AW4__acrt_fenv_abstract_control@@W4__acrt_fenv_machine_sse_control@@@Z 0000000180029bb0 f   libucrtd:_fenvutils.obj
 0001:00028ca0       ??$translate_control_exception_mask@W4__acrt_fenv_machine_sse_control@@W4__acrt_fenv_abstract_control@@@@YA?AW4__acrt_fenv_machine_sse_control@@W4__acrt_fenv_abstract_control@@@Z 0000000180029ca0 f   libucrtd:_fenvutils.obj
 0001:00028d90       ??$translate_control_rounding_control@W4__acrt_fenv_abstract_control@@W4__acrt_fenv_machine_sse_control@@@@YA?AW4__acrt_fenv_abstract_control@@W4__acrt_fenv_machine_sse_control@@@Z 0000000180029d90 f   libucrtd:_fenvutils.obj
 0001:00028e00       ??$translate_control_rounding_control@W4__acrt_fenv_machine_sse_control@@W4__acrt_fenv_abstract_control@@@@YA?AW4__acrt_fenv_machine_sse_control@@W4__acrt_fenv_abstract_control@@@Z 0000000180029e00 f   libucrtd:_fenvutils.obj
 0001:00028e70       ??$translate_status@W4__acrt_fenv_abstract_status@@W4__acrt_fenv_machine_sse_status@@@@YA?AW4__acrt_fenv_abstract_status@@W4__acrt_fenv_machine_sse_status@@@Z 0000000180029e70 f   libucrtd:_fenvutils.obj
 0001:00028f60       ??$translate_status@W4__acrt_fenv_machine_sse_status@@W4__acrt_fenv_abstract_status@@@@YA?AW4__acrt_fenv_machine_sse_status@@W4__acrt_fenv_abstract_status@@@Z 0000000180029f60 f   libucrtd:_fenvutils.obj
 0001:000291e0       ?get_machine_sse_control@@YA?AW4__acrt_fenv_machine_sse_control@@XZ 000000018002a1e0 f   libucrtd:_fenvutils.obj
 0001:00029200       ?get_machine_sse_status@@YA?AW4__acrt_fenv_machine_sse_status@@XZ 000000018002a200 f   libucrtd:_fenvutils.obj
 0001:00029220       ?set_machine_sse_control@@YAXW4__acrt_fenv_machine_sse_control@@@Z 000000018002a220 f   libucrtd:_fenvutils.obj
 0001:00029280       ?set_machine_sse_status@@YAXW4__acrt_fenv_machine_sse_status@@@Z 000000018002a280 f   libucrtd:_fenvutils.obj
 0001:000292d0       ?to_abstract_control@@YA?AW4__acrt_fenv_abstract_control@@W4__acrt_fenv_machine_sse_control@@@Z 000000018002a2d0 f   libucrtd:_fenvutils.obj
 0001:00029320       ?to_machine_sse_control@@YA?AW4__acrt_fenv_machine_sse_control@@W4__acrt_fenv_abstract_control@@@Z 000000018002a320 f   libucrtd:_fenvutils.obj
 0001:00029380       ?to_machine_sse_status@@YA?AW4__acrt_fenv_machine_sse_status@@W4__acrt_fenv_abstract_status@@@Z 000000018002a380 f   libucrtd:_fenvutils.obj
 0001:000293a0       ?translate_control_denormal_control_from_sse@@YA?AW4__acrt_fenv_abstract_control@@W4__acrt_fenv_machine_sse_control@@@Z 000000018002a3a0 f   libucrtd:_fenvutils.obj
 0001:00029420       ?translate_control_denormal_control_to_sse@@YA?AW4__acrt_fenv_machine_sse_control@@W4__acrt_fenv_abstract_control@@@Z 000000018002a420 f   libucrtd:_fenvutils.obj
 0001:0002a690       ?shortsort@@YAXPEAD0_KP6AHPEBX2@Z@Z 000000018002b690 f   libucrtd:qsort.obj
 0001:0002a770       ?swap@@YAXPEAD0_K@Z        000000018002b770 f   libucrtd:qsort.obj
 0001:0002af10       ??$common_tcsncpy_s@_W@@YAHQEA_W_KQEB_W1@Z 000000018002bf10 f   libucrtd:wcsncpy_s.obj
 0001:0002b5f0       ??$common_tcsncpy_s@D@@YAHQEAD_KQEBD1@Z 000000018002c5f0 f   libucrtd:strncpy_s.obj
 0001:0002bcb0       fallbackMethod             000000018002ccb0 f   libucrtd:strpbrk.obj
 0001:0002c614       $LN85                      000000018002d614     libucrtd:strpbrk.obj
 0001:0002c650       $LN84                      000000018002d650     libucrtd:strpbrk.obj
 0001:0002c690       $LN83                      000000018002d690     libucrtd:strpbrk.obj
 0001:0002cb60       ?__acrt_LCMapStringA_stat@@YAHPEAU__crt_locale_pointers@@PEB_WKPEBDHPEADHHH@Z 000000018002db60 f   libucrtd:lcmapstringa.obj
 0001:0002d200       ?initialize_multibyte@@YAHXZ 000000018002e200 f   libucrtd:multibyte_initializer.obj
 0001:0002d230       ?GetTableIndexFromLocaleName@@YAHPEB_W@Z 000000018002e230 f   libucrtd:lcidtoname_downlevel.obj
 0001:0002dbe0       ??$?RV<lambda_842d9ff0dc9ef11c61343bbaebe7f885>@@AEAV<lambda_c5860995281e5c4ce005b3de8f5874ee>@@V<lambda_d90129c13df834fdcbf8d2b88dafcf2d>@@@?$__crt_seh_guarded_call@X@@QEAAX$$QEAV<lambda_842d9ff0dc9ef11c61343bbaebe7f885>@@AEAV<lambda_c5860995281e5c4ce005b3de8f5874ee>@@$$QEAV<lambda_d90129c13df834fdcbf8d2b88dafcf2d>@@@Z 000000018002ebe0 f   libucrtd:fflush.obj
 0001:0002dc20       ??$?RV<lambda_886d6c58226a84441f68b9f2b8217b83>@@AEAV<lambda_ab61a845afdef5b7c387490eaf3616ee>@@V<lambda_f7f22ab5edc0698d5f6905b0d3f44752>@@@?$__crt_seh_guarded_call@X@@QEAAX$$QEAV<lambda_886d6c58226a84441f68b9f2b8217b83>@@AEAV<lambda_ab61a845afdef5b7c387490eaf3616ee>@@$$QEAV<lambda_f7f22ab5edc0698d5f6905b0d3f44752>@@@Z 000000018002ec20 f   libucrtd:fflush.obj
 0001:0002dc60       ??$__acrt_lock_and_call@V<lambda_ab61a845afdef5b7c387490eaf3616ee>@@@@YAXW4__acrt_lock_id@@$$QEAV<lambda_ab61a845afdef5b7c387490eaf3616ee>@@@Z 000000018002ec60 f   libucrtd:fflush.obj
 0001:0002dcb0       ??$__acrt_lock_stream_and_call@V<lambda_c5860995281e5c4ce005b3de8f5874ee>@@@@YAXQEAU_iobuf@@$$QEAV<lambda_c5860995281e5c4ce005b3de8f5874ee>@@@Z 000000018002ecb0 f   libucrtd:fflush.obj
 0001:0002dd00       ??0<lambda_842d9ff0dc9ef11c61343bbaebe7f885>@@QEAA@AEBQEAU_iobuf@@@Z 000000018002ed00 f   libucrtd:fflush.obj
 0001:0002dd00       ??0<lambda_d90129c13df834fdcbf8d2b88dafcf2d>@@QEAA@AEBQEAU_iobuf@@@Z 000000018002ed00 f   libucrtd:fflush.obj
 0001:0002dd20       ??0<lambda_c5860995281e5c4ce005b3de8f5874ee>@@QEAA@AEBV__crt_stdio_stream@@AEAHAEB_N1@Z 000000018002ed20 f   libucrtd:fflush.obj
 0001:0002dd80       ??R<lambda_842d9ff0dc9ef11c61343bbaebe7f885>@@QEBAXXZ 000000018002ed80 f   libucrtd:fflush.obj
 0001:0002dda0       ??R<lambda_ab61a845afdef5b7c387490eaf3616ee>@@QEBA@XZ 000000018002eda0 f   libucrtd:fflush.obj
 0001:0002de90       ??R<lambda_c5860995281e5c4ce005b3de8f5874ee>@@QEBAXXZ 000000018002ee90 f   libucrtd:fflush.obj
 0001:0002df30       ??R<lambda_d90129c13df834fdcbf8d2b88dafcf2d>@@QEBAXXZ 000000018002ef30 f   libucrtd:fflush.obj
 0001:0002dfa0       ?common_flush_all@@YAH_N@Z 000000018002efa0 f   libucrtd:fflush.obj
 0001:0002e010       ?common_flush_all_should_try_to_flush_stream@@YA_NV__crt_stdio_stream@@QEAH@Z 000000018002f010 f   libucrtd:fflush.obj
 0001:0002e0c0       ?is_stream_allocated@@YA_NJ@Z 000000018002f0c0 f   libucrtd:fflush.obj
 0001:0002e0f0       ?is_stream_flushable@@YA_NJ@Z 000000018002f0f0 f   libucrtd:fflush.obj
 0001:0002e120       ?is_stream_flushable_or_commitable@@YA_NJ@Z 000000018002f120 f   libucrtd:fflush.obj
 0001:0002e6a0       ??$free_crt_array@D$01@@YAXAEAY01PEAD@Z 000000018002f6a0 f   libucrtd:inittime.obj
 0001:0002e6a0       ??$free_crt_array@_W$01@@YAXAEAY01PEA_W@Z 000000018002f6a0 f   libucrtd:inittime.obj
 0001:0002e6c0       ??$free_crt_array@D$06@@YAXAEAY06PEAD@Z 000000018002f6c0 f   libucrtd:inittime.obj
 0001:0002e6c0       ??$free_crt_array@_W$06@@YAXAEAY06PEA_W@Z 000000018002f6c0 f   libucrtd:inittime.obj
 0001:0002e6e0       ??$free_crt_array@D$0M@@@YAXAEAY0M@PEAD@Z 000000018002f6e0 f   libucrtd:inittime.obj
 0001:0002e6e0       ??$free_crt_array@_W$0M@@@YAXAEAY0M@PEA_W@Z 000000018002f6e0 f   libucrtd:inittime.obj
 0001:0002e700       ?free_crt_array_internal@@YAXQEAPEBX_K@Z 000000018002f700 f   libucrtd:inittime.obj
 0001:0002e8d0       ??$common_tcscat_s@_W@@YAHQEA_W_KQEB_W@Z 000000018002f8d0 f   libucrtd:wcscat_s.obj
 0001:0002f0e0       ??R<lambda_88e6d024674186fe9d3f7283b675e4c3>@@QEBA_KPEBD@Z 00000001800300e0 f   libucrtd:mbrtowc.obj
 0001:0002f7f0       ?should_round_up@@YA_NQEBDHW4__acrt_has_trailing_digits@@W4__acrt_rounding_mode@@@Z 00000001800307f0 f   libucrtd:_fptostr.obj
 0001:0002fda0       ??$convert_to_fos_high_precision@N@@YA?AW4__acrt_has_trailing_digits@@NIQEAHQEAD_K@Z 0000000180030da0 f   libucrtd:cfout.obj
 0001:000304c0       ??0scoped_fp_state_reset@?A0x71ca7cfb@@QEAA@XZ 00000001800314c0 f   libucrtd:cfout.obj
 0001:00030510       ??1scoped_fp_state_reset@?A0x71ca7cfb@@QEAA@XZ 0000000180031510 f   libucrtd:cfout.obj
 0001:000322f0       ??$common_xtox@KD@@YAHKQEAD_KI_N@Z 00000001800332f0 f   libucrtd:xtoa.obj
 0001:00032530       ??$common_xtox@K_W@@YAHKQEA_W_KI_N@Z 0000000180033530 f   libucrtd:xtoa.obj
 0001:00032780       ??$common_xtox_s@KD@@YAHKQEAD_KI_N@Z 0000000180033780 f   libucrtd:xtoa.obj
 0001:00032b30       ??$common_xtox_s@K_W@@YAHKQEA_W_KI_N@Z 0000000180033b30 f   libucrtd:xtoa.obj
 0001:00032fa0       ?_mbstowcs_l_helper@@YA_KPEA_WPEBD_KPEAU__crt_locale_pointers@@@Z 0000000180033fa0 f   libucrtd:mbstowcs.obj
 0001:00033ba0       ?_wcstombs_l_helper@@YA_KPEADPEB_W_KPEAU__crt_locale_pointers@@@Z 0000000180034ba0 f   libucrtd:wcstombs.obj
 0001:00034450       ?wcsncnt@@YA_KPEB_W_K@Z    0000000180035450 f   libucrtd:wcstombs.obj
 0001:00034a70       ??$common_tcscat_s@D@@YAHQEAD_KQEBD@Z 0000000180035a70 f   libucrtd:strcat_s.obj
 0001:000351d0       $$000000                   00000001800361d0     libucrtd:fpsr.obj
 0001:00035360       ??$?RV<lambda_4e3dbe6921bc0b5a1a6bc6573fdc859e>@@AEAV<lambda_5533cddd4bda0037814beee657757329>@@V<lambda_47cffbaa968af5c721c38a4a6f8da44d>@@@?$__crt_seh_guarded_call@H@@QEAAH$$QEAV<lambda_4e3dbe6921bc0b5a1a6bc6573fdc859e>@@AEAV<lambda_5533cddd4bda0037814beee657757329>@@$$QEAV<lambda_47cffbaa968af5c721c38a4a6f8da44d>@@@Z 0000000180036360 f   libucrtd:commit.obj
 0001:000353b0       ??$__acrt_lowio_lock_fh_and_call@V<lambda_5533cddd4bda0037814beee657757329>@@@@YAHH$$QEAV<lambda_5533cddd4bda0037814beee657757329>@@@Z 00000001800363b0 f   libucrtd:commit.obj
 0001:00035400       ??R<lambda_8ddc48ad9d26c778cb15812d1d88fc8a>@@QEBAXXZ 0000000180036400 f   libucrtd:close.obj
 0001:00035400       ??R<lambda_47cffbaa968af5c721c38a4a6f8da44d>@@QEBAXXZ 0000000180036400 f   libucrtd:commit.obj
 0001:00035420       ??R<lambda_53fc7fc888e23d815d7080162c0aeeb2>@@QEBAXXZ 0000000180036420 f   libucrtd:close.obj
 0001:00035420       ??R<lambda_4e3dbe6921bc0b5a1a6bc6573fdc859e>@@QEBAXXZ 0000000180036420 f   libucrtd:commit.obj
 0001:00035440       ??R<lambda_5533cddd4bda0037814beee657757329>@@QEBAHXZ 0000000180036440 f   libucrtd:commit.obj
 0001:000356e0       ?write_binary_nolock@@YA?AUwrite_result@?A0x17268360@@HQEBDI@Z 00000001800366e0 f   libucrtd:write.obj
 0001:000357b0       ?write_double_translated_ansi_nolock@@YA?AUwrite_result@?A0x17268360@@HQEBDI@Z 00000001800367b0 f   libucrtd:write.obj
 0001:00036710       ?write_double_translated_unicode_nolock@@YA?AUwrite_result@?A0x17268360@@QEBDI@Z 0000000180037710 f   libucrtd:write.obj
 0001:00036870       ?write_requires_double_translation_nolock@@YA_NH@Z 0000000180037870 f   libucrtd:write.obj
 0001:00036990       ?write_text_ansi_nolock@@YA?AUwrite_result@?A0x17268360@@HQEBDI@Z 0000000180037990 f   libucrtd:write.obj
 0001:00036bc0       ?write_text_utf16le_nolock@@YA?AUwrite_result@?A0x17268360@@HQEBDI@Z 0000000180037bc0 f   libucrtd:write.obj
 0001:00036e00       ?write_text_utf8_nolock@@YA?AUwrite_result@?A0x17268360@@HQEBDI@Z 0000000180037e00 f   libucrtd:write.obj
 0001:00037d40       $$000000                   0000000180038d40     libucrtd:log10.obj
 0001:00038710       ??$common_lseek_nolock@_J@@YA_JH_JH@Z 0000000180039710 f   libucrtd:lseek.obj
 0001:00038820       ?common_lseek_do_seek_nolock@@YA_JQEAX_JH@Z 0000000180039820 f   libucrtd:lseek.obj
 0001:00038f30       _log_special_common        0000000180039f30 f   libucrtd:log_special.obj
 0001:00039050       _abstract_cw               000000018003a050 f   libucrtd:ieee.obj
 0001:000391a0       _abstract_sw               000000018003a1a0 f   libucrtd:ieee.obj
 0001:00039280       _hw_cw                     000000018003a280 f   libucrtd:ieee.obj
 0001:000393d0       common_control87           000000018003a3d0 f   libucrtd:ieee.obj
 0001:000394f0       ??$?RV<lambda_53fc7fc888e23d815d7080162c0aeeb2>@@AEAV<lambda_4e7105787b7b0e0227fbf2b2d883fa65>@@V<lambda_8ddc48ad9d26c778cb15812d1d88fc8a>@@@?$__crt_seh_guarded_call@H@@QEAAH$$QEAV<lambda_53fc7fc888e23d815d7080162c0aeeb2>@@AEAV<lambda_4e7105787b7b0e0227fbf2b2d883fa65>@@$$QEAV<lambda_8ddc48ad9d26c778cb15812d1d88fc8a>@@@Z 000000018003a4f0 f   libucrtd:close.obj
 0001:00039540       ??$__acrt_lowio_lock_fh_and_call@V<lambda_4e7105787b7b0e0227fbf2b2d883fa65>@@@@YAHH$$QEAV<lambda_4e7105787b7b0e0227fbf2b2d883fa65>@@@Z 000000018003a540 f   libucrtd:close.obj
 0001:00039590       ??R<lambda_4e7105787b7b0e0227fbf2b2d883fa65>@@QEBAHXZ 000000018003a590 f   libucrtd:close.obj
 0001:00039640       ?close_os_handle_nolock@@YAKH@Z 000000018003a640 f   libucrtd:close.obj
 0001:00039b50       ?combine_second_surrogate@?A0xc60ee810@@YA_U_SPEAU_Mbstatet@@@Z 000000018003ab50 f   libucrtd:c16rtomb.obj
 0001:00039b70       ?has_surrogate@?A0xc60ee810@@YA_NPEAU_Mbstatet@@@Z 000000018003ab70 f   libucrtd:c16rtomb.obj
 0001:00039ba0       ?is_first_surrogate@?A0xc60ee810@@YA_N_S@Z 000000018003aba0 f   libucrtd:c16rtomb.obj
 0001:00039be0       ?is_second_surrogate@?A0xc60ee810@@YA_N_S@Z 000000018003abe0 f   libucrtd:c16rtomb.obj
 0001:00039c20       ?store_first_surrogate@?A0xc60ee810@@YAX_SPEAU_Mbstatet@@@Z 000000018003ac20 f   libucrtd:c16rtomb.obj
 0001:0003a090       $$000000                   000000018003b090     LIBCMTD:chkstk.obj
 0001:0003a1d0       $$000000                   000000018003b1d0     libvcruntimed:memcmp.obj
 0001:0003a6d0       $$000000                   000000018003b6d0     LIBCMTD:guard_dispatch.obj
 0001:0003a6f0       $$000000                   000000018003b6f0     LIBCMTD:guard_xfg_dispatch.obj
 0001:0003a710       ?fin$0@?0??dllmain_crt_process_attach@@YAHQEAUHINSTANCE__@@QEAX@Z@4HA 000000018003b710 f   LIBCMTD:dll_dllmain.obj
 0001:0003a730       ?fin$0@?0??dllmain_crt_process_detach@@YAH_N@Z@4HA 000000018003b730 f   LIBCMTD:dll_dllmain.obj
 0001:0003a74a       ?fin$1@?0??dllmain_crt_process_detach@@YAH_N@Z@4HA 000000018003b74a f   LIBCMTD:dll_dllmain.obj
 0001:0003a760       ?filt$0@?0??dllmain_dispatch@@YAHQEAUHINSTANCE__@@KQEAX@Z@4HA 000000018003b760 f   LIBCMTD:dll_dllmain.obj
 0001:0003a7b0       __scrt_is_nonwritable_in_current_image$filt$0 000000018003b7b0 f   LIBCMTD:utility.obj
 0001:0003a7f0       __DestructExceptionObject$filt$0 000000018003b7f0 f   libvcruntimed:ehhelpers.obj
 0001:0003a820       ?filt$0@?0???$_CallSETranslator@V__FrameHandler3@@@@YAHPEAUEHExceptionRecord@@PEA_KPEAU_CONTEXT@@PEAU_xDISPATCHER_CONTEXT@@PEBU_s_FuncInfo@@K1H@Z@4HA 000000018003b820 f   libvcruntimed:risctrnsctrl.obj
 0001:0003a890       ?filt$0@?0???$BuildCatchObjectHelperInternal@V__FrameHandler3@@@@YAHPEAUEHExceptionRecord@@PEAXPEBU_s_HandlerType@@PEBU_s_CatchableType@@@Z@4HA 000000018003b890 f   libvcruntimed:frame.obj
 0001:0003a890       ?filt$0@?0???$BuildCatchObjectInternal@V__FrameHandler3@@@@YAXPEAUEHExceptionRecord@@PEAXPEBU_s_HandlerType@@PEBU_s_CatchableType@@@Z@4HA 000000018003b890 f   libvcruntimed:frame.obj
 0001:0003a890       ?filt$0@?0??is_bad_read_pointer@@YA_NQEBX_K@Z@4HA 000000018003b890 f   libucrtd:debug_heap.obj
 0001:0003a890       terminate$filt$0           000000018003b890 f   libucrtd:terminate.obj
 0001:0003a8b0       ?filt$0@?0??CxxCallCatchBlock@__FrameHandler3@@SAPEAXPEAU_EXCEPTION_RECORD@@@Z@4HA 000000018003b8b0 f   libvcruntimed:frame.obj
 0001:0003a8d9       ?fin$1@?0??CxxCallCatchBlock@__FrameHandler3@@SAPEAXPEAU_EXCEPTION_RECORD@@@Z@4HA 000000018003b8d9 f   libvcruntimed:frame.obj
 0001:0003a970       ?filt$0@?0??FrameUnwindToState@__FrameHandler3@@SAXPEA_KPEAU_xDISPATCHER_CONTEXT@@PEBU_s_FuncInfo@@H@Z@4HA 000000018003b970 f   libvcruntimed:frame.obj
 0001:0003a991       ?fin$1@?0??FrameUnwindToState@__FrameHandler3@@SAXPEA_KPEAU_xDISPATCHER_CONTEXT@@PEBU_s_FuncInfo@@H@Z@4HA 000000018003b991 f   libvcruntimed:frame.obj
 0001:0003a9d0       ?fin$0@?0???$?RV<lambda_0ae27a3a962d80f24befdcbee591983d>@@AEAV<lambda_8d0ee55de4b1038c4002e0adecdf1839>@@V<lambda_dc504788e8f1664fe9b84e20bfb512f2>@@@?$__crt_seh_guarded_call@X@@QEAAX$$QEAV<lambda_0ae27a3a962d80f24befdcbee591983d>@@AEAV<lambda_8d0ee55de4b1038c4002e0adecdf1839>@@$$QEAV<lambda_dc504788e8f1664fe9b84e20bfb512f2>@@@Z@4HA 000000018003b9d0 f   libucrtd:per_thread_data.obj
 0001:0003a9d0       ?fin$0@?0???$?RV<lambda_2d41944a1d46af3157314b8a01080d33>@@AEAV<lambda_8f455de75cd7d7f24b4096f044d8b9e6>@@V<lambda_aa500f224e6afead328df44964fe2772>@@@?$__crt_seh_guarded_call@X@@QEAAX$$QEAV<lambda_2d41944a1d46af3157314b8a01080d33>@@AEAV<lambda_8f455de75cd7d7f24b4096f044d8b9e6>@@$$QEAV<lambda_aa500f224e6afead328df44964fe2772>@@@Z@4HA 000000018003b9d0 f   libucrtd:per_thread_data.obj
 0001:0003a9d0       ?fin$0@?0???$?RV<lambda_74a0ef281e44d15e1136f792f539efb3>@@AEAV<lambda_e157831efee4ea0afb0a2ace5dd5fd0d>@@V<lambda_04ddeca75b7c13fd67716e8dfcef87ee>@@@?$__crt_seh_guarded_call@X@@QEAAX$$QEAV<lambda_74a0ef281e44d15e1136f792f539efb3>@@AEAV<lambda_e157831efee4ea0afb0a2ace5dd5fd0d>@@$$QEAV<lambda_04ddeca75b7c13fd67716e8dfcef87ee>@@@Z@4HA 000000018003b9d0 f   libucrtd:per_thread_data.obj
 0001:0003a9d0       ?fin$0@?0???$?RV<lambda_aa87e3671a710a21b5dc78c0bdf72e11>@@AEAV<lambda_92619d2358a28f41a33ba319515a20b9>@@V<lambda_6992ecaafeb10aed2b74cb1fae11a551>@@@?$__crt_seh_guarded_call@X@@QEAAX$$QEAV<lambda_aa87e3671a710a21b5dc78c0bdf72e11>@@AEAV<lambda_92619d2358a28f41a33ba319515a20b9>@@$$QEAV<lambda_6992ecaafeb10aed2b74cb1fae11a551>@@@Z@4HA 000000018003b9d0 f   libucrtd:per_thread_data.obj
 0001:0003a9d0       ?fin$0@?0???$?RV<lambda_410d79af7f07d98d83a3f525b3859a53>@@AEAV<lambda_3e16ef9562a7dcce91392c22ab16ea36>@@V<lambda_38119f0e861e05405d8a144b9b982f0a>@@@?$__crt_seh_guarded_call@X@@QEAAX$$QEAV<lambda_410d79af7f07d98d83a3f525b3859a53>@@AEAV<lambda_3e16ef9562a7dcce91392c22ab16ea36>@@$$QEAV<lambda_38119f0e861e05405d8a144b9b982f0a>@@@Z@4HA 000000018003b9d0 f   libucrtd:wsetlocale.obj
 0001:0003a9d0       ?fin$0@?0???$?RV<lambda_efa02eb69bf647d2f7ff0dd6f1103f72>@@AEAV<lambda_bd5a608237428601b7e45fbdc72b1ae8>@@V<lambda_728235dc0fc2b1f82d1fa5b3e7102d8f>@@@?$__crt_seh_guarded_call@X@@QEAAX$$QEAV<lambda_efa02eb69bf647d2f7ff0dd6f1103f72>@@AEAV<lambda_bd5a608237428601b7e45fbdc72b1ae8>@@$$QEAV<lambda_728235dc0fc2b1f82d1fa5b3e7102d8f>@@@Z@4HA 000000018003b9d0 f   libucrtd:mbctype.obj
 0001:0003a9d0       ?fin$0@?0???$?RV<lambda_d80eeec6fff315bfe5c115232f3240e3>@@AEAV<lambda_6e4b09c48022b2350581041d5f6b0c4c>@@V<lambda_2358e3775559c9db80273638284d5e45>@@@?$__crt_seh_guarded_call@X@@QEAAX$$QEAV<lambda_d80eeec6fff315bfe5c115232f3240e3>@@AEAV<lambda_6e4b09c48022b2350581041d5f6b0c4c>@@$$QEAV<lambda_2358e3775559c9db80273638284d5e45>@@@Z@4HA 000000018003b9d0 f   libucrtd:exit.obj
 0001:0003a9d0       ?fin$0@?0???$?RV<lambda_886d6c58226a84441f68b9f2b8217b83>@@AEAV<lambda_ab61a845afdef5b7c387490eaf3616ee>@@V<lambda_f7f22ab5edc0698d5f6905b0d3f44752>@@@?$__crt_seh_guarded_call@X@@QEAAX$$QEAV<lambda_886d6c58226a84441f68b9f2b8217b83>@@AEAV<lambda_ab61a845afdef5b7c387490eaf3616ee>@@$$QEAV<lambda_f7f22ab5edc0698d5f6905b0d3f44752>@@@Z@4HA 000000018003b9d0 f   libucrtd:fflush.obj
 0001:0003a9f0       ?filt$0@?0???R<lambda_6e4b09c48022b2350581041d5f6b0c4c>@@QEBA@XZ@4HA 000000018003b9f0 f   libucrtd:exit.obj
 0001:0003aa20       ?fin$0@?0???$?RV<lambda_450d765d439847d4c735a33c368b5fc0>@@AEAV<lambda_44731a7d0e6d81c3e6aa82d741081786>@@V<lambda_601a2a7da3b7a96e9554ac7215c4b07c>@@@?$__crt_seh_guarded_call@P6AXH@Z@@QEAAP6AXH@Z$$QEAV<lambda_450d765d439847d4c735a33c368b5fc0>@@AEAV<lambda_44731a7d0e6d81c3e6aa82d741081786>@@$$QEAV<lambda_601a2a7da3b7a96e9554ac7215c4b07c>@@@Z@4HA 000000018003ba20 f   libucrtd:signal.obj
 0001:0003aa20       ?fin$0@?0???$?RV<lambda_6a47f4c8fd0152770a780fc1d70204eb>@@AEAV<lambda_d121dba8a4adeaf3a9819e48611155df>@@V<lambda_6aaa2265f5b6a89667e7d7630012e97a>@@@?$__crt_seh_guarded_call@H@@QEAAH$$QEAV<lambda_6a47f4c8fd0152770a780fc1d70204eb>@@AEAV<lambda_d121dba8a4adeaf3a9819e48611155df>@@$$QEAV<lambda_6aaa2265f5b6a89667e7d7630012e97a>@@@Z@4HA 000000018003ba20 f   libucrtd:onexit.obj
 0001:0003aa40       ?dtor$0@?0???R<lambda_d121dba8a4adeaf3a9819e48611155df>@@QEBAHXZ@4HA 000000018003ba40 f   libucrtd:onexit.obj
 0001:0003aa60       ?fin$0@?0??heap_alloc_dbg_internal@@YAPEAX_KHQEBDH@Z@4HA 000000018003ba60 f   libucrtd:debug_heap.obj
 0001:0003aa60       _CrtMemCheckpoint$fin$0    000000018003ba60 f   libucrtd:debug_heap.obj
 0001:0003aa80       ?fin$0@?0??validate_heap_if_required_nolock@@YAXXZ@4HA 000000018003ba80 f   libucrtd:debug_heap.obj
 0001:0003aaa0       _CrtCheckMemory$fin$0      000000018003baa0 f   libucrtd:debug_heap.obj
 0001:0003aaa0       _CrtMemDumpAllObjectsSince$fin$0 000000018003baa0 f   libucrtd:debug_heap.obj
 0001:0003aaa0       _CrtSetDbgFlag$fin$0       000000018003baa0 f   libucrtd:debug_heap.obj
 0001:0003aaa0       _msize_dbg$fin$0           000000018003baa0 f   libucrtd:debug_heap.obj
 0001:0003aaa0       _realloc_dbg$fin$0         000000018003baa0 f   libucrtd:debug_heap.obj
 0001:0003aac0       _free_dbg$fin$0            000000018003bac0 f   libucrtd:debug_heap.obj
 0001:0003aac0       _query_new_handler$fin$0   000000018003bac0 f   libucrtd:new_handler.obj
 0001:0003aae0       ?fin$0@?0??update_thread_multibyte_data_internal@@YAPEAU__crt_multibyte_data@@QEAU__acrt_ptd@@QEAPEAU1@@Z@4HA 000000018003bae0 f   libucrtd:mbctype.obj
 0001:0003ab00       __acrt_initialize_lowio$fin$0 000000018003bb00 f   libucrtd:ioinit.obj
 0001:0003ab20       raise$fin$0                000000018003bb20 f   libucrtd:signal.obj
 0001:0003ab50       ?dtor$0@?0??fp_format_a@@YAHQEBNPEAD_KQEAD2H_NIQEAU__crt_locale_pointers@@W4__acrt_rounding_mode@@@Z@4HA 000000018003bb50 f   libucrtd:cvt.obj
 0001:0003ab70       _VCrtDbgReportA$fin$0      000000018003bb70 f   libucrtd:dbgrptt.obj
 0001:0003ab8b       _VCrtDbgReportA$fin$1      000000018003bb8b f   libucrtd:dbgrptt.obj
 0001:0003abb0       _VCrtDbgReportW$fin$0      000000018003bbb0 f   libucrtd:dbgrptt.obj
 0001:0003abcb       _VCrtDbgReportW$fin$1      000000018003bbcb f   libucrtd:dbgrptt.obj
 0001:0003abf0       _ctrlfp$filt$0             000000018003bbf0 f   libucrtd:fpctrl.obj
 0001:0003ac40       __acrt_update_thread_locale_data$fin$0 000000018003bc40 f   libucrtd:locale_refcounting.obj
 0001:0003ac60       ?dtor$0@?0??shortsort@@YAXPEAD0_KP6AHPEBX2@Z@Z@4HA 000000018003bc60 f   libucrtd:qsort.obj
 0001:0003ac80       __acrt_lowio_ensure_fh_exists$fin$0 000000018003bc80 f   libucrtd:osfinfo.obj
 0001:0003aca0       ?fin$0@?0???$?RV<lambda_842d9ff0dc9ef11c61343bbaebe7f885>@@AEAV<lambda_c5860995281e5c4ce005b3de8f5874ee>@@V<lambda_d90129c13df834fdcbf8d2b88dafcf2d>@@@?$__crt_seh_guarded_call@X@@QEAAX$$QEAV<lambda_842d9ff0dc9ef11c61343bbaebe7f885>@@AEAV<lambda_c5860995281e5c4ce005b3de8f5874ee>@@$$QEAV<lambda_d90129c13df834fdcbf8d2b88dafcf2d>@@@Z@4HA 000000018003bca0 f   libucrtd:fflush.obj
 0001:0003acc0       _fcloseall$fin$0           000000018003bcc0 f   libucrtd:closeall.obj
 0001:0003ace0       ?dtor$0@?0??_wcstombs_l_helper@@YA_KPEADPEB_W_KPEAU__crt_locale_pointers@@@Z@4HA 000000018003bce0 f   libucrtd:wcstombs.obj
 0001:0003ad00       ?fin$0@?0???$?RV<lambda_53fc7fc888e23d815d7080162c0aeeb2>@@AEAV<lambda_4e7105787b7b0e0227fbf2b2d883fa65>@@V<lambda_8ddc48ad9d26c778cb15812d1d88fc8a>@@@?$__crt_seh_guarded_call@H@@QEAAH$$QEAV<lambda_53fc7fc888e23d815d7080162c0aeeb2>@@AEAV<lambda_4e7105787b7b0e0227fbf2b2d883fa65>@@$$QEAV<lambda_8ddc48ad9d26c778cb15812d1d88fc8a>@@@Z@4HA 000000018003bd00 f   libucrtd:close.obj
 0001:0003ad00       ?fin$0@?0???$?RV<lambda_4e3dbe6921bc0b5a1a6bc6573fdc859e>@@AEAV<lambda_5533cddd4bda0037814beee657757329>@@V<lambda_47cffbaa968af5c721c38a4a6f8da44d>@@@?$__crt_seh_guarded_call@H@@QEAAH$$QEAV<lambda_4e3dbe6921bc0b5a1a6bc6573fdc859e>@@AEAV<lambda_5533cddd4bda0037814beee657757329>@@$$QEAV<lambda_47cffbaa968af5c721c38a4a6f8da44d>@@@Z@4HA 000000018003bd00 f   libucrtd:commit.obj
 0001:0003ad20       _write$fin$0               000000018003bd20 f   libucrtd:write.obj
 0001:0003ad40       fclose$fin$0               000000018003bd40 f   libucrtd:fclose.obj
 0001:0003ad70       common_control87$filt$0    000000018003bd70 f   libucrtd:ieee.obj
 0001:0003adc0       _IsNonwritableInCurrentImage$filt$0 000000018003bdc0 f   LIBCMTD:pesect.obj
 0002:000002e0       $SG29191                   000000018003c2e0     handmade.obj
 0002:00000300       $SG29192                   000000018003c300     handmade.obj
 0002:00000320       $SG29193                   000000018003c320     handmade.obj
 0002:00000340       $SG29194                   000000018003c340     handmade.obj
 0002:00000360       $SG29195                   000000018003c360     handmade.obj
 0002:00000380       $SG29196                   000000018003c380     handmade.obj
 0002:000003a0       $SG29197                   000000018003c3a0     handmade.obj
 0002:000003c0       $SG29198                   000000018003c3c0     handmade.obj
 0002:000003e0       $SG29199                   000000018003c3e0     handmade.obj
 0002:00000400       $SG29200                   000000018003c400     handmade.obj
 0002:00000420       $SG29201                   000000018003c420     handmade.obj
 0002:00000440       $SG29202                   000000018003c440     handmade.obj
 0002:00000460       $SG29203                   000000018003c460     handmade.obj
 0002:000004e8       GS_ExceptionPointers       000000018003c4e8     LIBCMTD:gs_report.obj
 0002:00000500       ?tokenTable@@3QBUStringLiteral@@B 000000018003c500     libvcruntimed:undname.obj
 0002:00000600       ?nameTable@@3QBUStringLiteral@@B 000000018003c600     libvcruntimed:undname.obj
 0002:00000b30       ?rttiTable@@3QBUStringLiteral@@B 000000018003cb30     libvcruntimed:undname.obj
 0002:00000b80       ?IndirectionName@@3QBUStringLiteral@@B 000000018003cb80     libvcruntimed:undname.obj
 0002:00000be0       ?PrefixName@@3QBUStringLiteral@@B 000000018003cbe0     libvcruntimed:undname.obj
 0002:00001310       ?ExceptionTemplate@?1??UnwindNestedFrames@__FrameHandler3@@SAXPEA_KPEAUEHExceptionRecord@@PEAU_CONTEXT@@0PEAXPEBU_s_FuncInfo@@HHPEBU_s_HandlerType@@PEAU_xDISPATCHER_CONTEXT@@E@Z@4U_EXCEPTION_RECORD@@B 000000018003d310     libvcruntimed:risctrnsctrl.obj
 0002:000013a8       ?module_names@?A0x84e3c32f@@3QBQEB_WB 000000018003d3a8     libvcruntimed:winapi_downlevel.obj
 0002:00001620       ?candidate_modules@?1??try_get_FlsAlloc@@YAP6AKP6AXPEAX@Z@ZXZ@4QBW4module_id@?A0x84e3c32f@@B 000000018003d620     libvcruntimed:winapi_downlevel.obj
 0002:00001638       ?candidate_modules@?1??try_get_FlsFree@@YAP6AHK@ZXZ@4QBW4module_id@?A0x84e3c32f@@B 000000018003d638     libvcruntimed:winapi_downlevel.obj
 0002:00001648       ?candidate_modules@?1??try_get_FlsGetValue@@YAP6APEAXK@ZXZ@4QBW4module_id@?A0x84e3c32f@@B 000000018003d648     libvcruntimed:winapi_downlevel.obj
 0002:00001660       ?candidate_modules@?1??try_get_FlsSetValue@@YAP6AHKPEAX@ZXZ@4QBW4module_id@?A0x84e3c32f@@B 000000018003d660     libvcruntimed:winapi_downlevel.obj
 0002:00001678       ?candidate_modules@?1??try_get_InitializeCriticalSectionEx@@YAP6AHPEAU_RTL_CRITICAL_SECTION@@KK@ZXZ@4QBW4module_id@?A0x84e3c32f@@B 000000018003d678     libvcruntimed:winapi_downlevel.obj
 0002:00001c08       $cppxdata$??R<lambda_d121dba8a4adeaf3a9819e48611155df>@@QEBAHXZ 000000018003dc08     libucrtd:onexit.obj
 0002:00001c30       __acrt_initializers        000000018003dc30     libucrtd:initialization.obj
 0002:00001d30       ?block_use_names@@3QBQEBDB 000000018003dd30     libucrtd:debug_heap.obj
 0002:000052e0       ?report_type_messages@@3QBQEB_WB 00000001800412e0     libucrtd:dbgrpt.obj
 0002:00005340       ?more_info_string@@3QEB_WEB 0000000180041340     libucrtd:dbgrpt.obj
 0002:0000567e       ?empty_string@?1???$common_message_window@D@@YAHHQEAXQEBD111@Z@4QBDB 000000018004167e     libucrtd:dbgrpt.obj
 0002:0000595c       ?empty_string@?1???$common_message_window@_W@@YAHHQEAXQEB_W111@Z@4QB_WB 000000018004195c     libucrtd:dbgrpt.obj
 0002:00005960       ?mask@?P@??_fd_int@@9@4QBGB 0000000180041960     libucrtd:_test.obj
 0002:00005980       ?sub@?P@??_fd_int@@9@4QB_KB 0000000180041980     libucrtd:_test.obj
 0002:00005ab0       ?errtable@@3QBUerrentry@?A0x31fdb9ec@@B 0000000180041ab0     libucrtd:errno.obj
 0002:00005c40       $cppxdata$??1?$__crt_win32_buffer@DU__crt_win32_buffer_internal_dynamic_resizing@@@@QEAA@XZ 0000000180041c40     libucrtd:argv_wildcards.obj
 0002:00005c40       $cppxdata$??1?$__crt_win32_buffer@_WU__crt_win32_buffer_internal_dynamic_resizing@@@@QEAA@XZ 0000000180041c40     libucrtd:argv_wildcards.obj
 0002:00006058       $cppxdata$??1?$__crt_win32_buffer@DU__crt_win32_buffer_no_resizing@@@@QEAA@XZ 0000000180042058     libucrtd:getmodulefilenamea.obj
 0002:00006080       ?_mb_locale_names@@3QBQEB_WB 0000000180042080     libucrtd:mbctype.obj
 0002:00006170       ?module_names@?A0x391cf84c@@3QBQEB_WB 0000000180042170     libucrtd:winapi_thunks.obj
 0002:000066f4       ?candidate_modules@?1??try_get_AreFileApisANSI@@YAP6AHXZXZ@4QBW4module_id@?A0x391cf84c@@B 00000001800426f4     libucrtd:winapi_thunks.obj
 0002:00006708       ?candidate_modules@?1??try_get_FlsAlloc@@YAP6AKP6AXPEAX@Z@ZXZ@4QBW4module_id@?A0x391cf84c@@B 0000000180042708     libucrtd:winapi_thunks.obj
 0002:00006710       ?candidate_modules@?1??try_get_FlsFree@@YAP6AHK@ZXZ@4QBW4module_id@?A0x391cf84c@@B 0000000180042710     libucrtd:winapi_thunks.obj
 0002:00006718       ?candidate_modules@?1??try_get_FlsGetValue@@YAP6APEAXK@ZXZ@4QBW4module_id@?A0x391cf84c@@B 0000000180042718     libucrtd:winapi_thunks.obj
 0002:00006720       ?candidate_modules@?1??try_get_FlsSetValue@@YAP6AHKPEAX@ZXZ@4QBW4module_id@?A0x391cf84c@@B 0000000180042720     libucrtd:winapi_thunks.obj
 0002:00006728       ?candidate_modules@?1??try_get_GetActiveWindow@@YAP6APEAUHWND__@@XZXZ@4QBW4module_id@?A0x391cf84c@@B 0000000180042728     libucrtd:winapi_thunks.obj
 0002:00006740       ?candidate_modules@?1??try_get_GetLastActivePopup@@YAP6APEAUHWND__@@PEAU2@@ZXZ@4QBW4module_id@?A0x391cf84c@@B 0000000180042740     libucrtd:winapi_thunks.obj
 0002:00006760       ?candidate_modules@?1??try_get_GetProcessWindowStation@@YAP6APEAUHWINSTA__@@XZXZ@4QBW4module_id@?A0x391cf84c@@B 0000000180042760     libucrtd:winapi_thunks.obj
 0002:00006780       ?candidate_modules@?1??try_get_GetUserObjectInformationW@@YAP6AHPEAXH0KPEAK@ZXZ@4QBW4module_id@?A0x391cf84c@@B 0000000180042780     libucrtd:winapi_thunks.obj
 0002:000067a8       ?candidate_modules@?1??try_get_InitializeCriticalSectionEx@@YAP6AHPEAU_RTL_CRITICAL_SECTION@@KK@ZXZ@4QBW4module_id@?A0x391cf84c@@B 00000001800427a8     libucrtd:winapi_thunks.obj
 0002:000067b0       ?candidate_modules@?1??try_get_LCMapStringEx@@YAP6AHPEB_WK0HPEA_WHPEAU_nlsversioninfo@@PEAX_J@ZXZ@4QBW4module_id@?A0x391cf84c@@B 00000001800427b0     libucrtd:winapi_thunks.obj
 0002:000067c8       ?candidate_modules@?1??try_get_LocaleNameToLCID@@YAP6AKPEB_WK@ZXZ@4QBW4module_id@?A0x391cf84c@@B 00000001800427c8     libucrtd:winapi_thunks.obj
 0002:000067e8       ?candidate_modules@?1??try_get_MessageBoxA@@YAP6AHPEAUHWND__@@PEBD1I@ZXZ@4QBW4module_id@?A0x391cf84c@@B 00000001800427e8     libucrtd:winapi_thunks.obj
 0002:00006800       ?candidate_modules@?1??try_get_MessageBoxW@@YAP6AHPEAUHWND__@@PEB_W1I@ZXZ@4QBW4module_id@?A0x391cf84c@@B 0000000180042800     libucrtd:winapi_thunks.obj
 0002:00006814       ?candidate_modules@?1??try_get_AppPolicyGetProcessTerminationMethod@@YAP6AJPEAXPEAW4AppPolicyProcessTerminationMethod@@@ZXZ@4QBW4module_id@?A0x391cf84c@@B 0000000180042814     libucrtd:winapi_thunks.obj
 0002:00006840       ?candidate_modules@?1??try_get_AppPolicyGetShowDeveloperDiagnostic@@YAP6AJPEAXPEAW4AppPolicyShowDeveloperDiagnostic@@@ZXZ@4QBW4module_id@?A0x391cf84c@@B 0000000180042840     libucrtd:winapi_thunks.obj
 0002:0000686c       ?candidate_modules@?1??try_get_AppPolicyGetWindowingModel@@YAP6AJPEAXPEAW4AppPolicyWindowingModel@@@ZXZ@4QBW4module_id@?A0x391cf84c@@B 000000018004286c     libucrtd:winapi_thunks.obj
 0002:000079a0       $cppxdata$?fp_format_a@@YAHQEBNPEAD_KQEAD2H_NIQEAU__crt_locale_pointers@@W4__acrt_rounding_mode@@@Z 00000001800439a0     libucrtd:cvt.obj
 0002:000079d0       ?strings@?1??fp_format_nan_or_infinity@@YAHW4__acrt_fp_class@@_NPEAD_K1@Z@4QAY03QEBDA 00000001800439d0     libucrtd:cvt.obj
 0002:00009080       $cppxdata$?shortsort@@YAXPEAD0_KP6AHPEBX2@Z@Z 0000000180045080     libucrtd:qsort.obj
 0002:000093c0       ?LcidToLocaleNameTable@?A0x881e4c05@@3QBULcidToLocaleName@1@B 00000001800453c0     libucrtd:lcidtoname_downlevel.obj
 0002:0000ae20       ?LocaleNameToIndexTable@?A0x881e4c05@@3QBULocaleNameIndex@1@B 0000000180046e20     libucrtd:lcidtoname_downlevel.obj
 0002:0000e800       $cppxdata$?_wcstombs_l_helper@@YA_KPEADPEB_W_KPEAU__crt_locale_pointers@@@Z 000000018004a800     libucrtd:wcstombs.obj
 0002:0000e9d0       __real@433fffffffffffff    000000018004a9d0     libucrtd:fpsr.obj
 0002:0000e9d8       __real@c33fffffffffffff    000000018004a9d8     libucrtd:fpsr.obj
 0002:0000ed50       __real_ninf                000000018004ad50     libucrtd:log10.obj
 0002:0000ed60       __real_inf                 000000018004ad60     libucrtd:log10.obj
 0002:0000ed70       __real_neg_qnan            000000018004ad70     libucrtd:log10.obj
 0002:0000ed80       __real_qnanbit             000000018004ad80     libucrtd:log10.obj
 0002:0000ed90       __int_1023                 000000018004ad90     libucrtd:log10.obj
 0002:0000eda0       __mask_001                 000000018004ada0     libucrtd:log10.obj
 0002:0000edb0       __mask_mant                000000018004adb0     libucrtd:log10.obj
 0002:0000edc0       __mask_mant_top8           000000018004adc0     libucrtd:log10.obj
 0002:0000edd0       __mask_mant9               000000018004add0     libucrtd:log10.obj
 0002:0000ede0       __real_log10_e             000000018004ade0     libucrtd:log10.obj
 0002:0000edf0       __real_log10_e_lead        000000018004adf0     libucrtd:log10.obj
 0002:0000ee00       __real_log10_e_tail        000000018004ae00     libucrtd:log10.obj
 0002:0000ee10       __real_log10_2_lead        000000018004ae10     libucrtd:log10.obj
 0002:0000ee20       __real_log10_2_tail        000000018004ae20     libucrtd:log10.obj
 0002:0000ee30       __real_two                 000000018004ae30     libucrtd:log10.obj
 0002:0000ee40       __real_one                 000000018004ae40     libucrtd:log10.obj
 0002:0000ee50       __real_half                000000018004ae50     libucrtd:log10.obj
 0002:0000ee60       __mask_100                 000000018004ae60     libucrtd:log10.obj
 0002:0000ee70       __real_1_over_512          000000018004ae70     libucrtd:log10.obj
 0002:0000ee80       __real_1_over_2            000000018004ae80     libucrtd:log10.obj
 0002:0000ee90       __real_1_over_3            000000018004ae90     libucrtd:log10.obj
 0002:0000eea0       __real_1_over_4            000000018004aea0     libucrtd:log10.obj
 0002:0000eeb0       __real_1_over_5            000000018004aeb0     libucrtd:log10.obj
 0002:0000eec0       __real_1_over_6            000000018004aec0     libucrtd:log10.obj
 0002:0000eed0       __real_neg_1023            000000018004aed0     libucrtd:log10.obj
 0002:0000eee0       __mask_2045                000000018004aee0     libucrtd:log10.obj
 0002:0000eef0       __real_threshold           000000018004aef0     libucrtd:log10.obj
 0002:0000ef00       __real_near_one_lt         000000018004af00     libucrtd:log10.obj
 0002:0000ef10       __real_near_one_gt         000000018004af10     libucrtd:log10.obj
 0002:0000ef20       __real_min_norm            000000018004af20     libucrtd:log10.obj
 0002:0000ef30       __real_notsign             000000018004af30     libucrtd:log10.obj
 0002:0000ef40       __real_ca1                 000000018004af40     libucrtd:log10.obj
 0002:0000ef50       __real_ca2                 000000018004af50     libucrtd:log10.obj
 0002:0000ef60       __real_ca3                 000000018004af60     libucrtd:log10.obj
 0002:0000ef70       __real_ca4                 000000018004af70     libucrtd:log10.obj
 0002:0000ef80       __mask_lower               000000018004af80     libucrtd:log10.obj
 0002:0000ef90       __flag_x_zero              000000018004af90     libucrtd:log10.obj
 0002:0000ef94       __flag_x_neg               000000018004af94     libucrtd:log10.obj
 0002:0000ef98       __flag_x_nan               000000018004af98     libucrtd:log10.obj
 0002:00011180       $unwind$?GetController@@YAPEAUgame_controller_input@@PEAUgame_input@@H@Z 000000018004d180     handmade.obj
 0002:00011180       $unwind$?siglookup@@YAPEAU__crt_signal_action_t@@HQEAU1@@Z 000000018004d180     libucrtd:signal.obj
 0002:00011180       $unwind$??R<lambda_cfae5a0e6efa98e0d1aa03c4cec8f74e>@@QEBA_ND@Z 000000018004d180     libucrtd:argv_wildcards.obj
 0002:00011180       $unwind$?set_flags@__crt_stdio_stream@@QEBA_NJ@Z 000000018004d180     libucrtd:_sftbuf.obj
 0002:00011180       $unwind$?unset_flags@__crt_stdio_stream@@QEBA_NJ@Z 000000018004d180     libucrtd:_sftbuf.obj
 0002:00011180       $unwind$?has_flag@?$output_processor@DV?$string_output_adapter@D@__crt_stdio_output@@V?$format_validation_base@DV?$string_output_adapter@D@__crt_stdio_output@@@2@@__crt_stdio_output@@AEBA_NI@Z 000000018004d180     libucrtd:output.obj
 0002:00011180       $unwind$?has_flag@?$output_processor@_WV?$string_output_adapter@_W@__crt_stdio_output@@V?$format_validation_base@_WV?$string_output_adapter@_W@__crt_stdio_output@@@2@@__crt_stdio_output@@AEBA_NI@Z 000000018004d180     libucrtd:output.obj
 0002:00011188       $unwind$?PushSize_@@YAPEAXPEAUmemory_arena@@_K@Z 000000018004d188     handmade.obj
 0002:00011190       $unwind$?GetTileValue@@YAIPEAUtile_map@@III@Z 000000018004d190     handmade.obj
 0002:000111a4       $unwind$?GetTileValue@@YAIPEAUtile_map@@Utile_map_position@@@Z 000000018004d1a4     handmade.obj
 0002:000111ac       $unwind$?IsTileMapPointEmpty@@YAHPEAUtile_map@@Utile_map_position@@@Z 000000018004d1ac     handmade.obj
 0002:000111b4       $unwind$?SetTileValue@@YAXPEAUmemory_arena@@PEAUtile_map@@IIII@Z 000000018004d1b4     handmade.obj
 0002:000111c8       $unwind$?AreOnSameTile@@YAHPEAUtile_map_position@@0@Z 000000018004d1c8     handmade.obj
 0002:000111d0       $unwind$?GameOutputSound@@YAXPEAUthread_context@@PEAUgame_state@@PEAUgame_sound_output_buffer@@H@Z 000000018004d1d0     handmade.obj
 0002:000111d8       $unwind$?DrawRectangle@@YAXPEAUgame_offscreen_buffer@@MMMMMMM@Z 000000018004d1d8     handmade.obj
 0002:000111e0       $unwind$?DrawBitmap@@YAXPEAUgame_offscreen_buffer@@PEAUloaded_bitmap@@MMHH@Z 000000018004d1e0     handmade.obj
 0002:000111e8       $unwind$?DEBUGLoadBMP@@YA?AUloaded_bitmap@@PEAUthread_context@@P6A?AUdebug_read_file_result@@0PEAD@Z1@Z 000000018004d1e8     handmade.obj
 0002:000111f4       $unwind$?GetEntity@@YAPEAUentity@@PEAUgame_state@@I@Z 000000018004d1f4     handmade.obj
 0002:000111fc       $unwind$?AddEntity@@YAIPEAUgame_state@@@Z 000000018004d1fc     handmade.obj
 0002:00011210       $unwind$?MovePlayer@@YAXPEAUgame_state@@PEAUentity@@MUv2@@@Z 000000018004d210     handmade.obj
 0002:00011224       $unwind$GameUpdateAndRender 000000018004d224     handmade.obj
 0002:00011238       $unwind$GameGetSoundSamples 000000018004d238     handmade.obj
 0002:00011240       $unwind$??Xv2@@QEAAAEAU0@M@Z 000000018004d240     handmade.obj
 0002:00011248       $unwind$??Yv2@@QEAAAEAU0@U0@@Z 000000018004d248     handmade.obj
 0002:00011248       $unwind$?find_pe_section@@YAPEAU_IMAGE_SECTION_HEADER@@QEAE_K@Z 000000018004d248     LIBCMTD:utility.obj
 0002:00011248       $unwind$?_CallMemberFunction0@@YAXQEAX0@Z 000000018004d248     libvcruntimed:ehhelpers.obj
 0002:00011248       $unwind$?StateFromControlPc@__FrameHandler3@@SAHPEBU_s_FuncInfo@@PEAU_xDISPATCHER_CONTEXT@@@Z 000000018004d248     libvcruntimed:ehstate.obj
 0002:00011248       $unwind$??8type_info@@QEBA_NAEBV0@@Z 000000018004d248     libvcruntimed:frame.obj
 0002:00011248       $unwind$??9iterator@HandlerMap@__FrameHandler3@@QEBA_NAEBV012@@Z 000000018004d248     libvcruntimed:frame.obj
 0002:00011248       $unwind$?ExecutionInCatch@__FrameHandler3@@SA_NPEAU_xDISPATCHER_CONTEXT@@PEBU_s_FuncInfo@@@Z 000000018004d248     libvcruntimed:risctrnsctrl.obj
 0002:00011248       $unwind$_CreateFrameInfo   000000018004d248     libvcruntimed:risctrnsctrl.obj
 0002:00011248       $unwind$?try_get_first_available_module@@YAPEAUHINSTANCE__@@QEBW4module_id@?A0x84e3c32f@@0@Z 000000018004d248     libvcruntimed:winapi_downlevel.obj
 0002:00011248       $unwind$?is_space@__crt_strtox@@YA_N_WPEAU__crt_locale_pointers@@@Z 000000018004d248     libucrtd:atox.obj
 0002:00011248       $unwind$??0big_integer@__crt_strtox@@QEAA@AEBU01@@Z 000000018004d248     libucrtd:cfout.obj
 0002:00011248       $unwind$??4big_integer@__crt_strtox@@QEAAAEAU01@AEBU01@@Z 000000018004d248     libucrtd:cfout.obj
 0002:00011248       $unwind$??9__crt_strtox@@YA_NAEBUbig_integer@0@0@Z 000000018004d248     libucrtd:cfout.obj
 0002:00011248       $unwind$iswctype           000000018004d248     libucrtd:iswctype.obj
 0002:00011248       $unwind$_realloc_base      000000018004d248     libucrtd:realloc_base.obj
 0002:00011248       $unwind$?allocate@?$__crt_win32_buffer@DU__crt_win32_buffer_no_resizing@@@@QEAAH_K@Z 000000018004d248     libucrtd:getmodulefilenamea.obj
 0002:00011248       $unwind$??$uninitialize@V<lambda_af27fe6ede5d83bbdbd622796c194e9c>@@@?$dual_state_global@PEAU__crt_multibyte_data@@@__crt_state_management@@QEAAX$$QEAV<lambda_af27fe6ede5d83bbdbd622796c194e9c>@@@Z 000000018004d248     libucrtd:initialization.obj
 0002:00011248       $unwind$__acrt_execute_uninitializers 000000018004d248     libucrtd:shared_initialization.obj
 0002:00011248       $unwind$?try_get_first_available_module@@YAPEAUHINSTANCE__@@QEBW4module_id@?A0x391cf84c@@0@Z 000000018004d248     libucrtd:winapi_thunks.obj
 0002:00011248       $unwind$?free_crt_array_internal@@YAXQEAPEBX_K@Z 000000018004d248     libucrtd:inittime.obj
 0002:00011248       $unwind$_updatetlocinfoEx_nolock 000000018004d248     libucrtd:locale_refcounting.obj
 0002:00011248       $unwind$??$uninitialize@V<lambda_363eea9039da1e8169e2d060c7fe5cbc>@@@?$dual_state_global@PEAU__crt_locale_data@@@__crt_state_management@@QEAAX$$QEAV<lambda_363eea9039da1e8169e2d060c7fe5cbc>@@@Z 000000018004d248     libucrtd:wsetlocale.obj
 0002:00011248       $unwind$??$initialize_from_array@$$BY10BAA@E@?$dual_state_global@PEAE@__crt_state_management@@QEAAXAEAY10BAA@E@Z 000000018004d248     libucrtd:mbctype.obj
 0002:00011248       $unwind$??$initialize_from_array@$$BY10BAB@E@?$dual_state_global@PEAE@__crt_state_management@@QEAAXAEAY10BAB@E@Z 000000018004d248     libucrtd:mbctype.obj
 0002:00011248       $unwind$??$initialize_from_array@$$BY00Q6AXPEB_W00I_K@Z@?$dual_state_global@P6AXPEB_W00I_K@Z@__crt_state_management@@QEAAXAEAY00Q6AXPEB_W00I_K@Z@Z 000000018004d248     libucrtd:invalid_parameter.obj
 0002:00011248       $unwind$?allocate@?$__crt_win32_buffer@DU__crt_win32_buffer_internal_dynamic_resizing@@@@QEAAH_K@Z 000000018004d248     libucrtd:argv_wildcards.obj
 0002:00011248       $unwind$?allocate@?$__crt_win32_buffer@_WU__crt_win32_buffer_internal_dynamic_resizing@@@@QEAAH_K@Z 000000018004d248     libucrtd:argv_wildcards.obj
 0002:00011248       $unwind$?append@?$argument_list@D@?A0x5f5c8891@@QEAAHQEAD@Z 000000018004d248     libucrtd:argv_wildcards.obj
 0002:00011248       $unwind$?get_file_name@@YAPEADQEAV?$__crt_win32_buffer@DU__crt_win32_buffer_internal_dynamic_resizing@@@@QEA_W@Z 000000018004d248     libucrtd:argv_wildcards.obj
 0002:00011248       $unwind$?get_wide@@YAPEA_WQEAV?$__crt_win32_buffer@_WU__crt_win32_buffer_internal_dynamic_resizing@@@@QEAD@Z 000000018004d248     libucrtd:argv_wildcards.obj
 0002:00011248       $unwind$_initterm          000000018004d248     libucrtd:initterm.obj
 0002:00011248       $unwind$?common_flush_all_should_try_to_flush_stream@@YA_NV__crt_stdio_stream@@QEAH@Z 000000018004d248     libucrtd:fflush.obj
 0002:00011248       $unwind$??$extract_argument_from_va_list@U_CRT_DOUBLE@@U1@@?$standard_base@DV?$string_output_adapter@D@__crt_stdio_output@@@__crt_stdio_output@@IEAA_NAEAU_CRT_DOUBLE@@@Z 000000018004d248     libucrtd:output.obj
 0002:00011248       $unwind$??$extract_argument_from_va_list@U_CRT_DOUBLE@@U1@@?$standard_base@_WV?$string_output_adapter@_W@__crt_stdio_output@@@__crt_stdio_output@@IEAA_NAEAU_CRT_DOUBLE@@@Z 000000018004d248     libucrtd:output.obj
 0002:00011248       $unwind$?force_decimal_point@__crt_stdio_output@@YAXPEADQEAU__crt_locale_pointers@@@Z 000000018004d248     libucrtd:output.obj
 0002:00011248       $unwind$?type_case_c_tchar@?$output_processor@_WV?$string_output_adapter@_W@__crt_stdio_output@@V?$format_validation_base@_WV?$string_output_adapter@_W@__crt_stdio_output@@@2@@__crt_stdio_output@@AEAA_N_W@Z 000000018004d248     libucrtd:output.obj
 0002:00011248       $unwind$??$common_strnlen_c@$00G@@YA_KQEBG_K@Z 000000018004d248     libucrtd:strnlen.obj
 0002:00011248       $unwind$??$common_strnlen_c@$0A@E@@YA_KQEBE_K@Z 000000018004d248     libucrtd:strnlen.obj
 0002:00011248       $unwind$??$common_strnlen_c@$0A@G@@YA_KQEBG_K@Z 000000018004d248     libucrtd:strnlen.obj
 0002:00011250       $unwind$??D@YA?AUv2@@MU0@@Z 000000018004d250     handmade.obj
 0002:00011250       $unwind$??D@YA?AUv2@@U0@M@Z 000000018004d250     handmade.obj
 0002:00011258       $unwind$??G@YA?AUv2@@U0@0@Z 000000018004d258     handmade.obj
 0002:00011258       $unwind$??H@YA?AUv2@@U0@0@Z 000000018004d258     handmade.obj
 0002:00011258       $unwind$?Inner@@YAMUv2@@0@Z 000000018004d258     handmade.obj
 0002:00011258       $unwind$__AdjustPointer    000000018004d258     libvcruntimed:ehhelpers.obj
 0002:00011258       $unwind$??8iterator@HandlerMap@__FrameHandler3@@QEBA_NAEBV012@@Z 000000018004d258     libvcruntimed:frame.obj
 0002:00011258       $unwind$??Miterator@TryBlockMap@__FrameHandler3@@QEBA_NAEBV012@@Z 000000018004d258     libvcruntimed:frame.obj
 0002:00011258       $unwind$?store_first_surrogate@?A0xc60ee810@@YAX_SPEAU_Mbstatet@@@Z 000000018004d258     libucrtd:c16rtomb.obj
 0002:00011258       $unwind$??8__crt_strtox@@YA_NAEBUbig_integer@0@0@Z 000000018004d258     libucrtd:cfout.obj
 0002:00011258       $unwind$?wcsncnt@@YA_KPEB_W_K@Z 000000018004d258     libucrtd:wcstombs.obj
 0002:00011258       $unwind$?initialize@?$dual_state_global@P6AH_K@Z@__crt_state_management@@QEAAXQ6AH_K@Z@Z 000000018004d258     libucrtd:new_handler.obj
 0002:00011258       $unwind$?initialize@?$dual_state_global@PEAU__crt_locale_data@@@__crt_state_management@@QEAAXQEAU__crt_locale_data@@@Z 000000018004d258     libucrtd:initialization.obj
 0002:00011258       $unwind$?initialize@?$dual_state_global@PEAU__crt_multibyte_data@@@__crt_state_management@@QEAAXQEAU__crt_multibyte_data@@@Z 000000018004d258     libucrtd:mbctype.obj
 0002:00011258       $unwind$?initialize@?$dual_state_global@P6AXH@Z@__crt_state_management@@QEAAXQ6AXH@Z@Z 000000018004d258     libucrtd:signal.obj
 0002:00011258       $unwind$__strncnt          000000018004d258     libucrtd:strncnt.obj
 0002:00011258       $unwind$??$last_reached@$0A@@@YA_NQEBX0@Z 000000018004d258     libucrtd:strnlen.obj
 0002:00011258       $unwind$?compare_equals@?$__crt_simd_traits@$0A@E@@SA?AT__m128i@@T2@0@Z 000000018004d258     libucrtd:strnlen.obj
 0002:00011258       $unwind$?compare_equals@?$__crt_simd_traits@$0A@G@@SA?AT__m128i@@T2@0@Z 000000018004d258     libucrtd:strnlen.obj
 0002:00011258       $unwind$?initialize@?$dual_state_global@P6AHPEAU_exception@@@Z@__crt_state_management@@QEAAXQ6AHPEAU_exception@@@Z@Z 000000018004d258     libucrtd:matherr.obj
 0002:00011260       $unwind$?AbsoluteValue@@YAMM@Z 000000018004d260     handmade.obj
 0002:00011260       $unwind$?Square@@YAMM@Z    000000018004d260     handmade.obj
 0002:00011268       $unwind$?LengthSq@@YAMUv2@@@Z 000000018004d268     handmade.obj
 0002:00011268       $unwind$__report_gsfailure 000000018004d268     LIBCMTD:gs_report.obj
 0002:00011268       $unwind$_IsExceptionObjectToBeDestroyed 000000018004d268     libvcruntimed:ehhelpers.obj
 0002:00011268       $unwind$?getESTypes@__FrameHandler3@@SAPEBU_s_ESTypeList@@PEBU_s_FuncInfo@@@Z 000000018004d268     libvcruntimed:frame.obj
 0002:00011268       $unwind$__except_validate_context_record 000000018004d268     libvcruntimed:jbcxrval.obj
 0002:00011268       $unwind$?release@?$__crt_unique_heap_ptr@U__vcrt_ptd@@U__crt_internal_free_policy@@@@QEAAXXZ 000000018004d268     libvcruntimed:per_thread_data.obj
 0002:00011268       $unwind$__vcrt_freeptd     000000018004d268     libvcruntimed:per_thread_data.obj
 0002:00011268       $unwind$_FindAndUnlinkFrame 000000018004d268     libvcruntimed:risctrnsctrl.obj
 0002:00011268       $unwind$?release@?$__crt_unique_heap_ptr@DU__crt_public_free_policy@@@@QEAAXXZ 000000018004d268     libvcruntimed:std_exception.obj
 0002:00011268       $unwind$?release@?$__crt_unique_heap_ptr@DU__crt_internal_free_policy@@@@QEAAXXZ 000000018004d268     libvcruntimed:std_type_info.obj
 0002:00011268       $unwind$__std_type_info_destroy_list 000000018004d268     libvcruntimed:std_type_info.obj
 0002:00011268       $unwind$?try_load_library_from_system_directory@@YAPEAUHINSTANCE__@@QEB_W@Z 000000018004d268     libvcruntimed:winapi_downlevel.obj
 0002:00011268       $unwind$?parse_digit@__crt_strtox@@YAI_W@Z 000000018004d268     libucrtd:atox.obj
 0002:00011268       $unwind$?is_block_an_aligned_allocation@@YA_NQEBX@Z 000000018004d268     libucrtd:debug_heap.obj
 0002:00011268       $unwind$free               000000018004d268     libucrtd:free.obj
 0002:00011268       $unwind$_free_base         000000018004d268     libucrtd:free_base.obj
 0002:00011268       $unwind$_callnewh          000000018004d268     libucrtd:new_handler.obj
 0002:00011268       $unwind$??R<lambda_e157831efee4ea0afb0a2ace5dd5fd0d>@@QEBAXXZ 000000018004d268     libucrtd:per_thread_data.obj
 0002:00011268       $unwind$?construct_ptd_array@@YAXQEAU__acrt_ptd@@@Z 000000018004d268     libucrtd:per_thread_data.obj
 0002:00011268       $unwind$?destroy_ptd@@YAXQEAU__acrt_ptd@@@Z 000000018004d268     libucrtd:per_thread_data.obj
 0002:00011268       $unwind$?destroy_ptd_array@@YAXQEAU__acrt_ptd@@@Z 000000018004d268     libucrtd:per_thread_data.obj
 0002:00011268       $unwind$?release@?$__crt_unique_heap_ptr@U__acrt_ptd@@U__crt_internal_free_policy@@@@QEAAXXZ 000000018004d268     libucrtd:per_thread_data.obj
 0002:00011268       $unwind$?try_load_library_from_system_directory@@YAPEAUHINSTANCE__@@QEB_W@Z 000000018004d268     libucrtd:winapi_thunks.obj
 0002:00011268       $unwind$__acrt_AppPolicyGetProcessTerminationMethodInternal 000000018004d268     libucrtd:winapi_thunks.obj
 0002:00011268       $unwind$__acrt_AppPolicyGetShowDeveloperDiagnosticInternal 000000018004d268     libucrtd:winapi_thunks.obj
 0002:00011268       $unwind$__acrt_AppPolicyGetWindowingModelInternal 000000018004d268     libucrtd:winapi_thunks.obj
 0002:00011268       $unwind$__acrt_FlsAlloc    000000018004d268     libucrtd:winapi_thunks.obj
 0002:00011268       $unwind$__acrt_DownlevelLocaleNameToLCID 000000018004d268     libucrtd:lcidtoname_downlevel.obj
 0002:00011268       $unwind$__acrt_add_locale_ref 000000018004d268     libucrtd:locale_refcounting.obj
 0002:00011268       $unwind$__acrt_release_locale_ref 000000018004d268     libucrtd:locale_refcounting.obj
 0002:00011268       $unwind$??R<lambda_4e7105787b7b0e0227fbf2b2d883fa65>@@QEBAHXZ 000000018004d268     libucrtd:close.obj
 0002:00011268       $unwind$?release@?$__crt_unique_heap_ptr@U__crt_lowio_handle_data@@U__crt_internal_free_policy@@@@QEAAXXZ 000000018004d268     libucrtd:osfinfo.obj
 0002:00011268       $unwind$??R<lambda_bd5a608237428601b7e45fbdc72b1ae8>@@QEBAXXZ 000000018004d268     libucrtd:mbctype.obj
 0002:00011268       $unwind$?release@?$__crt_unique_heap_ptr@U__crt_multibyte_data@@U__crt_internal_free_policy@@@@QEAAXXZ 000000018004d268     libucrtd:mbctype.obj
 0002:00011268       $unwind$__acrt_initialize_invalid_parameter_handler 000000018004d268     libucrtd:invalid_parameter.obj
 0002:00011268       $unwind$??R<lambda_df1553121bfa390f1154bd84936f2730>@@QEBAHXZ 000000018004d268     libucrtd:argv_parsing.obj
 0002:00011268       $unwind$?release@?$__crt_unique_heap_ptr@EU__crt_internal_free_policy@@@@QEAAXXZ 000000018004d268     libucrtd:argv_parsing.obj
 0002:00011268       $unwind$?release@?$__crt_unique_heap_ptr@PEADU__crt_internal_free_policy@@@@QEAAXXZ 000000018004d268     libucrtd:argv_parsing.obj
 0002:00011268       $unwind$??1?$argument_list@D@?A0x5f5c8891@@QEAA@XZ 000000018004d268     libucrtd:argv_wildcards.obj
 0002:00011268       $unwind$?close@__crt_findfile_traits@@SA_NPEAX@Z 000000018004d268     libucrtd:argv_wildcards.obj
 0002:00011268       $unwind$?close@__crt_hmodule_traits@@SA_NPEAUHINSTANCE__@@@Z 000000018004d268     libucrtd:exit.obj
 0002:00011268       $unwind$_execute_onexit_table 000000018004d268     libucrtd:onexit.obj
 0002:00011268       $unwind$_initialize_onexit_table 000000018004d268     libucrtd:onexit.obj
 0002:00011268       $unwind$?release@?$__crt_unique_heap_ptr@PEAU__crt_stdio_stream_data@@U__crt_internal_free_policy@@@@QEAAXXZ 000000018004d268     libucrtd:_file.obj
 0002:00011268       $unwind$_lock_file         000000018004d268     libucrtd:_file.obj
 0002:00011268       $unwind$_unlock_file       000000018004d268     libucrtd:_file.obj
 0002:00011268       $unwind$?is_in_use@__crt_stdio_stream@@QEBA_NXZ 000000018004d268     libucrtd:closeall.obj
 0002:00011268       $unwind$?__acrt_stdio_reset_buffer@@YAXV__crt_stdio_stream@@@Z 000000018004d268     libucrtd:fflush.obj
 0002:00011268       $unwind$_fflush_nolock     000000018004d268     libucrtd:fflush.obj
 0002:00011268       $unwind$??$scratch_data@D@formatting_buffer@__crt_stdio_output@@QEAAPEADXZ 000000018004d268     libucrtd:output.obj
 0002:00011268       $unwind$?is_string_backed@__crt_stdio_stream@@QEBA_NXZ 000000018004d268     libucrtd:output.obj
 0002:00011268       $unwind$?state_case_flag@?$output_processor@DV?$string_output_adapter@D@__crt_stdio_output@@V?$format_validation_base@DV?$string_output_adapter@D@__crt_stdio_output@@@2@@__crt_stdio_output@@AEAA_NXZ 000000018004d268     libucrtd:output.obj
 0002:00011268       $unwind$?state_case_flag@?$output_processor@_WV?$string_output_adapter@_W@__crt_stdio_output@@V?$format_validation_base@_WV?$string_output_adapter@_W@__crt_stdio_output@@@2@@__crt_stdio_output@@AEAA_NXZ 000000018004d268     libucrtd:output.obj
 0002:00011268       $unwind$?type_case_Z@?$output_processor@DV?$string_output_adapter@D@__crt_stdio_output@@V?$format_validation_base@DV?$string_output_adapter@D@__crt_stdio_output@@@2@@__crt_stdio_output@@AEAA_NXZ 000000018004d268     libucrtd:output.obj
 0002:00011268       $unwind$?type_case_Z@?$output_processor@_WV?$string_output_adapter@_W@__crt_stdio_output@@V?$format_validation_base@_WV?$string_output_adapter@_W@__crt_stdio_output@@@2@@__crt_stdio_output@@AEAA_NXZ 000000018004d268     libucrtd:output.obj
 0002:00011268       $unwind$?type_case_s@?$output_processor@DV?$string_output_adapter@D@__crt_stdio_output@@V?$format_validation_base@DV?$string_output_adapter@D@__crt_stdio_output@@@2@@__crt_stdio_output@@AEAA_NXZ 000000018004d268     libucrtd:output.obj
 0002:00011268       $unwind$?type_case_s@?$output_processor@_WV?$string_output_adapter@_W@__crt_stdio_output@@V?$format_validation_base@_WV?$string_output_adapter@_W@__crt_stdio_output@@@2@@__crt_stdio_output@@AEAA_NXZ 000000018004d268     libucrtd:output.obj
 0002:00011268       $unwind$_set_statfp        000000018004d268     libucrtd:fpctrl.obj
 0002:00011268       $unwind$??$translate_control_exception_mask@W4__acrt_fenv_abstract_control@@W4__acrt_fenv_machine_sse_control@@@@YA?AW4__acrt_fenv_abstract_control@@W4__acrt_fenv_machine_sse_control@@@Z 000000018004d268     libucrtd:_fenvutils.obj
 0002:00011268       $unwind$??$translate_control_rounding_control@W4__acrt_fenv_abstract_control@@W4__acrt_fenv_machine_sse_control@@@@YA?AW4__acrt_fenv_abstract_control@@W4__acrt_fenv_machine_sse_control@@@Z 000000018004d268     libucrtd:_fenvutils.obj
 0002:00011268       $unwind$?set_machine_sse_control@@YAXW4__acrt_fenv_machine_sse_control@@@Z 000000018004d268     libucrtd:_fenvutils.obj
 0002:00011268       $unwind$?to_abstract_control@@YA?AW4__acrt_fenv_abstract_control@@W4__acrt_fenv_machine_sse_control@@@Z 000000018004d268     libucrtd:_fenvutils.obj
 0002:00011268       $unwind$?translate_control_denormal_control_from_sse@@YA?AW4__acrt_fenv_abstract_control@@W4__acrt_fenv_machine_sse_control@@@Z 000000018004d268     libucrtd:_fenvutils.obj
 0002:00011268       $unwind$feholdexcept       000000018004d268     libucrtd:feholdexcept.obj
 0002:00011268       $unwind$__acrt_invoke_user_matherr 000000018004d268     libucrtd:matherr.obj
 0002:00011270       $unwind$?RoundReal32ToInt32@@YAHM@Z 000000018004d270     handmade.obj
 0002:00011270       $unwind$?RoundReal32ToUInt32@@YAIM@Z 000000018004d270     handmade.obj
 0002:00011270       $unwind$?SquareRoot@@YAMM@Z 000000018004d270     handmade.obj
 0002:00011270       $unwind$roundf             000000018004d270     libucrtd:roundf.obj
 0002:00011278       $unwind$?FindLeastSignificantSetBit@@YA?AUbit_scan_result@@I@Z 000000018004d278     handmade.obj
 0002:00011280       $unwind$?GetTileChunk@@YAPEAUtile_chunk@@PEAUtile_map@@III@Z 000000018004d280     handmade.obj
 0002:00011280       $unwind$?add_multiply_carry@__crt_strtox@@YAIAEAIIII@Z 000000018004d280     libucrtd:cfout.obj
 0002:00011288       $unwind$?GetTileValueUnchecked@@YAIPEAUtile_map@@PEAUtile_chunk@@II@Z 000000018004d288     handmade.obj
 0002:00011290       $unwind$?GetTileValue@@YAIPEAUtile_map@@PEAUtile_chunk@@II@Z 000000018004d290     handmade.obj
 0002:00011290       $unwind$?SetTileValue@@YAXPEAUtile_map@@PEAUtile_chunk@@III@Z 000000018004d290     handmade.obj
 0002:00011290       $unwind$?SetUnwindTryBlock@__FrameHandler3@@SAXPEA_KPEAU_xDISPATCHER_CONTEXT@@PEBU_s_FuncInfo@@H@Z 000000018004d290     libvcruntimed:ehstate.obj
 0002:00011290       $unwind$?_CallMemberFunction2@@YAXQEAX00H@Z 000000018004d290     libvcruntimed:frame.obj
 0002:00011290       $unwind$?__mbrtowc_utf8@__crt_mbstring@@YA_KPEA_WPEBD_KPEAU_Mbstatet@@@Z 000000018004d290     libucrtd:mbrtowc.obj
 0002:00011290       $unwind$mbstowcs_s         000000018004d290     libucrtd:mbstowcs.obj
 0002:00011290       $unwind$wcstombs_s         000000018004d290     libucrtd:wcstombs.obj
 0002:00011290       $unwind$_calloc_dbg        000000018004d290     libucrtd:debug_heap.obj
 0002:00011290       $unwind$_vsnprintf_s       000000018004d290     libucrtd:dbgrptt.obj
 0002:00011290       $unwind$??$?0AEBV?$string_output_adapter@D@__crt_stdio_output@@AEB_KAEBQEBDAEBQEAU__crt_locale_pointers@@AEBQEAD@?$format_validation_base@DV?$string_output_adapter@D@__crt_stdio_output@@@__crt_stdio_output@@IEAA@AEBV?$string_output_adapter@D@1@AEB_KAEBQEBDAEBQEAU__crt_locale_pointers@@AEBQEAD@Z 000000018004d290     libucrtd:output.obj
 0002:00011290       $unwind$??$?0AEBV?$string_output_adapter@D@__crt_stdio_output@@AEB_KAEBQEBDAEBQEAU__crt_locale_pointers@@AEBQEAD@?$standard_base@DV?$string_output_adapter@D@__crt_stdio_output@@@__crt_stdio_output@@IEAA@AEBV?$string_output_adapter@D@1@AEB_KAEBQEBDAEBQEAU__crt_locale_pointers@@AEBQEAD@Z 000000018004d290     libucrtd:output.obj
 0002:00011290       $unwind$??$?0AEBV?$string_output_adapter@_W@__crt_stdio_output@@AEB_KAEBQEB_WAEBQEAU__crt_locale_pointers@@AEBQEAD@?$format_validation_base@_WV?$string_output_adapter@_W@__crt_stdio_output@@@__crt_stdio_output@@IEAA@AEBV?$string_output_adapter@_W@1@AEB_KAEBQEB_WAEBQEAU__crt_locale_pointers@@AEBQEAD@Z 000000018004d290     libucrtd:output.obj
 0002:00011290       $unwind$??$?0AEBV?$string_output_adapter@_W@__crt_stdio_output@@AEB_KAEBQEB_WAEBQEAU__crt_locale_pointers@@AEBQEAD@?$standard_base@_WV?$string_output_adapter@_W@__crt_stdio_output@@@__crt_stdio_output@@IEAA@AEBV?$string_output_adapter@_W@1@AEB_KAEBQEB_WAEBQEAU__crt_locale_pointers@@AEBQEAD@Z 000000018004d290     libucrtd:output.obj
 0002:00011290       $unwind$??0?$output_processor@DV?$string_output_adapter@D@__crt_stdio_output@@V?$format_validation_base@DV?$string_output_adapter@D@__crt_stdio_output@@@2@@__crt_stdio_output@@QEAA@AEBV?$string_output_adapter@D@1@_KQEBDQEAU__crt_locale_pointers@@QEAD@Z 000000018004d290     libucrtd:output.obj
 0002:00011290       $unwind$??0?$output_processor@_WV?$string_output_adapter@_W@__crt_stdio_output@@V?$format_validation_base@_WV?$string_output_adapter@_W@__crt_stdio_output@@@2@@__crt_stdio_output@@QEAA@AEBV?$string_output_adapter@_W@1@_KQEB_WQEAU__crt_locale_pointers@@QEAD@Z 000000018004d290     libucrtd:output.obj
 0002:00011290       $unwind$__stdio_common_vsprintf_s 000000018004d290     libucrtd:output.obj
 0002:00011290       $unwind$??$__acrt_fenv_translate_bit@W4__acrt_fenv_abstract_control@@W4__acrt_fenv_machine_sse_control@@@@YA?AW4__acrt_fenv_abstract_control@@W4__acrt_fenv_machine_sse_control@@0W40@1@Z 000000018004d290     libucrtd:_fenvutils.obj
 0002:00011290       $unwind$??$__acrt_fenv_translate_bit@W4__acrt_fenv_machine_sse_control@@W4__acrt_fenv_abstract_control@@@@YA?AW4__acrt_fenv_machine_sse_control@@W4__acrt_fenv_abstract_control@@0W40@1@Z 000000018004d290     libucrtd:_fenvutils.obj
 0002:00011298       $unwind$?GetChunkPositionFor@@YA?AUtile_chunk_position@@PEAUtile_map@@III@Z 000000018004d298     handmade.obj
 0002:000112ac       $unwind$?RecanonicalizeCoord@@YAXPEAUtile_map@@PEAIPEAM@Z 000000018004d2ac     handmade.obj
 0002:000112ac       $unwind$?GetUnwindTryBlock@__FrameHandler3@@SAHPEA_KPEAU_xDISPATCHER_CONTEXT@@PEBU_s_FuncInfo@@@Z 000000018004d2ac     libvcruntimed:ehstate.obj
 0002:000112ac       $unwind$?StateFromIp@__FrameHandler3@@SAHPEBU_s_FuncInfo@@PEAU_xDISPATCHER_CONTEXT@@_K@Z 000000018004d2ac     libvcruntimed:ehstate.obj
 0002:000112ac       $unwind$?ExFilterRethrow@@YAHPEAU_EXCEPTION_POINTERS@@PEAUEHExceptionRecord@@PEAH@Z 000000018004d2ac     libvcruntimed:frame.obj
 0002:000112ac       $unwind$?GetHandlerSearchState@__FrameHandler3@@SAHPEA_KPEAU_xDISPATCHER_CONTEXT@@PEBU_s_FuncInfo@@@Z 000000018004d2ac     libvcruntimed:frame.obj
 0002:000112ac       $unwind$?_CallMemberFunction1@@YAXQEAX00@Z 000000018004d2ac     libvcruntimed:frame.obj
 0002:000112ac       $unwind$?try_get_proc_address_from_first_available_module@@YAPEAXQEBDQEBW4module_id@?A0x84e3c32f@@1@Z 000000018004d2ac     libvcruntimed:winapi_downlevel.obj
 0002:000112ac       $unwind$?try_get_proc_address_from_first_available_module@@YAPEAXQEBDQEBW4module_id@?A0x391cf84c@@1@Z 000000018004d2ac     libucrtd:winapi_thunks.obj
 0002:000112ac       $unwind$?common_lseek_do_seek_nolock@@YA_JQEAX_JH@Z 000000018004d2ac     libucrtd:lseek.obj
 0002:000112ac       $unwind$?allocate@__crt_win32_buffer_internal_dynamic_resizing@@SAHQEAPEAX_KAEBV__crt_win32_buffer_empty_debug_info@@@Z 000000018004d2ac     libucrtd:argv_wildcards.obj
 0002:000112ac       $unwind$?type_case_s_compute_narrow_string_length@?$output_processor@_WV?$string_output_adapter@_W@__crt_stdio_output@@V?$format_validation_base@_WV?$string_output_adapter@_W@__crt_stdio_output@@@2@@__crt_stdio_output@@AEBAHH_W@Z 000000018004d2ac     libucrtd:output.obj
 0002:000112b4       $unwind$?RecanonicalizePosition@@YA?AUtile_map_position@@PEAUtile_map@@U1@@Z 000000018004d2b4     handmade.obj
 0002:000112c8       $unwind$?Subtract@@YA?AUtile_map_difference@@PEAUtile_map@@PEAUtile_map_position@@1@Z 000000018004d2c8     handmade.obj
 0002:000112dc       $unwind$__GSHandlerCheckCommon 000000018004d2dc     LIBCMTD:gshandler.obj
 0002:000112dc       $unwind$__ascii_wcsnicmp   000000018004d2dc     libucrtd:wcsnicmp.obj
 0002:000112e4       $unwind$__GSHandlerCheck   000000018004d2e4     LIBCMTD:gshandler.obj
 0002:000112e4       $unwind$?BuildCatchObject@__FrameHandler3@@SAXPEAUEHExceptionRecord@@PEAXPEBU_s_HandlerType@@PEBU_s_CatchableType@@@Z 000000018004d2e4     libvcruntimed:frame.obj
 0002:000112e4       $unwind$?shift_bytes@@YAXQEAD_K0H@Z 000000018004d2e4     libucrtd:cvt.obj
 0002:000112e4       $unwind$??$message_box@$$TAEBQEB_WAEBQEB_WK@?$__crt_char_traits@_W@@SAH$$QEA$$TAEBQEB_W1$$QEAK@Z 000000018004d2e4     libucrtd:crtmbox.obj
 0002:000112e4       $unwind$??$message_box@PEAUHWND__@@AEBQEB_WAEBQEB_WAEBI@?$__crt_char_traits@_W@@SAH$$QEAPEAUHWND__@@AEBQEB_W1AEBI@Z 000000018004d2e4     libucrtd:crtmbox.obj
 0002:000112e4       $unwind$_invoke_watson     000000018004d2e4     libucrtd:invalid_parameter.obj
 0002:000112e4       $unwind$??$tcsncpy_s@AEAPEAD_KAEAPEADAEB_K@?$__crt_char_traits@D@@SAHAEAPEAD$$QEA_K0AEB_K@Z 000000018004d2e4     libucrtd:argv_wildcards.obj
 0002:000112e4       $unwind$??$tcsncpy_s@PEADAEB_KAEBQEBDAEB_K@?$__crt_char_traits@D@@SAH$$QEAPEADAEB_KAEBQEBD1@Z 000000018004d2e4     libucrtd:argv_wildcards.obj
 0002:000112e4       $unwind$??$tcsncpy_s@PEAD_KAEBQEBDAEB_K@?$__crt_char_traits@D@@SAH$$QEAPEAD$$QEA_KAEBQEBDAEB_K@Z 000000018004d2e4     libucrtd:argv_wildcards.obj
 0002:000112e4       $unwind$??0?$output_adapter_data@DV?$string_output_adapter@D@__crt_stdio_output@@@__crt_stdio_output@@IEAA@AEBV?$string_output_adapter@D@1@_KQEBDQEAU__crt_locale_pointers@@QEAD@Z 000000018004d2e4     libucrtd:output.obj
 0002:000112e4       $unwind$??0?$output_adapter_data@_WV?$string_output_adapter@_W@__crt_stdio_output@@@__crt_stdio_output@@IEAA@AEBV?$string_output_adapter@_W@1@_KQEB_WQEAU__crt_locale_pointers@@QEAD@Z 000000018004d2e4     libucrtd:output.obj
 0002:000112e4       $unwind$strncpy_s          000000018004d2e4     libucrtd:strncpy_s.obj
 0002:000112e4       $unwind$wcsncpy_s          000000018004d2e4     libucrtd:wcsncpy_s.obj
 0002:000112f0       $xdatasym                  000000018004d2f0     LIBCMTD:amdsecgs.obj
 0002:000112f4       $unwind$?dllmain_crt_process_attach@@YAHQEAUHINSTANCE__@@QEAX@Z 000000018004d2f4     LIBCMTD:dll_dllmain.obj
 0002:00011314       $unwind$?fin$0@?0??dllmain_crt_process_attach@@YAHQEAUHINSTANCE__@@QEAX@Z@4HA 000000018004d314     LIBCMTD:dll_dllmain.obj
 0002:00011314       $unwind$?fin$0@?0??dllmain_crt_process_detach@@YAH_N@Z@4HA 000000018004d314     LIBCMTD:dll_dllmain.obj
 0002:00011314       $unwind$?fin$1@?0??dllmain_crt_process_detach@@YAH_N@Z@4HA 000000018004d314     LIBCMTD:dll_dllmain.obj
 0002:00011314       $unwind$_IsNonwritableInCurrentImage$filt$0 000000018004d314     LIBCMTD:pesect.obj
 0002:00011314       $unwind$__scrt_is_nonwritable_in_current_image$filt$0 000000018004d314     LIBCMTD:utility.obj
 0002:00011314       $unwind$__DestructExceptionObject$filt$0 000000018004d314     libvcruntimed:ehhelpers.obj
 0002:00011314       $unwind$?filt$0@?0???$BuildCatchObjectHelperInternal@V__FrameHandler3@@@@YAHPEAUEHExceptionRecord@@PEAXPEBU_s_HandlerType@@PEBU_s_CatchableType@@@Z@4HA 000000018004d314     libvcruntimed:frame.obj
 0002:00011314       $unwind$?filt$0@?0???$BuildCatchObjectInternal@V__FrameHandler3@@@@YAXPEAUEHExceptionRecord@@PEAXPEBU_s_HandlerType@@PEBU_s_CatchableType@@@Z@4HA 000000018004d314     libvcruntimed:frame.obj
 0002:00011314       $unwind$?filt$0@?0??CxxCallCatchBlock@__FrameHandler3@@SAPEAXPEAU_EXCEPTION_RECORD@@@Z@4HA 000000018004d314     libvcruntimed:frame.obj
 0002:00011314       $unwind$?filt$0@?0??FrameUnwindToState@__FrameHandler3@@SAXPEA_KPEAU_xDISPATCHER_CONTEXT@@PEBU_s_FuncInfo@@H@Z@4HA 000000018004d314     libvcruntimed:frame.obj
 0002:00011314       $unwind$?fin$1@?0??CxxCallCatchBlock@__FrameHandler3@@SAPEAXPEAU_EXCEPTION_RECORD@@@Z@4HA 000000018004d314     libvcruntimed:frame.obj
 0002:00011314       $unwind$?fin$1@?0??FrameUnwindToState@__FrameHandler3@@SAXPEA_KPEAU_xDISPATCHER_CONTEXT@@PEBU_s_FuncInfo@@H@Z@4HA 000000018004d314     libvcruntimed:frame.obj
 0002:00011314       $unwind$?dtor$0@?0??fp_format_a@@YAHQEBNPEAD_KQEAD2H_NIQEAU__crt_locale_pointers@@W4__acrt_rounding_mode@@@Z@4HA 000000018004d314     libucrtd:cvt.obj
 0002:00011314       $unwind$?dtor$0@?0??_wcstombs_l_helper@@YA_KPEADPEB_W_KPEAU__crt_locale_pointers@@@Z@4HA 000000018004d314     libucrtd:wcstombs.obj
 0002:00011314       $unwind$?filt$0@?0??is_bad_read_pointer@@YA_NQEBX_K@Z@4HA 000000018004d314     libucrtd:debug_heap.obj
 0002:00011314       $unwind$_free_dbg$fin$0    000000018004d314     libucrtd:debug_heap.obj
 0002:00011314       $unwind$_query_new_handler$fin$0 000000018004d314     libucrtd:new_handler.obj
 0002:00011314       $unwind$?fin$0@?0???$?RV<lambda_0ae27a3a962d80f24befdcbee591983d>@@AEAV<lambda_8d0ee55de4b1038c4002e0adecdf1839>@@V<lambda_dc504788e8f1664fe9b84e20bfb512f2>@@@?$__crt_seh_guarded_call@X@@QEAAX$$QEAV<lambda_0ae27a3a962d80f24befdcbee591983d>@@AEAV<lambda_8d0ee55de4b1038c4002e0adecdf1839>@@$$QEAV<lambda_dc504788e8f1664fe9b84e20bfb512f2>@@@Z@4HA 000000018004d314     libucrtd:per_thread_data.obj
 0002:00011314       $unwind$?fin$0@?0???$?RV<lambda_2d41944a1d46af3157314b8a01080d33>@@AEAV<lambda_8f455de75cd7d7f24b4096f044d8b9e6>@@V<lambda_aa500f224e6afead328df44964fe2772>@@@?$__crt_seh_guarded_call@X@@QEAAX$$QEAV<lambda_2d41944a1d46af3157314b8a01080d33>@@AEAV<lambda_8f455de75cd7d7f24b4096f044d8b9e6>@@$$QEAV<lambda_aa500f224e6afead328df44964fe2772>@@@Z@4HA 000000018004d314     libucrtd:per_thread_data.obj
 0002:00011314       $unwind$?fin$0@?0???$?RV<lambda_74a0ef281e44d15e1136f792f539efb3>@@AEAV<lambda_e157831efee4ea0afb0a2ace5dd5fd0d>@@V<lambda_04ddeca75b7c13fd67716e8dfcef87ee>@@@?$__crt_seh_guarded_call@X@@QEAAX$$QEAV<lambda_74a0ef281e44d15e1136f792f539efb3>@@AEAV<lambda_e157831efee4ea0afb0a2ace5dd5fd0d>@@$$QEAV<lambda_04ddeca75b7c13fd67716e8dfcef87ee>@@@Z@4HA 000000018004d314     libucrtd:per_thread_data.obj
 0002:00011314       $unwind$?fin$0@?0???$?RV<lambda_aa87e3671a710a21b5dc78c0bdf72e11>@@AEAV<lambda_92619d2358a28f41a33ba319515a20b9>@@V<lambda_6992ecaafeb10aed2b74cb1fae11a551>@@@?$__crt_seh_guarded_call@X@@QEAAX$$QEAV<lambda_aa87e3671a710a21b5dc78c0bdf72e11>@@AEAV<lambda_92619d2358a28f41a33ba319515a20b9>@@$$QEAV<lambda_6992ecaafeb10aed2b74cb1fae11a551>@@@Z@4HA 000000018004d314     libucrtd:per_thread_data.obj
 0002:00011314       $unwind$__acrt_update_thread_locale_data$fin$0 000000018004d314     libucrtd:locale_refcounting.obj
 0002:00011314       $unwind$?fin$0@?0???$?RV<lambda_410d79af7f07d98d83a3f525b3859a53>@@AEAV<lambda_3e16ef9562a7dcce91392c22ab16ea36>@@V<lambda_38119f0e861e05405d8a144b9b982f0a>@@@?$__crt_seh_guarded_call@X@@QEAAX$$QEAV<lambda_410d79af7f07d98d83a3f525b3859a53>@@AEAV<lambda_3e16ef9562a7dcce91392c22ab16ea36>@@$$QEAV<lambda_38119f0e861e05405d8a144b9b982f0a>@@@Z@4HA 000000018004d314     libucrtd:wsetlocale.obj
 0002:00011314       $unwind$?fin$0@?0???$?RV<lambda_53fc7fc888e23d815d7080162c0aeeb2>@@AEAV<lambda_4e7105787b7b0e0227fbf2b2d883fa65>@@V<lambda_8ddc48ad9d26c778cb15812d1d88fc8a>@@@?$__crt_seh_guarded_call@H@@QEAAH$$QEAV<lambda_53fc7fc888e23d815d7080162c0aeeb2>@@AEAV<lambda_4e7105787b7b0e0227fbf2b2d883fa65>@@$$QEAV<lambda_8ddc48ad9d26c778cb15812d1d88fc8a>@@@Z@4HA 000000018004d314     libucrtd:close.obj
 0002:00011314       $unwind$?fin$0@?0???$?RV<lambda_4e3dbe6921bc0b5a1a6bc6573fdc859e>@@AEAV<lambda_5533cddd4bda0037814beee657757329>@@V<lambda_47cffbaa968af5c721c38a4a6f8da44d>@@@?$__crt_seh_guarded_call@H@@QEAAH$$QEAV<lambda_4e3dbe6921bc0b5a1a6bc6573fdc859e>@@AEAV<lambda_5533cddd4bda0037814beee657757329>@@$$QEAV<lambda_47cffbaa968af5c721c38a4a6f8da44d>@@@Z@4HA 000000018004d314     libucrtd:commit.obj
 0002:00011314       $unwind$__acrt_initialize_lowio$fin$0 000000018004d314     libucrtd:ioinit.obj
 0002:00011314       $unwind$?fin$0@?0???$?RV<lambda_efa02eb69bf647d2f7ff0dd6f1103f72>@@AEAV<lambda_bd5a608237428601b7e45fbdc72b1ae8>@@V<lambda_728235dc0fc2b1f82d1fa5b3e7102d8f>@@@?$__crt_seh_guarded_call@X@@QEAAX$$QEAV<lambda_efa02eb69bf647d2f7ff0dd6f1103f72>@@AEAV<lambda_bd5a608237428601b7e45fbdc72b1ae8>@@$$QEAV<lambda_728235dc0fc2b1f82d1fa5b3e7102d8f>@@@Z@4HA 000000018004d314     libucrtd:mbctype.obj
 0002:00011314       $unwind$?fin$0@?0??update_thread_multibyte_data_internal@@YAPEAU__crt_multibyte_data@@QEAU__acrt_ptd@@QEAPEAU1@@Z@4HA 000000018004d314     libucrtd:mbctype.obj
 0002:00011314       $unwind$?fin$0@?0???$?RV<lambda_450d765d439847d4c735a33c368b5fc0>@@AEAV<lambda_44731a7d0e6d81c3e6aa82d741081786>@@V<lambda_601a2a7da3b7a96e9554ac7215c4b07c>@@@?$__crt_seh_guarded_call@P6AXH@Z@@QEAAP6AXH@Z$$QEAV<lambda_450d765d439847d4c735a33c368b5fc0>@@AEAV<lambda_44731a7d0e6d81c3e6aa82d741081786>@@$$QEAV<lambda_601a2a7da3b7a96e9554ac7215c4b07c>@@@Z@4HA 000000018004d314     libucrtd:signal.obj
 0002:00011314       $unwind$terminate$filt$0   000000018004d314     libucrtd:terminate.obj
 0002:00011314       $unwind$?filt$0@?0???R<lambda_6e4b09c48022b2350581041d5f6b0c4c>@@QEBA@XZ@4HA 000000018004d314     libucrtd:exit.obj
 0002:00011314       $unwind$?fin$0@?0???$?RV<lambda_d80eeec6fff315bfe5c115232f3240e3>@@AEAV<lambda_6e4b09c48022b2350581041d5f6b0c4c>@@V<lambda_2358e3775559c9db80273638284d5e45>@@@?$__crt_seh_guarded_call@X@@QEAAX$$QEAV<lambda_d80eeec6fff315bfe5c115232f3240e3>@@AEAV<lambda_6e4b09c48022b2350581041d5f6b0c4c>@@$$QEAV<lambda_2358e3775559c9db80273638284d5e45>@@@Z@4HA 000000018004d314     libucrtd:exit.obj
 0002:00011314       $unwind$?dtor$0@?0???R<lambda_d121dba8a4adeaf3a9819e48611155df>@@QEBAHXZ@4HA 000000018004d314     libucrtd:onexit.obj
 0002:00011314       $unwind$?fin$0@?0???$?RV<lambda_6a47f4c8fd0152770a780fc1d70204eb>@@AEAV<lambda_d121dba8a4adeaf3a9819e48611155df>@@V<lambda_6aaa2265f5b6a89667e7d7630012e97a>@@@?$__crt_seh_guarded_call@H@@QEAAH$$QEAV<lambda_6a47f4c8fd0152770a780fc1d70204eb>@@AEAV<lambda_d121dba8a4adeaf3a9819e48611155df>@@$$QEAV<lambda_6aaa2265f5b6a89667e7d7630012e97a>@@@Z@4HA 000000018004d314     libucrtd:onexit.obj
 0002:00011314       $unwind$_fcloseall$fin$0   000000018004d314     libucrtd:closeall.obj
 0002:00011314       $unwind$?fin$0@?0???$?RV<lambda_842d9ff0dc9ef11c61343bbaebe7f885>@@AEAV<lambda_c5860995281e5c4ce005b3de8f5874ee>@@V<lambda_d90129c13df834fdcbf8d2b88dafcf2d>@@@?$__crt_seh_guarded_call@X@@QEAAX$$QEAV<lambda_842d9ff0dc9ef11c61343bbaebe7f885>@@AEAV<lambda_c5860995281e5c4ce005b3de8f5874ee>@@$$QEAV<lambda_d90129c13df834fdcbf8d2b88dafcf2d>@@@Z@4HA 000000018004d314     libucrtd:fflush.obj
 0002:00011314       $unwind$?fin$0@?0???$?RV<lambda_886d6c58226a84441f68b9f2b8217b83>@@AEAV<lambda_ab61a845afdef5b7c387490eaf3616ee>@@V<lambda_f7f22ab5edc0698d5f6905b0d3f44752>@@@?$__crt_seh_guarded_call@X@@QEAAX$$QEAV<lambda_886d6c58226a84441f68b9f2b8217b83>@@AEAV<lambda_ab61a845afdef5b7c387490eaf3616ee>@@$$QEAV<lambda_f7f22ab5edc0698d5f6905b0d3f44752>@@@Z@4HA 000000018004d314     libucrtd:fflush.obj
 0002:00011314       $unwind$?dtor$0@?0??shortsort@@YAXPEAD0_KP6AHPEBX2@Z@Z@4HA 000000018004d314     libucrtd:qsort.obj
 0002:00011314       $unwind$_ctrlfp$filt$0     000000018004d314     libucrtd:fpctrl.obj
 0002:0001131c       $unwind$?dllmain_crt_process_detach@@YAH_N@Z 000000018004d31c     LIBCMTD:dll_dllmain.obj
 0002:0001134c       $unwind$?dllmain_crt_dispatch@@YAHQEAUHINSTANCE__@@KQEAX@Z 000000018004d34c     LIBCMTD:dll_dllmain.obj
 0002:0001134c       $unwind$?dllmain_raw@@YAHQEAUHINSTANCE__@@KQEAX@Z 000000018004d34c     LIBCMTD:dll_dllmain.obj
 0002:0001134c       $unwind$__acrt_InitializeCriticalSectionEx 000000018004d34c     libucrtd:winapi_thunks.obj
 0002:00011354       $unwind$?dllmain_dispatch@@YAHQEAUHINSTANCE__@@KQEAX@Z 000000018004d354     LIBCMTD:dll_dllmain.obj
 0002:00011374       $unwind$?filt$0@?0??dllmain_dispatch@@YAHQEAUHINSTANCE__@@KQEAX@Z@4HA 000000018004d374     LIBCMTD:dll_dllmain.obj
 0002:00011374       $unwind$?fin$0@?0??validate_heap_if_required_nolock@@YAXXZ@4HA 000000018004d374     libucrtd:debug_heap.obj
 0002:00011374       $unwind$_CrtCheckMemory$fin$0 000000018004d374     libucrtd:debug_heap.obj
 0002:00011374       $unwind$_CrtMemDumpAllObjectsSince$fin$0 000000018004d374     libucrtd:debug_heap.obj
 0002:00011374       $unwind$_CrtSetDbgFlag$fin$0 000000018004d374     libucrtd:debug_heap.obj
 0002:00011374       $unwind$_msize_dbg$fin$0   000000018004d374     libucrtd:debug_heap.obj
 0002:00011374       $unwind$_realloc_dbg$fin$0 000000018004d374     libucrtd:debug_heap.obj
 0002:00011374       $unwind$__acrt_lowio_ensure_fh_exists$fin$0 000000018004d374     libucrtd:osfinfo.obj
 0002:00011374       $unwind$_write$fin$0       000000018004d374     libucrtd:write.obj
 0002:00011374       $unwind$raise$fin$0        000000018004d374     libucrtd:signal.obj
 0002:00011374       $unwind$fclose$fin$0       000000018004d374     libucrtd:fclose.obj
 0002:00011374       $unwind$common_control87$filt$0 000000018004d374     libucrtd:ieee.obj
 0002:0001137c       $unwind$_DllMainCRTStartup 000000018004d37c     LIBCMTD:dll_dllmain.obj
 0002:0001137c       $unwind$c32rtomb           000000018004d37c     libucrtd:c32rtomb.obj
 0002:0001137c       $unwind$_lseeki64_nolock   000000018004d37c     libucrtd:lseek.obj
 0002:0001137c       $unwind$?type_case_s_compute_narrow_string_length@?$output_processor@DV?$string_output_adapter@D@__crt_stdio_output@@V?$format_validation_base@DV?$string_output_adapter@D@__crt_stdio_output@@@2@@__crt_stdio_output@@AEBAHHD@Z 000000018004d37c     libucrtd:output.obj
 0002:00011384       $unwind$__report_securityfailure 000000018004d384     LIBCMTD:gs_report.obj
 0002:00011384       $unwind$__scrt_initialize_crt 000000018004d384     LIBCMTD:utility.obj
 0002:00011384       $unwind$__scrt_release_startup_lock 000000018004d384     LIBCMTD:utility.obj
 0002:00011384       $unwind$__vcrt_uninitialize 000000018004d384     libvcruntimed:initialization.obj
 0002:00011384       $unwind$__ascii_towupper   000000018004d384     libucrtd:atox.obj
 0002:00011384       $unwind$__acrt_uninitialize 000000018004d384     libucrtd:initialization.obj
 0002:00011384       $unwind$__acrt_uninitialize_critical 000000018004d384     libucrtd:initialization.obj
 0002:00011384       $unwind$report_memory_leaks 000000018004d384     libucrtd:initialization.obj
 0002:00011384       $unwind$uninitialize_allocated_io_buffers 000000018004d384     libucrtd:initialization.obj
 0002:00011384       $unwind$uninitialize_environment 000000018004d384     libucrtd:initialization.obj
 0002:00011384       $unwind$uninitialize_vcruntime 000000018004d384     libucrtd:initialization.obj
 0002:00011384       $unwind$__acrt_lock        000000018004d384     libucrtd:locks.obj
 0002:00011384       $unwind$__acrt_unlock      000000018004d384     libucrtd:locks.obj
 0002:00011384       $unwind$__acrt_uninitialize_ptd 000000018004d384     libucrtd:per_thread_data.obj
 0002:00011384       $unwind$__ascii_towlower   000000018004d384     libucrtd:wsetlocale.obj
 0002:00011384       $unwind$__acrt_lowio_lock_fh 000000018004d384     libucrtd:osfinfo.obj
 0002:00011384       $unwind$__acrt_lowio_unlock_fh 000000018004d384     libucrtd:osfinfo.obj
 0002:00011384       $unwind$?do_locale_initialization@@YAXD@Z 000000018004d384     libucrtd:argv_parsing.obj
 0002:00011384       $unwind$_configure_narrow_argv 000000018004d384     libucrtd:argv_parsing.obj
 0002:00011384       $unwind$?exit_or_terminate_process@@YAXI@Z 000000018004d384     libucrtd:exit.obj
 0002:00011384       $unwind$_exit              000000018004d384     libucrtd:exit.obj
 0002:00011384       $unwind$?is_stream_flushable_or_commitable@@YA_NJ@Z 000000018004d384     libucrtd:fflush.obj
 0002:00011384       $unwind$??$to_abstract_status@W4__acrt_fenv_machine_sse_status@@@@YA?AW4__acrt_fenv_abstract_status@@W4__acrt_fenv_machine_sse_status@@@Z 000000018004d384     libucrtd:_fenvutils.obj
 0002:00011384       $unwind$?__acrt_fenv_shift_abstract_sse_status@@YA?AW4__acrt_fenv_abstract_status@@W41@@Z 000000018004d384     libucrtd:_fenvutils.obj
 0002:00011384       $unwind$?__acrt_fenv_unshift_abstract_sse_status@@YA?AW4__acrt_fenv_abstract_status@@W41@@Z 000000018004d384     libucrtd:_fenvutils.obj
 0002:00011384       $unwind$?to_machine_sse_status@@YA?AW4__acrt_fenv_machine_sse_status@@W4__acrt_fenv_abstract_status@@@Z 000000018004d384     libucrtd:_fenvutils.obj
 0002:00011384       $unwind$__acrt_fenv_get_common_round_control 000000018004d384     libucrtd:_fenvutils.obj
 0002:00011384       $unwind$__acrt_fenv_set_control 000000018004d384     libucrtd:_fenvutils.obj
 0002:00011384       $unwind$__acrt_fenv_set_status 000000018004d384     libucrtd:_fenvutils.obj
 0002:0001138c       $unwind$__report_rangecheckfailure 000000018004d38c     LIBCMTD:gs_report.obj
 0002:0001138c       $unwind$?__scrt_initialize_type_info@@YAXXZ 000000018004d38c     LIBCMTD:tncleanup.obj
 0002:0001138c       $unwind$?__scrt_uninitialize_type_info@@YAXXZ 000000018004d38c     LIBCMTD:tncleanup.obj
 0002:0001138c       $unwind$?configure_argv@__scrt_narrow_argv_policy@@SAHXZ 000000018004d38c     LIBCMTD:utility.obj
 0002:0001138c       $unwind$?initialize_environment@__scrt_narrow_environment_policy@@SAHXZ 000000018004d38c     LIBCMTD:utility.obj
 0002:0001138c       $unwind$__scrt_dllmain_after_initialize_c 000000018004d38c     LIBCMTD:utility.obj
 0002:0001138c       $unwind$__scrt_dllmain_before_initialize_c 000000018004d38c     LIBCMTD:utility.obj
 0002:0001138c       $unwind$__scrt_dllmain_crt_thread_attach 000000018004d38c     LIBCMTD:utility.obj
 0002:0001138c       $unwind$__scrt_dllmain_crt_thread_detach 000000018004d38c     LIBCMTD:utility.obj
 0002:0001138c       $unwind$__scrt_dllmain_uninitialize_c 000000018004d38c     LIBCMTD:utility.obj
 0002:0001138c       $unwind$__scrt_dllmain_uninitialize_critical 000000018004d38c     LIBCMTD:utility.obj
 0002:0001138c       $unwind$__vcrt_initialize  000000018004d38c     libvcruntimed:initialization.obj
 0002:0001138c       $unwind$__vcrt_thread_attach 000000018004d38c     libvcruntimed:initialization.obj
 0002:0001138c       $unwind$__vcrt_thread_detach 000000018004d38c     libvcruntimed:initialization.obj
 0002:0001138c       $unwind$__vcrt_uninitialize_critical 000000018004d38c     libvcruntimed:initialization.obj
 0002:0001138c       $unwind$__vcrt_initialize_ptd 000000018004d38c     libvcruntimed:per_thread_data.obj
 0002:0001138c       $unwind$__vcrt_uninitialize_ptd 000000018004d38c     libvcruntimed:per_thread_data.obj
 0002:0001138c       $unwind$_GetImageBase      000000018004d38c     libvcruntimed:risctrnsctrl.obj
 0002:0001138c       $unwind$_GetThrowImageBase 000000018004d38c     libvcruntimed:risctrnsctrl.obj
 0002:0001138c       $unwind$?try_get_FlsAlloc@@YAP6AKP6AXPEAX@Z@ZXZ 000000018004d38c     libvcruntimed:winapi_downlevel.obj
 0002:0001138c       $unwind$?try_get_FlsFree@@YAP6AHK@ZXZ 000000018004d38c     libvcruntimed:winapi_downlevel.obj
 0002:0001138c       $unwind$?try_get_FlsGetValue@@YAP6APEAXK@ZXZ 000000018004d38c     libvcruntimed:winapi_downlevel.obj
 0002:0001138c       $unwind$?try_get_FlsSetValue@@YAP6AHKPEAX@ZXZ 000000018004d38c     libvcruntimed:winapi_downlevel.obj
 0002:0001138c       $unwind$?try_get_InitializeCriticalSectionEx@@YAP6AHPEAU_RTL_CRITICAL_SECTION@@KK@ZXZ 000000018004d38c     libvcruntimed:winapi_downlevel.obj
 0002:0001138c       $unwind$__dcrt_terminate_console_output 000000018004d38c     libucrtd:initcon.obj
 0002:0001138c       $unwind$??$uninitialize_environment_internal@D@@YAXAEAPEAPEAD@Z 000000018004d38c     libucrtd:environment_initialization.obj
 0002:0001138c       $unwind$??$uninitialize_environment_internal@_W@@YAXAEAPEAPEA_W@Z 000000018004d38c     libucrtd:environment_initialization.obj
 0002:0001138c       $unwind$__dcrt_uninitialize_environments_nolock 000000018004d38c     libucrtd:environment_initialization.obj
 0002:0001138c       $unwind$__acrt_initialize_heap 000000018004d38c     libucrtd:heap_handle.obj
 0002:0001138c       $unwind$_query_new_mode    000000018004d38c     libucrtd:new_mode.obj
 0002:0001138c       $unwind$__acrt_initialize  000000018004d38c     libucrtd:initialization.obj
 0002:0001138c       $unwind$__acrt_thread_attach 000000018004d38c     libucrtd:initialization.obj
 0002:0001138c       $unwind$__acrt_thread_detach 000000018004d38c     libucrtd:initialization.obj
 0002:0001138c       $unwind$initialize_c       000000018004d38c     libucrtd:initialization.obj
 0002:0001138c       $unwind$initialize_global_variables 000000018004d38c     libucrtd:initialization.obj
 0002:0001138c       $unwind$__acrt_getptd_noexit 000000018004d38c     libucrtd:per_thread_data.obj
 0002:0001138c       $unwind$__acrt_initialize_ptd 000000018004d38c     libucrtd:per_thread_data.obj
 0002:0001138c       $unwind$__acrt_get_developer_information_policy 000000018004d38c     libucrtd:win_policies.obj
 0002:0001138c       $unwind$__acrt_get_process_end_policy 000000018004d38c     libucrtd:win_policies.obj
 0002:0001138c       $unwind$__acrt_get_windowing_model_policy 000000018004d38c     libucrtd:win_policies.obj
 0002:0001138c       $unwind$?try_get_AppPolicyGetProcessTerminationMethod@@YAP6AJPEAXPEAW4AppPolicyProcessTerminationMethod@@@ZXZ 000000018004d38c     libucrtd:winapi_thunks.obj
 0002:0001138c       $unwind$?try_get_AppPolicyGetShowDeveloperDiagnostic@@YAP6AJPEAXPEAW4AppPolicyShowDeveloperDiagnostic@@@ZXZ 000000018004d38c     libucrtd:winapi_thunks.obj
 0002:0001138c       $unwind$?try_get_AppPolicyGetWindowingModel@@YAP6AJPEAXPEAW4AppPolicyWindowingModel@@@ZXZ 000000018004d38c     libucrtd:winapi_thunks.obj
 0002:0001138c       $unwind$?try_get_AreFileApisANSI@@YAP6AHXZXZ 000000018004d38c     libucrtd:winapi_thunks.obj
 0002:0001138c       $unwind$?try_get_FlsAlloc@@YAP6AKP6AXPEAX@Z@ZXZ 000000018004d38c     libucrtd:winapi_thunks.obj
 0002:0001138c       $unwind$?try_get_FlsFree@@YAP6AHK@ZXZ 000000018004d38c     libucrtd:winapi_thunks.obj
 0002:0001138c       $unwind$?try_get_FlsGetValue@@YAP6APEAXK@ZXZ 000000018004d38c     libucrtd:winapi_thunks.obj
 0002:0001138c       $unwind$?try_get_FlsSetValue@@YAP6AHKPEAX@ZXZ 000000018004d38c     libucrtd:winapi_thunks.obj
 0002:0001138c       $unwind$?try_get_GetActiveWindow@@YAP6APEAUHWND__@@XZXZ 000000018004d38c     libucrtd:winapi_thunks.obj
 0002:0001138c       $unwind$?try_get_GetLastActivePopup@@YAP6APEAUHWND__@@PEAU1@@ZXZ 000000018004d38c     libucrtd:winapi_thunks.obj
 0002:0001138c       $unwind$?try_get_GetProcessWindowStation@@YAP6APEAUHWINSTA__@@XZXZ 000000018004d38c     libucrtd:winapi_thunks.obj
 0002:0001138c       $unwind$?try_get_GetUserObjectInformationW@@YAP6AHPEAXH0KPEAK@ZXZ 000000018004d38c     libucrtd:winapi_thunks.obj
 0002:0001138c       $unwind$?try_get_InitializeCriticalSectionEx@@YAP6AHPEAU_RTL_CRITICAL_SECTION@@KK@ZXZ 000000018004d38c     libucrtd:winapi_thunks.obj
 0002:0001138c       $unwind$?try_get_LCMapStringEx@@YAP6AHPEB_WK0HPEA_WHPEAU_nlsversioninfo@@PEAX_J@ZXZ 000000018004d38c     libucrtd:winapi_thunks.obj
 0002:0001138c       $unwind$?try_get_LocaleNameToLCID@@YAP6AKPEB_WK@ZXZ 000000018004d38c     libucrtd:winapi_thunks.obj
 0002:0001138c       $unwind$?try_get_MessageBoxA@@YAP6AHPEAUHWND__@@PEBD1I@ZXZ 000000018004d38c     libucrtd:winapi_thunks.obj
 0002:0001138c       $unwind$?try_get_MessageBoxW@@YAP6AHPEAUHWND__@@PEB_W1I@ZXZ 000000018004d38c     libucrtd:winapi_thunks.obj
 0002:0001138c       $unwind$__fpecode          000000018004d38c     libucrtd:signal.obj
 0002:0001138c       $unwind$__acrt_initialize_command_line 000000018004d38c     libucrtd:argv_data.obj
 0002:0001138c       $unwind$_cexit             000000018004d38c     libucrtd:exit.obj
 0002:0001138c       $unwind$_is_c_termination_complete 000000018004d38c     libucrtd:exit.obj
 0002:0001138c       $unwind$_flushall          000000018004d38c     libucrtd:fflush.obj
 0002:0001138c       $unwind$fegetround         000000018004d38c     libucrtd:fegetround.obj
 0002:00011394       $unwind$capture_current_context 000000018004d394     LIBCMTD:gs_report.obj
 0002:00011394       $unwind$capture_previous_context 000000018004d394     LIBCMTD:gs_report.obj
 0002:00011394       $unwind$?capture_current_context@@YAXQEAU_CONTEXT@@@Z 000000018004d394     libucrtd:invalid_parameter.obj
 0002:0001139c       $unwind$??3@YAXPEAX@Z      000000018004d39c     LIBCMTD:delete_scalar.obj
 0002:0001139c       $unwind$__raise_securityfailure 000000018004d39c     LIBCMTD:gs_report.obj
 0002:0001139c       $unwind$ReadPointerNoFence 000000018004d39c     LIBCMTD:guard_support.obj
 0002:0001139c       $unwind$_ValidateImageBase 000000018004d39c     LIBCMTD:pesect.obj
 0002:0001139c       $unwind$?is_potentially_valid_image_base@@YA_NQEAX@Z 000000018004d39c     LIBCMTD:utility.obj
 0002:0001139c       $unwind$??0bad_exception@std@@QEAA@XZ 000000018004d39c     libvcruntimed:frame.obj
 0002:0001139c       $unwind$??1bad_exception@std@@UEAA@XZ 000000018004d39c     libvcruntimed:frame.obj
 0002:0001139c       $unwind$??1exception@std@@UEAA@XZ 000000018004d39c     libvcruntimed:frame.obj
 0002:0001139c       $unwind$?__RethrowException@@YAXPEAUEHExceptionRecord@@@Z 000000018004d39c     libvcruntimed:frame.obj
 0002:0001139c       $unwind$__vcrt_EncodePointer 000000018004d39c     libvcruntimed:frame.obj
 0002:0001139c       $unwind$??0scoped_get_last_error_reset@?A0xb3e1f75e@@QEAA@XZ 000000018004d39c     libvcruntimed:per_thread_data.obj
 0002:0001139c       $unwind$??1?$__crt_unique_heap_ptr@U__vcrt_ptd@@U__crt_internal_free_policy@@@@QEAA@XZ 000000018004d39c     libvcruntimed:per_thread_data.obj
 0002:0001139c       $unwind$??1scoped_get_last_error_reset@?A0xb3e1f75e@@QEAA@XZ 000000018004d39c     libvcruntimed:per_thread_data.obj
 0002:0001139c       $unwind$??B?$__crt_unique_heap_ptr@U__vcrt_ptd@@U__crt_internal_free_policy@@@@QEBA_NXZ 000000018004d39c     libvcruntimed:per_thread_data.obj
 0002:0001139c       $unwind$?store_and_initialize_ptd@@YA_NQEAU__vcrt_ptd@@@Z 000000018004d39c     libvcruntimed:per_thread_data.obj
 0002:0001139c       $unwind$__vcrt_freefls     000000018004d39c     libvcruntimed:per_thread_data.obj
 0002:0001139c       $unwind$_SetImageBase      000000018004d39c     libvcruntimed:risctrnsctrl.obj
 0002:0001139c       $unwind$_SetThrowImageBase 000000018004d39c     libvcruntimed:risctrnsctrl.obj
 0002:0001139c       $unwind$??1?$__crt_unique_heap_ptr@DU__crt_public_free_policy@@@@QEAA@XZ 000000018004d39c     libvcruntimed:std_exception.obj
 0002:0001139c       $unwind$??B?$__crt_unique_heap_ptr@DU__crt_public_free_policy@@@@QEBA_NXZ 000000018004d39c     libvcruntimed:std_exception.obj
 0002:0001139c       $unwind$__std_exception_destroy 000000018004d39c     libvcruntimed:std_exception.obj
 0002:0001139c       $unwind$??1?$__crt_unique_heap_ptr@DU__crt_internal_free_policy@@@@QEAA@XZ 000000018004d39c     libvcruntimed:std_type_info.obj
 0002:0001139c       $unwind$??B?$__crt_unique_heap_ptr@DU__crt_internal_free_policy@@@@QEBA_NXZ 000000018004d39c     libvcruntimed:std_type_info.obj
 0002:0001139c       $unwind$??$__crt_interlocked_read_pointer@UHINSTANCE__@@@@YAPEAUHINSTANCE__@@PEDSEAU0@@Z 000000018004d39c     libvcruntimed:winapi_downlevel.obj
 0002:0001139c       $unwind$??$__crt_interlocked_read_pointer@X@@YAPEAXPEDSEAX@Z 000000018004d39c     libvcruntimed:winapi_downlevel.obj
 0002:0001139c       $unwind$_putwch_nolock     000000018004d39c     libucrtd:putwch.obj
 0002:0001139c       $unwind$??0big_integer@__crt_strtox@@QEAA@XZ 000000018004d39c     libucrtd:cfout.obj
 0002:0001139c       $unwind$??0scoped_fp_state_reset@?A0x71ca7cfb@@QEAA@XZ 000000018004d39c     libucrtd:cfout.obj
 0002:0001139c       $unwind$??1scoped_fp_state_reset@?A0x71ca7cfb@@QEAA@XZ 000000018004d39c     libucrtd:cfout.obj
 0002:0001139c       $unwind$??1_LocaleUpdate@@QEAA@XZ 000000018004d39c     libucrtd:debug_heap.obj
 0002:0001139c       $unwind$_CrtIsValidHeapPointer 000000018004d39c     libucrtd:debug_heap.obj
 0002:0001139c       $unwind$malloc             000000018004d39c     libucrtd:malloc.obj
 0002:0001139c       $unwind$??$__crt_fast_decode_pointer@P6AH_K@Z@@YAP6AH_K@ZQ6AH0@Z@Z 000000018004d39c     libucrtd:new_handler.obj
 0002:0001139c       $unwind$?value@?$dual_state_global@P6AH_K@Z@__crt_state_management@@QEAAAEAP6AH_K@ZXZ 000000018004d39c     libucrtd:new_handler.obj
 0002:0001139c       $unwind$__acrt_initialize_new_handler 000000018004d39c     libucrtd:new_handler.obj
 0002:0001139c       $unwind$?value@?$dual_state_global@J@__crt_state_management@@QEAAAEAJXZ 000000018004d39c     libucrtd:new_mode.obj
 0002:0001139c       $unwind$?_deallocate@?$__crt_win32_buffer@DU__crt_win32_buffer_no_resizing@@@@AEAAXXZ 000000018004d39c     libucrtd:getmodulefilenamea.obj
 0002:0001139c       $unwind$?set_to_nullptr@?$__crt_win32_buffer@DU__crt_win32_buffer_no_resizing@@@@QEAAXXZ 000000018004d39c     libucrtd:getmodulefilenamea.obj
 0002:0001139c       $unwind$??$?BX@__crt_fast_encoded_nullptr_t@@QEBAPEAXXZ 000000018004d39c     libucrtd:initialization.obj
 0002:0001139c       $unwind$??$__crt_fast_encode_pointer@PEAX@@YAPEAXQEAX@Z 000000018004d39c     libucrtd:initialization.obj
 0002:0001139c       $unwind$??0__crt_scoped_get_last_error_reset@@QEAA@XZ 000000018004d39c     libucrtd:per_thread_data.obj
 0002:0001139c       $unwind$??1?$__crt_unique_heap_ptr@U__acrt_ptd@@U__crt_internal_free_policy@@@@QEAA@XZ 000000018004d39c     libucrtd:per_thread_data.obj
 0002:0001139c       $unwind$??1__crt_scoped_get_last_error_reset@@QEAA@XZ 000000018004d39c     libucrtd:per_thread_data.obj
 0002:0001139c       $unwind$??B?$__crt_unique_heap_ptr@U__acrt_ptd@@U__crt_internal_free_policy@@@@QEBA_NXZ 000000018004d39c     libucrtd:per_thread_data.obj
 0002:0001139c       $unwind$??R<lambda_04ddeca75b7c13fd67716e8dfcef87ee>@@QEBAXXZ 000000018004d39c     libucrtd:per_thread_data.obj
 0002:0001139c       $unwind$??R<lambda_0ae27a3a962d80f24befdcbee591983d>@@QEBAXXZ 000000018004d39c     libucrtd:per_thread_data.obj
 0002:0001139c       $unwind$??R<lambda_2d41944a1d46af3157314b8a01080d33>@@QEBAXXZ 000000018004d39c     libucrtd:per_thread_data.obj
 0002:0001139c       $unwind$??R<lambda_6992ecaafeb10aed2b74cb1fae11a551>@@QEBAXXZ 000000018004d39c     libucrtd:per_thread_data.obj
 0002:0001139c       $unwind$??R<lambda_74a0ef281e44d15e1136f792f539efb3>@@QEBAXXZ 000000018004d39c     libucrtd:per_thread_data.obj
 0002:0001139c       $unwind$??R<lambda_8f455de75cd7d7f24b4096f044d8b9e6>@@QEBAXXZ 000000018004d39c     libucrtd:per_thread_data.obj
 0002:0001139c       $unwind$??R<lambda_92619d2358a28f41a33ba319515a20b9>@@QEBAXXZ 000000018004d39c     libucrtd:per_thread_data.obj
 0002:0001139c       $unwind$??R<lambda_aa500f224e6afead328df44964fe2772>@@QEBAXXZ 000000018004d39c     libucrtd:per_thread_data.obj
 0002:0001139c       $unwind$??R<lambda_aa87e3671a710a21b5dc78c0bdf72e11>@@QEBAXXZ 000000018004d39c     libucrtd:per_thread_data.obj
 0002:0001139c       $unwind$??R<lambda_dc504788e8f1664fe9b84e20bfb512f2>@@QEBAXXZ 000000018004d39c     libucrtd:per_thread_data.obj
 0002:0001139c       $unwind$?destroy_fls@@YAXPEAX@Z 000000018004d39c     libucrtd:per_thread_data.obj
 0002:0001139c       $unwind$?value@?$dual_state_global@PEAU__crt_locale_data@@@__crt_state_management@@QEAAAEAPEAU__crt_locale_data@@XZ 000000018004d39c     libucrtd:per_thread_data.obj
 0002:0001139c       $unwind$?appmodel_get_policy@developer_information_policy_properties@?1??__acrt_get_developer_information_policy@@YA?AW4developer_information_policy@@XZ@SAJPEAW4AppPolicyShowDeveloperDiagnostic@@@Z 000000018004d39c     libucrtd:win_policies.obj
 0002:0001139c       $unwind$?appmodel_get_policy@process_end_policy_properties@?1??__acrt_get_process_end_policy@@YA?AW4process_end_policy@@XZ@SAJPEAW4AppPolicyProcessTerminationMethod@@@Z 000000018004d39c     libucrtd:win_policies.obj
 0002:0001139c       $unwind$?appmodel_get_policy@windowing_model_policy_properties@?1??__acrt_get_windowing_model_policy@@YA?AW4windowing_model_policy@@XZ@SAJPEAW4AppPolicyWindowingModel@@@Z 000000018004d39c     libucrtd:win_policies.obj
 0002:0001139c       $unwind$??$__crt_fast_decode_pointer@PEAX@@YAPEAXQEAX@Z 000000018004d39c     libucrtd:winapi_thunks.obj
 0002:0001139c       $unwind$??1?$__crt_scoped_stack_ptr@_W@@QEAA@XZ 000000018004d39c     libucrtd:getstringtypea.obj
 0002:0001139c       $unwind$__acrt_locale_free_monetary 000000018004d39c     libucrtd:initmon.obj
 0002:0001139c       $unwind$__acrt_locale_free_numeric 000000018004d39c     libucrtd:initnum.obj
 0002:0001139c       $unwind$??$free_crt_array@D$01@@YAXAEAY01PEAD@Z 000000018004d39c     libucrtd:inittime.obj
 0002:0001139c       $unwind$??$free_crt_array@D$06@@YAXAEAY06PEAD@Z 000000018004d39c     libucrtd:inittime.obj
 0002:0001139c       $unwind$??$free_crt_array@D$0M@@@YAXAEAY0M@PEAD@Z 000000018004d39c     libucrtd:inittime.obj
 0002:0001139c       $unwind$??$free_crt_array@_W$01@@YAXAEAY01PEA_W@Z 000000018004d39c     libucrtd:inittime.obj
 0002:0001139c       $unwind$??$free_crt_array@_W$06@@YAXAEAY06PEA_W@Z 000000018004d39c     libucrtd:inittime.obj
 0002:0001139c       $unwind$??$free_crt_array@_W$0M@@@YAXAEAY0M@PEA_W@Z 000000018004d39c     libucrtd:inittime.obj
 0002:0001139c       $unwind$__acrt_locale_free_time 000000018004d39c     libucrtd:inittime.obj
 0002:0001139c       $unwind$__acrt_locale_free_lc_time_if_unreferenced 000000018004d39c     libucrtd:locale_refcounting.obj
 0002:0001139c       $unwind$??R<lambda_38119f0e861e05405d8a144b9b982f0a>@@QEBAXXZ 000000018004d39c     libucrtd:wsetlocale.obj
 0002:0001139c       $unwind$??R<lambda_410d79af7f07d98d83a3f525b3859a53>@@QEBAXXZ 000000018004d39c     libucrtd:wsetlocale.obj
 0002:0001139c       $unwind$??R<lambda_53fc7fc888e23d815d7080162c0aeeb2>@@QEBAXXZ 000000018004d39c     libucrtd:close.obj
 0002:0001139c       $unwind$??R<lambda_8ddc48ad9d26c778cb15812d1d88fc8a>@@QEBAXXZ 000000018004d39c     libucrtd:close.obj
 0002:0001139c       $unwind$??R<lambda_47cffbaa968af5c721c38a4a6f8da44d>@@QEBAXXZ 000000018004d39c     libucrtd:commit.obj
 0002:0001139c       $unwind$??R<lambda_4e3dbe6921bc0b5a1a6bc6573fdc859e>@@QEBAXXZ 000000018004d39c     libucrtd:commit.obj
 0002:0001139c       $unwind$??1?$__crt_unique_heap_ptr@U__crt_lowio_handle_data@@U__crt_internal_free_policy@@@@QEAA@XZ 000000018004d39c     libucrtd:osfinfo.obj
 0002:0001139c       $unwind$??B?$__crt_unique_heap_ptr@U__crt_lowio_handle_data@@U__crt_internal_free_policy@@@@QEBA_NXZ 000000018004d39c     libucrtd:osfinfo.obj
 0002:0001139c       $unwind$??1?$__crt_unique_heap_ptr@U__crt_multibyte_data@@U__crt_internal_free_policy@@@@QEAA@XZ 000000018004d39c     libucrtd:mbctype.obj
 0002:0001139c       $unwind$??B?$__crt_unique_heap_ptr@U__crt_multibyte_data@@U__crt_internal_free_policy@@@@QEBA_NXZ 000000018004d39c     libucrtd:mbctype.obj
 0002:0001139c       $unwind$??R<lambda_728235dc0fc2b1f82d1fa5b3e7102d8f>@@QEBAXXZ 000000018004d39c     libucrtd:mbctype.obj
 0002:0001139c       $unwind$??R<lambda_efa02eb69bf647d2f7ff0dd6f1103f72>@@QEBAXXZ 000000018004d39c     libucrtd:mbctype.obj
 0002:0001139c       $unwind$?value@?$dual_state_global@PEAE@__crt_state_management@@QEAAAEAPEAEXZ 000000018004d39c     libucrtd:mbctype.obj
 0002:0001139c       $unwind$?value@?$dual_state_global@PEAU__crt_multibyte_data@@@__crt_state_management@@QEAAAEAPEAU__crt_multibyte_data@@XZ 000000018004d39c     libucrtd:mbctype.obj
 0002:0001139c       $unwind$??$output_debug_string@AEBQEB_W@?$__crt_char_traits@_W@@SAXAEBQEB_W@Z 000000018004d39c     libucrtd:crtmbox.obj
 0002:0001139c       $unwind$??$tcslen@AEAY0BAF@D@?$__crt_char_traits@D@@SA_KAEAY0BAF@D@Z 000000018004d39c     libucrtd:dbgrpt.obj
 0002:0001139c       $unwind$??$tcslen@AEAY0BAF@_W@?$__crt_char_traits@_W@@SA_KAEAY0BAF@_W@Z 000000018004d39c     libucrtd:dbgrpt.obj
 0002:0001139c       $unwind$??$tcslen@AEBQEBD@?$__crt_char_traits@D@@SA_KAEBQEBD@Z 000000018004d39c     libucrtd:dbgrpt.obj
 0002:0001139c       $unwind$??$tcslen@AEBQEB_W@?$__crt_char_traits@_W@@SA_KAEBQEB_W@Z 000000018004d39c     libucrtd:dbgrpt.obj
 0002:0001139c       $unwind$??$__crt_fast_decode_pointer@P6AXPEB_W00I_K@Z@@YAP6AXPEB_W00I_K@ZQ6AX000I1@Z@Z 000000018004d39c     libucrtd:invalid_parameter.obj
 0002:0001139c       $unwind$?value@?$dual_state_global@P6AXPEB_W00I_K@Z@__crt_state_management@@QEAAAEAP6AXPEB_W00I_K@ZXZ 000000018004d39c     libucrtd:invalid_parameter.obj
 0002:0001139c       $unwind$??$?B$$A6AXH@Z@__crt_fast_encoded_nullptr_t@@QEBAP6AXH@ZXZ 000000018004d39c     libucrtd:signal.obj
 0002:0001139c       $unwind$??$__crt_fast_decode_pointer@P6AXH@Z@@YAP6AXH@ZQ6AXH@Z@Z 000000018004d39c     libucrtd:signal.obj
 0002:0001139c       $unwind$??$__crt_fast_encode_pointer@P6AXH@Z@@YAP6AXH@ZQ6AXH@Z@Z 000000018004d39c     libucrtd:signal.obj
 0002:0001139c       $unwind$??R<lambda_44731a7d0e6d81c3e6aa82d741081786>@@QEBAP6AXH@ZXZ 000000018004d39c     libucrtd:signal.obj
 0002:0001139c       $unwind$??R<lambda_450d765d439847d4c735a33c368b5fc0>@@QEBAXXZ 000000018004d39c     libucrtd:signal.obj
 0002:0001139c       $unwind$??R<lambda_601a2a7da3b7a96e9554ac7215c4b07c>@@QEBAXXZ 000000018004d39c     libucrtd:signal.obj
 0002:0001139c       $unwind$?value@?$dual_state_global@P6AXH@Z@__crt_state_management@@QEAAAEAP6AXH@ZXZ 000000018004d39c     libucrtd:signal.obj
 0002:0001139c       $unwind$__acrt_initialize_signal_handlers 000000018004d39c     libucrtd:signal.obj
 0002:0001139c       $unwind$??$set_program_name@PEAD@?$__crt_char_traits@D@@SAX$$QEAPEAD@Z 000000018004d39c     libucrtd:argv_parsing.obj
 0002:0001139c       $unwind$??1?$__crt_unique_heap_ptr@EU__crt_internal_free_policy@@@@QEAA@XZ 000000018004d39c     libucrtd:argv_parsing.obj
 0002:0001139c       $unwind$??1?$__crt_unique_heap_ptr@PEADU__crt_internal_free_policy@@@@QEAA@XZ 000000018004d39c     libucrtd:argv_parsing.obj
 0002:0001139c       $unwind$??B?$__crt_unique_heap_ptr@EU__crt_internal_free_policy@@@@QEBA_NXZ 000000018004d39c     libucrtd:argv_parsing.obj
 0002:0001139c       $unwind$??1?$__crt_unique_handle_t@U__crt_findfile_traits@@@@QEAA@XZ 000000018004d39c     libucrtd:argv_wildcards.obj
 0002:0001139c       $unwind$?_deallocate@?$__crt_win32_buffer@DU__crt_win32_buffer_internal_dynamic_resizing@@@@AEAAXXZ 000000018004d39c     libucrtd:argv_wildcards.obj
 0002:0001139c       $unwind$?_deallocate@?$__crt_win32_buffer@_WU__crt_win32_buffer_internal_dynamic_resizing@@@@AEAAXXZ 000000018004d39c     libucrtd:argv_wildcards.obj
 0002:0001139c       $unwind$?close@?$__crt_unique_handle_t@U__crt_findfile_traits@@@@QEAAXXZ 000000018004d39c     libucrtd:argv_wildcards.obj
 0002:0001139c       $unwind$?set_to_nullptr@?$__crt_win32_buffer@DU__crt_win32_buffer_internal_dynamic_resizing@@@@QEAAXXZ 000000018004d39c     libucrtd:argv_wildcards.obj
 0002:0001139c       $unwind$?set_to_nullptr@?$__crt_win32_buffer@_WU__crt_win32_buffer_internal_dynamic_resizing@@@@QEAAXXZ 000000018004d39c     libucrtd:argv_wildcards.obj
 0002:0001139c       $unwind$??$?B$$A6AXPEAXK0@Z@__crt_fast_encoded_nullptr_t@@QEBAP6AXPEAXK0@ZXZ 000000018004d39c     libucrtd:exit.obj
 0002:0001139c       $unwind$??$__crt_fast_decode_pointer@P6AXPEAXK0@Z@@YAP6AXPEAXK0@ZQ6AX0K0@Z@Z 000000018004d39c     libucrtd:exit.obj
 0002:0001139c       $unwind$??$__crt_fast_encode_pointer@P6AXPEAXK0@Z@@YAP6AXPEAXK0@ZQ6AX0K0@Z@Z 000000018004d39c     libucrtd:exit.obj
 0002:0001139c       $unwind$??$__crt_interlocked_read@J@@YAJPEDJ@Z 000000018004d39c     libucrtd:exit.obj
 0002:0001139c       $unwind$??1?$__crt_unique_handle_t@U__crt_hmodule_traits@@@@QEAA@XZ 000000018004d39c     libucrtd:exit.obj
 0002:0001139c       $unwind$??R<lambda_2358e3775559c9db80273638284d5e45>@@QEBAXXZ 000000018004d39c     libucrtd:exit.obj
 0002:0001139c       $unwind$??R<lambda_d80eeec6fff315bfe5c115232f3240e3>@@QEBAXXZ 000000018004d39c     libucrtd:exit.obj
 0002:0001139c       $unwind$?close@?$__crt_unique_handle_t@U__crt_hmodule_traits@@@@QEAAXXZ 000000018004d39c     libucrtd:exit.obj
 0002:0001139c       $unwind$??$?B$$A6AXXZ@__crt_fast_encoded_nullptr_t@@QEBAP6AXXZXZ 000000018004d39c     libucrtd:onexit.obj
 0002:0001139c       $unwind$??$?BP6AXXZ@__crt_fast_encoded_nullptr_t@@QEBAPEAP6AXXZXZ 000000018004d39c     libucrtd:onexit.obj
 0002:0001139c       $unwind$??$__crt_fast_decode_pointer@P6AXXZ@@YAP6AXXZQ6AXXZ@Z 000000018004d39c     libucrtd:onexit.obj
 0002:0001139c       $unwind$??$__crt_fast_decode_pointer@PEAP6AXXZ@@YAPEAP6AXXZQEAP6AXXZ@Z 000000018004d39c     libucrtd:onexit.obj
 0002:0001139c       $unwind$??$__crt_fast_encode_pointer@P6AXXZ@@YAP6AXXZQ6AXXZ@Z 000000018004d39c     libucrtd:onexit.obj
 0002:0001139c       $unwind$??$__crt_fast_encode_pointer@PEAP6AXXZ@@YAPEAP6AXXZQEAP6AXXZ@Z 000000018004d39c     libucrtd:onexit.obj
 0002:0001139c       $unwind$??R<lambda_6a47f4c8fd0152770a780fc1d70204eb>@@QEBAXXZ 000000018004d39c     libucrtd:onexit.obj
 0002:0001139c       $unwind$??R<lambda_6aaa2265f5b6a89667e7d7630012e97a>@@QEBAXXZ 000000018004d39c     libucrtd:onexit.obj
 0002:0001139c       $unwind$??1?$__crt_unique_heap_ptr@PEAU__crt_stdio_stream_data@@U__crt_internal_free_policy@@@@QEAA@XZ 000000018004d39c     libucrtd:_file.obj
 0002:0001139c       $unwind$?has_crt_buffer@__crt_stdio_stream@@QEBA_NXZ 000000018004d39c     libucrtd:_freebuf.obj
 0002:0001139c       $unwind$??R<lambda_842d9ff0dc9ef11c61343bbaebe7f885>@@QEBAXXZ 000000018004d39c     libucrtd:fflush.obj
 0002:0001139c       $unwind$??R<lambda_886d6c58226a84441f68b9f2b8217b83>@@QEBAXXZ 000000018004d39c     libucrtd:fflush.obj
 0002:0001139c       $unwind$??R<lambda_c5860995281e5c4ce005b3de8f5874ee>@@QEBAXXZ 000000018004d39c     libucrtd:fflush.obj
 0002:0001139c       $unwind$??R<lambda_d90129c13df834fdcbf8d2b88dafcf2d>@@QEBAXXZ 000000018004d39c     libucrtd:fflush.obj
 0002:0001139c       $unwind$??R<lambda_f7f22ab5edc0698d5f6905b0d3f44752>@@QEBAXXZ 000000018004d39c     libucrtd:fflush.obj
 0002:0001139c       $unwind$?lowio_handle@__crt_stdio_stream@@QEBAHXZ 000000018004d39c     libucrtd:fileno.obj
 0002:0001139c       $unwind$??$count@D@formatting_buffer@__crt_stdio_output@@QEBA_KXZ 000000018004d39c     libucrtd:output.obj
 0002:0001139c       $unwind$??$count@_W@formatting_buffer@__crt_stdio_output@@QEBA_KXZ 000000018004d39c     libucrtd:output.obj
 0002:0001139c       $unwind$??$data@D@formatting_buffer@__crt_stdio_output@@QEAAPEADXZ 000000018004d39c     libucrtd:output.obj
 0002:0001139c       $unwind$??$data@_W@formatting_buffer@__crt_stdio_output@@QEAAPEA_WXZ 000000018004d39c     libucrtd:output.obj
 0002:0001139c       $unwind$??$scratch_count@D@formatting_buffer@__crt_stdio_output@@QEBA_KXZ 000000018004d39c     libucrtd:output.obj
 0002:0001139c       $unwind$??0?$common_data@D@__crt_stdio_output@@IEAA@XZ 000000018004d39c     libucrtd:output.obj
 0002:0001139c       $unwind$??0?$common_data@_W@__crt_stdio_output@@IEAA@XZ 000000018004d39c     libucrtd:output.obj
 0002:0001139c       $unwind$??0formatting_buffer@__crt_stdio_output@@QEAA@XZ 000000018004d39c     libucrtd:output.obj
 0002:0001139c       $unwind$??1?$common_data@D@__crt_stdio_output@@QEAA@XZ 000000018004d39c     libucrtd:output.obj
 0002:0001139c       $unwind$??1?$common_data@_W@__crt_stdio_output@@QEAA@XZ 000000018004d39c     libucrtd:output.obj
 0002:0001139c       $unwind$??1?$format_validation_base@DV?$string_output_adapter@D@__crt_stdio_output@@@__crt_stdio_output@@QEAA@XZ 000000018004d39c     libucrtd:output.obj
 0002:0001139c       $unwind$??1?$format_validation_base@_WV?$string_output_adapter@_W@__crt_stdio_output@@@__crt_stdio_output@@QEAA@XZ 000000018004d39c     libucrtd:output.obj
 0002:0001139c       $unwind$??1?$output_adapter_data@DV?$string_output_adapter@D@__crt_stdio_output@@@__crt_stdio_output@@QEAA@XZ 000000018004d39c     libucrtd:output.obj
 0002:0001139c       $unwind$??1?$output_adapter_data@_WV?$string_output_adapter@_W@__crt_stdio_output@@@__crt_stdio_output@@QEAA@XZ 000000018004d39c     libucrtd:output.obj
 0002:0001139c       $unwind$??1?$output_processor@DV?$string_output_adapter@D@__crt_stdio_output@@V?$format_validation_base@DV?$string_output_adapter@D@__crt_stdio_output@@@2@@__crt_stdio_output@@QEAA@XZ 000000018004d39c     libucrtd:output.obj
 0002:0001139c       $unwind$??1?$output_processor@_WV?$string_output_adapter@_W@__crt_stdio_output@@V?$format_validation_base@_WV?$string_output_adapter@_W@__crt_stdio_output@@@2@@__crt_stdio_output@@QEAA@XZ 000000018004d39c     libucrtd:output.obj
 0002:0001139c       $unwind$??1?$standard_base@DV?$string_output_adapter@D@__crt_stdio_output@@@__crt_stdio_output@@QEAA@XZ 000000018004d39c     libucrtd:output.obj
 0002:0001139c       $unwind$??1?$standard_base@_WV?$string_output_adapter@_W@__crt_stdio_output@@@__crt_stdio_output@@QEAA@XZ 000000018004d39c     libucrtd:output.obj
 0002:0001139c       $unwind$??1formatting_buffer@__crt_stdio_output@@QEAA@XZ 000000018004d39c     libucrtd:output.obj
 0002:0001139c       $unwind$?get@__crt_deferred_errno_cache@@QEAAAEAHXZ 000000018004d39c     libucrtd:output.obj
 0002:0001139c       $unwind$?get_flags@__crt_stdio_stream@@QEBAJXZ 000000018004d39c     libucrtd:output.obj
 0002:0001139c       $unwind$?state_case_normal_common@?$output_processor@DV?$string_output_adapter@D@__crt_stdio_output@@V?$format_validation_base@DV?$string_output_adapter@D@__crt_stdio_output@@@2@@__crt_stdio_output@@AEAA_NXZ 000000018004d39c     libucrtd:output.obj
 0002:0001139c       $unwind$?state_case_normal_common@?$output_processor@_WV?$string_output_adapter@_W@__crt_stdio_output@@V?$format_validation_base@_WV?$string_output_adapter@_W@__crt_stdio_output@@@2@@__crt_stdio_output@@AEAA_NXZ 000000018004d39c     libucrtd:output.obj
 0002:0001139c       $unwind$?state_case_precision@?$output_processor@DV?$string_output_adapter@D@__crt_stdio_output@@V?$format_validation_base@DV?$string_output_adapter@D@__crt_stdio_output@@@2@@__crt_stdio_output@@AEAA_NXZ 000000018004d39c     libucrtd:output.obj
 0002:0001139c       $unwind$?state_case_precision@?$output_processor@_WV?$string_output_adapter@_W@__crt_stdio_output@@V?$format_validation_base@_WV?$string_output_adapter@_W@__crt_stdio_output@@@2@@__crt_stdio_output@@AEAA_NXZ 000000018004d39c     libucrtd:output.obj
 0002:0001139c       $unwind$?state_case_width@?$output_processor@DV?$string_output_adapter@D@__crt_stdio_output@@V?$format_validation_base@DV?$string_output_adapter@D@__crt_stdio_output@@@2@@__crt_stdio_output@@AEAA_NXZ 000000018004d39c     libucrtd:output.obj
 0002:0001139c       $unwind$?state_case_width@?$output_processor@_WV?$string_output_adapter@_W@__crt_stdio_output@@V?$format_validation_base@_WV?$string_output_adapter@_W@__crt_stdio_output@@@2@@__crt_stdio_output@@AEAA_NXZ 000000018004d39c     libucrtd:output.obj
 0002:0001139c       $unwind$?tchar_string@?$common_data@D@__crt_stdio_output@@IEAAAEAPEADXZ 000000018004d39c     libucrtd:output.obj
 0002:0001139c       $unwind$?tchar_string@?$common_data@_W@__crt_stdio_output@@IEAAAEAPEA_WXZ 000000018004d39c     libucrtd:output.obj
 0002:0001139c       $unwind$?type_case_X@?$output_processor@DV?$string_output_adapter@D@__crt_stdio_output@@V?$format_validation_base@DV?$string_output_adapter@D@__crt_stdio_output@@@2@@__crt_stdio_output@@AEAA_NXZ 000000018004d39c     libucrtd:output.obj
 0002:0001139c       $unwind$?type_case_X@?$output_processor@_WV?$string_output_adapter@_W@__crt_stdio_output@@V?$format_validation_base@_WV?$string_output_adapter@_W@__crt_stdio_output@@@2@@__crt_stdio_output@@AEAA_NXZ 000000018004d39c     libucrtd:output.obj
 0002:0001139c       $unwind$?type_case_c@?$output_processor@DV?$string_output_adapter@D@__crt_stdio_output@@V?$format_validation_base@DV?$string_output_adapter@D@__crt_stdio_output@@@2@@__crt_stdio_output@@AEAA_NXZ 000000018004d39c     libucrtd:output.obj
 0002:0001139c       $unwind$?type_case_c@?$output_processor@_WV?$string_output_adapter@_W@__crt_stdio_output@@V?$format_validation_base@_WV?$string_output_adapter@_W@__crt_stdio_output@@@2@@__crt_stdio_output@@AEAA_NXZ 000000018004d39c     libucrtd:output.obj
 0002:0001139c       $unwind$?type_case_d@?$output_processor@DV?$string_output_adapter@D@__crt_stdio_output@@V?$format_validation_base@DV?$string_output_adapter@D@__crt_stdio_output@@@2@@__crt_stdio_output@@AEAA_NXZ 000000018004d39c     libucrtd:output.obj
 0002:0001139c       $unwind$?type_case_d@?$output_processor@_WV?$string_output_adapter@_W@__crt_stdio_output@@V?$format_validation_base@_WV?$string_output_adapter@_W@__crt_stdio_output@@@2@@__crt_stdio_output@@AEAA_NXZ 000000018004d39c     libucrtd:output.obj
 0002:0001139c       $unwind$?type_case_o@?$output_processor@DV?$string_output_adapter@D@__crt_stdio_output@@V?$format_validation_base@DV?$string_output_adapter@D@__crt_stdio_output@@@2@@__crt_stdio_output@@AEAA_NXZ 000000018004d39c     libucrtd:output.obj
 0002:0001139c       $unwind$?type_case_o@?$output_processor@_WV?$string_output_adapter@_W@__crt_stdio_output@@V?$format_validation_base@_WV?$string_output_adapter@_W@__crt_stdio_output@@@2@@__crt_stdio_output@@AEAA_NXZ 000000018004d39c     libucrtd:output.obj
 0002:0001139c       $unwind$?type_case_p@?$output_processor@DV?$string_output_adapter@D@__crt_stdio_output@@V?$format_validation_base@DV?$string_output_adapter@D@__crt_stdio_output@@@2@@__crt_stdio_output@@AEAA_NXZ 000000018004d39c     libucrtd:output.obj
 0002:0001139c       $unwind$?type_case_p@?$output_processor@_WV?$string_output_adapter@_W@__crt_stdio_output@@V?$format_validation_base@_WV?$string_output_adapter@_W@__crt_stdio_output@@@2@@__crt_stdio_output@@AEAA_NXZ 000000018004d39c     libucrtd:output.obj
 0002:0001139c       $unwind$?type_case_u@?$output_processor@DV?$string_output_adapter@D@__crt_stdio_output@@V?$format_validation_base@DV?$string_output_adapter@D@__crt_stdio_output@@@2@@__crt_stdio_output@@AEAA_NXZ 000000018004d39c     libucrtd:output.obj
 0002:0001139c       $unwind$?type_case_u@?$output_processor@_WV?$string_output_adapter@_W@__crt_stdio_output@@V?$format_validation_base@_WV?$string_output_adapter@_W@__crt_stdio_output@@@2@@__crt_stdio_output@@AEAA_NXZ 000000018004d39c     libucrtd:output.obj
 0002:0001139c       $unwind$?type_case_x@?$output_processor@DV?$string_output_adapter@D@__crt_stdio_output@@V?$format_validation_base@DV?$string_output_adapter@D@__crt_stdio_output@@@2@@__crt_stdio_output@@AEAA_NXZ 000000018004d39c     libucrtd:output.obj
 0002:0001139c       $unwind$?type_case_x@?$output_processor@_WV?$string_output_adapter@_W@__crt_stdio_output@@V?$format_validation_base@_WV?$string_output_adapter@_W@__crt_stdio_output@@@2@@__crt_stdio_output@@AEAA_NXZ 000000018004d39c     libucrtd:output.obj
 0002:0001139c       $unwind$?update_field_width@?$standard_base@DV?$string_output_adapter@D@__crt_stdio_output@@@__crt_stdio_output@@IEAA_NXZ 000000018004d39c     libucrtd:output.obj
 0002:0001139c       $unwind$?update_field_width@?$standard_base@_WV?$string_output_adapter@_W@__crt_stdio_output@@@__crt_stdio_output@@IEAA_NXZ 000000018004d39c     libucrtd:output.obj
 0002:0001139c       $unwind$?update_precision@?$standard_base@DV?$string_output_adapter@D@__crt_stdio_output@@@__crt_stdio_output@@IEAA_NXZ 000000018004d39c     libucrtd:output.obj
 0002:0001139c       $unwind$?update_precision@?$standard_base@_WV?$string_output_adapter@_W@__crt_stdio_output@@@__crt_stdio_output@@IEAA_NXZ 000000018004d39c     libucrtd:output.obj
 0002:0001139c       $unwind$?__acrt_stdio_free_stream@@YAXV__crt_stdio_stream@@@Z 000000018004d39c     libucrtd:stream.obj
 0002:0001139c       $unwind$wcslen             000000018004d39c     libucrtd:strnlen.obj
 0002:0001139c       $unwind$fegetenv           000000018004d39c     libucrtd:fegetenv.obj
 0002:0001139c       $unwind$??$__crt_fast_decode_pointer@P6AHPEAU_exception@@@Z@@YAP6AHPEAU_exception@@@ZQ6AH0@Z@Z 000000018004d39c     libucrtd:matherr.obj
 0002:0001139c       $unwind$?value@?$dual_state_global@P6AHPEAU_exception@@@Z@__crt_state_management@@QEAAAEAP6AHPEAU_exception@@@ZXZ 000000018004d39c     libucrtd:matherr.obj
 0002:0001139c       $unwind$__acrt_initialize_user_matherr 000000018004d39c     libucrtd:matherr.obj
 0002:000113a4       $unwind$__scrt_initialize_default_local_stdio_options 000000018004d3a4     LIBCMTD:default_local_stdio_options.obj
 0002:000113a4       $unwind$__security_init_cookie 000000018004d3a4     LIBCMTD:gs_support.obj
 0002:000113a4       $unwind$_guard_icall_checks_enforced 000000018004d3a4     LIBCMTD:guard_support.obj
 0002:000113a4       $unwind$__vcrt_initialize_locks 000000018004d3a4     libvcruntimed:locks.obj
 0002:000113a4       $unwind$__vcrt_uninitialize_locks 000000018004d3a4     libvcruntimed:locks.obj
 0002:000113a4       $unwind$__vcrt_getptd      000000018004d3a4     libvcruntimed:per_thread_data.obj
 0002:000113a4       $unwind$?initialize_multibyte@@YAHXZ 000000018004d3a4     libucrtd:multibyte_initializer.obj
 0002:000113a4       $unwind$initialize_pointers 000000018004d3a4     libucrtd:initialization.obj
 0002:000113a4       $unwind$__acrt_initialize_locks 000000018004d3a4     libucrtd:locks.obj
 0002:000113a4       $unwind$?try_get_ptd_head@@YAPEAU__acrt_ptd@@XZ 000000018004d3a4     libucrtd:per_thread_data.obj
 0002:000113a4       $unwind$__acrt_freeptd     000000018004d3a4     libucrtd:per_thread_data.obj
 0002:000113a4       $unwind$__acrt_getptd      000000018004d3a4     libucrtd:per_thread_data.obj
 0002:000113a4       $unwind$__acrt_getptd_head 000000018004d3a4     libucrtd:per_thread_data.obj
 0002:000113a4       $unwind$?should_write_error_to_console@@YA_NXZ 000000018004d3a4     libucrtd:report_runtime_error.obj
 0002:000113a4       $unwind$__acrt_AreFileApisANSI 000000018004d3a4     libucrtd:winapi_thunks.obj
 0002:000113a4       $unwind$__acrt_can_show_message_box 000000018004d3a4     libucrtd:winapi_thunks.obj
 0002:000113a4       $unwind$__pctype_func      000000018004d3a4     libucrtd:ctype.obj
 0002:000113a4       $unwind$__acrt_initialize_multibyte 000000018004d3a4     libucrtd:mbctype.obj
 0002:000113a4       $unwind$__acrt_update_thread_multibyte_data 000000018004d3a4     libucrtd:mbctype.obj
 0002:000113a4       $unwind$__doserrno         000000018004d3a4     libucrtd:errno.obj
 0002:000113a4       $unwind$_errno             000000018004d3a4     libucrtd:errno.obj
 0002:000113a4       $unwind$_invalid_parameter_noinfo 000000018004d3a4     libucrtd:invalid_parameter.obj
 0002:000113a4       $unwind$abort              000000018004d3a4     libucrtd:abort.obj
 0002:000113a4       $unwind$?is_managed_app@@YA_NXZ 000000018004d3a4     libucrtd:exit.obj
 0002:000113a4       $unwind$?should_call_terminate_process@@YA_NXZ 000000018004d3a4     libucrtd:exit.obj
 0002:000113a4       $unwind$__acrt_uninitialize_stdio 000000018004d3a4     libucrtd:_file.obj
 0002:000113a4       $unwind$_clrfp             000000018004d3a4     libucrtd:fpctrl.obj
 0002:000113a4       $unwind$_statfp            000000018004d3a4     libucrtd:fpctrl.obj
 0002:000113a4       $unwind$_clearfp           000000018004d3a4     libucrtd:ieee.obj
 0002:000113a4       $unwind$?get_machine_sse_control@@YA?AW4__acrt_fenv_machine_sse_control@@XZ 000000018004d3a4     libucrtd:_fenvutils.obj
 0002:000113a4       $unwind$?get_machine_sse_status@@YA?AW4__acrt_fenv_machine_sse_status@@XZ 000000018004d3a4     libucrtd:_fenvutils.obj
 0002:000113a4       $unwind$__acrt_fenv_get_control 000000018004d3a4     libucrtd:_fenvutils.obj
 0002:000113a4       $unwind$__acrt_fenv_get_status 000000018004d3a4     libucrtd:_fenvutils.obj
 0002:000113a4       $unwind$__acrt_has_user_matherr 000000018004d3a4     libucrtd:matherr.obj
 0002:000113ac       $unwind$__get_entropy      000000018004d3ac     LIBCMTD:gs_support.obj
 0002:000113b4       $unwind$__scrt_is_nonwritable_in_current_image 000000018004d3b4     LIBCMTD:utility.obj
 0002:000113d4       $unwind$__scrt_acquire_startup_lock 000000018004d3d4     LIBCMTD:utility.obj
 0002:000113d4       $unwind$?internal_getptd_noexit@@YAPEAU__acrt_ptd@@XZ 000000018004d3d4     libucrtd:per_thread_data.obj
 0002:000113d4       $unwind$?initialize_stdio_handles_nolock@@YAXXZ 000000018004d3d4     libucrtd:ioinit.obj
 0002:000113dc       $unwind$__scrt_uninitialize_crt 000000018004d3dc     LIBCMTD:utility.obj
 0002:000113dc       $unwind$??$is_overflow_condition@K@__crt_strtox@@YA_NIK@Z 000000018004d3dc     libucrtd:atox.obj
 0002:000113dc       $unwind$_control87         000000018004d3dc     libucrtd:ieee.obj
 0002:000113e4       $unwind$__scrt_initialize_onexit_tables 000000018004d3e4     LIBCMTD:utility.obj
 0002:000113f0       $unwind$__scrt_dllmain_exception_filter 000000018004d3f0     LIBCMTD:utility.obj
 0002:000113f0       $unwind$__acrt_MessageWindowA 000000018004d3f0     libucrtd:dbgrpt.obj
 0002:000113f0       $unwind$__acrt_MessageWindowW 000000018004d3f0     libucrtd:dbgrpt.obj
 0002:000113f0       $unwind$??R<lambda_7c9dea7b4ca7285d2cdb541a38da6275>@@QEBAHIQEBDQEA_W_K@Z 000000018004d3f0     libucrtd:argv_wildcards.obj
 0002:000113f0       $unwind$??$write_multiple_characters@V?$string_output_adapter@D@__crt_stdio_output@@D@__crt_stdio_output@@YAXAEBV?$string_output_adapter@D@0@DHQEAH@Z 000000018004d3f0     libucrtd:output.obj
 0002:000113f0       $unwind$??$write_multiple_characters@V?$string_output_adapter@_W@__crt_stdio_output@@D@__crt_stdio_output@@YAXAEBV?$string_output_adapter@_W@0@DHQEAH@Z 000000018004d3f0     libucrtd:output.obj
 0002:000113f8       $unwind$__scrt_fastfail    000000018004d3f8     LIBCMTD:utility_desktop.obj
 0002:00011404       $unwind$_RTC_Initialize    000000018004d404     LIBCMTD:initsect.obj
 0002:00011404       $unwind$_RTC_Terminate     000000018004d404     LIBCMTD:initsect.obj
 0002:00011404       $unwind$??$common_initialize_environment_nolock@D@@YAHXZ 000000018004d404     libucrtd:environment_initialization.obj
 0002:00011410       $unwind$ReadNoFence64      000000018004d410     LIBCMTD:guard_support.obj
 0002:00011410       $unwind$?isEHs@__FrameHandler3@@SA_NPEBU_s_FuncInfo@@@Z 000000018004d410     libvcruntimed:frame.obj
 0002:00011410       $unwind$?isNoExcept@__FrameHandler3@@SA_NPEBU_s_FuncInfo@@@Z 000000018004d410     libvcruntimed:frame.obj
 0002:00011410       $unwind$?what@exception@std@@UEBAPEBDXZ 000000018004d410     libvcruntimed:frame.obj
 0002:00011410       $unwind$?detach@?$__crt_unique_heap_ptr@U__vcrt_ptd@@U__crt_internal_free_policy@@@@QEAAPEAU__vcrt_ptd@@XZ 000000018004d410     libvcruntimed:per_thread_data.obj
 0002:00011410       $unwind$?is_valid@?$__crt_unique_heap_ptr@U__vcrt_ptd@@U__crt_internal_free_policy@@@@QEBA_NXZ 000000018004d410     libvcruntimed:per_thread_data.obj
 0002:00011410       $unwind$?detach@?$__crt_unique_heap_ptr@DU__crt_public_free_policy@@@@QEAAPEADXZ 000000018004d410     libvcruntimed:std_exception.obj
 0002:00011410       $unwind$?is_valid@?$__crt_unique_heap_ptr@DU__crt_public_free_policy@@@@QEBA_NXZ 000000018004d410     libvcruntimed:std_exception.obj
 0002:00011410       $unwind$?__crt_interlocked_read_64@@YA_JPED_J@Z 000000018004d410     libvcruntimed:std_type_info.obj
 0002:00011410       $unwind$?is_valid@?$__crt_unique_heap_ptr@DU__crt_internal_free_policy@@@@QEBA_NXZ 000000018004d410     libvcruntimed:std_type_info.obj
 0002:00011410       $unwind$?get@?$c_string_character_source@D@__crt_strtox@@QEAADXZ 000000018004d410     libucrtd:atox.obj
 0002:00011410       $unwind$?get@?$c_string_character_source@_W@__crt_strtox@@QEAA_WXZ 000000018004d410     libucrtd:atox.obj
 0002:00011410       $unwind$?has_surrogate@?A0xc60ee810@@YA_NPEAU_Mbstatet@@@Z 000000018004d410     libucrtd:c16rtomb.obj
 0002:00011410       $unwind$?is_first_surrogate@?A0xc60ee810@@YA_N_S@Z 000000018004d410     libucrtd:c16rtomb.obj
 0002:00011410       $unwind$?is_second_surrogate@?A0xc60ee810@@YA_N_S@Z 000000018004d410     libucrtd:c16rtomb.obj
 0002:00011410       $unwind$?is_zero@__crt_strtox@@YA_NAEBUbig_integer@1@@Z 000000018004d410     libucrtd:cfout.obj
 0002:00011410       $unwind$?__acrt_fp_classify@@YA?AW4__acrt_fp_class@@AEBN@Z 000000018004d410     libucrtd:cvt.obj
 0002:00011410       $unwind$?__acrt_fp_is_negative@@YA_NAEBN@Z 000000018004d410     libucrtd:cvt.obj
 0002:00011410       $unwind$_CrtSetDumpClient  000000018004d410     libucrtd:debug_heap.obj
 0002:00011410       $unwind$__acrt_get_locale_data_prefix 000000018004d410     libucrtd:debug_heap.obj
 0002:00011410       $unwind$?detach@?$__crt_unique_heap_ptr@U__acrt_ptd@@U__crt_internal_free_policy@@@@QEAAPEAU__acrt_ptd@@XZ 000000018004d410     libucrtd:per_thread_data.obj
 0002:00011410       $unwind$?is_valid@?$__crt_unique_heap_ptr@U__acrt_ptd@@U__crt_internal_free_policy@@@@QEBA_NXZ 000000018004d410     libucrtd:per_thread_data.obj
 0002:00011410       $unwind$_MallocaComputeSize 000000018004d410     libucrtd:getstringtypea.obj
 0002:00011410       $unwind$??B?$__crt_scoped_stack_ptr@_W@@QEBA_NXZ 000000018004d410     libucrtd:lcmapstringa.obj
 0002:00011410       $unwind$?detach@?$__crt_unique_heap_ptr@U__crt_lowio_handle_data@@U__crt_internal_free_policy@@@@QEAAPEAU__crt_lowio_handle_data@@XZ 000000018004d410     libucrtd:osfinfo.obj
 0002:00011410       $unwind$?is_valid@?$__crt_unique_heap_ptr@U__crt_lowio_handle_data@@U__crt_internal_free_policy@@@@QEBA_NXZ 000000018004d410     libucrtd:osfinfo.obj
 0002:00011410       $unwind$?detach@?$__crt_unique_heap_ptr@U__crt_multibyte_data@@U__crt_internal_free_policy@@@@QEAAPEAU__crt_multibyte_data@@XZ 000000018004d410     libucrtd:mbctype.obj
 0002:00011410       $unwind$?is_valid@?$__crt_unique_heap_ptr@U__crt_multibyte_data@@U__crt_internal_free_policy@@@@QEBA_NXZ 000000018004d410     libucrtd:mbctype.obj
 0002:00011410       $unwind$?setSBCS@@YAXPEAU__crt_multibyte_data@@@Z 000000018004d410     libucrtd:mbctype.obj
 0002:00011410       $unwind$__acrt_should_sync_with_global_locale 000000018004d410     libucrtd:mbctype.obj
 0002:00011410       $unwind$?detach@?$__crt_unique_heap_ptr@EU__crt_internal_free_policy@@@@QEAAPEAEXZ 000000018004d410     libucrtd:argv_parsing.obj
 0002:00011410       $unwind$?detach@?$__crt_unique_heap_ptr@PEADU__crt_internal_free_policy@@@@QEAAPEAPEADXZ 000000018004d410     libucrtd:argv_parsing.obj
 0002:00011410       $unwind$?is_valid@?$__crt_unique_heap_ptr@EU__crt_internal_free_policy@@@@QEBA_NXZ 000000018004d410     libucrtd:argv_parsing.obj
 0002:00011410       $unwind$?__crt_fast_encode_pointer@@YA?AU__crt_fast_encoded_nullptr_t@@$$T@Z 000000018004d410     libucrtd:exit.obj
 0002:00011410       $unwind$?__crt_interlocked_read_32@@YAHPEDH@Z 000000018004d410     libucrtd:exit.obj
 0002:00011410       $unwind$?detach@?$__crt_unique_heap_ptr@PEAU__crt_stdio_stream_data@@U__crt_internal_free_policy@@@@QEAAPEAPEAU__crt_stdio_stream_data@@XZ 000000018004d410     libucrtd:_file.obj
 0002:00011410       $unwind$??$read_va_arg@C@__crt_stdio_output@@YACAEAPEAD@Z 000000018004d410     libucrtd:output.obj
 0002:00011410       $unwind$??$read_va_arg@E@__crt_stdio_output@@YAEAEAPEAD@Z 000000018004d410     libucrtd:output.obj
 0002:00011410       $unwind$??$read_va_arg@F@__crt_stdio_output@@YAFAEAPEAD@Z 000000018004d410     libucrtd:output.obj
 0002:00011410       $unwind$??$read_va_arg@G@__crt_stdio_output@@YAGAEAPEAD@Z 000000018004d410     libucrtd:output.obj
 0002:00011410       $unwind$??$read_va_arg@H@__crt_stdio_output@@YAHAEAPEAD@Z 000000018004d410     libucrtd:output.obj
 0002:00011410       $unwind$??$read_va_arg@I@__crt_stdio_output@@YAIAEAPEAD@Z 000000018004d410     libucrtd:output.obj
 0002:00011410       $unwind$??$read_va_arg@PEAD@__crt_stdio_output@@YAPEADAEAPEAD@Z 000000018004d410     libucrtd:output.obj
 0002:00011410       $unwind$??$read_va_arg@PEAUansi_string@?1??type_case_Z@?$output_processor@DV?$string_output_adapter@D@__crt_stdio_output@@V?$format_validation_base@DV?$string_output_adapter@D@__crt_stdio_output@@@2@@__crt_stdio_output@@AEAA_NXZ@@__crt_stdio_output@@YAPEAUansi_string@?1??type_case_Z@?$output_processor@DV?$string_output_adapter@D@__crt_stdio_output@@V?$format_validation_base@DV?$string_output_adapter@D@__crt_stdio_output@@@2@@0@AEAA_NXZ@AEAPEAD@Z 000000018004d410     libucrtd:output.obj
 0002:00011410       $unwind$??$read_va_arg@PEAUansi_string@?1??type_case_Z@?$output_processor@_WV?$string_output_adapter@_W@__crt_stdio_output@@V?$format_validation_base@_WV?$string_output_adapter@_W@__crt_stdio_output@@@2@@__crt_stdio_output@@AEAA_NXZ@@__crt_stdio_output@@YAPEAUansi_string@?1??type_case_Z@?$output_processor@_WV?$string_output_adapter@_W@__crt_stdio_output@@V?$format_validation_base@_WV?$string_output_adapter@_W@__crt_stdio_output@@@2@@0@AEAA_NXZ@AEAPEAD@Z 000000018004d410     libucrtd:output.obj
 0002:00011410       $unwind$??$read_va_arg@PEAX@__crt_stdio_output@@YAPEAXAEAPEAD@Z 000000018004d410     libucrtd:output.obj
 0002:00011410       $unwind$??$read_va_arg@U_CRT_DOUBLE@@@__crt_stdio_output@@YA?AU_CRT_DOUBLE@@AEAPEAD@Z 000000018004d410     libucrtd:output.obj
 0002:00011410       $unwind$??$read_va_arg@_J@__crt_stdio_output@@YA_JAEAPEAD@Z 000000018004d410     libucrtd:output.obj
 0002:00011410       $unwind$??$read_va_arg@_K@__crt_stdio_output@@YA_KAEAPEAD@Z 000000018004d410     libucrtd:output.obj
 0002:00011410       $unwind$??$read_va_arg@_W@__crt_stdio_output@@YA_WAEAPEAD@Z 000000018004d410     libucrtd:output.obj
 0002:00011410       $unwind$?advance_to_next_pass@?$standard_base@DV?$string_output_adapter@D@__crt_stdio_output@@@__crt_stdio_output@@IEAA_NXZ 000000018004d410     libucrtd:output.obj
 0002:00011410       $unwind$?advance_to_next_pass@?$standard_base@_WV?$string_output_adapter@_W@__crt_stdio_output@@@__crt_stdio_output@@IEAA_NXZ 000000018004d410     libucrtd:output.obj
 0002:00011410       $unwind$?valid@__crt_stdio_stream@@QEBA_NXZ 000000018004d410     libucrtd:output.obj
 0002:00011410       $unwind$_handle_nan        000000018004d410     libucrtd:libm_error.obj
 0002:00011418       $unwind$__isa_available_init 000000018004d418     LIBCMTD:cpu_disp.obj
 0002:00011428       $unwind$__scrt_is_ucrt_dll_in_use 000000018004d428     LIBCMTD:ucrt_detection.obj
 0002:00011428       $unwind$__acrt_locale_changed 000000018004d428     libucrtd:debug_heap.obj
 0002:00011428       $unwind$_get_printf_count_output 000000018004d428     libucrtd:printf_count_output.obj
 0002:00011428       $unwind$?get_zero_pack@?$__crt_simd_pack_traits@$0A@@@SA?AT__m128i@@XZ 000000018004d428     libucrtd:strnlen.obj
 0002:00011430       $xdatasym                  000000018004d430     LIBCMTD:guard_dispatch.obj
 0002:00011438       $xdatasym                  000000018004d438     LIBCMTD:guard_xfg_dispatch.obj
 0002:0001143c       $unwind$??$__InternalCxxFrameHandler@V__FrameHandler3@@@@YA?AW4_EXCEPTION_DISPOSITION@@PEAUEHExceptionRecord@@PEA_KPEAU_CONTEXT@@PEAU_xDISPATCHER_CONTEXT@@PEBU_s_FuncInfo@@H1E@Z 000000018004d43c     libvcruntimed:frame.obj
 0002:0001143c       $unwind$__C_specific_handler 000000018004d43c     libvcruntimed:riscchandler.obj
 0002:0001143c       $unwind$??$parse_integer@KV?$c_string_character_source@D@__crt_strtox@@@__crt_strtox@@YAKQEAU__crt_locale_pointers@@V?$c_string_character_source@D@0@H_N@Z 000000018004d43c     libucrtd:atox.obj
 0002:0001143c       $unwind$??$parse_integer@KV?$c_string_character_source@_W@__crt_strtox@@@__crt_strtox@@YAKQEAU__crt_locale_pointers@@V?$c_string_character_source@_W@0@H_N@Z 000000018004d43c     libucrtd:atox.obj
 0002:0001143c       $unwind$?fp_format_e@@YAHQEBNQEAD_K12H_NIQEAU__crt_locale_pointers@@W4__acrt_rounding_mode@@@Z 000000018004d43c     libucrtd:cvt.obj
 0002:0001143c       $unwind$_wcstombs_s_l      000000018004d43c     libucrtd:wcstombs.obj
 0002:00011444       $unwind$??3@YAXPEAX_K@Z    000000018004d444     LIBCMTD:delete_scalar_size.obj
 0002:00011444       $unwind$_FindPESection     000000018004d444     LIBCMTD:pesect.obj
 0002:00011444       $unwind$??0bad_exception@std@@QEAA@AEBV01@@Z 000000018004d444     libvcruntimed:frame.obj
 0002:00011444       $unwind$?begin@HandlerMap@__FrameHandler3@@QEAA?AViterator@12@XZ 000000018004d444     libvcruntimed:frame.obj
 0002:00011444       $unwind$?end@HandlerMap@__FrameHandler3@@QEAA?AViterator@12@XZ 000000018004d444     libvcruntimed:frame.obj
 0002:00011444       $unwind$??$?RU__vcrt_ptd@@@__crt_internal_free_policy@@QEBAXQEBU__vcrt_ptd@@@Z 000000018004d444     libvcruntimed:per_thread_data.obj
 0002:00011444       $unwind$??$?RD@__crt_public_free_policy@@QEBAXQEBD@Z 000000018004d444     libvcruntimed:std_exception.obj
 0002:00011444       $unwind$??$?RD@__crt_internal_free_policy@@QEBAXQEBD@Z 000000018004d444     libvcruntimed:std_type_info.obj
 0002:00011444       $unwind$__std_type_info_compare 000000018004d444     libvcruntimed:std_type_info.obj
 0002:00011444       $unwind$??R<lambda_af27fe6ede5d83bbdbd622796c194e9c>@@QEBAXAEAPEAU__crt_multibyte_data@@@Z 000000018004d444     libucrtd:initialization.obj
 0002:00011444       $unwind$??$?RU__acrt_ptd@@@__crt_internal_free_policy@@QEBAXQEBU__acrt_ptd@@@Z 000000018004d444     libucrtd:per_thread_data.obj
 0002:00011444       $unwind$?replace_current_thread_locale_nolock@@YAXQEAU__acrt_ptd@@QEAU__crt_locale_data@@@Z 000000018004d444     libucrtd:per_thread_data.obj
 0002:00011444       $unwind$__acrt_update_locale_info 000000018004d444     libucrtd:locale_update.obj
 0002:00011444       $unwind$__acrt_update_multibyte_info 000000018004d444     libucrtd:locale_update.obj
 0002:00011444       $unwind$??R<lambda_363eea9039da1e8169e2d060c7fe5cbc>@@QEBAXAEAPEAU__crt_locale_data@@@Z 000000018004d444     libucrtd:wsetlocale.obj
 0002:00011444       $unwind$??$?RU__crt_lowio_handle_data@@@__crt_internal_free_policy@@QEBAXQEBU__crt_lowio_handle_data@@@Z 000000018004d444     libucrtd:osfinfo.obj
 0002:00011444       $unwind$??$?RU__crt_multibyte_data@@@__crt_internal_free_policy@@QEBAXQEBU__crt_multibyte_data@@@Z 000000018004d444     libucrtd:mbctype.obj
 0002:00011444       $unwind$??$?RE@__crt_internal_free_policy@@QEBAXQEBE@Z 000000018004d444     libucrtd:argv_parsing.obj
 0002:00011444       $unwind$??$?RPEAD@__crt_internal_free_policy@@QEBAXQEBQEAD@Z 000000018004d444     libucrtd:argv_parsing.obj
 0002:00011444       $unwind$?expand_argv_wildcards@@YAHQEAPEADQEAPEAPEAD@Z 000000018004d444     libucrtd:argv_parsing.obj
 0002:00011444       $unwind$?<lambda_invoker_cdecl>@<lambda_a1ce4c8ae42411fd470c77163914f50e>@@CAHPEBX0@Z 000000018004d444     libucrtd:argv_wildcards.obj
 0002:00011444       $unwind$??$tcspbrk@AEAPEADAEAY02$$CBD@?$__crt_char_traits@D@@SAPEADAEAPEADAEAY02$$CBD@Z 000000018004d444     libucrtd:argv_wildcards.obj
 0002:00011444       $unwind$?deallocate@__crt_win32_buffer_internal_dynamic_resizing@@SAXQEAXAEBV__crt_win32_buffer_empty_debug_info@@@Z 000000018004d444     libucrtd:argv_wildcards.obj
 0002:00011444       $unwind$?previous_character@@YAPEADQEAD0@Z 000000018004d444     libucrtd:argv_wildcards.obj
 0002:00011444       $unwind$?strpbrk@@YAPEADQEADQEBD@Z 000000018004d444     libucrtd:argv_wildcards.obj
 0002:00011444       $unwind$__acrt_expand_narrow_argv_wildcards 000000018004d444     libucrtd:argv_wildcards.obj
 0002:00011444       $unwind$??$__crt_get_proc_address@P6AXI@Z@@YAP6AXI@ZQEAUHINSTANCE__@@QEBD@Z 000000018004d444     libucrtd:exit.obj
 0002:00011444       $unwind$??$?RPEAU__crt_stdio_stream_data@@@__crt_internal_free_policy@@QEBAXQEBQEAU__crt_stdio_stream_data@@@Z 000000018004d444     libucrtd:_file.obj
 0002:00011444       $unwind$??$extract_argument_from_va_list@C_J@?$standard_base@DV?$string_output_adapter@D@__crt_stdio_output@@@__crt_stdio_output@@IEAA_NAEA_J@Z 000000018004d444     libucrtd:output.obj
 0002:00011444       $unwind$??$extract_argument_from_va_list@C_J@?$standard_base@_WV?$string_output_adapter@_W@__crt_stdio_output@@@__crt_stdio_output@@IEAA_NAEA_J@Z 000000018004d444     libucrtd:output.obj
 0002:00011444       $unwind$??$extract_argument_from_va_list@E_J@?$standard_base@DV?$string_output_adapter@D@__crt_stdio_output@@@__crt_stdio_output@@IEAA_NAEA_J@Z 000000018004d444     libucrtd:output.obj
 0002:00011444       $unwind$??$extract_argument_from_va_list@E_J@?$standard_base@_WV?$string_output_adapter@_W@__crt_stdio_output@@@__crt_stdio_output@@IEAA_NAEA_J@Z 000000018004d444     libucrtd:output.obj
 0002:00011444       $unwind$??$extract_argument_from_va_list@F_J@?$standard_base@DV?$string_output_adapter@D@__crt_stdio_output@@@__crt_stdio_output@@IEAA_NAEA_J@Z 000000018004d444     libucrtd:output.obj
 0002:00011444       $unwind$??$extract_argument_from_va_list@F_J@?$standard_base@_WV?$string_output_adapter@_W@__crt_stdio_output@@@__crt_stdio_output@@IEAA_NAEA_J@Z 000000018004d444     libucrtd:output.obj
 0002:00011444       $unwind$??$extract_argument_from_va_list@GD@?$standard_base@DV?$string_output_adapter@D@__crt_stdio_output@@@__crt_stdio_output@@IEAA_NAEAD@Z 000000018004d444     libucrtd:output.obj
 0002:00011444       $unwind$??$extract_argument_from_va_list@G_J@?$standard_base@DV?$string_output_adapter@D@__crt_stdio_output@@@__crt_stdio_output@@IEAA_NAEA_J@Z 000000018004d444     libucrtd:output.obj
 0002:00011444       $unwind$??$extract_argument_from_va_list@G_J@?$standard_base@_WV?$string_output_adapter@_W@__crt_stdio_output@@@__crt_stdio_output@@IEAA_NAEA_J@Z 000000018004d444     libucrtd:output.obj
 0002:00011444       $unwind$??$extract_argument_from_va_list@H_J@?$standard_base@DV?$string_output_adapter@D@__crt_stdio_output@@@__crt_stdio_output@@IEAA_NAEA_J@Z 000000018004d444     libucrtd:output.obj
 0002:00011444       $unwind$??$extract_argument_from_va_list@H_J@?$standard_base@_WV?$string_output_adapter@_W@__crt_stdio_output@@@__crt_stdio_output@@IEAA_NAEA_J@Z 000000018004d444     libucrtd:output.obj
 0002:00011444       $unwind$??$extract_argument_from_va_list@I_J@?$standard_base@DV?$string_output_adapter@D@__crt_stdio_output@@@__crt_stdio_output@@IEAA_NAEA_J@Z 000000018004d444     libucrtd:output.obj
 0002:00011444       $unwind$??$extract_argument_from_va_list@I_J@?$standard_base@_WV?$string_output_adapter@_W@__crt_stdio_output@@@__crt_stdio_output@@IEAA_NAEA_J@Z 000000018004d444     libucrtd:output.obj
 0002:00011444       $unwind$??$extract_argument_from_va_list@PEADPEAD@?$standard_base@DV?$string_output_adapter@D@__crt_stdio_output@@@__crt_stdio_output@@IEAA_NAEAPEAD@Z 000000018004d444     libucrtd:output.obj
 0002:00011444       $unwind$??$extract_argument_from_va_list@PEADPEAD@?$standard_base@_WV?$string_output_adapter@_W@__crt_stdio_output@@@__crt_stdio_output@@IEAA_NAEAPEAD@Z 000000018004d444     libucrtd:output.obj
 0002:00011444       $unwind$??$extract_argument_from_va_list@PEAUansi_string@?1??type_case_Z@?$output_processor@DV?$string_output_adapter@D@__crt_stdio_output@@V?$format_validation_base@DV?$string_output_adapter@D@__crt_stdio_output@@@2@@__crt_stdio_output@@AEAA_NXZ@PEAU1?1??234@AEAA_NXZ@@?$standard_base@DV?$string_output_adapter@D@__crt_stdio_output@@@__crt_stdio_output@@IEAA_NAEAPEAUansi_string@?1??type_case_Z@?$output_processor@DV?$string_output_adapter@D@__crt_stdio_output@@V?$format_validation_base@DV?$string_output_adapter@D@__crt_stdio_output@@@2@@1@AEAA_NXZ@@Z 000000018004d444     libucrtd:output.obj
 0002:00011444       $unwind$??$extract_argument_from_va_list@PEAUansi_string@?1??type_case_Z@?$output_processor@_WV?$string_output_adapter@_W@__crt_stdio_output@@V?$format_validation_base@_WV?$string_output_adapter@_W@__crt_stdio_output@@@2@@__crt_stdio_output@@AEAA_NXZ@PEAU1?1??234@AEAA_NXZ@@?$standard_base@_WV?$string_output_adapter@_W@__crt_stdio_output@@@__crt_stdio_output@@IEAA_NAEAPEAUansi_string@?1??type_case_Z@?$output_processor@_WV?$string_output_adapter@_W@__crt_stdio_output@@V?$format_validation_base@_WV?$string_output_adapter@_W@__crt_stdio_output@@@2@@1@AEAA_NXZ@@Z 000000018004d444     libucrtd:output.obj
 0002:00011444       $unwind$??$extract_argument_from_va_list@PEAXPEAX@?$standard_base@DV?$string_output_adapter@D@__crt_stdio_output@@@__crt_stdio_output@@IEAA_NAEAPEAX@Z 000000018004d444     libucrtd:output.obj
 0002:00011444       $unwind$??$extract_argument_from_va_list@PEAXPEAX@?$standard_base@_WV?$string_output_adapter@_W@__crt_stdio_output@@@__crt_stdio_output@@IEAA_NAEAPEAX@Z 000000018004d444     libucrtd:output.obj
 0002:00011444       $unwind$??$extract_argument_from_va_list@_J_J@?$standard_base@DV?$string_output_adapter@D@__crt_stdio_output@@@__crt_stdio_output@@IEAA_NAEA_J@Z 000000018004d444     libucrtd:output.obj
 0002:00011444       $unwind$??$extract_argument_from_va_list@_J_J@?$standard_base@_WV?$string_output_adapter@_W@__crt_stdio_output@@@__crt_stdio_output@@IEAA_NAEA_J@Z 000000018004d444     libucrtd:output.obj
 0002:00011444       $unwind$??$extract_argument_from_va_list@_K_J@?$standard_base@DV?$string_output_adapter@D@__crt_stdio_output@@@__crt_stdio_output@@IEAA_NAEA_J@Z 000000018004d444     libucrtd:output.obj
 0002:00011444       $unwind$??$extract_argument_from_va_list@_K_J@?$standard_base@_WV?$string_output_adapter@_W@__crt_stdio_output@@@__crt_stdio_output@@IEAA_NAEA_J@Z 000000018004d444     libucrtd:output.obj
 0002:00011444       $unwind$??$extract_argument_from_va_list@_W_W@?$standard_base@DV?$string_output_adapter@D@__crt_stdio_output@@@__crt_stdio_output@@IEAA_NAEA_W@Z 000000018004d444     libucrtd:output.obj
 0002:00011444       $unwind$??$extract_argument_from_va_list@_W_W@?$standard_base@_WV?$string_output_adapter@_W@__crt_stdio_output@@@__crt_stdio_output@@IEAA_NAEA_W@Z 000000018004d444     libucrtd:output.obj
 0002:00011444       $unwind$??4?$__crt_unique_heap_ptr@DU__crt_internal_free_policy@@@@QEAAAEAV0@$$QEAV0@@Z 000000018004d444     libucrtd:output.obj
 0002:00011444       $unwind$?crop_zeroes@__crt_stdio_output@@YAXPEADQEAU__crt_locale_pointers@@@Z 000000018004d444     libucrtd:output.obj
 0002:00011444       $unwind$??$common_strnlen@$00G@@YA_KQEBG_K@Z 000000018004d444     libucrtd:strnlen.obj
 0002:00011444       $unwind$??$common_strnlen@$0A@E@@YA_KQEBE_K@Z 000000018004d444     libucrtd:strnlen.obj
 0002:00011444       $unwind$??$common_strnlen@$0A@G@@YA_KQEBG_K@Z 000000018004d444     libucrtd:strnlen.obj
 0002:00011444       $unwind$strnlen            000000018004d444     libucrtd:strnlen.obj
 0002:00011444       $unwind$wcsnlen            000000018004d444     libucrtd:strnlen.obj
 0002:00011444       $unwind$_fd_int            000000018004d444     libucrtd:_test.obj
 0002:0001144c       $unwind$__FrameUnwindFilter 000000018004d44c     libvcruntimed:ehhelpers.obj
 0002:0001144c       $unwind$?Is_bad_exception_allowed@@YAEPEBU_s_ESTypeList@@@Z 000000018004d44c     libvcruntimed:frame.obj
 0002:0001144c       $unwind$__vcrt_FlsAlloc    000000018004d44c     libvcruntimed:winapi_downlevel.obj
 0002:0001144c       $unwind$?validate@?$c_string_character_source@D@__crt_strtox@@QEBA_NXZ 000000018004d44c     libucrtd:atox.obj
 0002:0001144c       $unwind$?validate@?$c_string_character_source@_W@__crt_strtox@@QEBA_NXZ 000000018004d44c     libucrtd:atox.obj
 0002:0001144c       $unwind$?is_contraction_possible@@YA_N_K@Z 000000018004d44c     libucrtd:expand.obj
 0002:0001144c       $unwind$_malloc_base       000000018004d44c     libucrtd:malloc_base.obj
 0002:0001144c       $unwind$?issue_debug_notification@@YA_NQEB_W@Z 000000018004d44c     libucrtd:report_runtime_error.obj
 0002:0001144c       $unwind$_freea_crt         000000018004d44c     libucrtd:getstringtypea.obj
 0002:0001144c       $unwind$?GetTableIndexFromLocaleName@@YAHPEB_W@Z 000000018004d44c     libucrtd:lcidtoname_downlevel.obj
 0002:0001144c       $unwind$__acrt_free_locale 000000018004d44c     libucrtd:locale_refcounting.obj
 0002:0001144c       $unwind$??R<lambda_5533cddd4bda0037814beee657757329>@@QEBAHXZ 000000018004d44c     libucrtd:commit.obj
 0002:0001144c       $unwind$__acrt_lowio_destroy_handle_array 000000018004d44c     libucrtd:osfinfo.obj
 0002:0001144c       $unwind$__acrt_stdio_free_buffer_nolock 000000018004d44c     libucrtd:_freebuf.obj
 0002:0001144c       $unwind$__acrt_stdio_flush_nolock 000000018004d44c     libucrtd:fflush.obj
 0002:0001144c       $unwind$_fileno            000000018004d44c     libucrtd:fileno.obj
 0002:0001144c       $unwind$?state_case_normal@?$output_processor@DV?$string_output_adapter@D@__crt_stdio_output@@V?$format_validation_base@DV?$string_output_adapter@D@__crt_stdio_output@@@2@@__crt_stdio_output@@AEAA_NXZ 000000018004d44c     libucrtd:output.obj
 0002:0001144c       $unwind$?state_case_normal@?$output_processor@_WV?$string_output_adapter@_W@__crt_stdio_output@@V?$format_validation_base@_WV?$string_output_adapter@_W@__crt_stdio_output@@@2@@__crt_stdio_output@@AEAA_NXZ 000000018004d44c     libucrtd:output.obj
 0002:0001144c       $unwind$?validate@?$string_output_adapter@D@__crt_stdio_output@@QEBA_NXZ 000000018004d44c     libucrtd:output.obj
 0002:0001144c       $unwind$?validate@?$string_output_adapter@_W@__crt_stdio_output@@QEBA_NXZ 000000018004d44c     libucrtd:output.obj
 0002:0001144c       $unwind$?validate_and_update_state_at_end_of_format_string@?$format_validation_base@DV?$string_output_adapter@D@__crt_stdio_output@@@__crt_stdio_output@@IEBA_NXZ 000000018004d44c     libucrtd:output.obj
 0002:0001144c       $unwind$?validate_and_update_state_at_end_of_format_string@?$format_validation_base@_WV?$string_output_adapter@_W@__crt_stdio_output@@@__crt_stdio_output@@IEBA_NXZ 000000018004d44c     libucrtd:output.obj
 0002:00011454       $unwind$__DestructExceptionObject 000000018004d454     libvcruntimed:ehhelpers.obj
 0002:00011474       $unwind$?_FilterSetCurrentException@@YAKPEAU_EXCEPTION_POINTERS@@E@Z 000000018004d474     libvcruntimed:ehhelpers.obj
 0002:00011474       $unwind$?CatchTryBlock@__FrameHandler3@@SAPEBU_s_TryBlockMapEntry@@PEBU_s_FuncInfo@@H@Z 000000018004d474     libvcruntimed:risctrnsctrl.obj
 0002:00011474       $unwind$?is_space@__crt_strtox@@YA_NDQEAU__crt_locale_pointers@@@Z 000000018004d474     libucrtd:atox.obj
 0002:00011474       $unwind$__acrt_FlsSetValue 000000018004d474     libucrtd:winapi_thunks.obj
 0002:00011474       $unwind$__acrt_LocaleNameToLCID 000000018004d474     libucrtd:winapi_thunks.obj
 0002:00011474       $unwind$?has_any_of@__crt_stdio_stream@@QEBA_NJ@Z 000000018004d474     libucrtd:_sftbuf.obj
 0002:00011474       $unwind$?has_all_of@__crt_stdio_stream@@QEBA_NJ@Z 000000018004d474     libucrtd:fflush.obj
 0002:00011474       $unwind$_exception_enabled 000000018004d474     libucrtd:libm_error.obj
 0002:00011480       $xdatasym                  000000018004d480     libvcruntimed:notify.obj
 0002:0001148c       $unwind$__GSHandlerCheck_EH 000000018004d48c     LIBCMTD:gshandlereh.obj
 0002:0001148c       $unwind$__GSHandlerCheck_SEH 000000018004d48c     LIBCMTD:gshandlerseh.obj
 0002:0001148c       $unwind$_vsprintf_s_l      000000018004d48c     libvcruntimed:undname.obj
 0002:0001148c       $unwind$sprintf_s          000000018004d48c     libvcruntimed:undname.obj
 0002:0001148c       $unwind$memcpy_s           000000018004d48c     libucrtd:cfout.obj
 0002:0001148c       $unwind$??$parse_integer_from_string@JDPEAPEAD@__crt_strtox@@YAJQEBDQEAPEADHQEAU__crt_locale_pointers@@@Z 000000018004d48c     libucrtd:strtox.obj
 0002:0001148c       $unwind$??$parse_integer_from_string@J_WPEAPEA_W@__crt_strtox@@YAJQEB_WQEAPEA_WHQEAU__crt_locale_pointers@@@Z 000000018004d48c     libucrtd:strtox.obj
 0002:0001148c       $unwind$__acrt_MessageBoxW 000000018004d48c     libucrtd:winapi_thunks.obj
 0002:0001148c       $unwind$memcpy_s           000000018004d48c     libucrtd:mbctype.obj
 0002:0001148c       $unwind$_snwprintf_s       000000018004d48c     libucrtd:dbgrpt.obj
 0002:0001148c       $unwind$_snprintf_s        000000018004d48c     libucrtd:dbgrptt.obj
 0002:0001148c       $unwind$??$parse_command_line@D@@YAXPEADPEAPEAD0PEA_K2@Z 000000018004d48c     libucrtd:argv_parsing.obj
 0002:0001148c       $unwind$?write_string@?$string_output_adapter@D@__crt_stdio_output@@QEBAXQEBDHQEAHAEAV__crt_deferred_errno_cache@@@Z 000000018004d48c     libucrtd:output.obj
 0002:0001148c       $unwind$?write_string@?$string_output_adapter@_W@__crt_stdio_output@@QEBAXQEB_WHQEAHAEAV__crt_deferred_errno_cache@@@Z 000000018004d48c     libucrtd:output.obj
 0002:0001148c       $unwind$__stdio_common_vsnprintf_s 000000018004d48c     libucrtd:output.obj
 0002:0001148c       $unwind$__stdio_common_vsnwprintf_s 000000018004d48c     libucrtd:output.obj
 0002:0001148c       $unwind$_raise_exc         000000018004d48c     libucrtd:fpexcept.obj
 0002:0001148c       $unwind$_raise_excf        000000018004d48c     libucrtd:fpexcept.obj
 0002:00011494       $unwind$__vcrt_getptd_noexit 000000018004d494     libvcruntimed:per_thread_data.obj
 0002:000114a0       $xdatasym                  000000018004d4a0     libvcruntimed:memcpy.obj
 0002:000114b0       $unwind$?FrameUnwindToEmptyState@__FrameHandler3@@SAXPEA_KPEAU_xDISPATCHER_CONTEXT@@PEBU_s_FuncInfo@@@Z 000000018004d4b0     libvcruntimed:risctrnsctrl.obj
 0002:000114b0       $unwind$??$common_show_message_box@_W@@YAHQEB_W0I@Z 000000018004d4b0     libucrtd:crtmbox.obj
 0002:000114b0       $unwind$?find_next_state@?$output_processor@_WV?$string_output_adapter@_W@__crt_stdio_output@@V?$format_validation_base@_WV?$string_output_adapter@_W@__crt_stdio_output@@@2@@__crt_stdio_output@@AEBA?AW4state@2@_WW432@@Z 000000018004d4b0     libucrtd:output.obj
 0002:000114b8       $unwind$??$SehTransFilter@V__FrameHandler3@@@@YAHPEAU_EXCEPTION_POINTERS@@PEAUEHExceptionRecord@@PEA_KPEAU_CONTEXT@@PEAU_xDISPATCHER_CONTEXT@@PEBU_s_FuncInfo@@HPEAH@Z 000000018004d4b8     libvcruntimed:risctrnsctrl.obj
 0002:000114b8       $unwind$?GetEstablisherFrame@__FrameHandler3@@SAPEA_KPEA_KPEAU_xDISPATCHER_CONTEXT@@PEBU_s_FuncInfo@@0@Z 000000018004d4b8     libvcruntimed:risctrnsctrl.obj
 0002:000114b8       $unwind$_recalloc_dbg      000000018004d4b8     libucrtd:debug_heap.obj
 0002:000114b8       $unwind$??$__acrt_convert_wcs_mbs_cp@_WDV<lambda_f788ae46380686e8b737efdd8c720d07>@@U__crt_win32_buffer_no_resizing@@@@YAHQEB_WAEAV?$__crt_win32_buffer@DU__crt_win32_buffer_no_resizing@@@@AEBV<lambda_f788ae46380686e8b737efdd8c720d07>@@I@Z 000000018004d4b8     libucrtd:getmodulefilenamea.obj
 0002:000114b8       $unwind$_vsnwprintf_s_l    000000018004d4b8     libucrtd:dbgrpt.obj
 0002:000114b8       $unwind$_vsnprintf_s_l     000000018004d4b8     libucrtd:dbgrptt.obj
 0002:000114b8       $unwind$_invalid_parameter 000000018004d4b8     libucrtd:invalid_parameter.obj
 0002:000114b8       $unwind$??$__acrt_convert_wcs_mbs_cp@D_WV<lambda_7c9dea7b4ca7285d2cdb541a38da6275>@@U__crt_win32_buffer_internal_dynamic_resizing@@@@YAHQEBDAEAV?$__crt_win32_buffer@_WU__crt_win32_buffer_internal_dynamic_resizing@@@@AEBV<lambda_7c9dea7b4ca7285d2cdb541a38da6275>@@I@Z 000000018004d4b8     libucrtd:argv_wildcards.obj
 0002:000114b8       $unwind$??$__acrt_convert_wcs_mbs_cp@_WDV<lambda_d8593a27d1aa8c02be35c86a17d324c4>@@U__crt_win32_buffer_internal_dynamic_resizing@@@@YAHQEB_WAEAV?$__crt_win32_buffer@DU__crt_win32_buffer_internal_dynamic_resizing@@@@AEBV<lambda_d8593a27d1aa8c02be35c86a17d324c4>@@I@Z 000000018004d4b8     libucrtd:argv_wildcards.obj
 0002:000114b8       $unwind$??$type_case_integer_parse_into_buffer@_K@?$output_processor@DV?$string_output_adapter@D@__crt_stdio_output@@V?$format_validation_base@DV?$string_output_adapter@D@__crt_stdio_output@@@2@@__crt_stdio_output@@AEAAX_KI_N@Z 000000018004d4b8     libucrtd:output.obj
 0002:000114b8       $unwind$??$type_case_integer_parse_into_buffer@_K@?$output_processor@_WV?$string_output_adapter@_W@__crt_stdio_output@@V?$format_validation_base@_WV?$string_output_adapter@_W@__crt_stdio_output@@@2@@__crt_stdio_output@@AEAAX_KI_N@Z 000000018004d4b8     libucrtd:output.obj
 0002:000114b8       $unwind$_raise_exc_ex      000000018004d4b8     libucrtd:fpexcept.obj
 0002:000114c0       $unwind$?UnwindNestedFrames@__FrameHandler3@@SAXPEA_KPEAUEHExceptionRecord@@PEAU_CONTEXT@@0PEAXPEBU_s_FuncInfo@@HHPEBU_s_HandlerType@@PEAU_xDISPATCHER_CONTEXT@@E@Z 000000018004d4c0     libvcruntimed:risctrnsctrl.obj
 0002:000114d4       $unwind$?GetRangeOfTrysToCheck@__FrameHandler3@@SA?AU?$pair@Viterator@TryBlockMap@__FrameHandler3@@V123@@std@@AEAVTryBlockMap@1@HPEAU_xDISPATCHER_CONTEXT@@PEBU_s_FuncInfo@@H@Z 000000018004d4d4     libvcruntimed:risctrnsctrl.obj
 0002:000114d4       $unwind$__CxxFrameHandler3 000000018004d4d4     libvcruntimed:risctrnsctrl.obj
 0002:000114d4       $unwind$__acrt_fp_strflt_to_string 000000018004d4d4     libucrtd:_fptostr.obj
 0002:000114d4       $unwind$?fp_format_f_internal@@YAHQEAD_KHQEAU_strflt@@_NQEAU__crt_locale_pointers@@@Z 000000018004d4d4     libucrtd:cvt.obj
 0002:000114d4       $unwind$??$copy_and_add_argument_to_buffer@D@@YAHQEBD0_KAEAV?$argument_list@D@?A0x5f5c8891@@@Z 000000018004d4d4     libucrtd:argv_wildcards.obj
 0002:000114d4       $unwind$??$common_vsprintf_s@D@@YAH_KQEAD0QEBDQEAU__crt_locale_pointers@@1@Z 000000018004d4d4     libucrtd:output.obj
 0002:000114dc       $unwind$??$_CallSETranslator@V__FrameHandler3@@@@YAHPEAUEHExceptionRecord@@PEA_KPEAU_CONTEXT@@PEAU_xDISPATCHER_CONTEXT@@PEBU_s_FuncInfo@@K1H@Z 000000018004d4dc     libvcruntimed:risctrnsctrl.obj
 0002:000114fc       $unwind$?filt$0@?0???$_CallSETranslator@V__FrameHandler3@@@@YAHPEAUEHExceptionRecord@@PEA_KPEAU_CONTEXT@@PEAU_xDISPATCHER_CONTEXT@@PEBU_s_FuncInfo@@K1H@Z@4HA 000000018004d4fc     libvcruntimed:risctrnsctrl.obj
 0002:000114fc       $unwind$?fin$0@?0??heap_alloc_dbg_internal@@YAPEAX_KHQEBDH@Z@4HA 000000018004d4fc     libucrtd:debug_heap.obj
 0002:000114fc       $unwind$_CrtMemCheckpoint$fin$0 000000018004d4fc     libucrtd:debug_heap.obj
 0002:000114fc       $unwind$_VCrtDbgReportA$fin$0 000000018004d4fc     libucrtd:dbgrptt.obj
 0002:000114fc       $unwind$_VCrtDbgReportA$fin$1 000000018004d4fc     libucrtd:dbgrptt.obj
 0002:000114fc       $unwind$_VCrtDbgReportW$fin$0 000000018004d4fc     libucrtd:dbgrptt.obj
 0002:000114fc       $unwind$_VCrtDbgReportW$fin$1 000000018004d4fc     libucrtd:dbgrptt.obj
 0002:00011504       $unwind$??$?0AEAViterator@TryBlockMap@__FrameHandler3@@AEAV012@$0A@@?$pair@Viterator@TryBlockMap@__FrameHandler3@@V123@@std@@QEAA@AEAViterator@TryBlockMap@__FrameHandler3@@0@Z 000000018004d504     libvcruntimed:risctrnsctrl.obj
 0002:00011510       $unwind$__vcrt_FlsFree     000000018004d510     libvcruntimed:winapi_downlevel.obj
 0002:00011510       $unwind$__vcrt_FlsGetValue 000000018004d510     libvcruntimed:winapi_downlevel.obj
 0002:00011510       $unwind$??$get_cached_win_policy@Udeveloper_information_policy_properties@?1??__acrt_get_developer_information_policy@@YA?AW4developer_information_policy@@XZ@@@YA?AW4developer_information_policy@@W4AppPolicyShowDeveloperDiagnostic@@@Z 000000018004d510     libucrtd:win_policies.obj
 0002:00011510       $unwind$??$get_cached_win_policy@Uwindowing_model_policy_properties@?1??__acrt_get_windowing_model_policy@@YA?AW4windowing_model_policy@@XZ@@@YA?AW4windowing_model_policy@@W4AppPolicyWindowingModel@@@Z 000000018004d510     libucrtd:win_policies.obj
 0002:00011510       $unwind$__acrt_uninitialize_winapi_thunks 000000018004d510     libucrtd:winapi_thunks.obj
 0002:00011510       $unwind$_isatty            000000018004d510     libucrtd:isatty.obj
 0002:00011510       $unwind$_get_osfhandle     000000018004d510     libucrtd:osfinfo.obj
 0002:00011510       $unwind$?write_requires_double_translation_nolock@@YA_NH@Z 000000018004d510     libucrtd:write.obj
 0002:00011510       $unwind$_set_error_mode    000000018004d510     libucrtd:set_error_mode.obj
 0002:00011510       $unwind$?try_cor_exit_process@@YAXI@Z 000000018004d510     libucrtd:exit.obj
 0002:00011518       $unwind$__vcrt_FlsSetValue 000000018004d518     libvcruntimed:winapi_downlevel.obj
 0002:00011518       $unwind$?unget@?$c_string_character_source@D@__crt_strtox@@QEAAXD@Z 000000018004d518     libucrtd:atox.obj
 0002:00011518       $unwind$??$__acrt_lock_and_call@V<lambda_8d0ee55de4b1038c4002e0adecdf1839>@@@@YAXW4__acrt_lock_id@@$$QEAV<lambda_8d0ee55de4b1038c4002e0adecdf1839>@@@Z 000000018004d518     libucrtd:per_thread_data.obj
 0002:00011518       $unwind$??$__acrt_lock_and_call@V<lambda_8f455de75cd7d7f24b4096f044d8b9e6>@@@@YAXW4__acrt_lock_id@@$$QEAV<lambda_8f455de75cd7d7f24b4096f044d8b9e6>@@@Z 000000018004d518     libucrtd:per_thread_data.obj
 0002:00011518       $unwind$??$__acrt_lock_and_call@V<lambda_92619d2358a28f41a33ba319515a20b9>@@@@YAXW4__acrt_lock_id@@$$QEAV<lambda_92619d2358a28f41a33ba319515a20b9>@@@Z 000000018004d518     libucrtd:per_thread_data.obj
 0002:00011518       $unwind$??$__acrt_lock_and_call@V<lambda_e157831efee4ea0afb0a2ace5dd5fd0d>@@@@YAXW4__acrt_lock_id@@$$QEAV<lambda_e157831efee4ea0afb0a2ace5dd5fd0d>@@@Z 000000018004d518     libucrtd:per_thread_data.obj
 0002:00011518       $unwind$??$__acrt_lock_and_call@V<lambda_3e16ef9562a7dcce91392c22ab16ea36>@@@@YAXW4__acrt_lock_id@@$$QEAV<lambda_3e16ef9562a7dcce91392c22ab16ea36>@@@Z 000000018004d518     libucrtd:wsetlocale.obj
