 handmade

 Timestamp is 5ec72a4a (Thu May 21 19:26:34 2020)

 Preferred load address is 0000000180000000

 Start         Length     Name                   Class
 0001:00000000 00038dd0H .text$mn                CODE
 0001:00038dd0 00000020H .text$mn$00             CODE
 0001:00038df0 0000068dH .text$x                 CODE
 0002:00000000 00000248H .idata$5                DATA
 0002:00000248 00000028H .00cfg                  DATA
 0002:00000270 00000008H .CRT$XCA                DATA
 0002:00000278 00000008H .CRT$XCZ                DATA
 0002:00000280 00000008H .CRT$XIA                DATA
 0002:00000288 00000018H .CRT$XIC                DATA
 0002:000002a0 00000008H .CRT$XIZ                DATA
 0002:000002a8 00000008H .CRT$XPA                DATA
 0002:000002b0 00000010H .CRT$XPX                DATA
 0002:000002c0 00000008H .CRT$XPXA               DATA
 0002:000002c8 00000008H .CRT$XPZ                DATA
 0002:000002d0 00000008H .CRT$XTA                DATA
 0002:000002d8 00000008H .CRT$XTZ                DATA
 0002:000002e0 00000000H .gfids$y                DATA
 0002:000002e0 000102a0H .rdata                  DATA
 0002:00010580 0000016cH .rdata$r                DATA
 0002:000106ec 000002f4H .rdata$zzzdbg           DATA
 0002:000109e0 00000008H .rtc$IAA                DATA
 0002:000109e8 00000008H .rtc$IZZ                DATA
 0002:000109f0 00000008H .rtc$TAA                DATA
 0002:000109f8 00000008H .rtc$TZZ                DATA
 0002:00010a00 000010a8H .xdata                  DATA
 0002:00011aa8 00000088H .xdata$x                DATA
 0002:00011b30 00000074H .edata                  DATA
 0002:00011ba4 00000014H .idata$2                DATA
 0002:00011bb8 00000018H .idata$3                DATA
 0002:00011bd0 00000248H .idata$4                DATA
 0002:00011e18 00000554H .idata$6                DATA
 0003:00000000 00000a30H .data                   DATA
 0003:00000a30 00000070H .data$r                 DATA
 0003:00000aa0 00001868H .bss                    DATA
 0004:00000000 00002d90H .pdata                  DATA
 0005:00000000 00000094H _RDATA                  DATA

  Address         Publics by Value              Rva+Base               Lib:Object

 0000:00000000       __guard_longjmp_count      0000000000000000     <absolute>
 0000:00000000       __guard_fids_count         0000000000000000     <absolute>
 0000:00000000       __hybrid_code_map_count    0000000000000000     <absolute>
 0000:00000000       __guard_iat_table          0000000000000000     <absolute>
 0000:00000000       __hybrid_code_map          0000000000000000     <absolute>
 0000:00000000       __guard_iat_count          0000000000000000     <absolute>
 0000:00000000       __guard_eh_cont_count      0000000000000000     <absolute>
 0000:00000000       __volatile_metadata        0000000000000000     <absolute>
 0000:00000000       __guard_longjmp_table      0000000000000000     <absolute>
 0000:00000000       __guard_eh_cont_table      0000000000000000     <absolute>
 0000:00000000       __enclave_config           0000000000000000     <absolute>
 0000:00000000       __AbsoluteZero             0000000000000000     <absolute>
 0000:00000000       ___safe_se_handler_count   0000000000000000     <absolute>
 0000:00000000       ___safe_se_handler_table   0000000000000000     <absolute>
 0000:00000000       __guard_fids_table         0000000000000000     <absolute>
 0000:00000000       __hybrid_auxiliary_iat     0000000000000000     <absolute>
 0000:00000000       __dynamic_value_reloc_table 0000000000000000     <absolute>
 0000:00000100       __guard_flags              0000000000000100     <absolute>
 0000:00000000       __ImageBase                0000000180000000     <linker-defined>
 0001:00000320       GameUpdateAndRender        0000000180001320 f   handmade.obj
 0001:00002860       GameGetSoundSamples        0000000180003860 f   handmade.obj
 0001:000028a0       ?FloorReal32ToInt32@@YAHM@Z 00000001800038a0 f i handmade.obj
 0001:000028d0       ?GetController@@YAPEAUgame_controller_input@@PEAUgame_input@@H@Z 00000001800038d0 f i handmade.obj
 0001:00002920       ?GetTileMap@@YAPEAUtile_map@@PEAUworld@@HH@Z 0000000180003920 f i handmade.obj
 0001:000029a0       ?GetTileValueUnchecked@@YAIPEAUworld@@PEAUtile_map@@HH@Z 00000001800039a0 f i handmade.obj
 0001:00002a40       ?IsTileMapPointEmpty@@YAHPEAUworld@@PEAUtile_map@@HH@Z 0000000180003a40 f i handmade.obj
 0001:00002ad0       ?RecanonicalizeCoord@@YAXPEAUworld@@HPEAH1PEAM@Z 0000000180003ad0 f i handmade.obj
 0001:00002be0       ?RecanonicalizePosition@@YA?AUcanonical_position@@PEAUworld@@U1@@Z 0000000180003be0 f i handmade.obj
 0001:00002ca0       ?RoundReal32ToInt32@@YAHM@Z 0000000180003ca0 f i handmade.obj
 0001:00002cd0       ?RoundReal32ToUInt32@@YAIM@Z 0000000180003cd0 f i handmade.obj
 0001:00002d00       __GSHandlerCheck           0000000180003d00 f   LIBCMTD:gshandler.obj
 0001:00002d40       __GSHandlerCheckCommon     0000000180003d40 f   LIBCMTD:gshandler.obj
 0001:00002e50       __security_check_cookie    0000000180003e50 f   LIBCMTD:amdsecgs.obj
 0001:00003290       _DllMainCRTStartup         0000000180004290 f   LIBCMTD:dll_dllmain.obj
 0001:000032d0       __raise_securityfailure    00000001800042d0 f   LIBCMTD:gs_report.obj
 0001:00003310       __report_gsfailure         0000000180004310 f   LIBCMTD:gs_report.obj
 0001:000033f0       __report_rangecheckfailure 00000001800043f0 f   LIBCMTD:gs_report.obj
 0001:00003410       __report_securityfailure   0000000180004410 f   LIBCMTD:gs_report.obj
 0001:000036d0       __security_init_cookie     00000001800046d0 f   LIBCMTD:gs_support.obj
 0001:00003750       DllMain                    0000000180004750 f   LIBCMTD:dll_dllmain_stub.obj
 0001:00003770       ?__scrt_initialize_type_info@@YAXXZ 0000000180004770 f   LIBCMTD:tncleanup.obj
 0001:00003790       ?__scrt_uninitialize_type_info@@YAXXZ 0000000180004790 f   LIBCMTD:tncleanup.obj
 0001:000037b0       __local_stdio_printf_options 00000001800047b0 f i LIBCMTD:default_local_stdio_options.obj
 0001:000037c0       __local_stdio_scanf_options 00000001800047c0 f i LIBCMTD:default_local_stdio_options.obj
 0001:000037d0       __scrt_initialize_default_local_stdio_options 00000001800047d0 f   LIBCMTD:default_local_stdio_options.obj
 0001:00003820       ?configure_argv@__scrt_narrow_argv_policy@@SAHXZ 0000000180004820 f i LIBCMTD:utility.obj
 0001:00003910       ?initialize_environment@__scrt_narrow_environment_policy@@SAHXZ 0000000180004910 f i LIBCMTD:utility.obj
 0001:000039b0       NtCurrentTeb               00000001800049b0 f i LIBCMTD:utility.obj
 0001:000039c0       __scrt_acquire_startup_lock 00000001800049c0 f   LIBCMTD:utility.obj
 0001:00003a30       __scrt_dllmain_after_initialize_c 0000000180004a30 f   LIBCMTD:utility.obj
 0001:00003a60       __scrt_dllmain_before_initialize_c 0000000180004a60 f   LIBCMTD:utility.obj
 0001:00003a80       __scrt_dllmain_crt_thread_attach 0000000180004a80 f   LIBCMTD:utility.obj
 0001:00003ab0       __scrt_dllmain_crt_thread_detach 0000000180004ab0 f   LIBCMTD:utility.obj
 0001:00003ad0       __scrt_dllmain_exception_filter 0000000180004ad0 f   LIBCMTD:utility.obj
 0001:00003b40       __scrt_dllmain_uninitialize_c 0000000180004b40 f   LIBCMTD:utility.obj
 0001:00003b70       __scrt_dllmain_uninitialize_critical 0000000180004b70 f   LIBCMTD:utility.obj
 0001:00003b90       __scrt_initialize_crt      0000000180004b90 f   LIBCMTD:utility.obj
 0001:00003be0       __scrt_initialize_onexit_tables 0000000180004be0 f   LIBCMTD:utility.obj
 0001:00003cf0       __scrt_is_nonwritable_in_current_image 0000000180004cf0 f   LIBCMTD:utility.obj
 0001:00003d80       __scrt_release_startup_lock 0000000180004d80 f   LIBCMTD:utility.obj
 0001:00003db0       __scrt_uninitialize_crt    0000000180004db0 f   LIBCMTD:utility.obj
 0001:00003df0       __scrt_get_dyn_tls_init_callback 0000000180004df0 f   LIBCMTD:dyn_tls_init.obj
 0001:00003e00       __crt_debugger_hook        0000000180004e00 f   LIBCMTD:utility_desktop.obj
 0001:00003e10       __scrt_fastfail            0000000180004e10 f   LIBCMTD:utility_desktop.obj
 0001:00003fb0       _RTC_Initialize            0000000180004fb0 f   LIBCMTD:initsect.obj
 0001:00004000       _RTC_Terminate             0000000180005000 f   LIBCMTD:initsect.obj
 0001:00004050       ??1?$__crt_simd_cleanup_guard@$0A@@@QEAA@XZ 0000000180005050 f i libucrtd:strnlen.obj
 0001:00004050       ??1scoped_global_state_reset@__crt_state_management@@QEAA@XZ 0000000180005050 f i libucrtd:onexit.obj
 0001:00004050       _guard_check_icall_nop     0000000180005050 f i LIBCMTD:guard_support.obj
 0001:00004060       ?__crt_interlocked_read_64@@YA_JPED_J@Z 0000000180005060 f i libvcruntimed:std_type_info.obj
 0001:00004060       ReadNoFence64              0000000180005060 f i LIBCMTD:guard_support.obj
 0001:00004080       ReadPointerNoFence         0000000180005080 f i LIBCMTD:guard_support.obj
 0001:00004080       ??$__crt_interlocked_read_pointer@UHINSTANCE__@@@@YAPEAUHINSTANCE__@@PEDSEAU0@@Z 0000000180005080 f i libvcruntimed:winapi_downlevel.obj
 0001:00004080       ??$__crt_interlocked_read_pointer@X@@YAPEAXPEDSEAX@Z 0000000180005080 f i libvcruntimed:winapi_downlevel.obj
 0001:000040a0       _guard_icall_checks_enforced 00000001800050a0 f i LIBCMTD:guard_support.obj
 0001:000040e0       __isa_available_init       00000001800050e0 f   LIBCMTD:cpu_disp.obj
 0001:00004480       _get_startup_argv_mode     0000000180005480 f   LIBCMTD:argv_mode.obj
 0001:00004490       __scrt_is_ucrt_dll_in_use  0000000180005490 f   LIBCMTD:ucrt_detection.obj
 0001:000044c0       IsProcessorFeaturePresent  00000001800054c0 f   kernel32:KERNEL32.dll
 0001:000044d0       __C_specific_handler       00000001800054d0 f   libvcruntimed:riscchandler.obj
 0001:00004940       ??$?RU__crt_lowio_handle_data@@@__crt_internal_free_policy@@QEBAXQEBU__crt_lowio_handle_data@@@Z 0000000180005940 f i libucrtd:osfinfo.obj
 0001:00004940       ??$?RU__crt_multibyte_data@@@__crt_internal_free_policy@@QEBAXQEBU__crt_multibyte_data@@@Z 0000000180005940 f i libucrtd:mbctype.obj
 0001:00004940       ??$?RD@__crt_internal_free_policy@@QEBAXQEBD@Z 0000000180005940 f i libvcruntimed:std_type_info.obj
 0001:00004940       ??$?RU__acrt_ptd@@@__crt_internal_free_policy@@QEBAXQEBU__acrt_ptd@@@Z 0000000180005940 f i libucrtd:per_thread_data.obj
 0001:00004940       ??$?RPEAD@__crt_internal_free_policy@@QEBAXQEBQEAD@Z 0000000180005940 f i libucrtd:argv_parsing.obj
 0001:00004940       ??$?RU__vcrt_ptd@@@__crt_internal_free_policy@@QEBAXQEBU__vcrt_ptd@@@Z 0000000180005940 f i libvcruntimed:per_thread_data.obj
 0001:00004940       ??$?RPEAU__crt_stdio_stream_data@@@__crt_internal_free_policy@@QEBAXQEBQEAU__crt_stdio_stream_data@@@Z 0000000180005940 f i libucrtd:_file.obj
 0001:00004940       ??$?RE@__crt_internal_free_policy@@QEBAXQEBE@Z 0000000180005940 f i libucrtd:argv_parsing.obj
 0001:00004970       ??0__crt_stdio_stream@@QEAA@QEAU_iobuf@@@Z 0000000180005970 f i libucrtd:output.obj
 0001:00004970       ??0?$__crt_unique_heap_ptr@PEAU__crt_stdio_stream_data@@U__crt_internal_free_policy@@@@QEAA@QEAPEAU__crt_stdio_stream_data@@@Z 0000000180005970 f i libucrtd:_file.obj
 0001:00004970       ??0?$__crt_unique_heap_ptr@DU__crt_internal_free_policy@@@@QEAA@QEAD@Z 0000000180005970 f i libvcruntimed:std_type_info.obj
 0001:00004970       ??0?$__crt_unique_heap_ptr@DU__crt_public_free_policy@@@@QEAA@QEAD@Z 0000000180005970 f i libvcruntimed:std_exception.obj
 0001:00004970       ??0?$__crt_unique_heap_ptr@U__crt_multibyte_data@@U__crt_internal_free_policy@@@@QEAA@QEAU__crt_multibyte_data@@@Z 0000000180005970 f i libucrtd:mbctype.obj
 0001:00004970       ??0?$__crt_unique_handle_t@U__crt_findfile_traits@@@@QEAA@QEAX@Z 0000000180005970 f i libucrtd:argv_wildcards.obj
 0001:00004970       ??0__crt_stdio_stream@@QEAA@QEAU__crt_stdio_stream_data@@@Z 0000000180005970 f i libucrtd:fflush.obj
 0001:00004970       ??0?$__crt_unique_heap_ptr@PEADU__crt_internal_free_policy@@@@QEAA@QEAPEAD@Z 0000000180005970 f i libucrtd:argv_parsing.obj
 0001:00004970       ??0?$string_output_adapter@_W@__crt_stdio_output@@QEAA@QEAU?$string_output_adapter_context@_W@1@@Z 0000000180005970 f i libucrtd:output.obj
 0001:00004970       ??0?$__crt_scoped_stack_ptr_tag@_W@@QEAA@QEA_W@Z 0000000180005970 f i libucrtd:getstringtypea.obj
 0001:00004970       ??0?$string_output_adapter@D@__crt_stdio_output@@QEAA@QEAU?$string_output_adapter_context@D@1@@Z 0000000180005970 f i libucrtd:output.obj
 0001:00004970       ??0?$__crt_unique_heap_ptr@U__acrt_ptd@@U__crt_internal_free_policy@@@@QEAA@QEAU__acrt_ptd@@@Z 0000000180005970 f i libucrtd:per_thread_data.obj
 0001:00004970       ??0?$__crt_unique_handle_t@U__crt_hmodule_traits@@@@QEAA@QEAUHINSTANCE__@@@Z 0000000180005970 f i libucrtd:exit.obj
 0001:00004970       ??0?$__crt_unique_heap_ptr@EU__crt_internal_free_policy@@@@QEAA@QEAE@Z 0000000180005970 f i libucrtd:argv_parsing.obj
 0001:00004970       ??0?$__crt_unique_heap_ptr@U__crt_lowio_handle_data@@U__crt_internal_free_policy@@@@QEAA@QEAU__crt_lowio_handle_data@@@Z 0000000180005970 f i libucrtd:osfinfo.obj
 0001:00004970       ??0?$__crt_scoped_stack_ptr@_W@@QEAA@U?$__crt_scoped_stack_ptr_tag@_W@@@Z 0000000180005970 f i libucrtd:getstringtypea.obj
 0001:00004970       ??0?$__crt_unique_heap_ptr@U__vcrt_ptd@@U__crt_internal_free_policy@@@@QEAA@QEAU__vcrt_ptd@@@Z 0000000180005970 f i libvcruntimed:per_thread_data.obj
 0001:00004990       ??1?$__crt_unique_heap_ptr@PEAU__crt_stdio_stream_data@@U__crt_internal_free_policy@@@@QEAA@XZ 0000000180005990 f i libucrtd:_file.obj
 0001:00004990       ??1?$__crt_unique_heap_ptr@PEADU__crt_internal_free_policy@@@@QEAA@XZ 0000000180005990 f i libucrtd:argv_parsing.obj
 0001:00004990       ??1?$__crt_unique_heap_ptr@U__crt_multibyte_data@@U__crt_internal_free_policy@@@@QEAA@XZ 0000000180005990 f i libucrtd:mbctype.obj
 0001:00004990       ??1?$__crt_unique_heap_ptr@U__acrt_ptd@@U__crt_internal_free_policy@@@@QEAA@XZ 0000000180005990 f i libucrtd:per_thread_data.obj
 0001:00004990       ??1?$__crt_unique_heap_ptr@EU__crt_internal_free_policy@@@@QEAA@XZ 0000000180005990 f i libucrtd:argv_parsing.obj
 0001:00004990       ??1?$__crt_unique_heap_ptr@U__vcrt_ptd@@U__crt_internal_free_policy@@@@QEAA@XZ 0000000180005990 f i libvcruntimed:per_thread_data.obj
 0001:00004990       ??1?$__crt_unique_heap_ptr@DU__crt_internal_free_policy@@@@QEAA@XZ 0000000180005990 f i libvcruntimed:std_type_info.obj
 0001:00004990       ??1?$__crt_unique_heap_ptr@U__crt_lowio_handle_data@@U__crt_internal_free_policy@@@@QEAA@XZ 0000000180005990 f i libucrtd:osfinfo.obj
 0001:000049b0       ??B?$__crt_unique_heap_ptr@U__acrt_ptd@@U__crt_internal_free_policy@@@@QEBA_NXZ 00000001800059b0 f i libucrtd:per_thread_data.obj
 0001:000049b0       ??B?$__crt_unique_heap_ptr@U__crt_multibyte_data@@U__crt_internal_free_policy@@@@QEBA_NXZ 00000001800059b0 f i libucrtd:mbctype.obj
 0001:000049b0       ??B?$__crt_unique_heap_ptr@U__vcrt_ptd@@U__crt_internal_free_policy@@@@QEBA_NXZ 00000001800059b0 f i libvcruntimed:per_thread_data.obj
 0001:000049b0       ??B?$__crt_unique_heap_ptr@EU__crt_internal_free_policy@@@@QEBA_NXZ 00000001800059b0 f i libucrtd:argv_parsing.obj
 0001:000049b0       ??B?$__crt_unique_heap_ptr@U__crt_lowio_handle_data@@U__crt_internal_free_policy@@@@QEBA_NXZ 00000001800059b0 f i libucrtd:osfinfo.obj
 0001:000049b0       ??B?$__crt_unique_heap_ptr@DU__crt_public_free_policy@@@@QEBA_NXZ 00000001800059b0 f i libvcruntimed:std_exception.obj
 0001:000049b0       ??B?$__crt_unique_heap_ptr@DU__crt_internal_free_policy@@@@QEBA_NXZ 00000001800059b0 f i libvcruntimed:std_type_info.obj
 0001:000049d0       ?get@?$__crt_unique_heap_ptr@U__crt_lowio_handle_data@@U__crt_internal_free_policy@@@@QEBAPEAU__crt_lowio_handle_data@@XZ 00000001800059d0 f i libucrtd:osfinfo.obj
 0001:000049d0       ?get@?$__crt_scoped_stack_ptr@_W@@QEBAPEA_WXZ 00000001800059d0 f i libucrtd:getstringtypea.obj
 0001:000049d0       ?get@?$__crt_unique_heap_ptr@U__acrt_ptd@@U__crt_internal_free_policy@@@@QEBAPEAU__acrt_ptd@@XZ 00000001800059d0 f i libucrtd:per_thread_data.obj
 0001:000049d0       ?save_state@?$c_string_character_source@_W@__crt_strtox@@QEBAPEB_WXZ 00000001800059d0 f i libucrtd:atox.obj
 0001:000049d0       ?get@?$__crt_unique_heap_ptr@DU__crt_internal_free_policy@@@@QEBAPEADXZ 00000001800059d0 f i libvcruntimed:std_type_info.obj
 0001:000049d0       ?get@?$__crt_unique_heap_ptr@U__crt_multibyte_data@@U__crt_internal_free_policy@@@@QEBAPEAU__crt_multibyte_data@@XZ 00000001800059d0 f i libucrtd:mbctype.obj
 0001:000049d0       ?get@?$__crt_unique_heap_ptr@EU__crt_internal_free_policy@@@@QEBAPEAEXZ 00000001800059d0 f i libucrtd:argv_parsing.obj
 0001:000049d0       ?get@?$__crt_unique_handle_t@U__crt_hmodule_traits@@@@QEBAPEAUHINSTANCE__@@XZ 00000001800059d0 f i libucrtd:exit.obj
 0001:000049d0       ?get@?$__crt_unique_heap_ptr@PEADU__crt_internal_free_policy@@@@QEBAPEAPEADXZ 00000001800059d0 f i libucrtd:argv_parsing.obj
 0001:000049d0       ?save_state@?$c_string_character_source@D@__crt_strtox@@QEBAPEBDXZ 00000001800059d0 f i libucrtd:atox.obj
 0001:000049d0       ?get@?$__crt_unique_handle_t@U__crt_findfile_traits@@@@QEBAPEAXXZ 00000001800059d0 f i libucrtd:argv_wildcards.obj
 0001:000049d0       ?public_stream@__crt_stdio_stream@@QEBAPEAU_iobuf@@XZ 00000001800059d0 f i libucrtd:output.obj
 0001:000049d0       ??C__crt_stdio_stream@@QEBAPEAU__crt_stdio_stream_data@@XZ 00000001800059d0 f i libucrtd:output.obj
 0001:000049d0       ?get@?$__crt_unique_heap_ptr@U__vcrt_ptd@@U__crt_internal_free_policy@@@@QEBAPEAU__vcrt_ptd@@XZ 00000001800059d0 f i libvcruntimed:per_thread_data.obj
 0001:000049d0       ?get@?$__crt_unique_heap_ptr@DU__crt_public_free_policy@@@@QEBAPEADXZ 00000001800059d0 f i libvcruntimed:std_exception.obj
 0001:000049e0       ?is_valid@?$__crt_unique_heap_ptr@DU__crt_internal_free_policy@@@@QEBA_NXZ 00000001800059e0 f i libvcruntimed:std_type_info.obj
 0001:000049e0       ?is_valid@?$__crt_unique_heap_ptr@U__crt_multibyte_data@@U__crt_internal_free_policy@@@@QEBA_NXZ 00000001800059e0 f i libucrtd:mbctype.obj
 0001:000049e0       ?is_valid@?$__crt_unique_heap_ptr@U__vcrt_ptd@@U__crt_internal_free_policy@@@@QEBA_NXZ 00000001800059e0 f i libvcruntimed:per_thread_data.obj
 0001:000049e0       ?is_valid@?$__crt_unique_heap_ptr@U__acrt_ptd@@U__crt_internal_free_policy@@@@QEBA_NXZ 00000001800059e0 f i libucrtd:per_thread_data.obj
 0001:000049e0       ?is_valid@?$__crt_unique_heap_ptr@DU__crt_public_free_policy@@@@QEBA_NXZ 00000001800059e0 f i libvcruntimed:std_exception.obj
 0001:000049e0       ?is_valid@?$__crt_unique_heap_ptr@U__crt_lowio_handle_data@@U__crt_internal_free_policy@@@@QEBA_NXZ 00000001800059e0 f i libucrtd:osfinfo.obj
 0001:000049e0       ??B?$__crt_scoped_stack_ptr@_W@@QEBA_NXZ 00000001800059e0 f i libucrtd:lcmapstringa.obj
 0001:000049e0       ?is_valid@?$__crt_unique_heap_ptr@EU__crt_internal_free_policy@@@@QEBA_NXZ 00000001800059e0 f i libucrtd:argv_parsing.obj
 0001:000049e0       ?valid@__crt_stdio_stream@@QEBA_NXZ 00000001800059e0 f i libucrtd:output.obj
 0001:00004a10       ?release@?$__crt_unique_heap_ptr@DU__crt_internal_free_policy@@@@QEAAXXZ 0000000180005a10 f i libvcruntimed:std_type_info.obj
 0001:00004a10       ?release@?$__crt_unique_heap_ptr@U__vcrt_ptd@@U__crt_internal_free_policy@@@@QEAAXXZ 0000000180005a10 f i libvcruntimed:per_thread_data.obj
 0001:00004a10       ?release@?$__crt_unique_heap_ptr@PEAU__crt_stdio_stream_data@@U__crt_internal_free_policy@@@@QEAAXXZ 0000000180005a10 f i libucrtd:_file.obj
 0001:00004a10       ?release@?$__crt_unique_heap_ptr@PEADU__crt_internal_free_policy@@@@QEAAXXZ 0000000180005a10 f i libucrtd:argv_parsing.obj
 0001:00004a10       ?release@?$__crt_unique_heap_ptr@U__crt_lowio_handle_data@@U__crt_internal_free_policy@@@@QEAAXXZ 0000000180005a10 f i libucrtd:osfinfo.obj
 0001:00004a10       ?release@?$__crt_unique_heap_ptr@U__acrt_ptd@@U__crt_internal_free_policy@@@@QEAAXXZ 0000000180005a10 f i libucrtd:per_thread_data.obj
 0001:00004a10       ?release@?$__crt_unique_heap_ptr@U__crt_multibyte_data@@U__crt_internal_free_policy@@@@QEAAXXZ 0000000180005a10 f i libucrtd:mbctype.obj
 0001:00004a10       ?release@?$__crt_unique_heap_ptr@EU__crt_internal_free_policy@@@@QEAAXXZ 0000000180005a10 f i libucrtd:argv_parsing.obj
 0001:00004a40       __std_type_info_compare    0000000180005a40 f   libvcruntimed:std_type_info.obj
 0001:00004a80       __std_type_info_destroy_list 0000000180005a80 f   libvcruntimed:std_type_info.obj
 0001:00004ae0       __vcrt_initialize          0000000180005ae0 f   libvcruntimed:initialization.obj
 0001:00004b20       __vcrt_thread_attach       0000000180005b20 f   libvcruntimed:initialization.obj
 0001:00004b40       __vcrt_thread_detach       0000000180005b40 f   libvcruntimed:initialization.obj
 0001:00004b60       __vcrt_uninitialize        0000000180005b60 f   libvcruntimed:initialization.obj
 0001:00004b80       __vcrt_uninitialize_critical 0000000180005b80 f   libvcruntimed:initialization.obj
 0001:00004ba0       __DestructExceptionObject  0000000180005ba0 f   libvcruntimed:ehhelpers.obj
 0001:00004ca0       ?_CallMemberFunction0@@YAXQEAX0@Z 0000000180005ca0 f i libvcruntimed:ehhelpers.obj
 0001:00004d70       _IsExceptionObjectToBeDestroyed 0000000180005d70 f   libvcruntimed:ehhelpers.obj
 0001:00004dc0       __AdjustPointer            0000000180005dc0 f   libvcruntimed:ehhelpers.obj
 0001:00004e40       __FrameUnwindFilter        0000000180005e40 f   libvcruntimed:ehhelpers.obj
 0001:00004f00       _NLG_Notify                0000000180005f00 f   libvcruntimed:notify.obj
 0001:00004f20       __NLG_Dispatch2            0000000180005f20 f   libvcruntimed:notify.obj
 0001:00004f30       __NLG_Return2              0000000180005f30 f   libvcruntimed:notify.obj
 0001:00004f40       __except_validate_context_record 0000000180005f40 f   libvcruntimed:jbcxrval.obj
 0001:00004fa0       _vsprintf_s_l              0000000180005fa0 f i libvcruntimed:undname.obj
 0001:00005010       sprintf_s                  0000000180006010 f i libvcruntimed:undname.obj
 0001:000050b0       ?detach@?$__crt_unique_heap_ptr@U__vcrt_ptd@@U__crt_internal_free_policy@@@@QEAAPEAU__vcrt_ptd@@XZ 00000001800060b0 f i libvcruntimed:per_thread_data.obj
 0001:000050b0       ?detach@?$__crt_unique_heap_ptr@U__acrt_ptd@@U__crt_internal_free_policy@@@@QEAAPEAU__acrt_ptd@@XZ 00000001800060b0 f i libucrtd:per_thread_data.obj
 0001:000050b0       ?detach@?$__crt_unique_heap_ptr@U__crt_multibyte_data@@U__crt_internal_free_policy@@@@QEAAPEAU__crt_multibyte_data@@XZ 00000001800060b0 f i libucrtd:mbctype.obj
 0001:000050b0       ?detach@?$__crt_unique_heap_ptr@PEADU__crt_internal_free_policy@@@@QEAAPEAPEADXZ 00000001800060b0 f i libucrtd:argv_parsing.obj
 0001:000050b0       ?detach@?$__crt_unique_heap_ptr@DU__crt_public_free_policy@@@@QEAAPEADXZ 00000001800060b0 f i libvcruntimed:std_exception.obj
 0001:000050b0       ?detach@?$__crt_unique_heap_ptr@PEAU__crt_stdio_stream_data@@U__crt_internal_free_policy@@@@QEAAPEAPEAU__crt_stdio_stream_data@@XZ 00000001800060b0 f i libucrtd:_file.obj
 0001:000050b0       ?detach@?$__crt_unique_heap_ptr@U__crt_lowio_handle_data@@U__crt_internal_free_policy@@@@QEAAPEAU__crt_lowio_handle_data@@XZ 00000001800060b0 f i libucrtd:osfinfo.obj
 0001:000050b0       ?detach@?$__crt_unique_heap_ptr@EU__crt_internal_free_policy@@@@QEAAPEAEXZ 00000001800060b0 f i libucrtd:argv_parsing.obj
 0001:00005120       __vcrt_freefls             0000000180006120 f   libvcruntimed:per_thread_data.obj
 0001:00005160       __vcrt_freeptd             0000000180006160 f   libvcruntimed:per_thread_data.obj
 0001:000051c0       __vcrt_getptd              00000001800061c0 f   libvcruntimed:per_thread_data.obj
 0001:000051f0       __vcrt_getptd_noexit       00000001800061f0 f   libvcruntimed:per_thread_data.obj
 0001:00005390       __vcrt_initialize_ptd      0000000180006390 f   libvcruntimed:per_thread_data.obj
 0001:000053e0       __vcrt_uninitialize_ptd    00000001800063e0 f   libvcruntimed:per_thread_data.obj
 0001:00005410       __vcrt_initialize_locks    0000000180006410 f   libvcruntimed:locks.obj
 0001:00005480       __vcrt_uninitialize_locks  0000000180006480 f   libvcruntimed:locks.obj
 0001:000054f0       memcpy_repmovs             00000001800064f0 f   libvcruntimed:memcpy.obj
 0001:00005510       memmove                    0000000180006510 f   libvcruntimed:memcpy.obj
 0001:00005510       memcpy                     0000000180006510 f   libvcruntimed:memcpy.obj
 0001:000058f0       ??$?0AEAViterator@TryBlockMap@__FrameHandler3@@AEAV012@$0A@@?$pair@Viterator@TryBlockMap@__FrameHandler3@@V123@@std@@QEAA@AEAViterator@TryBlockMap@__FrameHandler3@@0@Z 00000001800068f0 f i libvcruntimed:risctrnsctrl.obj
 0001:00005a00       ??$_CallSETranslator@V__FrameHandler3@@@@YAHPEAUEHExceptionRecord@@PEA_KPEAU_CONTEXT@@PEAU_xDISPATCHER_CONTEXT@@PEBU_s_FuncInfo@@K1@Z 0000000180006a00 f i libvcruntimed:risctrnsctrl.obj
 0001:00005a90       ?debug_info@?$__crt_win32_buffer@_WU__crt_win32_buffer_internal_dynamic_resizing@@@@QEBAAEBV__crt_win32_buffer_empty_debug_info@@XZ 0000000180006a90 f i libucrtd:argv_wildcards.obj
 0001:00005a90       ?get_address_of@?$__crt_unique_heap_ptr@PEADU__crt_internal_free_policy@@@@QEAAPEAPEAPEADXZ 0000000180006a90 f i libucrtd:argv_parsing.obj
 0001:00005a90       ??$forward@AEAViterator@TryBlockMap@__FrameHandler3@@@std@@YAAEAViterator@TryBlockMap@__FrameHandler3@@AEAV123@@Z 0000000180006a90 f i libvcruntimed:risctrnsctrl.obj
 0001:00005a90       ?debug_info@?$__crt_win32_buffer@DU__crt_win32_buffer_internal_dynamic_resizing@@@@QEBAAEBV__crt_win32_buffer_empty_debug_info@@XZ 0000000180006a90 f i libucrtd:argv_wildcards.obj
 0001:00005a90       ?get_address_of@?$__crt_unique_handle_t@U__crt_hmodule_traits@@@@QEAAPEAPEAUHINSTANCE__@@XZ 0000000180006a90 f i libucrtd:exit.obj
 0001:00005a90       ?debug_info@?$__crt_win32_buffer@DU__crt_win32_buffer_no_resizing@@@@QEBAAEBV__crt_win32_buffer_empty_debug_info@@XZ 0000000180006a90 f i libucrtd:getmodulefilenamea.obj
 0001:00005a90       ?dangerous_get_state_array@?$dual_state_global@PEAE@__crt_state_management@@QEAAPEAPEAEXZ 0000000180006a90 f i libucrtd:mbctype.obj
 0001:00005a90       ?dangerous_get_state_array@?$dual_state_global@P6AXPEB_W00I_K@Z@__crt_state_management@@QEAAPEAP6AXPEB_W00I_K@ZXZ 0000000180006a90 f i libucrtd:invalid_parameter.obj
 0001:00005a90       ?dangerous_get_state_array@?$dual_state_global@PEAU__crt_locale_data@@@__crt_state_management@@QEAAPEAPEAU__crt_locale_data@@XZ 0000000180006a90 f i libucrtd:per_thread_data.obj
 0001:00005a90       ?dangerous_get_state_array@?$dual_state_global@PEAU__crt_multibyte_data@@@__crt_state_management@@QEAAPEAPEAU__crt_multibyte_data@@XZ 0000000180006a90 f i libucrtd:mbctype.obj
 0001:00005aa0       ??0iterator@HandlerMap@__FrameHandler3@@QEAA@AEAV12@I@Z 0000000180006aa0 f i libvcruntimed:frame.obj
 0001:00005aa0       ??0iterator@TryBlockMap@__FrameHandler3@@QEAA@AEAV12@I@Z 0000000180006aa0 f i libvcruntimed:risctrnsctrl.obj
 0001:00005ad0       ?CatchTryBlock@__FrameHandler3@@SAPEBU_s_TryBlockMapEntry@@PEBU_s_FuncInfo@@H@Z 0000000180006ad0 f   libvcruntimed:risctrnsctrl.obj
 0001:00005b60       ?ExecutionInCatch@__FrameHandler3@@SA_NPEAU_xDISPATCHER_CONTEXT@@PEBU_s_FuncInfo@@@Z 0000000180006b60 f   libvcruntimed:risctrnsctrl.obj
 0001:00005bb0       ?FrameUnwindToEmptyState@__FrameHandler3@@SAXPEA_KPEAU_xDISPATCHER_CONTEXT@@PEBU_s_FuncInfo@@@Z 0000000180006bb0 f   libvcruntimed:risctrnsctrl.obj
 0001:00005c50       ?GetEstablisherFrame@__FrameHandler3@@SAPEA_KPEA_KPEAU_xDISPATCHER_CONTEXT@@PEBU_s_FuncInfo@@0@Z 0000000180006c50 f   libvcruntimed:risctrnsctrl.obj
 0001:00005dc0       ?GetRangeOfTrysToCheck@__FrameHandler3@@SA?AU?$pair@Viterator@TryBlockMap@__FrameHandler3@@V123@@std@@AEAVTryBlockMap@1@HPEAU_xDISPATCHER_CONTEXT@@PEBU_s_FuncInfo@@H@Z 0000000180006dc0 f   libvcruntimed:risctrnsctrl.obj
 0001:00006000       ?UnwindNestedFrames@__FrameHandler3@@SAXPEA_KPEAUEHExceptionRecord@@PEAU_CONTEXT@@0PEAXPEBU_s_FuncInfo@@HHPEBU_s_HandlerType@@PEAU_xDISPATCHER_CONTEXT@@E@Z 0000000180007000 f   libvcruntimed:risctrnsctrl.obj
 0001:00006170       _CreateFrameInfo           0000000180007170 f   libvcruntimed:risctrnsctrl.obj
 0001:000061e0       _FindAndUnlinkFrame        00000001800071e0 f   libvcruntimed:risctrnsctrl.obj
 0001:00006260       _GetImageBase              0000000180007260 f   libvcruntimed:risctrnsctrl.obj
 0001:00006280       _GetThrowImageBase         0000000180007280 f   libvcruntimed:risctrnsctrl.obj
 0001:000062a0       _SetImageBase              00000001800072a0 f   libvcruntimed:risctrnsctrl.obj
 0001:000062c0       _SetThrowImageBase         00000001800072c0 f   libvcruntimed:risctrnsctrl.obj
 0001:000062e0       __CxxFrameHandler3         00000001800072e0 f   libvcruntimed:risctrnsctrl.obj
 0001:000063c0       ??$__crt_interlocked_exchange_pointer@UHINSTANCE__@@PEAX@@YAPEAUHINSTANCE__@@PEDSEAU0@QEAX@Z 00000001800073c0 f i libvcruntimed:winapi_downlevel.obj
 0001:000063c0       ??$__crt_interlocked_exchange_pointer@XPEAX@@YAPEAXPEDSEAXQEAX@Z 00000001800073c0 f i libvcruntimed:winapi_downlevel.obj
 0001:000063c0       ??$__crt_interlocked_exchange_pointer@UHINSTANCE__@@PEAU1@@@YAPEAUHINSTANCE__@@PEDSEAU0@QEAU0@@Z 00000001800073c0 f i libvcruntimed:winapi_downlevel.obj
 0001:000063e0       ?get_invalid_value@__crt_findfile_traits@@SAPEAXXZ 00000001800073e0 f   libucrtd:argv_wildcards.obj
 0001:000068d0       __vcrt_FlsAlloc            00000001800078d0 f   libvcruntimed:winapi_downlevel.obj
 0001:00006920       __vcrt_FlsFree             0000000180007920 f   libvcruntimed:winapi_downlevel.obj
 0001:00006970       __vcrt_FlsGetValue         0000000180007970 f   libvcruntimed:winapi_downlevel.obj
 0001:000069c0       __vcrt_FlsSetValue         00000001800079c0 f   libvcruntimed:winapi_downlevel.obj
 0001:00006a20       __vcrt_InitializeCriticalSectionEx 0000000180007a20 f   libvcruntimed:winapi_downlevel.obj
 0001:00006a90       ?GetCurrentState@__FrameHandler3@@SAHPEA_KPEAU_xDISPATCHER_CONTEXT@@PEBU_s_FuncInfo@@@Z 0000000180007a90 f   libvcruntimed:ehstate.obj
 0001:00006af0       ?GetUnwindTryBlock@__FrameHandler3@@SAHPEA_KPEAU_xDISPATCHER_CONTEXT@@PEBU_s_FuncInfo@@@Z 0000000180007af0 f   libvcruntimed:ehstate.obj
 0001:00006b40       ?SetState@__FrameHandler3@@SAXPEA_KPEBU_s_FuncInfo@@H@Z 0000000180007b40 f   libvcruntimed:ehstate.obj
 0001:00006b70       ?SetUnwindTryBlock@__FrameHandler3@@SAXPEA_KPEAU_xDISPATCHER_CONTEXT@@PEBU_s_FuncInfo@@H@Z 0000000180007b70 f   libvcruntimed:ehstate.obj
 0001:00006be0       ?StateFromControlPc@__FrameHandler3@@SAHPEBU_s_FuncInfo@@PEAU_xDISPATCHER_CONTEXT@@@Z 0000000180007be0 f   libvcruntimed:ehstate.obj
 0001:00006c20       ?StateFromIp@__FrameHandler3@@SAHPEBU_s_FuncInfo@@PEAU_xDISPATCHER_CONTEXT@@_K@Z 0000000180007c20 f   libvcruntimed:ehstate.obj
 0001:00006d10       ?__RVAtoRealOffset@@YA_KPEAU_xDISPATCHER_CONTEXT@@H@Z 0000000180007d10 f i libvcruntimed:ehstate.obj
 0001:00007ee0       ??$TypeMatchHelper@V__FrameHandler3@@@@YAHPEBU_s_HandlerType@@PEBU_s_CatchableType@@PEBU_s_ThrowInfo@@@Z 0000000180008ee0 f i libvcruntimed:frame.obj
 0001:000080e0       ??$__InternalCxxFrameHandler@V__FrameHandler3@@@@YA?AW4_EXCEPTION_DISPOSITION@@PEAUEHExceptionRecord@@PEA_KPEAU_CONTEXT@@PEAU_xDISPATCHER_CONTEXT@@PEBU_s_FuncInfo@@H1E@Z 00000001800090e0 f i libvcruntimed:frame.obj
 0001:00008550       ??0HandlerMap@__FrameHandler3@@QEAA@PEBU_s_TryBlockMapEntry@@_KI@Z 0000000180009550 f i libvcruntimed:frame.obj
 0001:000085a0       ??0TryBlockMap@__FrameHandler3@@QEAA@PEBU_s_FuncInfo@@_K@Z 00000001800095a0 f i libvcruntimed:frame.obj
 0001:000085d0       ??0bad_exception@std@@QEAA@AEBV01@@Z 00000001800095d0 f i libvcruntimed:frame.obj
 0001:00008610       ??0bad_exception@std@@QEAA@XZ 0000000180009610 f i libvcruntimed:frame.obj
 0001:00008650       ??0exception@std@@QEAA@AEBV01@@Z 0000000180009650 f i libvcruntimed:frame.obj
 0001:000086b0       ??0exception@std@@QEAA@QEBDH@Z 00000001800096b0 f i libvcruntimed:frame.obj
 0001:00008700       ??1bad_exception@std@@UEAA@XZ 0000000180009700 f i libvcruntimed:frame.obj
 0001:00008720       ??1exception@std@@UEAA@XZ  0000000180009720 f i libvcruntimed:frame.obj
 0001:00008750       ??8iterator@HandlerMap@__FrameHandler3@@QEBA_NAEBV012@@Z 0000000180009750 f i libvcruntimed:frame.obj
 0001:00008790       ??8type_info@@QEBA_NAEBV0@@Z 0000000180009790 f i libvcruntimed:frame.obj
 0001:000087e0       ??9iterator@HandlerMap@__FrameHandler3@@QEBA_NAEBV012@@Z 00000001800097e0 f i libvcruntimed:frame.obj
 0001:00008820       ??Diterator@HandlerMap@__FrameHandler3@@QEAA?BU_s_HandlerType@@XZ 0000000180009820 f i libvcruntimed:frame.obj
 0001:00008860       ??Diterator@TryBlockMap@__FrameHandler3@@QEAA?BU_s_TryBlockMapEntry@@XZ 0000000180009860 f i libvcruntimed:frame.obj
 0001:000088b0       ??Eiterator@HandlerMap@__FrameHandler3@@QEAAAEAV012@XZ 00000001800098b0 f i libvcruntimed:frame.obj
 0001:000088b0       ??Eiterator@TryBlockMap@__FrameHandler3@@QEAAAEAV012@XZ 00000001800098b0 f i libvcruntimed:frame.obj
 0001:000088d0       ??Miterator@TryBlockMap@__FrameHandler3@@QEBA_NAEBV012@@Z 00000001800098d0 f i libvcruntimed:frame.obj
 0001:00008910       ??_Ebad_exception@std@@UEAAPEAXI@Z 0000000180009910 f i libvcruntimed:frame.obj
 0001:00008910       ??_Gbad_exception@std@@UEAAPEAXI@Z 0000000180009910 f i libvcruntimed:frame.obj
 0001:00008950       ??_Eexception@std@@UEAAPEAXI@Z 0000000180009950 f i libvcruntimed:frame.obj
 0001:00008950       ??_Gexception@std@@UEAAPEAXI@Z 0000000180009950 f i libvcruntimed:frame.obj
 0001:00008990       ?BuildCatchObject@__FrameHandler3@@SAXPEAUEHExceptionRecord@@PEAXPEBU_s_HandlerType@@PEBU_s_CatchableType@@@Z 0000000180009990 f   libvcruntimed:frame.obj
 0001:000089d0       ?CxxCallCatchBlock@__FrameHandler3@@SAPEAXPEAU_EXCEPTION_RECORD@@@Z 00000001800099d0 f   libvcruntimed:frame.obj
 0001:00008d30       ?FrameUnwindToState@__FrameHandler3@@SAXPEA_KPEAU_xDISPATCHER_CONTEXT@@PEBU_s_FuncInfo@@H@Z 0000000180009d30 f   libvcruntimed:frame.obj
 0001:00008f80       ?GetHandlerSearchState@__FrameHandler3@@SAHPEA_KPEAU_xDISPATCHER_CONTEXT@@PEBU_s_FuncInfo@@@Z 0000000180009f80 f i libvcruntimed:frame.obj
 0001:00009030       ?GetMaxState@__FrameHandler3@@SAHPEAU_xDISPATCHER_CONTEXT@@PEBU_s_FuncInfo@@@Z 000000018000a030 f i libvcruntimed:frame.obj
 0001:00009230       __TypeMatch                000000018000a230 f   libvcruntimed:frame.obj
 0001:00009230       ?TypeMatch@__FrameHandler3@@SAHPEBU_s_HandlerType@@PEBU_s_CatchableType@@PEBU_s_ThrowInfo@@@Z 000000018000a230 f   libvcruntimed:frame.obj
 0001:00009260       ?_CallMemberFunction1@@YAXQEAX00@Z 000000018000a260 f i libvcruntimed:frame.obj
 0001:000092a0       ?_CallMemberFunction2@@YAXQEAX00H@Z 000000018000a2a0 f i libvcruntimed:frame.obj
 0001:00009330       ?begin@HandlerMap@__FrameHandler3@@QEAA?AViterator@12@XZ 000000018000a330 f i libvcruntimed:frame.obj
 0001:00009360       ?end@HandlerMap@__FrameHandler3@@QEAA?AViterator@12@XZ 000000018000a360 f i libvcruntimed:frame.obj
 0001:00009390       ?getESTypes@__FrameHandler3@@SAPEBU_s_ESTypeList@@PEBU_s_FuncInfo@@@Z 000000018000a390 f i libvcruntimed:frame.obj
 0001:000093d0       ?getLastEntry@HandlerMap@__FrameHandler3@@QEAAPEBU_s_HandlerType@@XZ 000000018000a3d0 f i libvcruntimed:frame.obj
 0001:000093f0       ?getMagicNum@__FrameHandler3@@SAIPEBU_s_FuncInfo@@@Z 000000018000a3f0 f i libvcruntimed:frame.obj
 0001:00009410       ?getNumTryBlocks@TryBlockMap@__FrameHandler3@@QEAAIXZ 000000018000a410 f i libvcruntimed:frame.obj
 0001:00009430       ?isEHs@__FrameHandler3@@SA_NPEBU_s_FuncInfo@@@Z 000000018000a430 f i libvcruntimed:frame.obj
 0001:00009470       ?isNoExcept@__FrameHandler3@@SA_NPEBU_s_FuncInfo@@@Z 000000018000a470 f i libvcruntimed:frame.obj
 0001:000094b0       ?what@exception@std@@UEBAPEBDXZ 000000018000a4b0 f i libvcruntimed:frame.obj
 0001:000094f0       __vcrt_EncodePointer       000000018000a4f0 f i libvcruntimed:frame.obj
 0001:00009520       memset_repmovs             000000018000a520 f   libvcruntimed:memset.obj
 0001:00009540       memset                     000000018000a540 f   libvcruntimed:memset.obj
 0001:000096e0       _CallSettingFrame          000000018000a6e0 f   libvcruntimed:handlers.obj
 0001:00009730       _CallSettingFrame_LookupContinuationIndex 000000018000a730 f   libvcruntimed:handlers.obj
 0001:00009760       _CallSettingFrame_NotifyContinuationAddr 000000018000a760 f   libvcruntimed:handlers.obj
 0001:00009790       _CallSettingFrameEncoded   000000018000a790 f   libvcruntimed:handlers.obj
 0001:000097e0       ??$?RD@__crt_public_free_policy@@QEBAXQEBD@Z 000000018000a7e0 f i libvcruntimed:std_exception.obj
 0001:00009800       ??1?$__crt_unique_heap_ptr@DU__crt_public_free_policy@@@@QEAA@XZ 000000018000a800 f i libvcruntimed:std_exception.obj
 0001:00009820       ?release@?$__crt_unique_heap_ptr@DU__crt_public_free_policy@@@@QEAAXXZ 000000018000a820 f i libvcruntimed:std_exception.obj
 0001:00009850       __std_exception_copy       000000018000a850 f   libvcruntimed:std_exception.obj
 0001:00009990       __std_exception_destroy    000000018000a990 f   libvcruntimed:std_exception.obj
 0001:000099d0       _CxxThrowException         000000018000a9d0 f   libvcruntimed:throw.obj
 0001:00009b00       floorf                     000000018000ab00 f   libucrtd:floorf.obj
 0001:00009c50       _initterm                  000000018000ac50 f   libucrtd:initterm.obj
 0001:00009cb0       _initterm_e                000000018000acb0 f   libucrtd:initterm.obj
 0001:00009da0       _seh_filter_dll            000000018000ada0 f   libucrtd:exception_filter.obj
 0001:00009dd0       _seh_filter_exe            000000018000add0 f   libucrtd:exception_filter.obj
 0001:0000a070       ??$?B$$A6AXXZ@__crt_fast_encoded_nullptr_t@@QEBAP6AXXZXZ 000000018000b070 f i libucrtd:onexit.obj
 0001:0000a070       ??$?B$$A6AXH@Z@__crt_fast_encoded_nullptr_t@@QEBAP6AXH@ZXZ 000000018000b070 f i libucrtd:signal.obj
 0001:0000a070       ??$?B$$A6AXPEAXK0@Z@__crt_fast_encoded_nullptr_t@@QEBAP6AXPEAXK0@ZXZ 000000018000b070 f i libucrtd:exit.obj
 0001:0000a070       ??$?BX@__crt_fast_encoded_nullptr_t@@QEBAPEAXXZ 000000018000b070 f i libucrtd:initialization.obj
 0001:0000a070       ??$?BP6AXXZ@__crt_fast_encoded_nullptr_t@@QEBAPEAP6AXXZXZ 000000018000b070 f i libucrtd:onexit.obj
 0001:0000a120       ??$__crt_fast_decode_pointer@P6AHPEAU_exception@@@Z@@YAP6AHPEAU_exception@@@ZQ6AH0@Z@Z 000000018000b120 f i libucrtd:matherr.obj
 0001:0000a120       ??$__crt_fast_decode_pointer@P6AXH@Z@@YAP6AXH@ZQ6AXH@Z@Z 000000018000b120 f i libucrtd:signal.obj
 0001:0000a120       ??$__crt_fast_decode_pointer@PEAP6AXXZ@@YAPEAP6AXXZQEAP6AXXZ@Z 000000018000b120 f i libucrtd:onexit.obj
 0001:0000a120       ??$__crt_fast_decode_pointer@P6AXPEB_W00I_K@Z@@YAP6AXPEB_W00I_K@ZQ6AX000I1@Z@Z 000000018000b120 f i libucrtd:invalid_parameter.obj
 0001:0000a120       ??$__crt_fast_decode_pointer@P6AXXZ@@YAP6AXXZQ6AXXZ@Z 000000018000b120 f i libucrtd:onexit.obj
 0001:0000a120       ??$__crt_fast_decode_pointer@PEAX@@YAPEAXQEAX@Z 000000018000b120 f i libucrtd:winapi_thunks.obj
 0001:0000a120       ??$__crt_fast_decode_pointer@P6AH_K@Z@@YAP6AH_K@ZQ6AH0@Z@Z 000000018000b120 f i libucrtd:new_handler.obj
 0001:0000a120       ??$__crt_fast_decode_pointer@P6AXPEAXK0@Z@@YAP6AXPEAXK0@ZQ6AX0K0@Z@Z 000000018000b120 f i libucrtd:exit.obj
 0001:0000a160       ??$__crt_fast_encode_pointer@P6AXPEAXK0@Z@@YAP6AXPEAXK0@ZQ6AX0K0@Z@Z 000000018000b160 f i libucrtd:exit.obj
 0001:0000a160       ??$__crt_fast_encode_pointer@PEAX@@YAPEAXQEAX@Z 000000018000b160 f i libucrtd:initialization.obj
 0001:0000a160       ??$__crt_fast_encode_pointer@P6AXH@Z@@YAP6AXH@ZQ6AXH@Z@Z 000000018000b160 f i libucrtd:signal.obj
 0001:0000a160       ??$__crt_fast_encode_pointer@PEAP6AXXZ@@YAPEAP6AXXZQEAP6AXXZ@Z 000000018000b160 f i libucrtd:onexit.obj
 0001:0000a160       ??$__crt_fast_encode_pointer@P6AXXZ@@YAP6AXXZQ6AXXZ@Z 000000018000b160 f i libucrtd:onexit.obj
 0001:0000a1a0       ??$__crt_get_proc_address@P6AXI@Z@@YAP6AXI@ZQEAUHINSTANCE__@@QEBD@Z 000000018000b1a0 f i libucrtd:exit.obj
 0001:0000a1d0       ??$__crt_interlocked_read@J@@YAJPEDJ@Z 000000018000b1d0 f i libucrtd:exit.obj
 0001:0000a260       ??1?$__crt_unique_handle_t@U__crt_hmodule_traits@@@@QEAA@XZ 000000018000b260 f i libucrtd:exit.obj
 0001:0000a3c0       ?__acrt_select_exit_lock@@YA?AW4__acrt_lock_id@@XZ 000000018000b3c0 f i libucrtd:exit.obj
 0001:0000a3d0       ?__crt_fast_encode_pointer@@YA?AU__crt_fast_encoded_nullptr_t@@$$T@Z 000000018000b3d0 f i libucrtd:exit.obj
 0001:0000a3f0       ?__crt_interlocked_read_32@@YAHPEDH@Z 000000018000b3f0 f i libucrtd:exit.obj
 0001:0000a410       ?__crt_rotate_pointer_value@@YA_K_KH@Z 000000018000b410 f i libucrtd:exit.obj
 0001:0000a450       ?close@?$__crt_unique_handle_t@U__crt_hmodule_traits@@@@QEAAXXZ 000000018000b450 f i libucrtd:exit.obj
 0001:0000a490       ?close@__crt_hmodule_traits@@SA_NPEAUHINSTANCE__@@@Z 000000018000b490 f i libucrtd:exit.obj
 0001:0000a5a0       ?get_invalid_value@__crt_hmodule_traits@@SAPEAUHINSTANCE__@@XZ 000000018000b5a0 f i libucrtd:exit.obj
 0001:0000a5a0       ?get_current_state_index@__crt_state_management@@YA_KXZ 000000018000b5a0 f i libucrtd:environment_initialization.obj
 0001:0000a760       __acrt_initialize_thread_local_exit_callback 000000018000b760 f   libucrtd:exit.obj
 0001:0000a780       _cexit                     000000018000b780 f   libucrtd:exit.obj
 0001:0000a7a0       _exit                      000000018000b7a0 f   libucrtd:exit.obj
 0001:0000a7c0       _is_c_termination_complete 000000018000b7c0 f   libucrtd:exit.obj
 0001:0000ab70       ??$get_module_file_name@AEAPEAUHINSTANCE__@@AEAY0BAF@DK@?$__crt_char_traits@D@@SAKAEAPEAUHINSTANCE__@@AEAY0BAF@D$$QEAK@Z 000000018000bb70 f i libucrtd:dbgrpt.obj
 0001:0000ab70       ??$get_module_file_name@$$TAEAY0BAF@DH@?$__crt_char_traits@D@@SAK$$QEA$$TAEAY0BAF@D$$QEAH@Z 000000018000bb70 f i libucrtd:argv_parsing.obj
 0001:0000b040       ??$set_program_name@PEAD@?$__crt_char_traits@D@@SAX$$QEAPEAD@Z 000000018000c040 f i libucrtd:argv_parsing.obj
 0001:0000b170       __acrt_allocate_buffer_for_argv 000000018000c170 f   libucrtd:argv_parsing.obj
 0001:0000b290       _configure_narrow_argv     000000018000c290 f   libucrtd:argv_parsing.obj
 0001:0000b2b0       _set_pgmptr                000000018000c2b0 f i libucrtd:argv_parsing.obj
 0001:0000b4e0       ??$tcslen@AEAPEAD@?$__crt_char_traits@D@@SA_KAEAPEAD@Z 000000018000c4e0 f i libucrtd:environment_initialization.obj
 0001:0000b52c       ??B?$__crt_unique_heap_ptr@PEADU__crt_internal_free_policy@@@@QEBA_NXZ 000000018000c52c f i libucrtd:environment_initialization.obj
 0001:0000b534       ?detach@?$__crt_unique_heap_ptr@DU__crt_internal_free_policy@@@@QEAAPEADXZ 000000018000c534 f i libucrtd:environment_initialization.obj
 0001:0000b53c       __dcrt_uninitialize_environments_nolock 000000018000c53c f   libucrtd:environment_initialization.obj
 0001:0000b574       _initialize_narrow_environment 000000018000c574 f   libucrtd:environment_initialization.obj
 0001:0000b57c       _invoke_watson_if_error    000000018000c57c f i libucrtd:environment_initialization.obj
 0001:0000b880       _execute_onexit_table      000000018000c880 f   libucrtd:onexit.obj
 0001:0000b8c0       _initialize_onexit_table   000000018000c8c0 f   libucrtd:onexit.obj
 0001:0000b990       __acrt_uninitialize_command_line 000000018000c990 f   libucrtd:argv_data.obj
 0001:0000bc00       ?initialize@?$dual_state_global@P6AH_K@Z@__crt_state_management@@QEAAXQ6AH_K@Z@Z 000000018000cc00 f i libucrtd:new_handler.obj
 0001:0000bc00       ?initialize@?$dual_state_global@P6AXH@Z@__crt_state_management@@QEAAXQ6AXH@Z@Z 000000018000cc00 f i libucrtd:signal.obj
 0001:0000bc00       ?initialize@?$dual_state_global@PEAU__crt_multibyte_data@@@__crt_state_management@@QEAAXQEAU__crt_multibyte_data@@@Z 000000018000cc00 f i libucrtd:mbctype.obj
 0001:0000bc00       ?initialize@?$dual_state_global@P6AHPEAU_exception@@@Z@__crt_state_management@@QEAAXQ6AHPEAU_exception@@@Z@Z 000000018000cc00 f i libucrtd:matherr.obj
 0001:0000bc00       ?initialize@?$dual_state_global@PEAU__crt_locale_data@@@__crt_state_management@@QEAAXQEAU__crt_locale_data@@@Z 000000018000cc00 f i libucrtd:initialization.obj
 0001:0000bc50       __acrt_initialize          000000018000cc50 f   libucrtd:initialization.obj
 0001:0000bc80       __acrt_thread_attach       000000018000cc80 f   libucrtd:initialization.obj
 0001:0000bca0       __acrt_thread_detach       000000018000cca0 f   libucrtd:initialization.obj
 0001:0000bcb0       __acrt_uninitialize        000000018000ccb0 f   libucrtd:initialization.obj
 0001:0000bce0       __acrt_uninitialize_critical 000000018000cce0 f   libucrtd:initialization.obj
 0001:0000bd00       terminate                  000000018000cd00 f   libucrtd:terminate.obj
 0001:0000bd40       ??0_LocaleUpdate@@QEAA@QEAU__crt_locale_pointers@@@Z 000000018000cd40 f i libucrtd:debug_heap.obj
 0001:0000be60       ??1_LocaleUpdate@@QEAA@XZ  000000018000ce60 f i libucrtd:debug_heap.obj
 0001:0000bea0       ?GetLocaleT@_LocaleUpdate@@QEAAPEAU__crt_locale_pointers@@XZ 000000018000cea0 f i libucrtd:debug_heap.obj
 0001:0000de80       _CrtCheckMemory            000000018000ee80 f   libucrtd:debug_heap.obj
 0001:0000e010       _CrtDumpMemoryLeaks        000000018000f010 f   libucrtd:debug_heap.obj
 0001:0000e0d0       _CrtIsValidHeapPointer     000000018000f0d0 f   libucrtd:debug_heap.obj
 0001:0000e110       _CrtIsValidPointer         000000018000f110 f   libucrtd:debug_heap.obj
 0001:0000e150       _CrtMemCheckpoint          000000018000f150 f   libucrtd:debug_heap.obj
 0001:0000e3d0       _CrtMemDumpAllObjectsSince 000000018000f3d0 f   libucrtd:debug_heap.obj
 0001:0000e430       _CrtSetDbgFlag             000000018000f430 f   libucrtd:debug_heap.obj
 0001:0000e590       _CrtSetDumpClient          000000018000f590 f   libucrtd:debug_heap.obj
 0001:0000e5c0       __acrt_get_locale_data_prefix 000000018000f5c0 f i libucrtd:debug_heap.obj
 0001:0000e5e0       __acrt_locale_changed      000000018000f5e0 f i libucrtd:debug_heap.obj
 0001:0000e610       _calloc_dbg                000000018000f610 f   libucrtd:debug_heap.obj
 0001:0000e6b0       _chvalidchk_l              000000018000f6b0 f i libucrtd:debug_heap.obj
 0001:0000e6e0       _free_dbg                  000000018000f6e0 f   libucrtd:debug_heap.obj
 0001:0000e750       _invoke_watson_if_oneof    000000018000f750 f i libucrtd:debug_heap.obj
 0001:0000e7b0       _ischartype_l              000000018000f7b0 f i libucrtd:debug_heap.obj
 0001:0000e840       _malloc_dbg                000000018000f840 f   libucrtd:debug_heap.obj
 0001:0000e880       _msize_dbg                 000000018000f880 f   libucrtd:debug_heap.obj
 0001:0000ea20       _realloc_dbg               000000018000fa20 f   libucrtd:debug_heap.obj
 0001:0000ea90       _recalloc_dbg              000000018000fa90 f   libucrtd:debug_heap.obj
 0001:0000f060       strcpy_s                   0000000180010060 f   libucrtd:strcpy_s.obj
 0001:0000f0a0       strcmp                     00000001800100a0 f   libucrtd:strcmp.obj
 0001:0000f120       strlen                     0000000180010120 f   libucrtd:strlen.obj
 0001:0000f1d0       abort                      00000001800101d0 f   libucrtd:abort.obj
 0001:0000f250       ??$?0AEBV?$string_output_adapter@D@__crt_stdio_output@@AEB_KAEBQEBDAEBQEAU__crt_locale_pointers@@AEBQEAD@?$format_validation_base@DV?$string_output_adapter@D@__crt_stdio_output@@@__crt_stdio_output@@IEAA@AEBV?$string_output_adapter@D@1@AEB_KAEBQEBDAEBQEAU__crt_locale_pointers@@AEBQEAD@Z 0000000180010250 f i libucrtd:output.obj
 0001:0000f2a0       ??$?0AEBV?$string_output_adapter@D@__crt_stdio_output@@AEB_KAEBQEBDAEBQEAU__crt_locale_pointers@@AEBQEAD@?$standard_base@DV?$string_output_adapter@D@__crt_stdio_output@@@__crt_stdio_output@@IEAA@AEBV?$string_output_adapter@D@1@AEB_KAEBQEBDAEBQEAU__crt_locale_pointers@@AEBQEAD@Z 00000001800102a0 f i libucrtd:output.obj
 0001:0000f310       ??$?0AEBV?$string_output_adapter@_W@__crt_stdio_output@@AEB_KAEBQEB_WAEBQEAU__crt_locale_pointers@@AEBQEAD@?$format_validation_base@_WV?$string_output_adapter@_W@__crt_stdio_output@@@__crt_stdio_output@@IEAA@AEBV?$string_output_adapter@_W@1@AEB_KAEBQEB_WAEBQEAU__crt_locale_pointers@@AEBQEAD@Z 0000000180010310 f i libucrtd:output.obj
 0001:0000f360       ??$?0AEBV?$string_output_adapter@_W@__crt_stdio_output@@AEB_KAEBQEB_WAEBQEAU__crt_locale_pointers@@AEBQEAD@?$standard_base@_WV?$string_output_adapter@_W@__crt_stdio_output@@@__crt_stdio_output@@IEAA@AEBV?$string_output_adapter@_W@1@AEB_KAEBQEB_WAEBQEAU__crt_locale_pointers@@AEBQEAD@Z 0000000180010360 f i libucrtd:output.obj
 0001:00010ce0       ??$count@D@formatting_buffer@__crt_stdio_output@@QEBA_KXZ 0000000180011ce0 f i libucrtd:output.obj
 0001:00010d30       ??$count@_W@formatting_buffer@__crt_stdio_output@@QEBA_KXZ 0000000180011d30 f i libucrtd:output.obj
 0001:00010d80       ??$data@D@formatting_buffer@__crt_stdio_output@@QEAAPEADXZ 0000000180011d80 f i libucrtd:output.obj
 0001:00010d80       ??$data@_W@formatting_buffer@__crt_stdio_output@@QEAAPEA_WXZ 0000000180011d80 f i libucrtd:output.obj
 0001:00010dd0       ??$ensure_buffer_is_big_enough@D@formatting_buffer@__crt_stdio_output@@QEAA_N_K@Z 0000000180011dd0 f i libucrtd:output.obj
 0001:00010f00       ??$ensure_buffer_is_big_enough@_W@formatting_buffer@__crt_stdio_output@@QEAA_N_K@Z 0000000180011f00 f i libucrtd:output.obj
 0001:00011030       ??$extract_argument_from_va_list@C_J@?$standard_base@DV?$string_output_adapter@D@__crt_stdio_output@@@__crt_stdio_output@@IEAA_NAEA_J@Z 0000000180012030 f i libucrtd:output.obj
 0001:00011030       ??$extract_argument_from_va_list@C_J@?$standard_base@_WV?$string_output_adapter@_W@__crt_stdio_output@@@__crt_stdio_output@@IEAA_NAEA_J@Z 0000000180012030 f i libucrtd:output.obj
 0001:00011070       ??$extract_argument_from_va_list@E_J@?$standard_base@_WV?$string_output_adapter@_W@__crt_stdio_output@@@__crt_stdio_output@@IEAA_NAEA_J@Z 0000000180012070 f i libucrtd:output.obj
 0001:00011070       ??$extract_argument_from_va_list@E_J@?$standard_base@DV?$string_output_adapter@D@__crt_stdio_output@@@__crt_stdio_output@@IEAA_NAEA_J@Z 0000000180012070 f i libucrtd:output.obj
 0001:000110b0       ??$extract_argument_from_va_list@F_J@?$standard_base@DV?$string_output_adapter@D@__crt_stdio_output@@@__crt_stdio_output@@IEAA_NAEA_J@Z 00000001800120b0 f i libucrtd:output.obj
 0001:000110b0       ??$extract_argument_from_va_list@F_J@?$standard_base@_WV?$string_output_adapter@_W@__crt_stdio_output@@@__crt_stdio_output@@IEAA_NAEA_J@Z 00000001800120b0 f i libucrtd:output.obj
 0001:000110f0       ??$extract_argument_from_va_list@GD@?$standard_base@DV?$string_output_adapter@D@__crt_stdio_output@@@__crt_stdio_output@@IEAA_NAEAD@Z 00000001800120f0 f i libucrtd:output.obj
 0001:00011120       ??$extract_argument_from_va_list@G_J@?$standard_base@DV?$string_output_adapter@D@__crt_stdio_output@@@__crt_stdio_output@@IEAA_NAEA_J@Z 0000000180012120 f i libucrtd:output.obj
 0001:00011120       ??$extract_argument_from_va_list@G_J@?$standard_base@_WV?$string_output_adapter@_W@__crt_stdio_output@@@__crt_stdio_output@@IEAA_NAEA_J@Z 0000000180012120 f i libucrtd:output.obj
 0001:00011160       ??$extract_argument_from_va_list@H_J@?$standard_base@_WV?$string_output_adapter@_W@__crt_stdio_output@@@__crt_stdio_output@@IEAA_NAEA_J@Z 0000000180012160 f i libucrtd:output.obj
 0001:00011160       ??$extract_argument_from_va_list@H_J@?$standard_base@DV?$string_output_adapter@D@__crt_stdio_output@@@__crt_stdio_output@@IEAA_NAEA_J@Z 0000000180012160 f i libucrtd:output.obj
 0001:00011190       ??$extract_argument_from_va_list@I_J@?$standard_base@DV?$string_output_adapter@D@__crt_stdio_output@@@__crt_stdio_output@@IEAA_NAEA_J@Z 0000000180012190 f i libucrtd:output.obj
 0001:00011190       ??$extract_argument_from_va_list@I_J@?$standard_base@_WV?$string_output_adapter@_W@__crt_stdio_output@@@__crt_stdio_output@@IEAA_NAEA_J@Z 0000000180012190 f i libucrtd:output.obj
 0001:000111c0       ??$extract_argument_from_va_list@PEAXPEAX@?$standard_base@DV?$string_output_adapter@D@__crt_stdio_output@@@__crt_stdio_output@@IEAA_NAEAPEAX@Z 00000001800121c0 f i libucrtd:output.obj
 0001:000111c0       ??$extract_argument_from_va_list@_K_J@?$standard_base@_WV?$string_output_adapter@_W@__crt_stdio_output@@@__crt_stdio_output@@IEAA_NAEA_J@Z 00000001800121c0 f i libucrtd:output.obj
 0001:000111c0       ??$extract_argument_from_va_list@PEADPEAD@?$standard_base@_WV?$string_output_adapter@_W@__crt_stdio_output@@@__crt_stdio_output@@IEAA_NAEAPEAD@Z 00000001800121c0 f i libucrtd:output.obj
 0001:000111c0       ??$extract_argument_from_va_list@PEADPEAD@?$standard_base@DV?$string_output_adapter@D@__crt_stdio_output@@@__crt_stdio_output@@IEAA_NAEAPEAD@Z 00000001800121c0 f i libucrtd:output.obj
 0001:000111c0       ??$extract_argument_from_va_list@_K_J@?$standard_base@DV?$string_output_adapter@D@__crt_stdio_output@@@__crt_stdio_output@@IEAA_NAEA_J@Z 00000001800121c0 f i libucrtd:output.obj
 0001:000111c0       ??$extract_argument_from_va_list@PEAXPEAX@?$standard_base@_WV?$string_output_adapter@_W@__crt_stdio_output@@@__crt_stdio_output@@IEAA_NAEAPEAX@Z 00000001800121c0 f i libucrtd:output.obj
 0001:000111c0       ??$extract_argument_from_va_list@_J_J@?$standard_base@DV?$string_output_adapter@D@__crt_stdio_output@@@__crt_stdio_output@@IEAA_NAEA_J@Z 00000001800121c0 f i libucrtd:output.obj
 0001:000111c0       ??$extract_argument_from_va_list@_J_J@?$standard_base@_WV?$string_output_adapter@_W@__crt_stdio_output@@@__crt_stdio_output@@IEAA_NAEA_J@Z 00000001800121c0 f i libucrtd:output.obj
 0001:00011220       ??$extract_argument_from_va_list@U_CRT_DOUBLE@@U1@@?$standard_base@_WV?$string_output_adapter@_W@__crt_stdio_output@@@__crt_stdio_output@@IEAA_NAEAU_CRT_DOUBLE@@@Z 0000000180012220 f i libucrtd:output.obj
 0001:00011220       ??$extract_argument_from_va_list@U_CRT_DOUBLE@@U1@@?$standard_base@DV?$string_output_adapter@D@__crt_stdio_output@@@__crt_stdio_output@@IEAA_NAEAU_CRT_DOUBLE@@@Z 0000000180012220 f i libucrtd:output.obj
 0001:00011270       ??$extract_argument_from_va_list@_W_W@?$standard_base@DV?$string_output_adapter@D@__crt_stdio_output@@@__crt_stdio_output@@IEAA_NAEA_W@Z 0000000180012270 f i libucrtd:output.obj
 0001:00011270       ??$extract_argument_from_va_list@_W_W@?$standard_base@_WV?$string_output_adapter@_W@__crt_stdio_output@@@__crt_stdio_output@@IEAA_NAEA_W@Z 0000000180012270 f i libucrtd:output.obj
 0001:000112a0       ??$is_wide_character_specifier@D@__crt_stdio_output@@YA_N_KDW4length_modifier@0@@Z 00000001800122a0 f i libucrtd:output.obj
 0001:00011340       ??$is_wide_character_specifier@_W@__crt_stdio_output@@YA_N_K_WW4length_modifier@0@@Z 0000000180012340 f i libucrtd:output.obj
 0001:00011410       ??$read_va_arg@C@__crt_stdio_output@@YACAEAPEAD@Z 0000000180012410 f i libucrtd:output.obj
 0001:00011410       ??$read_va_arg@E@__crt_stdio_output@@YAEAEAPEAD@Z 0000000180012410 f i libucrtd:output.obj
 0001:00011480       ??$read_va_arg@_W@__crt_stdio_output@@YA_WAEAPEAD@Z 0000000180012480 f i libucrtd:output.obj
 0001:00011480       ??$read_va_arg@G@__crt_stdio_output@@YAGAEAPEAD@Z 0000000180012480 f i libucrtd:output.obj
 0001:00011480       ??$read_va_arg@F@__crt_stdio_output@@YAFAEAPEAD@Z 0000000180012480 f i libucrtd:output.obj
 0001:000114f0       ??$read_va_arg@H@__crt_stdio_output@@YAHAEAPEAD@Z 00000001800124f0 f i libucrtd:output.obj
 0001:000114f0       ??$read_va_arg@I@__crt_stdio_output@@YAIAEAPEAD@Z 00000001800124f0 f i libucrtd:output.obj
 0001:00011550       ??$read_va_arg@_K@__crt_stdio_output@@YA_KAEAPEAD@Z 0000000180012550 f i libucrtd:output.obj
 0001:00011550       ??$read_va_arg@PEAX@__crt_stdio_output@@YAPEAXAEAPEAD@Z 0000000180012550 f i libucrtd:output.obj
 0001:00011550       ??$read_va_arg@_J@__crt_stdio_output@@YA_JAEAPEAD@Z 0000000180012550 f i libucrtd:output.obj
 0001:00011550       ??$read_va_arg@U_CRT_DOUBLE@@@__crt_stdio_output@@YA?AU_CRT_DOUBLE@@AEAPEAD@Z 0000000180012550 f i libucrtd:output.obj
 0001:00011550       ??$read_va_arg@PEAD@__crt_stdio_output@@YAPEADAEAPEAD@Z 0000000180012550 f i libucrtd:output.obj
 0001:00011630       ??$scratch_count@D@formatting_buffer@__crt_stdio_output@@QEBA_KXZ 0000000180012630 f i libucrtd:output.obj
 0001:00011650       ??$scratch_data@D@formatting_buffer@__crt_stdio_output@@QEAAPEADXZ 0000000180012650 f i libucrtd:output.obj
 0001:000116c0       ??$tcstol@PEBDPEAPEADH@?$__crt_char_traits@D@@SAJ$$QEAPEBD$$QEAPEAPEAD$$QEAH@Z 00000001800126c0 f i libucrtd:output.obj
 0001:00011700       ??$tcstol@PEB_WPEAPEA_WH@?$__crt_char_traits@_W@@SAJ$$QEAPEB_W$$QEAPEAPEA_W$$QEAH@Z 0000000180012700 f i libucrtd:output.obj
 0001:00011740       ??$type_case_integer_parse_into_buffer@I@?$output_processor@DV?$string_output_adapter@D@__crt_stdio_output@@V?$format_validation_base@DV?$string_output_adapter@D@__crt_stdio_output@@@2@@__crt_stdio_output@@AEAAXII_N@Z 0000000180012740 f i libucrtd:output.obj
 0001:00011870       ??$type_case_integer_parse_into_buffer@I@?$output_processor@_WV?$string_output_adapter@_W@__crt_stdio_output@@V?$format_validation_base@_WV?$string_output_adapter@_W@__crt_stdio_output@@@2@@__crt_stdio_output@@AEAAXII_N@Z 0000000180012870 f i libucrtd:output.obj
 0001:000119b0       ??$type_case_integer_parse_into_buffer@_K@?$output_processor@DV?$string_output_adapter@D@__crt_stdio_output@@V?$format_validation_base@DV?$string_output_adapter@D@__crt_stdio_output@@@2@@__crt_stdio_output@@AEAAX_KI_N@Z 00000001800129b0 f i libucrtd:output.obj
 0001:00011b00       ??$type_case_integer_parse_into_buffer@_K@?$output_processor@_WV?$string_output_adapter@_W@__crt_stdio_output@@V?$format_validation_base@_WV?$string_output_adapter@_W@__crt_stdio_output@@@2@@__crt_stdio_output@@AEAAX_KI_N@Z 0000000180012b00 f i libucrtd:output.obj
 0001:00011c60       ??$write_multiple_characters@V?$string_output_adapter@D@__crt_stdio_output@@D@__crt_stdio_output@@YAXAEBV?$string_output_adapter@D@0@DHQEAH@Z 0000000180012c60 f i libucrtd:output.obj
 0001:00011cc0       ??$write_multiple_characters@V?$string_output_adapter@_W@__crt_stdio_output@@D@__crt_stdio_output@@YAXAEBV?$string_output_adapter@_W@0@DHQEAH@Z 0000000180012cc0 f i libucrtd:output.obj
 0001:00011d20       ??0?$common_data@D@__crt_stdio_output@@IEAA@XZ 0000000180012d20 f i libucrtd:output.obj
 0001:00011df0       ??0?$common_data@_W@__crt_stdio_output@@IEAA@XZ 0000000180012df0 f i libucrtd:output.obj
 0001:00011ec0       ??0?$output_adapter_data@DV?$string_output_adapter@D@__crt_stdio_output@@@__crt_stdio_output@@IEAA@AEBV?$string_output_adapter@D@1@_KQEBDQEAU__crt_locale_pointers@@QEAD@Z 0000000180012ec0 f i libucrtd:output.obj
 0001:00011f40       ??0?$output_adapter_data@_WV?$string_output_adapter@_W@__crt_stdio_output@@@__crt_stdio_output@@IEAA@AEBV?$string_output_adapter@_W@1@_KQEB_WQEAU__crt_locale_pointers@@QEAD@Z 0000000180012f40 f i libucrtd:output.obj
 0001:00011fc0       ??0?$output_processor@DV?$string_output_adapter@D@__crt_stdio_output@@V?$format_validation_base@DV?$string_output_adapter@D@__crt_stdio_output@@@2@@__crt_stdio_output@@QEAA@AEBV?$string_output_adapter@D@1@_KQEBDQEAU__crt_locale_pointers@@QEAD@Z 0000000180012fc0 f i libucrtd:output.obj
 0001:00012010       ??0?$output_processor@_WV?$string_output_adapter@_W@__crt_stdio_output@@V?$format_validation_base@_WV?$string_output_adapter@_W@__crt_stdio_output@@@2@@__crt_stdio_output@@QEAA@AEBV?$string_output_adapter@_W@1@_KQEB_WQEAU__crt_locale_pointers@@QEAD@Z 0000000180013010 f i libucrtd:output.obj
 0001:00012060       ??0__crt_deferred_errno_cache@@QEAA@XZ 0000000180013060 f i libucrtd:output.obj
 0001:00012080       ??0__crt_errno_guard@@QEAA@QEAH@Z 0000000180013080 f i libucrtd:output.obj
 0001:000120c0       ??0formatting_buffer@__crt_stdio_output@@QEAA@XZ 00000001800130c0 f i libucrtd:output.obj
 0001:00012100       ??1?$common_data@D@__crt_stdio_output@@QEAA@XZ 0000000180013100 f i libucrtd:output.obj
 0001:00012100       ??1?$common_data@_W@__crt_stdio_output@@QEAA@XZ 0000000180013100 f i libucrtd:output.obj
 0001:00012120       ??1?$format_validation_base@DV?$string_output_adapter@D@__crt_stdio_output@@@__crt_stdio_output@@QEAA@XZ 0000000180013120 f i libucrtd:output.obj
 0001:00012120       ??1?$format_validation_base@_WV?$string_output_adapter@_W@__crt_stdio_output@@@__crt_stdio_output@@QEAA@XZ 0000000180013120 f i libucrtd:output.obj
 0001:00012140       ??1?$output_adapter_data@DV?$string_output_adapter@D@__crt_stdio_output@@@__crt_stdio_output@@QEAA@XZ 0000000180013140 f i libucrtd:output.obj
 0001:00012140       ??1?$output_adapter_data@_WV?$string_output_adapter@_W@__crt_stdio_output@@@__crt_stdio_output@@QEAA@XZ 0000000180013140 f i libucrtd:output.obj
 0001:00012160       ??1?$output_processor@_WV?$string_output_adapter@_W@__crt_stdio_output@@V?$format_validation_base@_WV?$string_output_adapter@_W@__crt_stdio_output@@@2@@__crt_stdio_output@@QEAA@XZ 0000000180013160 f i libucrtd:output.obj
 0001:00012160       ??1?$output_processor@DV?$string_output_adapter@D@__crt_stdio_output@@V?$format_validation_base@DV?$string_output_adapter@D@__crt_stdio_output@@@2@@__crt_stdio_output@@QEAA@XZ 0000000180013160 f i libucrtd:output.obj
 0001:00012180       ??1?$standard_base@_WV?$string_output_adapter@_W@__crt_stdio_output@@@__crt_stdio_output@@QEAA@XZ 0000000180013180 f i libucrtd:output.obj
 0001:00012180       ??1?$standard_base@DV?$string_output_adapter@D@__crt_stdio_output@@@__crt_stdio_output@@QEAA@XZ 0000000180013180 f i libucrtd:output.obj
 0001:000121a0       ??1__crt_errno_guard@@QEAA@XZ 00000001800131a0 f i libucrtd:output.obj
 0001:000121d0       ??1formatting_buffer@__crt_stdio_output@@QEAA@XZ 00000001800131d0 f i libucrtd:output.obj
 0001:00012200       ??4?$__crt_unique_heap_ptr@DU__crt_internal_free_policy@@@@QEAAAEAV0@$$QEAV0@@Z 0000000180013200 f i libucrtd:output.obj
 0001:00012240       ?adjust_hexit@?$output_processor@DV?$string_output_adapter@D@__crt_stdio_output@@V?$format_validation_base@DV?$string_output_adapter@D@__crt_stdio_output@@@2@@__crt_stdio_output@@CADH_N@Z 0000000180013240 f i libucrtd:output.obj
 0001:00012240       ?adjust_hexit@?$output_processor@_WV?$string_output_adapter@_W@__crt_stdio_output@@V?$format_validation_base@_WV?$string_output_adapter@_W@__crt_stdio_output@@@2@@__crt_stdio_output@@CADH_N@Z 0000000180013240 f i libucrtd:output.obj
 0001:00012290       ?advance_to_next_pass@?$standard_base@_WV?$string_output_adapter@_W@__crt_stdio_output@@@__crt_stdio_output@@IEAA_NXZ 0000000180013290 f i libucrtd:output.obj
 0001:00012290       ?advance_to_next_pass@?$standard_base@DV?$string_output_adapter@D@__crt_stdio_output@@@__crt_stdio_output@@IEAA_NXZ 0000000180013290 f i libucrtd:output.obj
 0001:000122e0       ?crop_zeroes@__crt_stdio_output@@YAXPEADQEAU__crt_locale_pointers@@@Z 00000001800132e0 f i libucrtd:output.obj
 0001:00012420       ?find_next_state@?$output_processor@DV?$string_output_adapter@D@__crt_stdio_output@@V?$format_validation_base@DV?$string_output_adapter@D@__crt_stdio_output@@@2@@__crt_stdio_output@@AEBA?AW4state@2@DW432@@Z 0000000180013420 f i libucrtd:output.obj
 0001:000124c0       ?find_next_state@?$output_processor@_WV?$string_output_adapter@_W@__crt_stdio_output@@V?$format_validation_base@_WV?$string_output_adapter@_W@__crt_stdio_output@@@2@@__crt_stdio_output@@AEBA?AW4state@2@_WW432@@Z 00000001800134c0 f i libucrtd:output.obj
 0001:00012560       ?force_decimal_point@__crt_stdio_output@@YAXPEADQEAU__crt_locale_pointers@@@Z 0000000180013560 f i libucrtd:output.obj
 0001:00012660       ?get@__crt_deferred_errno_cache@@QEAAAEAHXZ 0000000180013660 f i libucrtd:output.obj
 0001:00012690       ?get_flags@__crt_stdio_stream@@QEBAJXZ 0000000180013690 f i libucrtd:output.obj
 0001:000126c0       ?has_flag@?$output_processor@_WV?$string_output_adapter@_W@__crt_stdio_output@@V?$format_validation_base@_WV?$string_output_adapter@_W@__crt_stdio_output@@@2@@__crt_stdio_output@@AEBA_NI@Z 00000001800136c0 f i libucrtd:output.obj
 0001:000126c0       ?has_flag@?$output_processor@DV?$string_output_adapter@D@__crt_stdio_output@@V?$format_validation_base@DV?$string_output_adapter@D@__crt_stdio_output@@@2@@__crt_stdio_output@@AEBA_NI@Z 00000001800136c0 f i libucrtd:output.obj
 0001:00012700       ?is_string_backed@__crt_stdio_stream@@QEBA_NXZ 0000000180013700 f i libucrtd:output.obj
 0001:00012740       ?narrow_null_string@?$output_processor@DV?$string_output_adapter@D@__crt_stdio_output@@V?$format_validation_base@DV?$string_output_adapter@D@__crt_stdio_output@@@2@@__crt_stdio_output@@CAPEADXZ 0000000180013740 f i libucrtd:output.obj
 0001:00012740       ?narrow_null_string@?$output_processor@_WV?$string_output_adapter@_W@__crt_stdio_output@@V?$format_validation_base@_WV?$string_output_adapter@_W@__crt_stdio_output@@@2@@__crt_stdio_output@@CAPEADXZ 0000000180013740 f i libucrtd:output.obj
 0001:00012750       ?parse_int_from_format_string@?$output_processor@DV?$string_output_adapter@D@__crt_stdio_output@@V?$format_validation_base@DV?$string_output_adapter@D@__crt_stdio_output@@@2@@__crt_stdio_output@@AEAA_NQEAH@Z 0000000180013750 f i libucrtd:output.obj
 0001:00012840       ?parse_int_from_format_string@?$output_processor@_WV?$string_output_adapter@_W@__crt_stdio_output@@V?$format_validation_base@_WV?$string_output_adapter@_W@__crt_stdio_output@@@2@@__crt_stdio_output@@AEAA_NQEAH@Z 0000000180013840 f i libucrtd:output.obj
 0001:00012930       ?process@?$output_processor@DV?$string_output_adapter@D@__crt_stdio_output@@V?$format_validation_base@DV?$string_output_adapter@D@__crt_stdio_output@@@2@@__crt_stdio_output@@QEAAHXZ 0000000180013930 f i libucrtd:output.obj
 0001:00012c90       ?process@?$output_processor@_WV?$string_output_adapter@_W@__crt_stdio_output@@V?$format_validation_base@_WV?$string_output_adapter@_W@__crt_stdio_output@@@2@@__crt_stdio_output@@QEAAHXZ 0000000180013c90 f i libucrtd:output.obj
 0001:00012ff0       ?set_flag@?$output_processor@_WV?$string_output_adapter@_W@__crt_stdio_output@@V?$format_validation_base@_WV?$string_output_adapter@_W@__crt_stdio_output@@@2@@__crt_stdio_output@@AEAAXI@Z 0000000180013ff0 f i libucrtd:output.obj
 0001:00012ff0       ?set_flag@?$output_processor@DV?$string_output_adapter@D@__crt_stdio_output@@V?$format_validation_base@DV?$string_output_adapter@D@__crt_stdio_output@@@2@@__crt_stdio_output@@AEAAXI@Z 0000000180013ff0 f i libucrtd:output.obj
 0001:00013010       ?validate_and_update_state_at_beginning_of_format_character@?$standard_base@DV?$string_output_adapter@D@__crt_stdio_output@@@__crt_stdio_output@@IEAA_NXZ 0000000180014010 f i libucrtd:output.obj
 0001:00013010       ?validate_and_update_state_at_beginning_of_format_character@?$standard_base@_WV?$string_output_adapter@_W@__crt_stdio_output@@@__crt_stdio_output@@IEAA_NXZ 0000000180014010 f i libucrtd:output.obj
 0001:00013010       ?validate_state_for_type_case_a@?$standard_base@_WV?$string_output_adapter@_W@__crt_stdio_output@@@__crt_stdio_output@@IEBA_NXZ 0000000180014010 f i libucrtd:output.obj
 0001:00013010       ?should_format@?$standard_base@_WV?$string_output_adapter@_W@__crt_stdio_output@@@__crt_stdio_output@@IEAA_NXZ 0000000180014010 f i libucrtd:output.obj
 0001:00013010       ?validate_state_for_type_case_a@?$standard_base@DV?$string_output_adapter@D@__crt_stdio_output@@@__crt_stdio_output@@IEBA_NXZ 0000000180014010 f i libucrtd:output.obj
 0001:00013010       ?should_format@?$standard_base@DV?$string_output_adapter@D@__crt_stdio_output@@@__crt_stdio_output@@IEAA_NXZ 0000000180014010 f i libucrtd:output.obj
 0001:00013020       ?should_skip_type_state_output@?$standard_base@DV?$string_output_adapter@D@__crt_stdio_output@@@__crt_stdio_output@@IEBA_NXZ 0000000180014020 f i libucrtd:output.obj
 0001:00013020       ?should_skip_type_state_output@?$standard_base@_WV?$string_output_adapter@_W@__crt_stdio_output@@@__crt_stdio_output@@IEBA_NXZ 0000000180014020 f i libucrtd:output.obj
 0001:00013020       ?should_skip_normal_state_processing@?$standard_base@_WV?$string_output_adapter@_W@__crt_stdio_output@@@__crt_stdio_output@@IEAA_NXZ 0000000180014020 f i libucrtd:output.obj
 0001:00013020       ?should_skip_normal_state_processing@?$standard_base@DV?$string_output_adapter@D@__crt_stdio_output@@@__crt_stdio_output@@IEAA_NXZ 0000000180014020 f i libucrtd:output.obj
 0001:00013030       ?state_case_dot@?$output_processor@_WV?$string_output_adapter@_W@__crt_stdio_output@@V?$format_validation_base@_WV?$string_output_adapter@_W@__crt_stdio_output@@@2@@__crt_stdio_output@@AEAA_NXZ 0000000180014030 f i libucrtd:output.obj
 0001:00013030       ?state_case_dot@?$output_processor@DV?$string_output_adapter@D@__crt_stdio_output@@V?$format_validation_base@DV?$string_output_adapter@D@__crt_stdio_output@@@2@@__crt_stdio_output@@AEAA_NXZ 0000000180014030 f i libucrtd:output.obj
 0001:00013050       ?state_case_flag@?$output_processor@DV?$string_output_adapter@D@__crt_stdio_output@@V?$format_validation_base@DV?$string_output_adapter@D@__crt_stdio_output@@@2@@__crt_stdio_output@@AEAA_NXZ 0000000180014050 f i libucrtd:output.obj
 0001:000130f0       ?state_case_flag@?$output_processor@_WV?$string_output_adapter@_W@__crt_stdio_output@@V?$format_validation_base@_WV?$string_output_adapter@_W@__crt_stdio_output@@@2@@__crt_stdio_output@@AEAA_NXZ 00000001800140f0 f i libucrtd:output.obj
 0001:00013190       ?state_case_normal@?$output_processor@DV?$string_output_adapter@D@__crt_stdio_output@@V?$format_validation_base@DV?$string_output_adapter@D@__crt_stdio_output@@@2@@__crt_stdio_output@@AEAA_NXZ 0000000180014190 f i libucrtd:output.obj
 0001:00013270       ?state_case_normal@?$output_processor@_WV?$string_output_adapter@_W@__crt_stdio_output@@V?$format_validation_base@_WV?$string_output_adapter@_W@__crt_stdio_output@@@2@@__crt_stdio_output@@AEAA_NXZ 0000000180014270 f i libucrtd:output.obj
 0001:00013350       ?state_case_normal_common@?$output_processor@DV?$string_output_adapter@D@__crt_stdio_output@@V?$format_validation_base@DV?$string_output_adapter@D@__crt_stdio_output@@@2@@__crt_stdio_output@@AEAA_NXZ 0000000180014350 f i libucrtd:output.obj
 0001:000133a0       ?state_case_normal_common@?$output_processor@_WV?$string_output_adapter@_W@__crt_stdio_output@@V?$format_validation_base@_WV?$string_output_adapter@_W@__crt_stdio_output@@@2@@__crt_stdio_output@@AEAA_NXZ 00000001800143a0 f i libucrtd:output.obj
 0001:000133f0       ?state_case_normal_tchar@?$output_processor@DV?$string_output_adapter@D@__crt_stdio_output@@V?$format_validation_base@DV?$string_output_adapter@D@__crt_stdio_output@@@2@@__crt_stdio_output@@AEAA_ND@Z 00000001800143f0 f i libucrtd:output.obj
 0001:00013530       ?state_case_normal_tchar@?$output_processor@_WV?$string_output_adapter@_W@__crt_stdio_output@@V?$format_validation_base@_WV?$string_output_adapter@_W@__crt_stdio_output@@@2@@__crt_stdio_output@@AEAA_N_W@Z 0000000180014530 f i libucrtd:output.obj
 0001:00013550       ?state_case_percent@?$output_processor@DV?$string_output_adapter@D@__crt_stdio_output@@V?$format_validation_base@DV?$string_output_adapter@D@__crt_stdio_output@@@2@@__crt_stdio_output@@AEAA_NXZ 0000000180014550 f i libucrtd:output.obj
 0001:00013550       ?state_case_percent@?$output_processor@_WV?$string_output_adapter@_W@__crt_stdio_output@@V?$format_validation_base@_WV?$string_output_adapter@_W@__crt_stdio_output@@@2@@__crt_stdio_output@@AEAA_NXZ 0000000180014550 f i libucrtd:output.obj
 0001:000135a0       ?state_case_precision@?$output_processor@DV?$string_output_adapter@D@__crt_stdio_output@@V?$format_validation_base@DV?$string_output_adapter@D@__crt_stdio_output@@@2@@__crt_stdio_output@@AEAA_NXZ 00000001800145a0 f i libucrtd:output.obj
 0001:00013620       ?state_case_precision@?$output_processor@_WV?$string_output_adapter@_W@__crt_stdio_output@@V?$format_validation_base@_WV?$string_output_adapter@_W@__crt_stdio_output@@@2@@__crt_stdio_output@@AEAA_NXZ 0000000180014620 f i libucrtd:output.obj
 0001:000136a0       ?state_case_size@?$output_processor@DV?$string_output_adapter@D@__crt_stdio_output@@V?$format_validation_base@DV?$string_output_adapter@D@__crt_stdio_output@@@2@@__crt_stdio_output@@AEAA_NXZ 00000001800146a0 f i libucrtd:output.obj
 0001:00013b20       ?state_case_size@?$output_processor@_WV?$string_output_adapter@_W@__crt_stdio_output@@V?$format_validation_base@_WV?$string_output_adapter@_W@__crt_stdio_output@@@2@@__crt_stdio_output@@AEAA_NXZ 0000000180014b20 f i libucrtd:output.obj
 0001:00013fa0       ?state_case_type@?$output_processor@DV?$string_output_adapter@D@__crt_stdio_output@@V?$format_validation_base@DV?$string_output_adapter@D@__crt_stdio_output@@@2@@__crt_stdio_output@@AEAA_NXZ 0000000180014fa0 f i libucrtd:output.obj
 0001:00014440       ?state_case_type@?$output_processor@_WV?$string_output_adapter@_W@__crt_stdio_output@@V?$format_validation_base@_WV?$string_output_adapter@_W@__crt_stdio_output@@@2@@__crt_stdio_output@@AEAA_NXZ 0000000180015440 f i libucrtd:output.obj
 0001:000149a0       ?state_case_width@?$output_processor@DV?$string_output_adapter@D@__crt_stdio_output@@V?$format_validation_base@DV?$string_output_adapter@D@__crt_stdio_output@@@2@@__crt_stdio_output@@AEAA_NXZ 00000001800159a0 f i libucrtd:output.obj
 0001:00014a30       ?state_case_width@?$output_processor@_WV?$string_output_adapter@_W@__crt_stdio_output@@V?$format_validation_base@_WV?$string_output_adapter@_W@__crt_stdio_output@@@2@@__crt_stdio_output@@AEAA_NXZ 0000000180015a30 f i libucrtd:output.obj
 0001:00014ac0       ?state_count@?$format_validation_base@_WV?$string_output_adapter@_W@__crt_stdio_output@@@__crt_stdio_output@@KAIXZ 0000000180015ac0 f i libucrtd:output.obj
 0001:00014ac0       ?state_count@?$format_validation_base@DV?$string_output_adapter@D@__crt_stdio_output@@@__crt_stdio_output@@KAIXZ 0000000180015ac0 f i libucrtd:output.obj
 0001:00014ad0       ?state_transition_table@?$format_validation_base@_WV?$string_output_adapter@_W@__crt_stdio_output@@@__crt_stdio_output@@KAPEBEXZ 0000000180015ad0 f i libucrtd:output.obj
 0001:00014ad0       ?state_transition_table@?$format_validation_base@DV?$string_output_adapter@D@__crt_stdio_output@@@__crt_stdio_output@@KAPEBEXZ 0000000180015ad0 f i libucrtd:output.obj
 0001:00014ae0       ?tchar_string@?$common_data@D@__crt_stdio_output@@IEAAAEAPEADD@Z 0000000180015ae0 f i libucrtd:output.obj
 0001:00014b00       ?tchar_string@?$common_data@D@__crt_stdio_output@@IEAAAEAPEADXZ 0000000180015b00 f i libucrtd:output.obj
 0001:00014b20       ?tchar_string@?$common_data@_W@__crt_stdio_output@@IEAAAEAPEA_WXZ 0000000180015b20 f i libucrtd:output.obj
 0001:00014b40       ?tchar_string@?$common_data@_W@__crt_stdio_output@@IEAAAEAPEA_W_W@Z 0000000180015b40 f i libucrtd:output.obj
 0001:00014b60       ?to_integer_size@__crt_stdio_output@@YA_KW4length_modifier@1@@Z 0000000180015b60 f i libucrtd:output.obj
 0001:00014c10       ?type_case_X@?$output_processor@DV?$string_output_adapter@D@__crt_stdio_output@@V?$format_validation_base@DV?$string_output_adapter@D@__crt_stdio_output@@@2@@__crt_stdio_output@@AEAA_NXZ 0000000180015c10 f i libucrtd:output.obj
 0001:00014c30       ?type_case_X@?$output_processor@_WV?$string_output_adapter@_W@__crt_stdio_output@@V?$format_validation_base@_WV?$string_output_adapter@_W@__crt_stdio_output@@@2@@__crt_stdio_output@@AEAA_NXZ 0000000180015c30 f i libucrtd:output.obj
 0001:00014c50       ?type_case_Z@?$output_processor@DV?$string_output_adapter@D@__crt_stdio_output@@V?$format_validation_base@DV?$string_output_adapter@D@__crt_stdio_output@@@2@@__crt_stdio_output@@AEAA_NXZ 0000000180015c50 f i libucrtd:output.obj
 0001:00014d70       ?type_case_Z@?$output_processor@_WV?$string_output_adapter@_W@__crt_stdio_output@@V?$format_validation_base@_WV?$string_output_adapter@_W@__crt_stdio_output@@@2@@__crt_stdio_output@@AEAA_NXZ 0000000180015d70 f i libucrtd:output.obj
 0001:00014e90       ?type_case_a@?$output_processor@DV?$string_output_adapter@D@__crt_stdio_output@@V?$format_validation_base@DV?$string_output_adapter@D@__crt_stdio_output@@@2@@__crt_stdio_output@@AEAA_NXZ 0000000180015e90 f i libucrtd:output.obj
 0001:00015250       ?type_case_a@?$output_processor@_WV?$string_output_adapter@_W@__crt_stdio_output@@V?$format_validation_base@_WV?$string_output_adapter@_W@__crt_stdio_output@@@2@@__crt_stdio_output@@AEAA_NXZ 0000000180016250 f i libucrtd:output.obj
 0001:00015620       ?type_case_c@?$output_processor@DV?$string_output_adapter@D@__crt_stdio_output@@V?$format_validation_base@DV?$string_output_adapter@D@__crt_stdio_output@@@2@@__crt_stdio_output@@AEAA_NXZ 0000000180016620 f i libucrtd:output.obj
 0001:00015640       ?type_case_c@?$output_processor@_WV?$string_output_adapter@_W@__crt_stdio_output@@V?$format_validation_base@_WV?$string_output_adapter@_W@__crt_stdio_output@@@2@@__crt_stdio_output@@AEAA_NXZ 0000000180016640 f i libucrtd:output.obj
 0001:00015660       ?type_case_c_tchar@?$output_processor@DV?$string_output_adapter@D@__crt_stdio_output@@V?$format_validation_base@DV?$string_output_adapter@D@__crt_stdio_output@@@2@@__crt_stdio_output@@AEAA_ND@Z 0000000180016660 f i libucrtd:output.obj
 0001:000157b0       ?type_case_c_tchar@?$output_processor@_WV?$string_output_adapter@_W@__crt_stdio_output@@V?$format_validation_base@_WV?$string_output_adapter@_W@__crt_stdio_output@@@2@@__crt_stdio_output@@AEAA_N_W@Z 00000001800167b0 f i libucrtd:output.obj
 0001:000158e0       ?type_case_d@?$output_processor@DV?$string_output_adapter@D@__crt_stdio_output@@V?$format_validation_base@DV?$string_output_adapter@D@__crt_stdio_output@@@2@@__crt_stdio_output@@AEAA_NXZ 00000001800168e0 f i libucrtd:output.obj
 0001:00015910       ?type_case_d@?$output_processor@_WV?$string_output_adapter@_W@__crt_stdio_output@@V?$format_validation_base@_WV?$string_output_adapter@_W@__crt_stdio_output@@@2@@__crt_stdio_output@@AEAA_NXZ 0000000180016910 f i libucrtd:output.obj
 0001:00015940       ?type_case_integer@?$output_processor@DV?$string_output_adapter@D@__crt_stdio_output@@V?$format_validation_base@DV?$string_output_adapter@D@__crt_stdio_output@@@2@@__crt_stdio_output@@AEAA_NI_N@Z 0000000180016940 f i libucrtd:output.obj
 0001:00015d90       ?type_case_integer@?$output_processor@_WV?$string_output_adapter@_W@__crt_stdio_output@@V?$format_validation_base@_WV?$string_output_adapter@_W@__crt_stdio_output@@@2@@__crt_stdio_output@@AEAA_NI_N@Z 0000000180016d90 f i libucrtd:output.obj
 0001:000161e0       ?type_case_n@?$output_processor@DV?$string_output_adapter@D@__crt_stdio_output@@V?$format_validation_base@DV?$string_output_adapter@D@__crt_stdio_output@@@2@@__crt_stdio_output@@AEAA_NXZ 00000001800171e0 f i libucrtd:output.obj
 0001:00016420       ?type_case_n@?$output_processor@_WV?$string_output_adapter@_W@__crt_stdio_output@@V?$format_validation_base@_WV?$string_output_adapter@_W@__crt_stdio_output@@@2@@__crt_stdio_output@@AEAA_NXZ 0000000180017420 f i libucrtd:output.obj
 0001:00016660       ?type_case_o@?$output_processor@DV?$string_output_adapter@D@__crt_stdio_output@@V?$format_validation_base@DV?$string_output_adapter@D@__crt_stdio_output@@@2@@__crt_stdio_output@@AEAA_NXZ 0000000180017660 f i libucrtd:output.obj
 0001:000166b0       ?type_case_o@?$output_processor@_WV?$string_output_adapter@_W@__crt_stdio_output@@V?$format_validation_base@_WV?$string_output_adapter@_W@__crt_stdio_output@@@2@@__crt_stdio_output@@AEAA_NXZ 00000001800176b0 f i libucrtd:output.obj
 0001:00016700       ?type_case_p@?$output_processor@DV?$string_output_adapter@D@__crt_stdio_output@@V?$format_validation_base@DV?$string_output_adapter@D@__crt_stdio_output@@@2@@__crt_stdio_output@@AEAA_NXZ 0000000180017700 f i libucrtd:output.obj
 0001:00016740       ?type_case_p@?$output_processor@_WV?$string_output_adapter@_W@__crt_stdio_output@@V?$format_validation_base@_WV?$string_output_adapter@_W@__crt_stdio_output@@@2@@__crt_stdio_output@@AEAA_NXZ 0000000180017740 f i libucrtd:output.obj
 0001:00016780       ?type_case_s@?$output_processor@DV?$string_output_adapter@D@__crt_stdio_output@@V?$format_validation_base@DV?$string_output_adapter@D@__crt_stdio_output@@@2@@__crt_stdio_output@@AEAA_NXZ 0000000180017780 f i libucrtd:output.obj
 0001:000168a0       ?type_case_s@?$output_processor@_WV?$string_output_adapter@_W@__crt_stdio_output@@V?$format_validation_base@_WV?$string_output_adapter@_W@__crt_stdio_output@@@2@@__crt_stdio_output@@AEAA_NXZ 00000001800178a0 f i libucrtd:output.obj
 0001:000169c0       ?type_case_s_compute_narrow_string_length@?$output_processor@DV?$string_output_adapter@D@__crt_stdio_output@@V?$format_validation_base@DV?$string_output_adapter@D@__crt_stdio_output@@@2@@__crt_stdio_output@@AEBAHHD@Z 00000001800179c0 f i libucrtd:output.obj
 0001:000169f0       ?type_case_s_compute_narrow_string_length@?$output_processor@_WV?$string_output_adapter@_W@__crt_stdio_output@@V?$format_validation_base@_WV?$string_output_adapter@_W@__crt_stdio_output@@@2@@__crt_stdio_output@@AEBAHH_W@Z 00000001800179f0 f i libucrtd:output.obj
 0001:00016a80       ?type_case_u@?$output_processor@DV?$string_output_adapter@D@__crt_stdio_output@@V?$format_validation_base@DV?$string_output_adapter@D@__crt_stdio_output@@@2@@__crt_stdio_output@@AEAA_NXZ 0000000180017a80 f i libucrtd:output.obj
 0001:00016aa0       ?type_case_u@?$output_processor@_WV?$string_output_adapter@_W@__crt_stdio_output@@V?$format_validation_base@_WV?$string_output_adapter@_W@__crt_stdio_output@@@2@@__crt_stdio_output@@AEAA_NXZ 0000000180017aa0 f i libucrtd:output.obj
 0001:00016ac0       ?type_case_x@?$output_processor@DV?$string_output_adapter@D@__crt_stdio_output@@V?$format_validation_base@DV?$string_output_adapter@D@__crt_stdio_output@@@2@@__crt_stdio_output@@AEAA_NXZ 0000000180017ac0 f i libucrtd:output.obj
 0001:00016ae0       ?type_case_x@?$output_processor@_WV?$string_output_adapter@_W@__crt_stdio_output@@V?$format_validation_base@_WV?$string_output_adapter@_W@__crt_stdio_output@@@2@@__crt_stdio_output@@AEAA_NXZ 0000000180017ae0 f i libucrtd:output.obj
 0001:00016b00       ?unset_flag@?$output_processor@_WV?$string_output_adapter@_W@__crt_stdio_output@@V?$format_validation_base@_WV?$string_output_adapter@_W@__crt_stdio_output@@@2@@__crt_stdio_output@@AEAAXI@Z 0000000180017b00 f i libucrtd:output.obj
 0001:00016b00       ?unset_flag@?$output_processor@DV?$string_output_adapter@D@__crt_stdio_output@@V?$format_validation_base@DV?$string_output_adapter@D@__crt_stdio_output@@@2@@__crt_stdio_output@@AEAAXI@Z 0000000180017b00 f i libucrtd:output.obj
 0001:00016b30       ?update_field_width@?$standard_base@DV?$string_output_adapter@D@__crt_stdio_output@@@__crt_stdio_output@@IEAA_NXZ 0000000180017b30 f i libucrtd:output.obj
 0001:00016b30       ?update_field_width@?$standard_base@_WV?$string_output_adapter@_W@__crt_stdio_output@@@__crt_stdio_output@@IEAA_NXZ 0000000180017b30 f i libucrtd:output.obj
 0001:00016b60       ?update_precision@?$standard_base@_WV?$string_output_adapter@_W@__crt_stdio_output@@@__crt_stdio_output@@IEAA_NXZ 0000000180017b60 f i libucrtd:output.obj
 0001:00016b60       ?update_precision@?$standard_base@DV?$string_output_adapter@D@__crt_stdio_output@@@__crt_stdio_output@@IEAA_NXZ 0000000180017b60 f i libucrtd:output.obj
 0001:00016b90       ?validate@?$string_output_adapter@D@__crt_stdio_output@@QEBA_NXZ 0000000180017b90 f i libucrtd:output.obj
 0001:00016c50       ?validate@?$string_output_adapter@_W@__crt_stdio_output@@QEBA_NXZ 0000000180017c50 f i libucrtd:output.obj
 0001:00016d10       ?validate_and_update_state_at_end_of_format_string@?$format_validation_base@DV?$string_output_adapter@D@__crt_stdio_output@@@__crt_stdio_output@@IEBA_NXZ 0000000180017d10 f i libucrtd:output.obj
 0001:00016dd0       ?validate_and_update_state_at_end_of_format_string@?$format_validation_base@_WV?$string_output_adapter@_W@__crt_stdio_output@@@__crt_stdio_output@@IEBA_NXZ 0000000180017dd0 f i libucrtd:output.obj
 0001:00016e90       ?wide_null_string@?$output_processor@DV?$string_output_adapter@D@__crt_stdio_output@@V?$format_validation_base@DV?$string_output_adapter@D@__crt_stdio_output@@@2@@__crt_stdio_output@@CAPEA_WXZ 0000000180017e90 f i libucrtd:output.obj
 0001:00016e90       ?wide_null_string@?$output_processor@_WV?$string_output_adapter@_W@__crt_stdio_output@@V?$format_validation_base@_WV?$string_output_adapter@_W@__crt_stdio_output@@@2@@__crt_stdio_output@@CAPEA_WXZ 0000000180017e90 f i libucrtd:output.obj
 0001:00016ea0       ?write_character@?$string_output_adapter@D@__crt_stdio_output@@QEBA_NDQEAH@Z 0000000180017ea0 f i libucrtd:output.obj
 0001:00016f60       ?write_character@?$string_output_adapter@_W@__crt_stdio_output@@QEBA_N_WQEAH@Z 0000000180017f60 f i libucrtd:output.obj
 0001:00017020       ?write_stored_string_tchar@?$output_processor@DV?$string_output_adapter@D@__crt_stdio_output@@V?$format_validation_base@DV?$string_output_adapter@D@__crt_stdio_output@@@2@@__crt_stdio_output@@AEAA_ND@Z 0000000180018020 f i libucrtd:output.obj
 0001:000171d0       ?write_stored_string_tchar@?$output_processor@_WV?$string_output_adapter@_W@__crt_stdio_output@@V?$format_validation_base@_WV?$string_output_adapter@_W@__crt_stdio_output@@@2@@__crt_stdio_output@@AEAA_N_W@Z 00000001800181d0 f i libucrtd:output.obj
 0001:00017320       ?write_string@?$string_output_adapter@D@__crt_stdio_output@@QEBAXQEBDHQEAHAEAV__crt_deferred_errno_cache@@@Z 0000000180018320 f i libucrtd:output.obj
 0001:00017490       ?write_string@?$string_output_adapter@_W@__crt_stdio_output@@QEBAXQEB_WHQEAHAEAV__crt_deferred_errno_cache@@@Z 0000000180018490 f i libucrtd:output.obj
 0001:00017600       __acrt_isleadbyte_l_noupdate 0000000180018600 f i libucrtd:output.obj
 0001:00017630       __acrt_locale_get_ctype_array_value 0000000180018630 f i libucrtd:output.obj
 0001:00017670       __stdio_common_vsnprintf_s 0000000180018670 f   libucrtd:output.obj
 0001:000176d0       __stdio_common_vsnwprintf_s 00000001800186d0 f   libucrtd:output.obj
 0001:00017730       __stdio_common_vsprintf_s  0000000180018730 f   libucrtd:output.obj
 0001:00017780       _ctype_fast_check_internal 0000000180018780 f i libucrtd:output.obj
 0001:000177b0       _isdigit_fast_internal     00000001800187b0 f i libucrtd:output.obj
 0001:000177e0       _tolower_fast_internal     00000001800187e0 f i libucrtd:output.obj
 0001:00017810       ??$is_overflow_condition@K@__crt_strtox@@YA_NIK@Z 0000000180018810 f i libucrtd:atox.obj
 0001:00017880       ??$parse_integer@KV?$c_string_character_source@D@__crt_strtox@@@__crt_strtox@@YAKQEAU__crt_locale_pointers@@V?$c_string_character_source@D@0@H_N@Z 0000000180018880 f i libucrtd:atox.obj
 0001:00017d10       ??$parse_integer@KV?$c_string_character_source@_W@__crt_strtox@@@__crt_strtox@@YAKQEAU__crt_locale_pointers@@V?$c_string_character_source@_W@0@H_N@Z 0000000180018d10 f i libucrtd:atox.obj
 0001:000181c0       ??0?$c_string_character_source@_W@__crt_strtox@@QEAA@QEB_WQEAPEB_W@Z 00000001800191c0 f i libucrtd:atox.obj
 0001:000181c0       ??0?$c_string_character_source@D@__crt_strtox@@QEAA@QEBDQEAPEBD@Z 00000001800191c0 f i libucrtd:atox.obj
 0001:00018210       ??1?$c_string_character_source@_W@__crt_strtox@@QEAA@XZ 0000000180019210 f i libucrtd:atox.obj
 0001:00018210       ??1?$c_string_character_source@D@__crt_strtox@@QEAA@XZ 0000000180019210 f i libucrtd:atox.obj
 0001:00018240       ?get@?$c_string_character_source@D@__crt_strtox@@QEAADXZ 0000000180019240 f i libucrtd:atox.obj
 0001:00018280       ?get@?$c_string_character_source@_W@__crt_strtox@@QEAA_WXZ 0000000180019280 f i libucrtd:atox.obj
 0001:000182c0       ?is_space@__crt_strtox@@YA_NDQEAU__crt_locale_pointers@@@Z 00000001800192c0 f i libucrtd:atox.obj
 0001:00018310       ?is_space@__crt_strtox@@YA_N_WPEAU__crt_locale_pointers@@@Z 0000000180019310 f i libucrtd:atox.obj
 0001:00018350       ?maximum_signed_value@__crt_strtox@@YAJK@Z 0000000180019350 f i libucrtd:atox.obj
 0001:00018360       ?minimum_signed_value@__crt_strtox@@YAJK@Z 0000000180019360 f i libucrtd:atox.obj
 0001:00018370       ?parse_digit@__crt_strtox@@YAID@Z 0000000180019370 f i libucrtd:atox.obj
 0001:000183e0       ?parse_digit@__crt_strtox@@YAI_W@Z 00000001800193e0 f i libucrtd:atox.obj
 0001:00018430       ?restore_state@?$c_string_character_source@D@__crt_strtox@@QEAA_NQEBD@Z 0000000180019430 f i libucrtd:atox.obj
 0001:00018430       ?restore_state@?$c_string_character_source@_W@__crt_strtox@@QEAA_NQEB_W@Z 0000000180019430 f i libucrtd:atox.obj
 0001:00018450       ?unget@?$c_string_character_source@D@__crt_strtox@@QEAAXD@Z 0000000180019450 f i libucrtd:atox.obj
 0001:00018530       ?unget@?$c_string_character_source@_W@__crt_strtox@@QEAAX_W@Z 0000000180019530 f i libucrtd:atox.obj
 0001:00018610       ?validate@?$c_string_character_source@D@__crt_strtox@@QEBA_NXZ 0000000180019610 f i libucrtd:atox.obj
 0001:000186d0       ?validate@?$c_string_character_source@_W@__crt_strtox@@QEBA_NXZ 00000001800196d0 f i libucrtd:atox.obj
 0001:00018790       ?wide_character_to_digit@__crt_strtox@@YAH_W@Z 0000000180019790 f i libucrtd:atox.obj
 0001:00018b00       __ascii_iswalpha           0000000180019b00 f i libucrtd:atox.obj
 0001:00018b40       __ascii_toupper            0000000180019b40 f i libucrtd:atox.obj
 0001:00018b60       __ascii_towupper           0000000180019b60 f i libucrtd:atox.obj
 0001:00018b90       strncmp                    0000000180019b90 f   libucrtd:strncmp.obj
 0001:000199c0       ??$get_module_file_name@AEAPEAUHINSTANCE__@@AEAY0BAF@_WK@?$__crt_char_traits@_W@@SAKAEAPEAUHINSTANCE__@@AEAY0BAF@_W$$QEAK@Z 000000018001a9c0 f i libucrtd:dbgrpt.obj
 0001:00019a00       ??$tcscpy_s@AEAY0BAF@D_KPEBD@?$__crt_char_traits@D@@SAHAEAY0BAF@D$$QEA_K$$QEAPEBD@Z 000000018001aa00 f i libucrtd:dbgrpt.obj
 0001:00019a40       ??$tcscpy_s@AEAY0BAF@_W_KPEB_W@?$__crt_char_traits@_W@@SAHAEAY0BAF@_W$$QEA_K$$QEAPEB_W@Z 000000018001aa40 f i libucrtd:dbgrpt.obj
 0001:00019a80       ??$tcslen@AEAY0BAF@D@?$__crt_char_traits@D@@SA_KAEAY0BAF@D@Z 000000018001aa80 f i libucrtd:dbgrpt.obj
 0001:00019aa0       ??$tcslen@AEAY0BAF@_W@?$__crt_char_traits@_W@@SA_KAEAY0BAF@_W@Z 000000018001aaa0 f i libucrtd:dbgrpt.obj
 0001:00019ac0       ??$tcslen@AEBQEBD@?$__crt_char_traits@D@@SA_KAEBQEBD@Z 000000018001aac0 f i libucrtd:dbgrpt.obj
 0001:00019ae0       ??$tcslen@AEBQEB_W@?$__crt_char_traits@_W@@SA_KAEBQEB_W@Z 000000018001aae0 f i libucrtd:dbgrpt.obj
 0001:00019b40       _CrtDbgReport              000000018001ab40 f   libucrtd:dbgrpt.obj
 0001:00019bc0       _CrtDbgReportW             000000018001abc0 f   libucrtd:dbgrpt.obj
 0001:00019c40       __acrt_MessageWindowA      000000018001ac40 f   libucrtd:dbgrpt.obj
 0001:00019c90       __acrt_MessageWindowW      000000018001ac90 f   libucrtd:dbgrpt.obj
 0001:00019ce0       _snwprintf_s               000000018001ace0 f i libucrtd:dbgrpt.obj
 0001:00019d50       _vsnwprintf_s_l            000000018001ad50 f i libucrtd:dbgrpt.obj
 0001:00019dd0       wcsncmp                    000000018001add0 f   libucrtd:wcsncmp.obj
 0001:00019e60       free                       000000018001ae60 f   libucrtd:free.obj
 0001:00019e90       malloc                     000000018001ae90 f   libucrtd:malloc.obj
 0001:0001a090       _handle_error              000000018001b090 f   libucrtd:libm_error.obj
 0001:0001a220       _handle_nan                000000018001b220 f   libucrtd:libm_error.obj
 0001:0001a270       _handle_nanf               000000018001b270 f   libucrtd:libm_error.obj
 0001:0001a4f0       ??0__crt_scoped_get_last_error_reset@@QEAA@XZ 000000018001b4f0 f i libucrtd:per_thread_data.obj
 0001:0001a510       ??1__crt_scoped_get_last_error_reset@@QEAA@XZ 000000018001b510 f i libucrtd:per_thread_data.obj
 0001:0001a910       ?get_current_state_index@__crt_state_management@@YA_KAEBV__crt_scoped_get_last_error_reset@@@Z 000000018001b910 f i libucrtd:per_thread_data.obj
 0001:0001abc0       ?value@?$dual_state_global@P6AXPEB_W00I_K@Z@__crt_state_management@@QEAAAEAP6AXPEB_W00I_K@ZXZ 000000018001bbc0 f i libucrtd:invalid_parameter.obj
 0001:0001abc0       ?value@?$dual_state_global@P6AXH@Z@__crt_state_management@@QEAAAEAP6AXH@ZXZ 000000018001bbc0 f i libucrtd:signal.obj
 0001:0001abc0       ?value@?$dual_state_global@PEAU__crt_locale_data@@@__crt_state_management@@QEAAAEAPEAU__crt_locale_data@@XZ 000000018001bbc0 f i libucrtd:per_thread_data.obj
 0001:0001abc0       ?value@?$dual_state_global@P6AH_K@Z@__crt_state_management@@QEAAAEAP6AH_K@ZXZ 000000018001bbc0 f i libucrtd:new_handler.obj
 0001:0001abc0       ?value@?$dual_state_global@PEAU__crt_multibyte_data@@@__crt_state_management@@QEAAAEAPEAU__crt_multibyte_data@@XZ 000000018001bbc0 f i libucrtd:mbctype.obj
 0001:0001abc0       ?value@?$dual_state_global@P6AHPEAU_exception@@@Z@__crt_state_management@@QEAAAEAP6AHPEAU_exception@@@ZXZ 000000018001bbc0 f i libucrtd:matherr.obj
 0001:0001abc0       ?value@?$dual_state_global@PEAE@__crt_state_management@@QEAAAEAPEAEXZ 000000018001bbc0 f i libucrtd:mbctype.obj
 0001:0001abe0       __acrt_freeptd             000000018001bbe0 f   libucrtd:per_thread_data.obj
 0001:0001ac20       __acrt_getptd              000000018001bc20 f   libucrtd:per_thread_data.obj
 0001:0001ac50       __acrt_getptd_head         000000018001bc50 f   libucrtd:per_thread_data.obj
 0001:0001ac80       __acrt_getptd_noexit       000000018001bc80 f   libucrtd:per_thread_data.obj
 0001:0001ac90       __acrt_initialize_ptd      000000018001bc90 f   libucrtd:per_thread_data.obj
 0001:0001acd0       __acrt_uninitialize_ptd    000000018001bcd0 f   libucrtd:per_thread_data.obj
 0001:0001ad00       __acrt_initialize_locks    000000018001bd00 f   libucrtd:locks.obj
 0001:0001ad70       __acrt_lock                000000018001bd70 f   libucrtd:locks.obj
 0001:0001ada0       __acrt_uninitialize_locks  000000018001bda0 f   libucrtd:locks.obj
 0001:0001ae00       __acrt_unlock              000000018001be00 f   libucrtd:locks.obj
 0001:0001b110       __acrt_get_developer_information_policy 000000018001c110 f   libucrtd:win_policies.obj
 0001:0001b130       __acrt_get_process_end_policy 000000018001c130 f   libucrtd:win_policies.obj
 0001:0001b140       __acrt_get_windowing_model_policy 000000018001c140 f   libucrtd:win_policies.obj
 0001:0001b160       ??$initialize_from_array@$$BY00Q6AXPEB_W00I_K@Z@?$dual_state_global@P6AXPEB_W00I_K@Z@__crt_state_management@@QEAAXAEAY00Q6AXPEB_W00I_K@Z@Z 000000018001c160 f i libucrtd:invalid_parameter.obj
 0001:0001b1c0       __acrt_call_reportfault    000000018001c1c0 f   libucrtd:invalid_parameter.obj
 0001:0001b2f0       __acrt_initialize_invalid_parameter_handler 000000018001c2f0 f   libucrtd:invalid_parameter.obj
 0001:0001b320       _invalid_parameter         000000018001c320 f   libucrtd:invalid_parameter.obj
 0001:0001b420       _invalid_parameter_noinfo  000000018001c420 f   libucrtd:invalid_parameter.obj
 0001:0001b450       _invoke_watson             000000018001c450 f   libucrtd:invalid_parameter.obj
 0001:0001b4b0       __acrt_errno_from_os_error 000000018001c4b0 f   libucrtd:errno.obj
 0001:0001b540       __acrt_errno_map_os_error  000000018001c540 f   libucrtd:errno.obj
 0001:0001b570       __doserrno                 000000018001c570 f   libucrtd:errno.obj
 0001:0001b5a0       _errno                     000000018001c5a0 f   libucrtd:errno.obj
 0001:0001b940       ??$__acrt_mbs_to_wcs_cp@U__crt_win32_buffer_internal_dynamic_resizing@@@@YAHQEBDAEAV?$__crt_win32_buffer@_WU__crt_win32_buffer_internal_dynamic_resizing@@@@I@Z 000000018001c940 f i libucrtd:argv_wildcards.obj
 0001:0001b990       ??$__acrt_wcs_to_mbs_cp@U__crt_win32_buffer_internal_dynamic_resizing@@@@YAHQEB_WAEAV?$__crt_win32_buffer@DU__crt_win32_buffer_internal_dynamic_resizing@@@@I@Z 000000018001c990 f i libucrtd:argv_wildcards.obj
 0001:0001c3e0       ??$tcsncpy_s@PEADAEB_KAEBQEBDAEB_K@?$__crt_char_traits@D@@SAH$$QEAPEADAEB_KAEBQEBD1@Z 000000018001d3e0 f i libucrtd:argv_wildcards.obj
 0001:0001c3e0       ??$tcsncpy_s@PEAD_KAEBQEBDAEB_K@?$__crt_char_traits@D@@SAH$$QEAPEAD$$QEA_KAEBQEBDAEB_K@Z 000000018001d3e0 f i libucrtd:argv_wildcards.obj
 0001:0001c3e0       ??$tcsncpy_s@AEAPEAD_KAEAPEADAEB_K@?$__crt_char_traits@D@@SAHAEAPEAD$$QEA_K0AEB_K@Z 000000018001d3e0 f i libucrtd:argv_wildcards.obj
 0001:0001c430       ??$tcspbrk@AEAPEADAEAY02$$CBD@?$__crt_char_traits@D@@SAPEADAEAPEADAEAY02$$CBD@Z 000000018001d430 f i libucrtd:argv_wildcards.obj
 0001:0001c460       ??0?$__crt_win32_buffer@_WU__crt_win32_buffer_internal_dynamic_resizing@@@@QEAA@XZ 000000018001d460 f i libucrtd:argv_wildcards.obj
 0001:0001c460       ??0?$__crt_win32_buffer@DU__crt_win32_buffer_internal_dynamic_resizing@@@@QEAA@XZ 000000018001d460 f i libucrtd:argv_wildcards.obj
 0001:0001c500       ??1?$__crt_unique_handle_t@U__crt_findfile_traits@@@@QEAA@XZ 000000018001d500 f i libucrtd:argv_wildcards.obj
 0001:0001c520       ??1?$__crt_win32_buffer@DU__crt_win32_buffer_internal_dynamic_resizing@@@@QEAA@XZ 000000018001d520 f i libucrtd:argv_wildcards.obj
 0001:0001c520       ??1?$__crt_win32_buffer@_WU__crt_win32_buffer_internal_dynamic_resizing@@@@QEAA@XZ 000000018001d520 f i libucrtd:argv_wildcards.obj
 0001:0001c710       ?__acrt_get_utf8_acp_compatibility_codepage@@YAIXZ 000000018001d710 f i libucrtd:argv_wildcards.obj
 0001:0001c7b0       ?_deallocate@?$__crt_win32_buffer@_WU__crt_win32_buffer_internal_dynamic_resizing@@@@AEAAXXZ 000000018001d7b0 f i libucrtd:argv_wildcards.obj
 0001:0001c7b0       ?_deallocate@?$__crt_win32_buffer@DU__crt_win32_buffer_internal_dynamic_resizing@@@@AEAAXXZ 000000018001d7b0 f i libucrtd:argv_wildcards.obj
 0001:0001c7f0       ?allocate@?$__crt_win32_buffer@DU__crt_win32_buffer_internal_dynamic_resizing@@@@QEAAH_K@Z 000000018001d7f0 f i libucrtd:argv_wildcards.obj
 0001:0001c870       ?allocate@?$__crt_win32_buffer@_WU__crt_win32_buffer_internal_dynamic_resizing@@@@QEAAH_K@Z 000000018001d870 f i libucrtd:argv_wildcards.obj
 0001:0001c900       ?allocate@__crt_win32_buffer_internal_dynamic_resizing@@SAHQEAPEAX_KAEBV__crt_win32_buffer_empty_debug_info@@@Z 000000018001d900 f i libucrtd:argv_wildcards.obj
 0001:0001c9d0       ?capacity@?$__crt_win32_buffer@DU__crt_win32_buffer_internal_dynamic_resizing@@@@QEBA_KXZ 000000018001d9d0 f i libucrtd:argv_wildcards.obj
 0001:0001c9d0       ?capacity@?$__crt_win32_buffer@DU__crt_win32_buffer_no_resizing@@@@QEBA_KXZ 000000018001d9d0 f i libucrtd:getmodulefilenamea.obj
 0001:0001c9d0       ?capacity@?$__crt_win32_buffer@_WU__crt_win32_buffer_internal_dynamic_resizing@@@@QEBA_KXZ 000000018001d9d0 f i libucrtd:argv_wildcards.obj
 0001:0001c9e0       ?close@?$__crt_unique_handle_t@U__crt_findfile_traits@@@@QEAAXXZ 000000018001d9e0 f i libucrtd:argv_wildcards.obj
 0001:0001ca20       ?close@__crt_findfile_traits@@SA_NPEAX@Z 000000018001da20 f i libucrtd:argv_wildcards.obj
 0001:0001ca60       ?data@?$__crt_win32_buffer@DU__crt_win32_buffer_internal_dynamic_resizing@@@@QEAAPEADXZ 000000018001da60 f i libucrtd:argv_wildcards.obj
 0001:0001ca60       ?data@?$__crt_win32_buffer@_WU__crt_win32_buffer_internal_dynamic_resizing@@@@QEAAPEA_WXZ 000000018001da60 f i libucrtd:argv_wildcards.obj
 0001:0001ca60       ?data@?$__crt_win32_buffer@DU__crt_win32_buffer_no_resizing@@@@QEAAPEADXZ 000000018001da60 f i libucrtd:getmodulefilenamea.obj
 0001:0001ca70       ?deallocate@__crt_win32_buffer_internal_dynamic_resizing@@SAXQEAXAEBV__crt_win32_buffer_empty_debug_info@@@Z 000000018001da70 f i libucrtd:argv_wildcards.obj
 0001:0001cd60       ?set_to_nullptr@?$__crt_win32_buffer@DU__crt_win32_buffer_internal_dynamic_resizing@@@@QEAAXXZ 000000018001dd60 f i libucrtd:argv_wildcards.obj
 0001:0001cd60       ?set_to_nullptr@?$__crt_win32_buffer@_WU__crt_win32_buffer_internal_dynamic_resizing@@@@QEAAXXZ 000000018001dd60 f i libucrtd:argv_wildcards.obj
 0001:0001cda0       ?size@?$__crt_win32_buffer@DU__crt_win32_buffer_internal_dynamic_resizing@@@@QEAAX_K@Z 000000018001dda0 f i libucrtd:argv_wildcards.obj
 0001:0001cda0       ?size@?$__crt_win32_buffer@_WU__crt_win32_buffer_internal_dynamic_resizing@@@@QEAAX_K@Z 000000018001dda0 f i libucrtd:argv_wildcards.obj
 0001:0001cda0       ?size@?$__crt_win32_buffer@DU__crt_win32_buffer_no_resizing@@@@QEAAX_K@Z 000000018001dda0 f i libucrtd:getmodulefilenamea.obj
 0001:0001cde0       ?strpbrk@@YAPEADQEADQEBD@Z 000000018001dde0 f i libucrtd:argv_wildcards.obj
 0001:0001ce10       __acrt_expand_narrow_argv_wildcards 000000018001de10 f   libucrtd:argv_wildcards.obj
 0001:0001cfe0       ??$__acrt_wcs_to_mbs_cp@U__crt_win32_buffer_no_resizing@@@@YAHQEB_WAEAV?$__crt_win32_buffer@DU__crt_win32_buffer_no_resizing@@@@I@Z 000000018001dfe0 f i libucrtd:getmodulefilenamea.obj
 0001:0001d030       ??0?$__crt_win32_buffer@DU__crt_win32_buffer_no_resizing@@@@QEAA@QEAD_K@Z 000000018001e030 f i libucrtd:getmodulefilenamea.obj
 0001:0001d0a0       ??1?$__crt_win32_buffer@DU__crt_win32_buffer_no_resizing@@@@QEAA@XZ 000000018001e0a0 f i libucrtd:getmodulefilenamea.obj
 0001:0001d0d0       ?_deallocate@?$__crt_win32_buffer@DU__crt_win32_buffer_no_resizing@@@@AEAAXXZ 000000018001e0d0 f i libucrtd:getmodulefilenamea.obj
 0001:0001d110       ?allocate@?$__crt_win32_buffer@DU__crt_win32_buffer_no_resizing@@@@QEAAH_K@Z 000000018001e110 f i libucrtd:getmodulefilenamea.obj
 0001:0001d190       ?allocate@__crt_win32_buffer_no_resizing@@SAHQEAPEAX_KAEBV__crt_win32_buffer_empty_debug_info@@@Z 000000018001e190 f i libucrtd:getmodulefilenamea.obj
 0001:0001d1c0       ?deallocate@__crt_win32_buffer_no_resizing@@SAXQEAXAEBV__crt_win32_buffer_empty_debug_info@@@Z 000000018001e1c0 f i libucrtd:getmodulefilenamea.obj
 0001:0001d1d0       ?set_to_nullptr@?$__crt_win32_buffer@DU__crt_win32_buffer_no_resizing@@@@QEAAXXZ 000000018001e1d0 f i libucrtd:getmodulefilenamea.obj
 0001:0001d210       ?size@?$__crt_win32_buffer@DU__crt_win32_buffer_no_resizing@@@@QEBA_KXZ 000000018001e210 f i libucrtd:getmodulefilenamea.obj
 0001:0001d220       __acrt_GetModuleFileNameA  000000018001e220 f   libucrtd:getmodulefilenamea.obj
 0001:0001d390       ??$initialize_from_array@$$BY10BAA@E@?$dual_state_global@PEAE@__crt_state_management@@QEAAXAEAY10BAA@E@Z 000000018001e390 f i libucrtd:mbctype.obj
 0001:0001d400       ??$initialize_from_array@$$BY10BAB@E@?$dual_state_global@PEAE@__crt_state_management@@QEAAXAEAY10BAB@E@Z 000000018001e400 f i libucrtd:mbctype.obj
 0001:0001df70       __acrt_initialize_multibyte 000000018001ef70 f   libucrtd:mbctype.obj
 0001:0001e040       __acrt_update_thread_multibyte_data 000000018001f040 f   libucrtd:mbctype.obj
 0001:0001e070       _setmbcp_nolock            000000018001f070 f   libucrtd:mbctype.obj
 0001:0001e714       _ismbblead                 000000018001f714 f   libucrtd:ismbbyte.obj
 0001:0001e730       __acrt_initialize_command_line 000000018001f730 f   libucrtd:argv_data.obj
 0001:0001ec40       wcscpy_s                   000000018001fc40 f   libucrtd:wcscpy_s.obj
 0001:0001ed10       __acrt_MultiByteToWideChar 000000018001fd10 f   libucrtd:multibytetowidechar.obj
 0001:0001ee10       __acrt_WideCharToMultiByte 000000018001fe10 f   libucrtd:widechartomultibyte.obj
 0001:0001ef1c       __dcrt_get_narrow_environment_from_os 000000018001ff1c f   libucrtd:get_environment_from_os.obj
 0001:0001f7b0       GetCurrentThreadEffectiveToken 00000001800207b0 f i libucrtd:winapi_thunks.obj
 0001:0001f7c0       __acrt_AppPolicyGetProcessTerminationMethodInternal 00000001800207c0 f   libucrtd:winapi_thunks.obj
 0001:0001f810       __acrt_AppPolicyGetShowDeveloperDiagnosticInternal 0000000180020810 f   libucrtd:winapi_thunks.obj
 0001:0001f860       __acrt_AppPolicyGetWindowingModelInternal 0000000180020860 f   libucrtd:winapi_thunks.obj
 0001:0001f8b0       __acrt_AreFileApisANSI     00000001800208b0 f   libucrtd:winapi_thunks.obj
 0001:0001f8f0       __acrt_FlsAlloc            00000001800208f0 f   libucrtd:winapi_thunks.obj
 0001:0001f940       __acrt_FlsFree             0000000180020940 f   libucrtd:winapi_thunks.obj
 0001:0001f990       __acrt_FlsGetValue         0000000180020990 f   libucrtd:winapi_thunks.obj
 0001:0001f9e0       __acrt_FlsSetValue         00000001800209e0 f   libucrtd:winapi_thunks.obj
 0001:0001fa40       __acrt_InitializeCriticalSectionEx 0000000180020a40 f   libucrtd:winapi_thunks.obj
 0001:0001faa0       __acrt_LCMapStringEx       0000000180020aa0 f   libucrtd:winapi_thunks.obj
 0001:0001fb80       __acrt_LocaleNameToLCID    0000000180020b80 f   libucrtd:winapi_thunks.obj
 0001:0001fbd0       __acrt_MessageBoxW         0000000180020bd0 f   libucrtd:winapi_thunks.obj
 0001:0001fc30       __acrt_can_show_message_box 0000000180020c30 f   libucrtd:winapi_thunks.obj
 0001:0001fc70       __acrt_get_parent_window   0000000180020c70 f   libucrtd:winapi_thunks.obj
 0001:0001fcf0       __acrt_initialize_winapi_thunks 0000000180020cf0 f   libucrtd:winapi_thunks.obj
 0001:0001fd70       __acrt_is_interactive      0000000180020d70 f   libucrtd:winapi_thunks.obj
 0001:0001fe50       __acrt_uninitialize_winapi_thunks 0000000180020e50 f   libucrtd:winapi_thunks.obj
 0001:0001fef0       __acrt_initialize_heap     0000000180020ef0 f   libucrtd:heap_handle.obj
 0001:0001ff20       __acrt_uninitialize_heap   0000000180020f20 f   libucrtd:heap_handle.obj
 0001:000202e0       __acrt_initialize_lowio    00000001800212e0 f   libucrtd:ioinit.obj
 0001:00020330       __acrt_uninitialize_lowio  0000000180021330 f   libucrtd:ioinit.obj
 0001:000203b0       __acrt_execute_initializers 00000001800213b0 f   libucrtd:shared_initialization.obj
 0001:000204a0       __acrt_execute_uninitializers 00000001800214a0 f   libucrtd:shared_initialization.obj
 0001:00020520       __acrt_initialize_new_handler 0000000180021520 f   libucrtd:new_handler.obj
 0001:00020540       _callnewh                  0000000180021540 f   libucrtd:new_handler.obj
 0001:00020590       _query_new_handler         0000000180021590 f   libucrtd:new_handler.obj
 0001:00020790       __acrt_get_sigabrt_handler 0000000180021790 f   libucrtd:signal.obj
 0001:000207c0       __acrt_initialize_signal_handlers 00000001800217c0 f   libucrtd:signal.obj
 0001:00020820       __fpecode                  0000000180021820 f   libucrtd:signal.obj
 0001:00020840       raise                      0000000180021840 f   libucrtd:signal.obj
 0001:00020d00       __acrt_has_user_matherr    0000000180021d00 f   libucrtd:matherr.obj
 0001:00020d40       __acrt_initialize_user_matherr 0000000180021d40 f   libucrtd:matherr.obj
 0001:00020d60       __acrt_invoke_user_matherr 0000000180021d60 f   libucrtd:matherr.obj
 0001:00020db0       ?has_any_of@__crt_stdio_stream@@QEBA_NJ@Z 0000000180021db0 f i libucrtd:_sftbuf.obj
 0001:00020df0       ?set_flags@__crt_stdio_stream@@QEBA_NJ@Z 0000000180021df0 f i libucrtd:_sftbuf.obj
 0001:00020e60       ?unset_flags@__crt_stdio_stream@@QEBA_NJ@Z 0000000180021e60 f i libucrtd:_sftbuf.obj
 0001:00020ec0       _chvalidator_l             0000000180021ec0 f   libucrtd:isctype.obj
 0001:00020f70       _isctype_l                 0000000180021f70 f   libucrtd:isctype.obj
 0001:000211a0       _isleadbyte_fast_internal  00000001800221a0 f i libucrtd:isctype.obj
 0001:000211e0       _free_base                 00000001800221e0 f   libucrtd:free_base.obj
 0001:00021240       _realloc_base              0000000180022240 f   libucrtd:realloc_base.obj
 0001:00021360       _expand_base               0000000180022360 f   libucrtd:expand.obj
 0001:000214f0       __acrt_update_locale_info  00000001800224f0 f   libucrtd:locale_update.obj
 0001:00021540       __acrt_update_multibyte_info 0000000180022540 f   libucrtd:locale_update.obj
 0001:00021590       ?value@?$dual_state_global@J@__crt_state_management@@QEAAAEAJXZ 0000000180022590 f i libucrtd:new_mode.obj
 0001:000215b0       _query_new_mode            00000001800225b0 f   libucrtd:new_mode.obj
 0001:000215d0       _CrtDefaultAllocHook       00000001800225d0 f   libucrtd:debug_heap_hook.obj
 0001:00021750       __acrt_set_locale_changed  0000000180022750 f   libucrtd:wsetlocale.obj
 0001:00021760       __acrt_uninitialize_locale 0000000180022760 f   libucrtd:wsetlocale.obj
 0001:00021790       __ascii_tolower            0000000180022790 f i libucrtd:wsetlocale.obj
 0001:000217b0       __ascii_towlower           00000001800227b0 f i libucrtd:wsetlocale.obj
 0001:000217d0       _CrtGetDebugFillThreshold  00000001800227d0 f   libucrtd:debug_fill_threshold.obj
 0001:000219b0       __acrt_report_runtime_error 00000001800229b0 f   libucrtd:report_runtime_error.obj
 0001:00021c30       _query_app_type            0000000180022c30 f   libucrtd:report_runtime_error.obj
 0001:00021c40       ??$make_c_string_character_source@_WPEAPEA_W@__crt_strtox@@YA?AV?$c_string_character_source@_W@0@QEB_WQEAPEA_W@Z 0000000180022c40 f i libucrtd:strtox.obj
 0001:00021c40       ??$make_c_string_character_source@DPEAPEAD@__crt_strtox@@YA?AV?$c_string_character_source@D@0@QEBDQEAPEAD@Z 0000000180022c40 f i libucrtd:strtox.obj
 0001:00021c80       ??$parse_integer_from_string@JDPEAPEAD@__crt_strtox@@YAJQEBDQEAPEADHQEAU__crt_locale_pointers@@@Z 0000000180022c80 f i libucrtd:strtox.obj
 0001:00021cd0       ??$parse_integer_from_string@J_WPEAPEA_W@__crt_strtox@@YAJQEB_WQEAPEA_WHQEAU__crt_locale_pointers@@@Z 0000000180022cd0 f i libucrtd:strtox.obj
 0001:00021d20       strtol                     0000000180022d20 f   libucrtd:strtox.obj
 0001:00021d50       wcstol                     0000000180022d50 f   libucrtd:strtox.obj
 0001:00021d80       _mbtowc_l                  0000000180022d80 f   libucrtd:mbtowc.obj
 0001:000221e0       mbtowc                     00000001800231e0 f   libucrtd:mbtowc.obj
 0001:00022210       _wctomb_s_l                0000000180023210 f   libucrtd:wctomb.obj
 0001:00022790       wctomb_s                   0000000180023790 f   libucrtd:wctomb.obj
 0001:00023b40       ??1?$__crt_simd_cleanup_guard@$00@@QEAA@XZ 0000000180024b40 f i libucrtd:strnlen.obj
 0001:00023b50       ?compare_equals@?$__crt_simd_traits@$00E@@SA?AT__m256i@@T2@0@Z 0000000180024b50 f i libucrtd:strnlen.obj
 0001:00023b90       ?compare_equals@?$__crt_simd_traits@$00G@@SA?AT__m256i@@T2@0@Z 0000000180024b90 f i libucrtd:strnlen.obj
 0001:00023bd0       ?compare_equals@?$__crt_simd_traits@$0A@E@@SA?AT__m128i@@T2@0@Z 0000000180024bd0 f i libucrtd:strnlen.obj
 0001:00023c00       ?compare_equals@?$__crt_simd_traits@$0A@G@@SA?AT__m128i@@T2@0@Z 0000000180024c00 f i libucrtd:strnlen.obj
 0001:00023c30       ?compute_byte_mask@?$__crt_simd_pack_traits@$00@@SAHT__m256i@@@Z 0000000180024c30 f i libucrtd:strnlen.obj
 0001:00023c50       ?compute_byte_mask@?$__crt_simd_pack_traits@$0A@@@SAHT__m128i@@@Z 0000000180024c50 f i libucrtd:strnlen.obj
 0001:00023c70       ?get_zero_pack@?$__crt_simd_pack_traits@$00@@SA?AT__m256i@@XZ 0000000180024c70 f i libucrtd:strnlen.obj
 0001:00023ca0       ?get_zero_pack@?$__crt_simd_pack_traits@$0A@@@SA?AT__m128i@@XZ 0000000180024ca0 f i libucrtd:strnlen.obj
 0001:00023cc0       strnlen                    0000000180024cc0 f   libucrtd:strnlen.obj
 0001:00023cf0       wcslen                     0000000180024cf0 f   libucrtd:strnlen.obj
 0001:00023d10       wcsnlen                    0000000180024d10 f   libucrtd:strnlen.obj
 0001:00023d40       ?__acrt_fp_classify@@YA?AW4__acrt_fp_class@@AEBN@Z 0000000180024d40 f i libucrtd:cvt.obj
 0001:00023e40       ?__acrt_fp_is_negative@@YA_NAEBN@Z 0000000180024e40 f i libucrtd:cvt.obj
 0001:000254f0       ?strrchr@@YAPEADQEADH@Z    00000001800264f0 f i libucrtd:cvt.obj
 0001:00025510       __acrt_fp_format           0000000180026510 f   libucrtd:cvt.obj
 0001:00025ae0       ?lowio_handle@__crt_stdio_stream@@QEBAHXZ 0000000180026ae0 f i libucrtd:fileno.obj
 0001:00025b10       _fileno                    0000000180026b10 f   libucrtd:fileno.obj
 0001:00025bf0       __acrt_initialize_stdio    0000000180026bf0 f   libucrtd:_file.obj
 0001:00025de0       __acrt_uninitialize_stdio  0000000180026de0 f   libucrtd:_file.obj
 0001:00025e70       _lock_file                 0000000180026e70 f   libucrtd:_file.obj
 0001:00025eb0       _unlock_file               0000000180026eb0 f   libucrtd:_file.obj
 0001:00025ef0       _get_printf_count_output   0000000180026ef0 f   libucrtd:printf_count_output.obj
 0001:00025f20       iswctype                   0000000180026f20 f   libucrtd:iswctype.obj
 0001:00025fb0       _VCrtDbgReportA            0000000180026fb0 f   libucrtd:dbgrptt.obj
 0001:00026990       _VCrtDbgReportW            0000000180027990 f   libucrtd:dbgrptt.obj
 0001:00027510       _snprintf_s                0000000180028510 f i libucrtd:dbgrptt.obj
 0001:00027580       _vsnprintf_s               0000000180028580 f i libucrtd:dbgrptt.obj
 0001:000275d0       _vsnprintf_s_l             00000001800285d0 f i libucrtd:dbgrptt.obj
 0001:00027790       ??$message_box@$$TAEBQEB_WAEBQEB_WK@?$__crt_char_traits@_W@@SAH$$QEA$$TAEBQEB_W1$$QEAK@Z 0000000180028790 f i libucrtd:crtmbox.obj
 0001:00027790       ??$message_box@PEAUHWND__@@AEBQEB_WAEBQEB_WAEBI@?$__crt_char_traits@_W@@SAH$$QEAPEAUHWND__@@AEBQEB_W1AEBI@Z 0000000180028790 f i libucrtd:crtmbox.obj
 0001:000277e0       ??$output_debug_string@AEBQEB_W@?$__crt_char_traits@_W@@SAXAEBQEB_W@Z 00000001800287e0 f i libucrtd:crtmbox.obj
 0001:00027800       __acrt_show_wide_message_box 0000000180028800 f   libucrtd:crtmbox.obj
 0001:00027830       _raise_exc                 0000000180028830 f   libucrtd:fpexcept.obj
 0001:00027890       _raise_exc_ex              0000000180028890 f   libucrtd:fpexcept.obj
 0001:00027f10       _set_errno_from_matherr    0000000180028f10 f   libucrtd:fpexcept.obj
 0001:00027f60       _clrfp                     0000000180028f60 f   libucrtd:fpctrl.obj
 0001:00027f90       _ctrlfp                    0000000180028f90 f   libucrtd:fpctrl.obj
 0001:00028040       _set_statfp                0000000180029040 f   libucrtd:fpctrl.obj
 0001:00028080       _statfp                    0000000180029080 f   libucrtd:fpctrl.obj
 0001:000280b0       __acrt_add_locale_ref      00000001800290b0 f   libucrtd:locale_refcounting.obj
 0001:00028210       __acrt_free_locale         0000000180029210 f   libucrtd:locale_refcounting.obj
 0001:00028590       __acrt_locale_add_lc_time_reference 0000000180029590 f   libucrtd:locale_refcounting.obj
 0001:000285d0       __acrt_locale_free_lc_time_if_unreferenced 00000001800295d0 f   libucrtd:locale_refcounting.obj
 0001:00028630       __acrt_locale_release_lc_time_reference 0000000180029630 f   libucrtd:locale_refcounting.obj
 0001:00028670       __acrt_release_locale_ref  0000000180029670 f   libucrtd:locale_refcounting.obj
 0001:000287e0       __acrt_update_thread_locale_data 00000001800297e0 f   libucrtd:locale_refcounting.obj
 0001:00028890       _updatetlocinfoEx_nolock   0000000180029890 f   libucrtd:locale_refcounting.obj
 0001:00028aa0       qsort                      0000000180029aa0 f   libucrtd:qsort.obj
 0001:00029850       wcsncpy_s                  000000018002a850 f   libucrtd:wcsncpy_s.obj
 0001:00029f10       strncpy_s                  000000018002af10 f   libucrtd:strncpy_s.obj
 0001:0002a080       strpbrk                    000000018002b080 f   libucrtd:strpbrk.obj
 0001:0002a970       _mbsdec                    000000018002b970 f   libucrtd:mbsdec.obj
 0001:0002a978       _mbsdec_l                  000000018002b978 f   libucrtd:mbsdec.obj
 0001:0002aa70       ??1?$__crt_scoped_stack_ptr@_W@@QEAA@XZ 000000018002ba70 f i libucrtd:getstringtypea.obj
 0001:0002aa90       _MallocaComputeSize        000000018002ba90 f i libucrtd:getstringtypea.obj
 0001:0002aad0       _MarkAllocaS               000000018002bad0 f i libucrtd:getstringtypea.obj
 0001:0002ab00       __acrt_GetStringTypeA      000000018002bb00 f   libucrtd:getstringtypea.obj
 0001:0002ad60       _freea_crt                 000000018002bd60 f i libucrtd:getstringtypea.obj
 0001:0002b3f0       __acrt_LCMapStringA        000000018002c3f0 f   libucrtd:lcmapstringa.obj
 0001:0002b580       __acrt_DownlevelLocaleNameToLCID 000000018002c580 f   libucrtd:lcidtoname_downlevel.obj
 0001:0002b5e0       __acrt_lowio_create_handle_array 000000018002c5e0 f   libucrtd:osfinfo.obj
 0001:0002b7a0       __acrt_lowio_destroy_handle_array 000000018002c7a0 f   libucrtd:osfinfo.obj
 0001:0002b820       __acrt_lowio_ensure_fh_exists 000000018002c820 f   libucrtd:osfinfo.obj
 0001:0002b980       __acrt_lowio_lock_fh       000000018002c980 f   libucrtd:osfinfo.obj
 0001:0002b9c0       __acrt_lowio_unlock_fh     000000018002c9c0 f   libucrtd:osfinfo.obj
 0001:0002ba00       _free_osfhnd               000000018002ca00 f   libucrtd:osfinfo.obj
 0001:0002bb30       _get_osfhandle             000000018002cb30 f   libucrtd:osfinfo.obj
 0001:0002bd30       __pctype_func              000000018002cd30 f   libucrtd:ctype.obj
 0001:0002bd70       _isatty                    000000018002cd70 f   libucrtd:isatty.obj
 0001:0002c1f0       ?__acrt_stdio_reset_buffer@@YAXV__crt_stdio_stream@@@Z 000000018002d1f0 f i libucrtd:fflush.obj
 0001:0002c320       ?has_all_of@__crt_stdio_stream@@QEBA_NJ@Z 000000018002d320 f i libucrtd:fflush.obj
 0001:0002c400       __acrt_stdio_flush_nolock  000000018002d400 f   libucrtd:fflush.obj
 0001:0002c510       _fflush_nolock             000000018002d510 f   libucrtd:fflush.obj
 0001:0002c5a0       _flushall                  000000018002d5a0 f   libucrtd:fflush.obj
 0001:0002c5b0       _malloc_base               000000018002d5b0 f   libucrtd:malloc_base.obj
 0001:0002c650       __acrt_locale_free_monetary 000000018002d650 f   libucrtd:initmon.obj
 0001:0002c860       __acrt_locale_free_numeric 000000018002d860 f   libucrtd:initnum.obj
 0001:0002ca00       __acrt_locale_free_time    000000018002da00 f   libucrtd:inittime.obj
 0001:0002d1f0       wcscat_s                   000000018002e1f0 f   libucrtd:wcscat_s.obj
 0001:0002d220       _set_error_mode            000000018002e220 f   libucrtd:set_error_mode.obj
 0001:0002d320       _isleadbyte_l              000000018002e320 f i libucrtd:_wctype.obj
 0001:0002d3f0       ?__mbrtowc_utf8@__crt_mbstring@@YA_KPEA_WPEBD_KPEAU_Mbstatet@@@Z 000000018002e3f0 f   libucrtd:mbrtowc.obj
 0001:0002d460       ?__mbsrtowcs_utf8@__crt_mbstring@@YA_KPEA_WPEAPEBD_KPEAU_Mbstatet@@@Z 000000018002e460 f   libucrtd:mbrtowc.obj
 0001:0002d760       ?__c32rtomb_utf8@__crt_mbstring@@YA_KPEAD_UPEAU_Mbstatet@@@Z 000000018002e760 f   libucrtd:c32rtomb.obj
 0001:0002d9e0       ?reset_and_return@__crt_mbstring@@YA_K_KPEAU_Mbstatet@@@Z 000000018002e9e0 f i libucrtd:c32rtomb.obj
 0001:0002da20       ?return_illegal_sequence@__crt_mbstring@@YA_KPEAU_Mbstatet@@@Z 000000018002ea20 f i libucrtd:c32rtomb.obj
 0001:0002da60       c32rtomb                   000000018002ea60 f   libucrtd:c32rtomb.obj
 0001:0002da90       __acrt_fp_strflt_to_string 000000018002ea90 f   libucrtd:_fptostr.obj
 0001:0002e520       ??0big_integer@__crt_strtox@@QEAA@AEBU01@@Z 000000018002f520 f i libucrtd:cfout.obj
 0001:0002e520       ??4big_integer@__crt_strtox@@QEAAAEAU01@AEBU01@@Z 000000018002f520 f i libucrtd:cfout.obj
 0001:0002e580       ??0big_integer@__crt_strtox@@QEAA@XZ 000000018002f580 f i libucrtd:cfout.obj
 0001:0002e640       ??8__crt_strtox@@YA_NAEBUbig_integer@0@0@Z 000000018002f640 f i libucrtd:cfout.obj
 0001:0002e6b0       ??9__crt_strtox@@YA_NAEBUbig_integer@0@0@Z 000000018002f6b0 f i libucrtd:cfout.obj
 0001:0002e6f0       ?add_carry@__crt_strtox@@YAIAEAIII@Z 000000018002f6f0 f i libucrtd:cfout.obj
 0001:0002e740       ?add_multiply_carry@__crt_strtox@@YAIAEAIIII@Z 000000018002f740 f i libucrtd:cfout.obj
 0001:0002e7a0       ?bit_scan_reverse@__crt_strtox@@YAII@Z 000000018002f7a0 f i libucrtd:cfout.obj
 0001:0002e7e0       ?count_sequential_high_zeroes@__crt_strtox@@YAII@Z 000000018002f7e0 f i libucrtd:cfout.obj
 0001:0002e820       ?divide@__crt_strtox@@YA_KAEAUbig_integer@1@AEBU21@@Z 000000018002f820 f i libucrtd:cfout.obj
 0001:0002f1f0       ?is_zero@__crt_strtox@@YA_NAEBUbig_integer@1@@Z 00000001800301f0 f i libucrtd:cfout.obj
 0001:0002f220       ?make_big_integer@__crt_strtox@@YA?AUbig_integer@1@_K@Z 0000000180030220 f i libucrtd:cfout.obj
 0001:0002f2f0       ?make_big_integer_power_of_two@__crt_strtox@@YA?AUbig_integer@1@I@Z 00000001800302f0 f i libucrtd:cfout.obj
 0001:0002f3c0       ?multiply@__crt_strtox@@YA_NAEAUbig_integer@1@AEBU21@@Z 00000001800303c0 f i libucrtd:cfout.obj
 0001:0002f740       ?multiply@__crt_strtox@@YA_NAEAUbig_integer@1@I@Z 0000000180030740 f i libucrtd:cfout.obj
 0001:0002f860       ?multiply_64_32@__crt_strtox@@YA_K_KI@Z 0000000180030860 f i libucrtd:cfout.obj
 0001:0002f880       ?multiply_by_power_of_ten@__crt_strtox@@YA_NAEAUbig_integer@1@I@Z 0000000180030880 f i libucrtd:cfout.obj
 0001:0002fa30       ?multiply_core@__crt_strtox@@YAIQEAIII@Z 0000000180030a30 f i libucrtd:cfout.obj
 0001:0002fab0       ?shift_left@__crt_strtox@@YA_NAEAUbig_integer@1@I@Z 0000000180030ab0 f i libucrtd:cfout.obj
 0001:0002fde0       __acrt_fltout              0000000180030de0 f   libucrtd:cfout.obj
 0001:00030120       ?is_in_use@__crt_stdio_stream@@QEBA_NXZ 0000000180031120 f i libucrtd:closeall.obj
 0001:00030160       _fcloseall                 0000000180031160 f   libucrtd:closeall.obj
 0001:00030270       ?has_crt_buffer@__crt_stdio_stream@@QEBA_NXZ 0000000180031270 f i libucrtd:_freebuf.obj
 0001:00030290       __acrt_stdio_free_buffer_nolock 0000000180031290 f   libucrtd:_freebuf.obj
 0001:00030370       __acrt_GetStringTypeW      0000000180031370 f   libucrtd:getstringtypew.obj
 0001:00030fa0       _itoa_s                    0000000180031fa0 f   libucrtd:xtoa.obj
 0001:00031000       _itow_s                    0000000180032000 f   libucrtd:xtoa.obj
 0001:00031640       _mbstowcs_s_l              0000000180032640 f   libucrtd:mbstowcs.obj
 0001:00031c10       mbstowcs_s                 0000000180032c10 f   libucrtd:mbstowcs.obj
 0001:000325a0       _wcstombs_s_l              00000001800335a0 f   libucrtd:wcstombs.obj
 0001:00032ae0       wcstombs_s                 0000000180033ae0 f   libucrtd:wcstombs.obj
 0001:000331a0       strcat_s                   00000001800341a0 f   libucrtd:strcat_s.obj
 0001:000331d0       __acrt_OutputDebugStringA  00000001800341d0 f   libucrtd:outputdebugstringa.obj
 0001:000332a0       _get_fpsr                  00000001800342a0 f   libucrtd:fpsr.obj
 0001:000332b0       _set_fpsr                  00000001800342b0 f   libucrtd:fpsr.obj
 0001:000332ba       _fclrf                     00000001800342ba f   libucrtd:fpsr.obj
 0001:000332ce       _frnd                      00000001800342ce f   libucrtd:fpsr.obj
 0001:000332f0       __strncnt                  00000001800342f0 f   libucrtd:strncnt.obj
 0001:00033350       __ascii_wcsnicmp           0000000180034350 f   libucrtd:wcsnicmp.obj
 0001:000335d0       _commit                    00000001800345d0 f   libucrtd:commit.obj
 0001:000351b0       _utf8_no_of_trailbytes     00000001800361b0 f i libucrtd:write.obj
 0001:000351d0       _write                     00000001800361d0 f   libucrtd:write.obj
 0001:00035470       _write_nolock              0000000180036470 f   libucrtd:write.obj
 0001:00035a40       ?__mbrtoc32_utf8@__crt_mbstring@@YA_KPEA_UPEBD_KPEAU_Mbstatet@@@Z 0000000180036a40 f   libucrtd:mbrtoc32.obj
 0001:00035e00       log10                      0000000180036e00 f   libucrtd:log10.obj
 0001:000363b0       ceil                       00000001800373b0 f   libucrtd:ceil.obj
 0001:00036580       fegetenv                   0000000180037580 f   libucrtd:fegetenv.obj
 0001:000365b0       fesetenv                   00000001800375b0 f   libucrtd:fesetenv.obj
 0001:00036630       feholdexcept               0000000180037630 f   libucrtd:feholdexcept.obj
 0001:00036810       _lseeki64_nolock           0000000180037810 f   libucrtd:lseek.obj
 0001:00036840       _fclose_nolock             0000000180037840 f   libucrtd:fclose.obj
 0001:000369d0       fclose                     00000001800379d0 f   libucrtd:fclose.obj
 0001:00036b10       ?__wcsrtombs_utf8@__crt_mbstring@@YA_KPEADPEAPEB_W_KPEAU_Mbstatet@@@Z 0000000180037b10 f   libucrtd:wcrtomb.obj
 0001:00036d78       _putwch_nolock             0000000180037d78 f   libucrtd:putwch.obj
 0001:00036dc0       __acrt_initialize_fma3     0000000180037dc0 f   libucrtd:fma3_available.obj
 0001:00036e70       _log10_special             0000000180037e70 f   libucrtd:log_special.obj
 0001:00036fe0       ??$__acrt_fenv_shift_bits@W4__acrt_fenv_abstract_control@@@@YA?AW4__acrt_fenv_abstract_control@@W40@0I@Z 0000000180037fe0 f i libucrtd:_fenvutils.obj
 0001:00036fe0       ??$__acrt_fenv_shift_bits@W4__acrt_fenv_abstract_status@@@@YA?AW4__acrt_fenv_abstract_status@@W40@0I@Z 0000000180037fe0 f i libucrtd:_fenvutils.obj
 0001:00037010       ??$__acrt_fenv_translate_bit@W4__acrt_fenv_abstract_control@@W4__acrt_fenv_machine_sse_control@@@@YA?AW4__acrt_fenv_abstract_control@@W4__acrt_fenv_machine_sse_control@@0W40@1@Z 0000000180038010 f i libucrtd:_fenvutils.obj
 0001:00037070       ??$__acrt_fenv_translate_bit@W4__acrt_fenv_machine_sse_status@@W4__acrt_fenv_abstract_status@@@@YA?AW4__acrt_fenv_machine_sse_status@@W4__acrt_fenv_abstract_status@@0W40@1@Z 0000000180038070 f i libucrtd:_fenvutils.obj
 0001:00037070       ??$__acrt_fenv_translate_bit@W4__acrt_fenv_abstract_status@@W4__acrt_fenv_machine_sse_status@@@@YA?AW4__acrt_fenv_abstract_status@@W4__acrt_fenv_machine_sse_status@@0W40@1@Z 0000000180038070 f i libucrtd:_fenvutils.obj
 0001:000370c0       ??$__acrt_fenv_translate_bit@W4__acrt_fenv_machine_sse_control@@W4__acrt_fenv_abstract_control@@@@YA?AW4__acrt_fenv_machine_sse_control@@W4__acrt_fenv_abstract_control@@0W40@1@Z 00000001800380c0 f i libucrtd:_fenvutils.obj
 0001:00037120       ??$__acrt_fenv_unshift_bits@W4__acrt_fenv_abstract_control@@@@YA?AW4__acrt_fenv_abstract_control@@W40@0I@Z 0000000180038120 f i libucrtd:_fenvutils.obj
 0001:00037120       ??$__acrt_fenv_unshift_bits@W4__acrt_fenv_abstract_status@@@@YA?AW4__acrt_fenv_abstract_status@@W40@0I@Z 0000000180038120 f i libucrtd:_fenvutils.obj
 0001:00037610       ??I@YA?AW4__acrt_fenv_machine_sse_status@@W40@0@Z 0000000180038610 f i libucrtd:_fenvutils.obj
 0001:00037610       ??I@YA?AW4__acrt_fenv_abstract_status@@W40@0@Z 0000000180038610 f i libucrtd:_fenvutils.obj
 0001:00037610       ??I@YA?AW4__acrt_fenv_abstract_control@@W40@0@Z 0000000180038610 f i libucrtd:_fenvutils.obj
 0001:00037630       ??I@YA?AW4__acrt_fenv_machine_sse_control@@W40@0@Z 0000000180038630 f i libucrtd:_fenvutils.obj
 0001:00037650       ??U@YA?AW4__acrt_fenv_abstract_control@@W40@0@Z 0000000180038650 f i libucrtd:_fenvutils.obj
 0001:00037650       ??U@YA?AW4__acrt_fenv_abstract_status@@W40@0@Z 0000000180038650 f i libucrtd:_fenvutils.obj
 0001:00037670       ??U@YA?AW4__acrt_fenv_machine_sse_control@@W40@0@Z 0000000180038670 f i libucrtd:_fenvutils.obj
 0001:00037690       ??_5@YAAEAW4__acrt_fenv_abstract_control@@AEAW40@W40@@Z 0000000180038690 f i libucrtd:_fenvutils.obj
 0001:00037690       ??_5@YAAEAW4__acrt_fenv_machine_sse_status@@AEAW40@W40@@Z 0000000180038690 f i libucrtd:_fenvutils.obj
 0001:00037690       ??_5@YAAEAW4__acrt_fenv_abstract_status@@AEAW40@W40@@Z 0000000180038690 f i libucrtd:_fenvutils.obj
 0001:000376c0       ??_5@YAAEAW4__acrt_fenv_machine_sse_control@@AEAW40@W40@@Z 00000001800386c0 f i libucrtd:_fenvutils.obj
 0001:000376f0       ?__acrt_fenv_shift_abstract_sse_control@@YA?AW4__acrt_fenv_abstract_control@@W41@@Z 00000001800386f0 f i libucrtd:_fenvutils.obj
 0001:00037740       ?__acrt_fenv_shift_abstract_sse_status@@YA?AW4__acrt_fenv_abstract_status@@W41@@Z 0000000180038740 f i libucrtd:_fenvutils.obj
 0001:00037770       ?__acrt_fenv_unshift_abstract_sse_control@@YA?AW4__acrt_fenv_abstract_control@@W41@@Z 0000000180038770 f i libucrtd:_fenvutils.obj
 0001:000377c0       ?__acrt_fenv_unshift_abstract_sse_status@@YA?AW4__acrt_fenv_abstract_status@@W41@@Z 00000001800387c0 f i libucrtd:_fenvutils.obj
 0001:00037a90       __acrt_fenv_get_control    0000000180038a90 f   libucrtd:_fenvutils.obj
 0001:00037ac0       __acrt_fenv_get_status     0000000180038ac0 f   libucrtd:_fenvutils.obj
 0001:00037af0       __acrt_fenv_set_control    0000000180038af0 f   libucrtd:_fenvutils.obj
 0001:00037b10       __acrt_fenv_set_status     0000000180038b10 f   libucrtd:_fenvutils.obj
 0001:00037bd0       _clearfp                   0000000180038bd0 f   libucrtd:ieee.obj
 0001:00037e20       _close                     0000000180038e20 f   libucrtd:close.obj
 0001:00038010       _close_nolock              0000000180039010 f   libucrtd:close.obj
 0001:00038080       ?__acrt_stdio_free_stream@@YAXV__crt_stdio_stream@@@Z 0000000180039080 f   libucrtd:stream.obj
 0001:00038120       ?deallocate@__crt_stdio_stream@@QEAAXXZ 0000000180039120 f i libucrtd:stream.obj
 0001:00038140       ?__c16rtomb_utf8@__crt_mbstring@@YA_KPEAD_SPEAU_Mbstatet@@@Z 0000000180039140 f   libucrtd:c16rtomb.obj
 0001:00038354       __dcrt_lowio_ensure_console_output_initialized 0000000180039354 f   libucrtd:initcon.obj
 0001:000383a8       __dcrt_terminate_console_output 00000001800393a8 f   libucrtd:initcon.obj
 0001:000383c4       __dcrt_write_console       00000001800393c4 f   libucrtd:initcon.obj
 0001:00038490       _FindPESection             0000000180039490 f   LIBCMTD:pesect.obj
 0001:00038540       _IsNonwritableInCurrentImage 0000000180039540 f   LIBCMTD:pesect.obj
 0001:000385d0       _ValidateImageBase         00000001800395d0 f   LIBCMTD:pesect.obj
 0001:00038650       ??1type_info@@UEAA@XZ      0000000180039650 f   LIBCMTD:std_type_info_static.obj
 0001:00038670       ??_Gtype_info@@UEAAPEAXI@Z 0000000180039670 f i LIBCMTD:std_type_info_static.obj
 0001:00038670       ??_Etype_info@@UEAAPEAXI@Z 0000000180039670 f i LIBCMTD:std_type_info_static.obj
 0001:000386b0       ??3@YAXPEAX_K@Z            00000001800396b0 f   LIBCMTD:delete_scalar_size.obj
 0001:000386d0       __GSHandlerCheck_SEH       00000001800396d0 f   LIBCMTD:gshandlerseh.obj
 0001:000387a0       __chkstk                   00000001800397a0 f   LIBCMTD:chkstk.obj
 0001:000387a0       _alloca_probe              00000001800397a0 f   LIBCMTD:chkstk.obj
 0001:00038800       __GSHandlerCheck_EH        0000000180039800 f   LIBCMTD:gshandlereh.obj
 0001:000388b0       ??3@YAXPEAX@Z              00000001800398b0 f   LIBCMTD:delete_scalar.obj
 0001:000388e0       memcmp                     00000001800398e0 f   libvcruntimed:memcmp.obj
 0001:000389b0       strrchr                    00000001800399b0 f   libvcruntimed:strrchr.obj
 0001:00038de0       _guard_dispatch_icall_nop  0000000180039de0 f   LIBCMTD:guard_dispatch.obj
 0002:00000000       __imp_RtlCaptureContext    000000018003b000     kernel32:KERNEL32.dll
 0002:00000008       __imp_RtlLookupFunctionEntry 000000018003b008     kernel32:KERNEL32.dll
 0002:00000010       __imp_RtlVirtualUnwind     000000018003b010     kernel32:KERNEL32.dll
 0002:00000018       __imp_UnhandledExceptionFilter 000000018003b018     kernel32:KERNEL32.dll
 0002:00000020       __imp_SetUnhandledExceptionFilter 000000018003b020     kernel32:KERNEL32.dll
 0002:00000028       __imp_GetCurrentProcess    000000018003b028     kernel32:KERNEL32.dll
 0002:00000030       __imp_TerminateProcess     000000018003b030     kernel32:KERNEL32.dll
 0002:00000038       __imp_IsProcessorFeaturePresent 000000018003b038     kernel32:KERNEL32.dll
 0002:00000040       __imp_QueryPerformanceCounter 000000018003b040     kernel32:KERNEL32.dll
 0002:00000048       __imp_GetCurrentProcessId  000000018003b048     kernel32:KERNEL32.dll
 0002:00000050       __imp_GetCurrentThreadId   000000018003b050     kernel32:KERNEL32.dll
 0002:00000058       __imp_GetSystemTimeAsFileTime 000000018003b058     kernel32:KERNEL32.dll
 0002:00000060       __imp_InitializeSListHead  000000018003b060     kernel32:KERNEL32.dll
 0002:00000068       __imp_IsDebuggerPresent    000000018003b068     kernel32:KERNEL32.dll
 0002:00000070       __imp_GetStartupInfoW      000000018003b070     kernel32:KERNEL32.dll
 0002:00000078       __imp_GetModuleHandleW     000000018003b078     kernel32:KERNEL32.dll
 0002:00000080       __imp_CreateFileW          000000018003b080     kernel32:KERNEL32.dll
 0002:00000088       __imp_RtlUnwindEx          000000018003b088     kernel32:KERNEL32.dll
 0002:00000090       __imp_InterlockedFlushSList 000000018003b090     kernel32:KERNEL32.dll
 0002:00000098       __imp_GetLastError         000000018003b098     kernel32:KERNEL32.dll
 0002:000000a0       __imp_SetLastError         000000018003b0a0     kernel32:KERNEL32.dll
 0002:000000a8       __imp_EnterCriticalSection 000000018003b0a8     kernel32:KERNEL32.dll
 0002:000000b0       __imp_LeaveCriticalSection 000000018003b0b0     kernel32:KERNEL32.dll
 0002:000000b8       __imp_DeleteCriticalSection 000000018003b0b8     kernel32:KERNEL32.dll
 0002:000000c0       __imp_InitializeCriticalSectionAndSpinCount 000000018003b0c0     kernel32:KERNEL32.dll
 0002:000000c8       __imp_TlsAlloc             000000018003b0c8     kernel32:KERNEL32.dll
 0002:000000d0       __imp_TlsGetValue          000000018003b0d0     kernel32:KERNEL32.dll
 0002:000000d8       __imp_TlsSetValue          000000018003b0d8     kernel32:KERNEL32.dll
 0002:000000e0       __imp_TlsFree              000000018003b0e0     kernel32:KERNEL32.dll
 0002:000000e8       __imp_FreeLibrary          000000018003b0e8     kernel32:KERNEL32.dll
 0002:000000f0       __imp_GetProcAddress       000000018003b0f0     kernel32:KERNEL32.dll
 0002:000000f8       __imp_LoadLibraryExW       000000018003b0f8     kernel32:KERNEL32.dll
 0002:00000100       __imp_EncodePointer        000000018003b100     kernel32:KERNEL32.dll
 0002:00000108       __imp_RaiseException       000000018003b108     kernel32:KERNEL32.dll
 0002:00000110       __imp_RtlPcToFileHeader    000000018003b110     kernel32:KERNEL32.dll
 0002:00000118       __imp_ExitProcess          000000018003b118     kernel32:KERNEL32.dll
 0002:00000120       __imp_GetModuleHandleExW   000000018003b120     kernel32:KERNEL32.dll
 0002:00000128       __imp_GetModuleFileNameW   000000018003b128     kernel32:KERNEL32.dll
 0002:00000130       __imp_HeapAlloc            000000018003b130     kernel32:KERNEL32.dll
 0002:00000138       __imp_HeapSize             000000018003b138     kernel32:KERNEL32.dll
 0002:00000140       __imp_HeapValidate         000000018003b140     kernel32:KERNEL32.dll
 0002:00000148       __imp_GetSystemInfo        000000018003b148     kernel32:KERNEL32.dll
 0002:00000150       __imp_FindClose            000000018003b150     kernel32:KERNEL32.dll
 0002:00000158       __imp_FindFirstFileExW     000000018003b158     kernel32:KERNEL32.dll
 0002:00000160       __imp_FindNextFileW        000000018003b160     kernel32:KERNEL32.dll
 0002:00000168       __imp_IsValidCodePage      000000018003b168     kernel32:KERNEL32.dll
 0002:00000170       __imp_GetACP               000000018003b170     kernel32:KERNEL32.dll
 0002:00000178       __imp_GetOEMCP             000000018003b178     kernel32:KERNEL32.dll
 0002:00000180       __imp_GetCPInfo            000000018003b180     kernel32:KERNEL32.dll
 0002:00000188       __imp_GetCommandLineA      000000018003b188     kernel32:KERNEL32.dll
 0002:00000190       __imp_GetCommandLineW      000000018003b190     kernel32:KERNEL32.dll
 0002:00000198       __imp_MultiByteToWideChar  000000018003b198     kernel32:KERNEL32.dll
 0002:000001a0       __imp_WideCharToMultiByte  000000018003b1a0     kernel32:KERNEL32.dll
 0002:000001a8       __imp_GetEnvironmentStringsW 000000018003b1a8     kernel32:KERNEL32.dll
 0002:000001b0       __imp_FreeEnvironmentStringsW 000000018003b1b0     kernel32:KERNEL32.dll
 0002:000001b8       __imp_LCMapStringW         000000018003b1b8     kernel32:KERNEL32.dll
 0002:000001c0       __imp_GetProcessHeap       000000018003b1c0     kernel32:KERNEL32.dll
 0002:000001c8       __imp_GetStdHandle         000000018003b1c8     kernel32:KERNEL32.dll
 0002:000001d0       __imp_GetFileType          000000018003b1d0     kernel32:KERNEL32.dll
 0002:000001d8       __imp_HeapFree             000000018003b1d8     kernel32:KERNEL32.dll
 0002:000001e0       __imp_HeapReAlloc          000000018003b1e0     kernel32:KERNEL32.dll
 0002:000001e8       __imp_HeapQueryInformation 000000018003b1e8     kernel32:KERNEL32.dll
 0002:000001f0       __imp_WriteFile            000000018003b1f0     kernel32:KERNEL32.dll
 0002:000001f8       __imp_OutputDebugStringW   000000018003b1f8     kernel32:KERNEL32.dll
 0002:00000200       __imp_WriteConsoleW        000000018003b200     kernel32:KERNEL32.dll
 0002:00000208       __imp_GetStringTypeW       000000018003b208     kernel32:KERNEL32.dll
 0002:00000210       __imp_SetStdHandle         000000018003b210     kernel32:KERNEL32.dll
 0002:00000218       __imp_SetFilePointerEx     000000018003b218     kernel32:KERNEL32.dll
 0002:00000220       __imp_FlushFileBuffers     000000018003b220     kernel32:KERNEL32.dll
 0002:00000228       __imp_GetConsoleCP         000000018003b228     kernel32:KERNEL32.dll
 0002:00000230       __imp_GetConsoleMode       000000018003b230     kernel32:KERNEL32.dll
 0002:00000238       __imp_CloseHandle          000000018003b238     kernel32:KERNEL32.dll
 0002:00000240       \177KERNEL32_NULL_THUNK_DATA 000000018003b240     kernel32:KERNEL32.dll
 0002:00000248       __guard_check_icall_fptr   000000018003b248     LIBCMTD:guard_support.obj
 0002:00000250       __guard_xfg_check_icall_fptr 000000018003b250     LIBCMTD:guard_support.obj
 0002:00000258       __guard_dispatch_icall_fptr 000000018003b258     LIBCMTD:guard_support.obj
 0002:00000260       __guard_xfg_dispatch_icall_fptr 000000018003b260     LIBCMTD:guard_support.obj
 0002:00000268       __guard_xfg_table_dispatch_icall_fptr 000000018003b268     LIBCMTD:guard_support.obj
 0002:00000270       __xc_a                     000000018003b270     LIBCMTD:initializers.obj
 0002:00000278       __xc_z                     000000018003b278     LIBCMTD:initializers.obj
 0002:00000280       __xi_a                     000000018003b280     LIBCMTD:initializers.obj
 0002:00000288       __acrt_multibyte_initializer 000000018003b288     libucrtd:multibyte_initializer.obj
 0002:00000290       __acrt_stdio_initializer   000000018003b290     libucrtd:stdio_initializer.obj
 0002:00000298       __acrt_tran_fma3_initializer 000000018003b298     libucrtd:fma3_initializer.obj
 0002:000002a0       __xi_z                     000000018003b2a0     LIBCMTD:initializers.obj
 0002:000002a8       __xp_a                     000000018003b2a8     LIBCMTD:initializers.obj
 0002:000002b0       __acrt_locale_terminator   000000018003b2b0     libucrtd:locale_initializer.obj
 0002:000002b8       __dcrt_console_output_terminator 000000018003b2b8     libucrtd:console_output_initializer.obj
 0002:000002c0       __acrt_stdio_terminator    000000018003b2c0     libucrtd:stdio_initializer.obj
 0002:000002c8       __xp_z                     000000018003b2c8     LIBCMTD:initializers.obj
 0002:000002d0       __xt_a                     000000018003b2d0     LIBCMTD:initializers.obj
 0002:000002d8       __xt_z                     000000018003b2d8     LIBCMTD:initializers.obj
 0002:000002e0       __real@3f000000            000000018003b2e0     handmade.obj
 0002:000002e4       __real@3f400000            000000018003b2e4     handmade.obj
 0002:000002e8       __real@3f800000            000000018003b2e8     handmade.obj
 0002:000002ec       __real@3fb33333            000000018003b2ec     handmade.obj
 0002:000002f0       __real@40000000            000000018003b2f0     handmade.obj
 0002:000002f4       __real@41200000            000000018003b2f4     handmade.obj
 0002:000002f8       __real@437f0000            000000018003b2f8     handmade.obj
 0002:000002fc       __real@bf800000            000000018003b2fc     handmade.obj
 0002:00000300       __xmm@80000000800000008000000080000000 000000018003b300     handmade.obj
 0002:00000310       _pDefaultRawDllMain        000000018003b310     LIBCMTD:dll_dllmain.obj
 0002:00000310       _pRawDllMain               000000018003b310     LIBCMTD:dll_dllmain.obj
 0002:00000328       _pDestructExceptionObject  000000018003b328     libvcruntimed:ehhelpers.obj
 0002:00000a30       ??_C@_08EHJDFFNH@__based?$CI@ 000000018003ba30     libvcruntimed:undname.obj
 0002:00000a40       ??_C@_07KOLFKCDI@__cdecl@  000000018003ba40     libvcruntimed:undname.obj
 0002:00000a48       ??_C@_08GHMPAG@__pascal@   000000018003ba48     libvcruntimed:undname.obj
 0002:00000a58       ??_C@_09IFJBGAPI@__stdcall@ 000000018003ba58     libvcruntimed:undname.obj
 0002:00000a68       ??_C@_0L@NPHFGOKO@__thiscall@ 000000018003ba68     libvcruntimed:undname.obj
 0002:00000a78       ??_C@_0L@JMKHOMEK@__fastcall@ 000000018003ba78     libvcruntimed:undname.obj
 0002:00000a88       ??_C@_0N@BCKKPABJ@__vectorcall@ 000000018003ba88     libvcruntimed:undname.obj
 0002:00000a98       ??_C@_09HIJEGCPM@__clrcall@ 000000018003ba98     libvcruntimed:undname.obj
 0002:00000aa4       ??_C@_06GHPCKEAG@__eabi@   000000018003baa4     libvcruntimed:undname.obj
 0002:00000ab0       ??_C@_09IOPIDJLG@__swift_1@ 000000018003bab0     libvcruntimed:undname.obj
 0002:00000ac0       ??_C@_09KFNFGKHF@__swift_2@ 000000018003bac0     libvcruntimed:undname.obj
 0002:00000ad0       ??_C@_07JOMMBBKO@__ptr64@  000000018003bad0     libvcruntimed:undname.obj
 0002:00000ad8       ??_C@_0L@PILCLIHE@__restrict@ 000000018003bad8     libvcruntimed:undname.obj
 0002:00000ae8       ??_C@_0M@GFIIJFMG@__unaligned@ 000000018003bae8     libvcruntimed:undname.obj
 0002:00000af8       ??_C@_09DHDLOLLB@restrict?$CI@ 000000018003baf8     libvcruntimed:undname.obj
 0002:00000b02       ??_C@_00CNPNBAHC@@         000000018003bb02     libvcruntimed:undname.obj
 0002:00000b04       ??_C@_04NIHEBCM@?5new@     000000018003bb04     libvcruntimed:undname.obj
 0002:00000b10       ??_C@_07FPCDHGMM@?5delete@ 000000018003bb10     libvcruntimed:undname.obj
 0002:00000b18       ??_C@_01NEMOKFLO@?$DN@     000000018003bb18     libvcruntimed:undname.obj
 0002:00000b1c       ??_C@_02GPIOPFAK@?$DO?$DO@ 000000018003bb1c     libvcruntimed:undname.obj
 0002:00000b20       ??_C@_02FODMEDOG@?$DM?$DM@ 000000018003bb20     libvcruntimed:undname.obj
 0002:00000b24       ??_C@_01DCLJPIOD@?$CB@     000000018003bb24     libvcruntimed:undname.obj
 0002:00000b28       ??_C@_02EGOFBIJA@?$DN?$DN@ 000000018003bb28     libvcruntimed:undname.obj
 0002:00000b2c       ??_C@_02FDNJECIE@?$CB?$DN@ 000000018003bb2c     libvcruntimed:undname.obj
 0002:00000b30       ??_C@_02GPECMEKF@?$FL?$FN@ 000000018003bb30     libvcruntimed:undname.obj
 0002:00000b38       ??_C@_08LHJFAFGD@operator@ 000000018003bb38     libvcruntimed:undname.obj
 0002:00000b44       ??_C@_02HBOOOICD@?9?$DO@   000000018003bb44     libvcruntimed:undname.obj
 0002:00000b48       ??_C@_01NBENCBCI@?$CK@     000000018003bb48     libvcruntimed:undname.obj
 0002:00000b4c       ??_C@_02ECNGHCIF@?$CL?$CL@ 000000018003bb4c     libvcruntimed:undname.obj
 0002:00000b50       ??_C@_02BAABKJLB@?9?9@     000000018003bb50     libvcruntimed:undname.obj
 0002:00000b54       ??_C@_01JOAMLHOP@?9@       000000018003bb54     libvcruntimed:undname.obj
 0002:00000b58       ??_C@_01MIFGBAGJ@?$CL@     000000018003bb58     libvcruntimed:undname.obj
 0002:00000b5c       ??_C@_01HNPIGOCE@?$CG@     000000018003bb5c     libvcruntimed:undname.obj
 0002:00000b60       ??_C@_03MNHNFDLC@?9?$DO?$CK@ 000000018003bb60     libvcruntimed:undname.obj
 0002:00000b64       ??_C@_01KMDKNFGN@?1@       000000018003bb64     libvcruntimed:undname.obj
 0002:00000b68       ??_C@_01FGNFDNOH@?$CF@     000000018003bb68     libvcruntimed:undname.obj
 0002:00000b6c       ??_C@_01MNNFJEPP@?$DM@     000000018003bb6c     libvcruntimed:undname.obj
 0002:00000b70       ??_C@_02EHCHHCKH@?$DM?$DN@ 000000018003bb70     libvcruntimed:undname.obj
 0002:00000b74       ??_C@_01PPODPGHN@?$DO@     000000018003bb74     libvcruntimed:undname.obj
 0002:00000b78       ??_C@_02EEKDKGMJ@?$DO?$DN@ 000000018003bb78     libvcruntimed:undname.obj
 0002:00000b7c       ??_C@_01IHBHIGKO@?0@       000000018003bb7c     libvcruntimed:undname.obj
 0002:00000b80       ??_C@_02HCKGKOFO@?$CI?$CJ@ 000000018003bb80     libvcruntimed:undname.obj
 0002:00000b84       ??_C@_01PJKLJHI@?$HO@      000000018003bb84     libvcruntimed:undname.obj
 0002:00000b88       ??_C@_01JKBOJNNK@?$FO@     000000018003bb88     libvcruntimed:undname.obj
 0002:00000b8c       ??_C@_01DNKMNLPK@?$HM@     000000018003bb8c     libvcruntimed:undname.obj
 0002:00000b90       ??_C@_02PPKAJPJL@?$CG?$CG@ 000000018003bb90     libvcruntimed:undname.obj
 0002:00000b94       ??_C@_02NONPIBCD@?$HM?$HM@ 000000018003bb94     libvcruntimed:undname.obj
 0002:00000b98       ??_C@_02FPIMKNGF@?$CK?$DN@ 000000018003bb98     libvcruntimed:undname.obj
 0002:00000b9c       ??_C@_02FOEOMHFC@?$CL?$DN@ 000000018003bb9c     libvcruntimed:undname.obj
 0002:00000ba0       ??_C@_02FKMDLLOA@?9?$DN@   000000018003bba0     libvcruntimed:undname.obj
 0002:00000ba4       ??_C@_02FJEHGPIO@?1?$DN@   000000018003bba4     libvcruntimed:undname.obj
 0002:00000ba8       ??_C@_02FENAOKFI@?$CF?$DN@ 000000018003bba8     libvcruntimed:undname.obj
 0002:00000bac       ??_C@_03IKFCCPFF@?$DO?$DO?$DN@ 000000018003bbac     libvcruntimed:undname.obj
 0002:00000bb0       ??_C@_03CDNPDDLA@?$DM?$DM?$DN@ 000000018003bbb0     libvcruntimed:undname.obj
 0002:00000bb4       ??_C@_02FGJGFEAB@?$CG?$DN@ 000000018003bbb4     libvcruntimed:undname.obj
 0002:00000bb8       ??_C@_02DHLNPPGH@?$HM?$DN@ 000000018003bbb8     libvcruntimed:undname.obj
 0002:00000bbc       ??_C@_02MHEGNOJ@?$FO?$DN@  000000018003bbbc     libvcruntimed:undname.obj
 0002:00000bc0       ??_C@_09IFPLHPGF@?$GAvftable?8@ 000000018003bbc0     libvcruntimed:undname.obj
 0002:00000bd0       ??_C@_09BLBHBJP@?$GAvbtable?8@ 000000018003bbd0     libvcruntimed:undname.obj
 0002:00000be0       ??_C@_07FEEIOKP@?$GAvcall?8@ 000000018003bbe0     libvcruntimed:undname.obj
 0002:00000be8       ??_C@_08LLFFHHDJ@?$GAtypeof?8@ 000000018003bbe8     libvcruntimed:undname.obj
 0002:00000bf8       ??_C@_0BF@KDPPACIK@?$GAlocal?5static?5guard?8@ 000000018003bbf8     libvcruntimed:undname.obj
 0002:00000c10       ??_C@_08OBABFOLI@?$GAstring?8@ 000000018003bc10     libvcruntimed:undname.obj
 0002:00000c20       ??_C@_0BD@JDLKDPAB@?$GAvbase?5destructor?8@ 000000018003bc20     libvcruntimed:undname.obj
 0002:00000c38       ??_C@_0BN@DEGPLNFK@?$GAvector?5deleting?5destructor?8@ 000000018003bc38     libvcruntimed:undname.obj
 0002:00000c58       ??_C@_0BO@OBMKPJIG@?$GAdefault?5constructor?5closure?8@ 000000018003bc58     libvcruntimed:undname.obj
 0002:00000c78       ??_C@_0BN@IMDCHIKM@?$GAscalar?5deleting?5destructor?8@ 000000018003bc78     libvcruntimed:undname.obj
 0002:00000c98       ??_C@_0BO@PFGOCPJJ@?$GAvector?5constructor?5iterator?8@ 000000018003bc98     libvcruntimed:undname.obj
 0002:00000cb8       ??_C@_0BN@LFPFMEDL@?$GAvector?5destructor?5iterator?8@ 000000018003bcb8     libvcruntimed:undname.obj
 0002:00000cd8       ??_C@_0CE@IKBNEHA@?$GAvector?5vbase?5constructor?5itera@ 000000018003bcd8     libvcruntimed:undname.obj
 0002:00000d00       ??_C@_0BL@NILFHHPC@?$GAvirtual?5displacement?5map?8@ 000000018003bd00     libvcruntimed:undname.obj
 0002:00000d20       ??_C@_0CB@JONCMFFK@?$GAeh?5vector?5constructor?5iterator@ 000000018003bd20     libvcruntimed:undname.obj
 0002:00000d48       ??_C@_0CA@GCEOPDGL@?$GAeh?5vector?5destructor?5iterator?8@ 000000018003bd48     libvcruntimed:undname.obj
 0002:00000d68       ??_C@_0CH@OOJPLCPH@?$GAeh?5vector?5vbase?5constructor?5it@ 000000018003bd68     libvcruntimed:undname.obj
 0002:00000d90       ??_C@_0BL@LLKPOHJI@?$GAcopy?5constructor?5closure?8@ 000000018003bd90     libvcruntimed:undname.obj
 0002:00000db0       ??_C@_0BA@KBCDOMBN@?$GAudt?5returning?8@ 000000018003bdb0     libvcruntimed:undname.obj
 0002:00000dc0       ??_C@_03KLGMFNMG@?$GAEH@   000000018003bdc0     libvcruntimed:undname.obj
 0002:00000dc4       ??_C@_05KHLCHHI@?$GARTTI@  000000018003bdc4     libvcruntimed:undname.obj
 0002:00000dd0       ??_C@_0BA@KKLDJDLB@?$GAlocal?5vftable?8@ 000000018003bdd0     libvcruntimed:undname.obj
 0002:00000de0       ??_C@_0CE@IIHCMGGL@?$GAlocal?5vftable?5constructor?5clos@ 000000018003bde0     libvcruntimed:undname.obj
 0002:00000e04       ??_C@_06FHBGPFGH@?5new?$FL?$FN@ 000000018003be04     libvcruntimed:undname.obj
 0002:00000e10       ??_C@_09LBNFPBCA@?5delete?$FL?$FN@ 000000018003be10     libvcruntimed:undname.obj
 0002:00000e20       ??_C@_0P@HJKNJFNN@?$GAomni?5callsig?8@ 000000018003be20     libvcruntimed:undname.obj
 0002:00000e30       ??_C@_0BL@CNOONJFP@?$GAplacement?5delete?5closure?8@ 000000018003be30     libvcruntimed:undname.obj
 0002:00000e50       ??_C@_0BN@CKNJLHMB@?$GAplacement?5delete?$FL?$FN?5closure?8@ 000000018003be50     libvcruntimed:undname.obj
 0002:00000e70       ??_C@_0CG@CFDHKGGD@?$GAmanaged?5vector?5constructor?5ite@ 000000018003be70     libvcruntimed:undname.obj
 0002:00000e98       ??_C@_0CF@IMGKMJNO@?$GAmanaged?5vector?5destructor?5iter@ 000000018003be98     libvcruntimed:undname.obj
 0002:00000ec0       ??_C@_0CG@HLDDJMAG@?$GAeh?5vector?5copy?5constructor?5ite@ 000000018003bec0     libvcruntimed:undname.obj
 0002:00000ee8       ??_C@_0CM@FCBBDIGB@?$GAeh?5vector?5vbase?5copy?5construct@ 000000018003bee8     libvcruntimed:undname.obj
 0002:00000f18       ??_C@_0BL@CLIPGLGB@?$GAdynamic?5initializer?5for?5?8@ 000000018003bf18     libvcruntimed:undname.obj
 0002:00000f38       ??_C@_0CB@PDBIFEP@?$GAdynamic?5atexit?5destructor?5for?5@ 000000018003bf38     libvcruntimed:undname.obj
 0002:00000f60       ??_C@_0CD@CGAJBKEJ@?$GAvector?5copy?5constructor?5iterat@ 000000018003bf60     libvcruntimed:undname.obj
 0002:00000f88       ??_C@_0CJ@GJELGAMM@?$GAvector?5vbase?5copy?5constructor?5@ 000000018003bf88     libvcruntimed:undname.obj
 0002:00000fb8       ??_C@_0CL@FGIJHLCE@?$GAmanaged?5vector?5copy?5constructo@ 000000018003bfb8     libvcruntimed:undname.obj
 0002:00000fe8       ??_C@_0BM@PMGGMLDN@?$GAlocal?5static?5thread?5guard?8@ 000000018003bfe8     libvcruntimed:undname.obj
 0002:00001008       ??_C@_0N@BDNMDMOL@operator?5?$CC?$CC?5@ 000000018003c008     libvcruntimed:undname.obj
 0002:00001018       ??_C@_0BC@GGEBGALA@operator?5co_await@ 000000018003c018     libvcruntimed:undname.obj
 0002:00001030       ??_C@_0M@GAAIMMOH@operator?$DM?$DN?$DO@ 000000018003c030     libvcruntimed:undname.obj
 0002:00001040       ??_C@_0BC@DAFEJGAK@?5Type?5Descriptor?8@ 000000018003c040     libvcruntimed:undname.obj
 0002:00001058       ??_C@_0BM@LDKODKLH@?5Base?5Class?5Descriptor?5at?5?$CI@ 000000018003c058     libvcruntimed:undname.obj
 0002:00001078       ??_C@_0BD@LGICGFMM@?5Base?5Class?5Array?8@ 000000018003c078     libvcruntimed:undname.obj
 0002:00001090       ??_C@_0BN@MECKDCOJ@?5Class?5Hierarchy?5Descriptor?8@ 000000018003c090     libvcruntimed:undname.obj
 0002:000010b0       ??_C@_0BK@CFCOFLF@?5Complete?5Object?5Locator?8@ 000000018003c0b0     libvcruntimed:undname.obj
 0002:000010d0       ??_C@_0BG@JNJLAMPM@?$GAanonymous?5namespace?8@ 000000018003c0d0     libvcruntimed:undname.obj
 0002:000010f0       ??_C@_0EO@IMACLHHO@d?3?2agent?2_work?24?2s?2src?2vctools?2@ 000000018003c0f0     libvcruntimed:per_thread_data.obj
 0002:000011f0       ??_C@_1DM@KHCHBNEB@?$AAa?$AAp?$AAi?$AA?9?$AAm?$AAs?$AA?9?$AAw?$AAi?$AAn?$AA?9?$AAc?$AAo?$AAr?$AAe@ 000000018003c1f0     libvcruntimed:winapi_downlevel.obj
 0002:00001230       ??_C@_1DK@LPPGFMPP@?$AAa?$AAp?$AAi?$AA?9?$AAm?$AAs?$AA?9?$AAw?$AAi?$AAn?$AA?9?$AAc?$AAo?$AAr?$AAe@ 000000018003c230     libvcruntimed:winapi_downlevel.obj
 0002:00001270       ??_C@_1BC@GDMECMAK@?$AAk?$AAe?$AAr?$AAn?$AAe?$AAl?$AA3?$AA2@ 000000018003c270     libvcruntimed:winapi_downlevel.obj
 0002:00001288       ??_C@_17CNPHIMPH@?$AA?$CF?$AAl?$AAs@ 000000018003c288     libvcruntimed:winapi_downlevel.obj
 0002:00001290       ??_C@_1BA@PFFKHIOG@?$AAa?$AAp?$AAi?$AA?9?$AAm?$AAs?$AA?9@ 000000018003c290     libvcruntimed:winapi_downlevel.obj
 0002:000012a0       ??_C@_1EM@LBIFGLGH@?$AAc?$AAa?$AAc?$AAh?$AAe?$AAd?$AA_?$AAh?$AAa?$AAn?$AAd?$AAl?$AAe?$AA?5?$AA?$DN@ 000000018003c2a0     libvcruntimed:winapi_downlevel.obj
 0002:000012f0       ??_C@_1JO@IKCMCKBI@?$AAd?$AA?3?$AA?2?$AAa?$AAg?$AAe?$AAn?$AAt?$AA?2?$AA_?$AAw?$AAo?$AAr?$AAk?$AA?2@ 000000018003c2f0     libvcruntimed:winapi_downlevel.obj
 0002:00001390       ??_C@_1DI@MAHEDLDB@?$AAc?$AAa?$AAc?$AAh?$AAe?$AAd?$AA_?$AAh?$AAa?$AAn?$AAd?$AAl?$AAe?$AA?5?$AA?$DN@ 000000018003c390     libvcruntimed:winapi_downlevel.obj
 0002:000013d0       ??_C@_1FC@IBNCGNKL@?$AAc?$AAa?$AAc?$AAh?$AAe?$AAd?$AA_?$AAf?$AAp?$AA?5?$AA?$DN?$AA?$DN?$AA?5?$AAi?$AAn@ 000000018003c3d0     libvcruntimed:winapi_downlevel.obj
 0002:00001428       ??_C@_1CI@GDJBAGLP@?$AAc?$AAa?$AAc?$AAh?$AAe?$AAd?$AA_?$AAf?$AAp?$AA?5?$AA?$DN?$AA?$DN?$AA?5?$AAn?$AAe@ 000000018003c428     libvcruntimed:winapi_downlevel.obj
 0002:00001458       ??_C@_08KNHFBNJ@FlsAlloc@  000000018003c458     libvcruntimed:winapi_downlevel.obj
 0002:00001470       ??_C@_07PEJMOBNF@FlsFree@  000000018003c470     libvcruntimed:winapi_downlevel.obj
 0002:00001480       ??_C@_0M@GDNOONDI@FlsGetValue@ 000000018003c480     libvcruntimed:winapi_downlevel.obj
 0002:00001498       ??_C@_0M@JCPCPOEF@FlsSetValue@ 000000018003c498     libvcruntimed:winapi_downlevel.obj
 0002:000014b0       ??_C@_0BM@HCFOFFN@InitializeCriticalSectionEx@ 000000018003c4b0     libvcruntimed:winapi_downlevel.obj
 0002:000014d8       ??_7exception@std@@6B@     000000018003c4d8     libvcruntimed:frame.obj
 0002:000014e8       ??_C@_0BC@EOODALEL@Unknown?5exception@ 000000018003c4e8     libvcruntimed:frame.obj
 0002:00001508       ??_7bad_exception@std@@6B@ 000000018003c508     libvcruntimed:frame.obj
 0002:00001518       ??_C@_0O@DPKOEFFH@bad?5exception@ 000000018003c518     libvcruntimed:frame.obj
 0002:00001530       ??_C@_1FK@OACNEHHA@?$AAt?$AAo?$AA?9?$AA?$DO?$AA_?$AAW?$AAh?$AAa?$AAt?$AA?5?$AA?$DN?$AA?$DN?$AA?5?$AAn?$AAu@ 000000018003c530     libvcruntimed:std_exception.obj
 0002:00001590       ??_C@_1IM@CBBCJHKN@?$AAd?$AA?3?$AA?2?$AAa?$AAg?$AAe?$AAn?$AAt?$AA?2?$AA_?$AAw?$AAo?$AAr?$AAk?$AA?2@ 000000018003c590     libvcruntimed:std_exception.obj
 0002:00001620       __acrt_exception_action_table 000000018003c620     libucrtd:exception_filter.obj
 0002:000016e0       __acrt_signal_action_table_count 000000018003c6e0     libucrtd:exception_filter.obj
 0002:000016e8       __acrt_signal_action_first_fpe_index 000000018003c6e8     libucrtd:exception_filter.obj
 0002:000016f0       __acrt_signal_action_fpe_count 000000018003c6f0     libucrtd:exception_filter.obj
 0002:000016f8       ??_C@_1BI@BGOHAHKC@?$AAm?$AAs?$AAc?$AAo?$AAr?$AAe?$AAe?$AA?4?$AAd?$AAl?$AAl@ 000000018003c6f8     libucrtd:exit.obj
 0002:00001710       ??_C@_0P@MIGLKIOC@CorExitProcess@ 000000018003c710     libucrtd:exit.obj
 0002:00001720       ??_C@_0DI@KNDIGDEP@minkernel?2crts?2ucrt?2src?2appcrt?2@ 000000018003c720     libucrtd:argv_parsing.obj
 0002:00001760       ??_C@_1JO@PGBIJBAM@?$AAm?$AAo?$AAd?$AAe?$AA?5?$AA?$DN?$AA?$DN?$AA?5?$AA_?$AAc?$AAr?$AAt?$AA_?$AAa?$AAr@ 000000018003c760     libucrtd:argv_parsing.obj
 0002:00001800       ??_C@_1HA@JMLCANEE@?$AAm?$AAi?$AAn?$AAk?$AAe?$AAr?$AAn?$AAe?$AAl?$AA?2?$AAc?$AAr?$AAt?$AAs?$AA?2@ 000000018003c800     libucrtd:argv_parsing.obj
 0002:00001870       ??_C@_1CM@LHOJELIC@?$AAc?$AAo?$AAm?$AAm?$AAo?$AAn?$AA_?$AAc?$AAo?$AAn?$AAf?$AAi?$AAg?$AAu?$AAr@ 000000018003c870     libucrtd:argv_parsing.obj
 0002:000018a0       ??_C@_0EG@LEHKHOEH@minkernel?2crts?2ucrt?2src?2desktop@ 000000018003c8a0     libucrtd:environment_initialization.obj
 0002:000018f0       ??_C@_1IM@IMOFFPLG@?$AAm?$AAi?$AAn?$AAk?$AAe?$AAr?$AAn?$AAe?$AAl?$AA?2?$AAc?$AAr?$AAt?$AAs?$AA?2@ 000000018003c8f0     libucrtd:environment_initialization.obj
 0002:00001980       ??_C@_1CG@MNNNBNAK@?$AAc?$AAr?$AAe?$AAa?$AAt?$AAe?$AA_?$AAe?$AAn?$AAv?$AAi?$AAr?$AAo?$AAn?$AAm@ 000000018003c980     libucrtd:environment_initialization.obj
 0002:000019b0       ??_C@_1HI@OOPIFFGA@?$AAt?$AAr?$AAa?$AAi?$AAt?$AAs?$AA?3?$AA?3?$AAt?$AAc?$AAs?$AAc?$AAp?$AAy?$AA_@ 000000018003c9b0     libucrtd:environment_initialization.obj
 0002:00001b78       ??_C@_04HJMOFLDF@Free@     000000018003cb78     libucrtd:debug_heap.obj
 0002:00001b80       ??_C@_06EFAGIKOH@Normal@   000000018003cb80     libucrtd:debug_heap.obj
 0002:00001b88       ??_C@_03OGPFLFLO@CRT@      000000018003cb88     libucrtd:debug_heap.obj
 0002:00001b8c       ??_C@_06KMEJCCGM@Ignore@   000000018003cb8c     libucrtd:debug_heap.obj
 0002:00001b94       ??_C@_06PJIGMIJB@Client@   000000018003cb94     libucrtd:debug_heap.obj
 0002:00001ba0       ??_C@_1CE@LJFEPPMP@?$AA_?$AAC?$AAr?$AAt?$AAC?$AAh?$AAe?$AAc?$AAk?$AAM?$AAe?$AAm?$AAo?$AAr?$AAy@ 000000018003cba0     libucrtd:debug_heap.obj
 0002:00001bd0       ??_C@_1GG@OCLHPJPK@?$AAm?$AAi?$AAn?$AAk?$AAe?$AAr?$AAn?$AAe?$AAl?$AA?2?$AAc?$AAr?$AAt?$AAs?$AA?2@ 000000018003cbd0     libucrtd:debug_heap.obj
 0002:00001c38       ??_C@_0DF@BBEGIFEK@Client?5hook?5allocation?5failure?5@ 000000018003cc38     libucrtd:debug_heap.obj
 0002:00001c70       ??_C@_0CB@CCLOLAHO@Client?5hook?5allocation?5failure?4@ 000000018003cc70     libucrtd:debug_heap.obj
 0002:00001c94       ??_C@_02DKCKIIND@?$CFs@    000000018003cc94     libucrtd:debug_heap.obj
 0002:00001c98       ??_C@_0DC@JEMAGEKG@Error?3?5memory?5allocation?3?5bad?5m@ 000000018003cc98     libucrtd:debug_heap.obj
 0002:00001cd0       ??_C@_0DI@KKJPDPGM@Client?5hook?5re?9allocation?5failu@ 000000018003ccd0     libucrtd:debug_heap.obj
 0002:00001d08       ??_C@_0CE@DOFMDOL@Client?5hook?5re?9allocation?5failu@ 000000018003cd08     libucrtd:debug_heap.obj
 0002:00001d30       ??_C@_0FA@EFEIGJKG@Error?3?5memory?5allocation?3?5bad?5m@ 000000018003cd30     libucrtd:debug_heap.obj
 0002:00001d80       ??_C@_0EM@LGFLMAGJ@The?5Block?5at?50x?$CFp?5was?5allocated@ 000000018003cd80     libucrtd:debug_heap.obj
 0002:00001dd0       ??_C@_1DM@DEDLGNML@?$AA_?$AAC?$AAr?$AAt?$AAI?$AAs?$AAV?$AAa?$AAl?$AAi?$AAd?$AAH?$AAe?$AAa?$AAp@ 000000018003cdd0     libucrtd:debug_heap.obj
 0002:00001e10       ??_C@_1PC@MCGKJLN@?$AAo?$AAl?$AAd?$AA_?$AAh?$AAe?$AAa?$AAd?$AA?9?$AA?$DO?$AA_?$AAl?$AAi?$AAn?$AAe@ 000000018003ce10     libucrtd:debug_heap.obj
 0002:00001f08       ??_C@_0DA@HFBKENN@Error?3?5possible?5heap?5corruption@ 000000018003cf08     libucrtd:debug_heap.obj
 0002:00001f40       ??_C@_1JM@MCMEPJEP@?$AAr?$AAe?$AAa?$AAl?$AAl?$AAo?$AAc?$AAa?$AAt?$AAi?$AAo?$AAn?$AA_?$AAi?$AAs@ 000000018003cf40     libucrtd:debug_heap.obj
 0002:00001fe0       ??_C@_1DM@LNOPKAIJ@?$AA_?$AA_?$AAa?$AAc?$AAr?$AAt?$AA_?$AAl?$AAa?$AAs?$AAt?$AA_?$AAb?$AAl?$AAo@ 000000018003cfe0     libucrtd:debug_heap.obj
 0002:00002020       ??_C@_1DO@HABCJBHO@?$AA_?$AA_?$AAa?$AAc?$AAr?$AAt?$AA_?$AAf?$AAi?$AAr?$AAs?$AAt?$AA_?$AAb?$AAl@ 000000018003d020     libucrtd:debug_heap.obj
 0002:00002060       ??_C@_1CC@CKEAHJPH@?$AAb?$AAl?$AAo?$AAc?$AAk?$AA?5?$AA?$CB?$AA?$DN?$AA?5?$AAn?$AAu?$AAl?$AAl?$AAp?$AAt@ 000000018003d060     libucrtd:debug_heap.obj
 0002:00002090       ??_C@_0EJ@HEIBCIMJ@The?5Block?5at?50x?$CFp?5was?5allocated@ 000000018003d090     libucrtd:debug_heap.obj
 0002:000020e0       ??_C@_0BL@KEIPLFAC@Client?5hook?5free?5failure?4?6@ 000000018003d0e0     libucrtd:debug_heap.obj
 0002:00002100       ??_C@_1FA@KDNEBILF@?$AAi?$AAs?$AA_?$AAb?$AAl?$AAo?$AAc?$AAk?$AA_?$AAt?$AAy?$AAp?$AAe?$AA_?$AAv@ 000000018003d100     libucrtd:debug_heap.obj
 0002:00002150       ??_C@_0KI@JGFOHMEB@HEAP?5CORRUPTION?5DETECTED?3?5befor@ 000000018003d150     libucrtd:debug_heap.obj
 0002:00002200       ??_C@_0IK@PJCGLBOB@HEAP?5CORRUPTION?5DETECTED?3?5befor@ 000000018003d200     libucrtd:debug_heap.obj
 0002:00002290       ??_C@_0KE@MBMNHHHN@HEAP?5CORRUPTION?5DETECTED?3?5after@ 000000018003d290     libucrtd:debug_heap.obj
 0002:00002340       ??_C@_0IG@LEMBDCJK@HEAP?5CORRUPTION?5DETECTED?3?5after@ 000000018003d340     libucrtd:debug_heap.obj
 0002:000023d0       ??_C@_1OK@GFEOEJAF@?$AAh?$AAe?$AAa?$AAd?$AAe?$AAr?$AA?9?$AA?$DO?$AA_?$AAl?$AAi?$AAn?$AAe?$AA_?$AAn@ 000000018003d3d0     libucrtd:debug_heap.obj
 0002:000024c0       ??_C@_1ME@GFALMLNA@?$AAh?$AAe?$AAa?$AAd?$AAe?$AAr?$AA?9?$AA?$DO?$AA_?$AAb?$AAl?$AAo?$AAc?$AAk?$AA_@ 000000018003d4c0     libucrtd:debug_heap.obj
 0002:00002588       ??_C@_1DI@ILNOPEPI@?$AA_?$AA_?$AAa?$AAc?$AAr?$AAt?$AA_?$AAl?$AAa?$AAs?$AAt?$AA_?$AAb?$AAl?$AAo@ 000000018003d588     libucrtd:debug_heap.obj
 0002:000025c0       ??_C@_1DK@KEHFGDIJ@?$AA_?$AA_?$AAa?$AAc?$AAr?$AAt?$AA_?$AAf?$AAi?$AAr?$AAs?$AAt?$AA_?$AAb?$AAl@ 000000018003d5c0     libucrtd:debug_heap.obj
 0002:00002600       ??_C@_1BG@MBKOGDLD@?$AA_?$AAm?$AAs?$AAi?$AAz?$AAe?$AA_?$AAd?$AAb?$AAg@ 000000018003d600     libucrtd:debug_heap.obj
 0002:00002618       ??_C@_07OHKEFPKJ@DAMAGED@  000000018003d618     libucrtd:debug_heap.obj
 0002:00002620       ??_C@_0KA@IHNJJKPL@HEAP?5CORRUPTION?5DETECTED?3?5on?5to@ 000000018003d620     libucrtd:debug_heap.obj
 0002:000026c0       ??_C@_0IC@BBJIOOJH@HEAP?5CORRUPTION?5DETECTED?3?5on?5to@ 000000018003d6c0     libucrtd:debug_heap.obj
 0002:00002750       ??_C@_0EG@DGJMPDBH@?$CFhs?5located?5at?50x?$CFp?5is?5?$CFIu?5byte@ 000000018003d750     libucrtd:debug_heap.obj
 0002:00002798       ??_C@_0CI@JMLBEDHJ@?$CFhs?5located?5at?50x?$CFp?5is?5?$CFIu?5byte@ 000000018003d798     libucrtd:debug_heap.obj
 0002:000027c0       ??_C@_0EG@GPFHANHO@Cycle?5in?5block?5list?5detected?5wh@ 000000018003d7c0     libucrtd:debug_heap.obj
 0002:00002808       ??_C@_0BJ@ELMAOCAJ@Heap?5validation?5failed?4?6@ 000000018003d808     libucrtd:debug_heap.obj
 0002:00002830       ??_C@_1IE@BBIFDGEB@?$AAn?$AAe?$AAw?$AA_?$AAb?$AAi?$AAt?$AAs?$AA?5?$AA?$DN?$AA?$DN?$AA?5?$AA_?$AAC?$AAR@ 000000018003d830     libucrtd:debug_heap.obj
 0002:000028b8       ??_C@_1BO@GJFDNMNF@?$AA_?$AAC?$AAr?$AAt?$AAS?$AAe?$AAt?$AAD?$AAb?$AAg?$AAF?$AAl?$AAa?$AAg@ 000000018003d8b8     libucrtd:debug_heap.obj
 0002:000028d8       ??_C@_1CC@BBKMONGA@?$AAs?$AAt?$AAa?$AAt?$AAe?$AA?5?$AA?$CB?$AA?$DN?$AA?5?$AAn?$AAu?$AAl?$AAl?$AAp?$AAt@ 000000018003d8d8     libucrtd:debug_heap.obj
 0002:00002900       ??_C@_1CE@NJJKELF@?$AA_?$AAC?$AAr?$AAt?$AAM?$AAe?$AAm?$AAC?$AAh?$AAe?$AAc?$AAk?$AAp?$AAo?$AAi@ 000000018003d900     libucrtd:debug_heap.obj
 0002:00002928       ??_C@_0DP@LEFMFBOD@Bad?5memory?5block?5found?5at?50x?$CFp?4@ 000000018003d928     libucrtd:debug_heap.obj
 0002:00002968       ??_C@_0CB@EAAIGELO@Bad?5memory?5block?5found?5at?50x?$CFp?4@ 000000018003d968     libucrtd:debug_heap.obj
 0002:0000298c       ??_C@_05MKKEDADM@?$CF?42X?5@ 000000018003d98c     libucrtd:debug_heap.obj
 0002:00002998       ??_C@_1CC@DIJAHFFJ@?$AAp?$AAr?$AAi?$AAn?$AAt?$AA_?$AAb?$AAl?$AAo?$AAc?$AAk?$AA_?$AAd?$AAa?$AAt@ 000000018003d998     libucrtd:debug_heap.obj
 0002:000029c0       ??_C@_1BI@KALLJECN@?$AA?$CI?$AA?$CK?$AA_?$AAe?$AAr?$AAr?$AAn?$AAo?$AA?$CI?$AA?$CJ?$AA?$CJ@ 000000018003d9c0     libucrtd:debug_heap.obj
 0002:000029d8       ??_C@_0BA@HJBKCELP@?5Data?3?5?$DM?$CFs?$DO?5?$CFs?6@ 000000018003d9d8     libucrtd:debug_heap.obj
 0002:000029e8       ??_C@_0BE@KCIPKCIA@Dumping?5objects?5?9?$DO?6@ 000000018003d9e8     libucrtd:debug_heap.obj
 0002:00002a00       ??_C@_0BE@OIEFNFL@?$CDFile?5Error?$CD?$CI?$CFd?$CJ?5?3?5@ 000000018003da00     libucrtd:debug_heap.obj
 0002:00002a18       ??_C@_0L@JMEFFCCJ@?$CFhs?$CI?$CFd?$CJ?5?3?5@ 000000018003da18     libucrtd:debug_heap.obj
 0002:00002a24       ??_C@_06PKLGBFGM@?$HL?$CFld?$HN?5@ 000000018003da24     libucrtd:debug_heap.obj
 0002:00002a30       ??_C@_0DD@GHNAAKBB@client?5block?5at?50x?$CFp?0?5subtype?5?$CF@ 000000018003da30     libucrtd:debug_heap.obj
 0002:00002a68       ??_C@_0CH@FAGDDGPN@normal?5block?5at?50x?$CFp?0?5?$CFIu?5bytes@ 000000018003da68     libucrtd:debug_heap.obj
 0002:00002a90       ??_C@_0DA@MDLBNIBM@crt?5block?5at?50x?$CFp?0?5subtype?5?$CFx?0?5@ 000000018003da90     libucrtd:debug_heap.obj
 0002:00002ac0       ??_C@_0BH@GFGKJDCO@Object?5dump?5complete?4?6@ 000000018003dac0     libucrtd:debug_heap.obj
 0002:00002ad8       ??_C@_0BI@JBFPOEJA@Detected?5memory?5leaks?$CB?6@ 000000018003dad8     libucrtd:debug_heap.obj
 0002:00002af0       ??_C@_1GI@BBAEIKL@?$AA?$CI?$AA?$CI?$AAd?$AAe?$AAs?$AAt?$AAi?$AAn?$AAa?$AAt?$AAi?$AAo?$AAn?$AA?$CJ?$AA?$CJ@ 000000018003daf0     libucrtd:strcpy_s.obj
 0002:00002b60       ??_C@_1HI@PBJPCEBC@?$AAm?$AAi?$AAn?$AAk?$AAe?$AAr?$AAn?$AAe?$AAl?$AA?2?$AAc?$AAr?$AAt?$AAs?$AA?2@ 000000018003db60     libucrtd:strcpy_s.obj
 0002:00002bd8       ??_C@_1CA@FHIAGDFH@?$AAc?$AAo?$AAm?$AAm?$AAo?$AAn?$AA_?$AAt?$AAc?$AAs?$AAc?$AAp?$AAy?$AA_?$AAs@ 000000018003dbd8     libucrtd:strcpy_s.obj
 0002:00002bf8       ??_C@_1CK@EIOKGPJL@?$AA?$CI?$AA?$CI?$AA?$CI?$AAs?$AAo?$AAu?$AAr?$AAc?$AAe?$AA?$CJ?$AA?$CJ?$AA?$CJ?$AA?5?$AA?$CB?$AA?$DN@ 000000018003dbf8     libucrtd:strcpy_s.obj
 0002:00002c28       ??_C@_1CI@HCPHDDLE@?$AAB?$AAu?$AAf?$AAf?$AAe?$AAr?$AA?5?$AAi?$AAs?$AA?5?$AAt?$AAo?$AAo?$AA?5?$AAs@ 000000018003dc28     libucrtd:strcpy_s.obj
 0002:00002c50       ??_C@_1DM@MADKGDLO@?$AA?$CI?$AAL?$AA?$CC?$AAB?$AAu?$AAf?$AAf?$AAe?$AAr?$AA?5?$AAi?$AAs?$AA?5?$AAt?$AAo@ 000000018003dc50     libucrtd:strcpy_s.obj
 0002:00002c90       ??_C@_1DA@LLLMNMKI@?$AAa?$AAb?$AAo?$AAr?$AAt?$AA?$CI?$AA?$CJ?$AA?5?$AAh?$AAa?$AAs?$AA?5?$AAb?$AAe?$AAe@ 000000018003dc90     libucrtd:abort.obj
 0002:00002cc0       format_validation_lookup_table 000000018003dcc0     libucrtd:output.obj
 0002:00002d20       ??_C@_1GA@MOBAPGIO@?$AAm?$AAi?$AAn?$AAk?$AAe?$AAr?$AAn?$AAe?$AAl?$AA?2?$AAc?$AAr?$AAt?$AAs?$AA?2@ 000000018003dd20     libucrtd:output.obj
 0002:00002d80       ??_C@_1CE@EAKLPBKK@?$AAf?$AAo?$AAr?$AAm?$AAa?$AAt?$AA?5?$AA?$CB?$AA?$DN?$AA?5?$AAn?$AAu?$AAl?$AAl?$AAp@ 000000018003dd80     libucrtd:output.obj
 0002:00002da8       ??_C@_1CA@PIMGHCEK@?$AAc?$AAo?$AAm?$AAm?$AAo?$AAn?$AA_?$AAv?$AAs?$AAp?$AAr?$AAi?$AAn?$AAt?$AAf@ 000000018003dda8     libucrtd:output.obj
 0002:00002dd0       ??_C@_1EO@EGEEFEFM@?$AAb?$AAu?$AAf?$AAf?$AAe?$AAr?$AA_?$AAc?$AAo?$AAu?$AAn?$AAt?$AA?5?$AA?$DN?$AA?$DN@ 000000018003ddd0     libucrtd:output.obj
 0002:00002e20       ??_C@_1CE@JEILLNB@?$AAc?$AAo?$AAm?$AAm?$AAo?$AAn?$AA_?$AAv?$AAs?$AAp?$AAr?$AAi?$AAn?$AAt?$AAf@ 000000018003de20     libucrtd:output.obj
 0002:00002e50       ??_C@_1EM@OAFHAOLH@?$AAb?$AAu?$AAf?$AAf?$AAe?$AAr?$AA?5?$AA?$CB?$AA?$DN?$AA?5?$AAn?$AAu?$AAl?$AAl?$AAp@ 000000018003de50     libucrtd:output.obj
 0002:00002ea0       ??_C@_1DA@HPBFKMEB@?$AA?$CI?$AA?$CC?$AAB?$AAu?$AAf?$AAf?$AAe?$AAr?$AA?5?$AAt?$AAo?$AAo?$AA?5?$AAs?$AAm@ 000000018003dea0     libucrtd:output.obj
 0002:00002ed0       ??_C@_1CG@LHFJHFBB@?$AAc?$AAo?$AAm?$AAm?$AAo?$AAn?$AA_?$AAv?$AAs?$AAn?$AAp?$AAr?$AAi?$AAn?$AAt@ 000000018003ded0     libucrtd:output.obj
 0002:00002ef8       ??_C@_1CM@JOIJBMEM@?$AA_?$AAf?$AAo?$AAr?$AAm?$AAa?$AAt?$AA_?$AAi?$AAt?$AA?5?$AA?$CB?$AA?$DN?$AA?5?$AAn@ 000000018003def8     libucrtd:output.obj
 0002:00002f30       ??_C@_1HA@DMAAKIJP@?$AAm?$AAi?$AAn?$AAk?$AAe?$AAr?$AAn?$AAe?$AAl?$AA?2?$AAc?$AAr?$AAt?$AAs?$AA?2@ 000000018003df30     libucrtd:output.obj
 0002:00002fa0       ??_C@_1EE@DMAIGNBG@?$AA?$CI?$AA?$CC?$AAI?$AAn?$AAc?$AAo?$AAr?$AAr?$AAe?$AAc?$AAt?$AA?5?$AAf?$AAo?$AAr@ 000000018003dfa0     libucrtd:output.obj
 0002:00002ff0       ??_C@_1FG@OBJBDPAC@?$AA?$CI?$AA?$CC?$AAN?$AA?5?$AAl?$AAe?$AAn?$AAg?$AAt?$AAh?$AA?5?$AAm?$AAo?$AAd?$AAi@ 000000018003dff0     libucrtd:output.obj
 0002:00003050       ??_C@_1EC@GJPNJDCN@?$AA_?$AAl?$AAe?$AAn?$AAg?$AAt?$AAh?$AA?5?$AA?$DN?$AA?$DN?$AA?5?$AAl?$AAe?$AAn?$AAg@ 000000018003e050     libucrtd:output.obj
 0002:00003098       ??_C@_1DG@CEJKFDMO@?$AAs?$AAt?$AAa?$AAt?$AAe?$AA_?$AAc?$AAa?$AAs?$AAe?$AA_?$AAn?$AAo?$AAr?$AAm@ 000000018003e098     libucrtd:output.obj
 0002:000030d0       ??_C@_1CI@DDKMNCPP@?$AA_?$AAc?$AAo?$AAn?$AAt?$AAe?$AAx?$AAt?$AA?5?$AA?$CB?$AA?$DN?$AA?5?$AAn?$AAu?$AAl@ 000000018003e0d0     libucrtd:output.obj
 0002:00003100       ??_C@_1HK@IIPGOADH@?$AA_?$AA_?$AAc?$AAr?$AAt?$AA_?$AAs?$AAt?$AAd?$AAi?$AAo?$AA_?$AAo?$AAu?$AAt@ 000000018003e100     libucrtd:output.obj
 0002:00003180       ??_C@_1HE@IACOMEJF@?$AA_?$AA_?$AAc?$AAr?$AAt?$AA_?$AAs?$AAt?$AAd?$AAi?$AAo?$AA_?$AAo?$AAu?$AAt@ 000000018003e180     libucrtd:output.obj
 0002:00003200       ??_C@_1GC@BNMHNGKM@?$AA_?$AAs?$AAt?$AAa?$AAt?$AAe?$AA?5?$AA?$DN?$AA?$DN?$AA?5?$AAs?$AAt?$AAa?$AAt?$AAe@ 000000018003e200     libucrtd:output.obj
 0002:00003270       ??_C@_1BEC@NDOOKIMC@?$AA_?$AA_?$AAc?$AAr?$AAt?$AA_?$AAs?$AAt?$AAd?$AAi?$AAo?$AA_?$AAo?$AAu?$AAt@ 000000018003e270     libucrtd:output.obj
 0002:000033c0       ??_C@_1EK@PNGFDECN@?$AA?$CI?$AA?$CC?$AA?8?$AAn?$AA?8?$AA?5?$AAf?$AAo?$AAr?$AAm?$AAa?$AAt?$AA?5?$AAs?$AAp@ 000000018003e3c0     libucrtd:output.obj
 0002:00003410       ??_C@_1EO@GHKFGFKL@?$AA?$CI?$AA?$CC?$AAI?$AAn?$AAv?$AAa?$AAl?$AAi?$AAd?$AA?5?$AAi?$AAn?$AAt?$AAe?$AAg@ 000000018003e410     libucrtd:output.obj
 0002:00003460       ??_C@_1BDG@KOLEFKPF@?$AA_?$AA_?$AAc?$AAr?$AAt?$AA_?$AAs?$AAt?$AAd?$AAi?$AAo?$AA_?$AAo?$AAu?$AAt@ 000000018003e460     libucrtd:output.obj
 0002:00003598       ??_C@_1O@CEDCILHN@?$AA?$CI?$AAn?$AAu?$AAl?$AAl?$AA?$CJ@ 000000018003e598     libucrtd:output.obj
 0002:000035a8       ??_C@_06OJHGLDPL@?$CInull?$CJ@ 000000018003e5a8     libucrtd:output.obj
 0002:000035b0       ??_C@_1CK@LGDCECDH@?$AA_?$AAf?$AAo?$AAr?$AAm?$AAa?$AAt?$AA_?$AAc?$AAh?$AAa?$AAr?$AA?5?$AA?$CB?$AA?$DN@ 000000018003e5b0     libucrtd:output.obj
 0002:000035e0       ??_C@_0DI@KIFBHMNO@minkernel?2crts?2ucrt?2inc?2corecrt@ 000000018003e5e0     libucrtd:output.obj
 0002:00003620       ??_C@_1BMK@JGIBNIA@?$AA_?$AA_?$AAc?$AAr?$AAt?$AA_?$AAs?$AAt?$AAd?$AAi?$AAo?$AA_?$AAo?$AAu?$AAt@ 000000018003e620     libucrtd:output.obj
 0002:000037f0       ??_C@_1BLC@INKIGOCN@?$AA_?$AA_?$AAc?$AAr?$AAt?$AA_?$AAs?$AAt?$AAd?$AAi?$AAo?$AA_?$AAo?$AAu?$AAt@ 000000018003e7f0     libucrtd:output.obj
 0002:000039b0       ??_C@_1BNK@KHNJGCCP@?$AA_?$AA_?$AAc?$AAr?$AAt?$AA_?$AAs?$AAt?$AAd?$AAi?$AAo?$AA_?$AAo?$AAu?$AAt@ 000000018003e9b0     libucrtd:output.obj
 0002:00003b90       ??_C@_1BNO@OHFFMOOJ@?$AA_?$AA_?$AAc?$AAr?$AAt?$AA_?$AAs?$AAt?$AAd?$AAi?$AAo?$AA_?$AAo?$AAu?$AAt@ 000000018003eb90     libucrtd:output.obj
 0002:00003d70       ??_C@_1BMC@FAGJFBLI@?$AA_?$AA_?$AAc?$AAr?$AAt?$AA_?$AAs?$AAt?$AAd?$AAi?$AAo?$AA_?$AAo?$AAu?$AAt@ 000000018003ed70     libucrtd:output.obj
 0002:00003f40       ??_C@_1BMG@CGPDIFDK@?$AA_?$AA_?$AAc?$AAr?$AAt?$AA_?$AAs?$AAt?$AAd?$AAi?$AAo?$AA_?$AAo?$AAu?$AAt@ 000000018003ef40     libucrtd:output.obj
 0002:00004110       ??_C@_1BNC@OHPDPPJK@?$AA_?$AA_?$AAc?$AAr?$AAt?$AA_?$AAs?$AAt?$AAd?$AAi?$AAo?$AA_?$AAo?$AAu?$AAt@ 000000018003f110     libucrtd:output.obj
 0002:000042f0       ??_C@_1BLK@FOLFMPJH@?$AA_?$AA_?$AAc?$AAr?$AAt?$AA_?$AAs?$AAt?$AAd?$AAi?$AAo?$AA_?$AAo?$AAu?$AAt@ 000000018003f2f0     libucrtd:output.obj
 0002:000044b0       ??_C@_1BNO@NAODCKFA@?$AA_?$AA_?$AAc?$AAr?$AAt?$AA_?$AAs?$AAt?$AAd?$AAi?$AAo?$AA_?$AAo?$AAu?$AAt@ 000000018003f4b0     libucrtd:output.obj
 0002:00004690       ??_C@_1BMG@BBEFGBID@?$AA_?$AA_?$AAc?$AAr?$AAt?$AA_?$AAs?$AAt?$AAd?$AAi?$AAo?$AA_?$AAo?$AAu?$AAt@ 000000018003f690     libucrtd:output.obj
 0002:00004860       ??_C@_1BNC@JPKLPOHO@?$AA_?$AA_?$AAc?$AAr?$AAt?$AA_?$AAs?$AAt?$AAd?$AAi?$AAo?$AA_?$AAo?$AAu?$AAt@ 000000018003f860     libucrtd:output.obj
 0002:00004a40       ??_C@_1GE@DPGDJKLM@?$AAm?$AAi?$AAn?$AAk?$AAe?$AAr?$AAn?$AAe?$AAl?$AA?2?$AAc?$AAr?$AAt?$AAs?$AA?2@ 000000018003fa40     libucrtd:atox.obj
 0002:00004ab0       ??_C@_1EO@MLJCKPIB@?$AAb?$AAa?$AAs?$AAe?$AA?5?$AA?$DN?$AA?$DN?$AA?5?$AA0?$AA?5?$AA?$HM?$AA?$HM?$AA?5?$AA?$CI?$AA2@ 000000018003fab0     libucrtd:atox.obj
 0002:00004b00       ??_C@_1DI@BANODKFL@?$AA_?$AA_?$AAc?$AAr?$AAt?$AA_?$AAs?$AAt?$AAr?$AAt?$AAo?$AAx?$AA?3?$AA?3?$AAp@ 000000018003fb00     libucrtd:atox.obj
 0002:00004b38       ??_C@_1CM@GJENOOEJ@?$AAc?$AA?5?$AA?$DN?$AA?$DN?$AA?5?$AA?8?$AA?2?$AA0?$AA?8?$AA?5?$AA?$HM?$AA?$HM?$AA?5?$AA?$CK?$AA_@ 000000018003fb38     libucrtd:atox.obj
 0002:00004b70       ??_C@_1HA@CONLANFI@?$AA_?$AA_?$AAc?$AAr?$AAt?$AA_?$AAs?$AAt?$AAr?$AAt?$AAo?$AAx?$AA?3?$AA?3?$AAc@ 000000018003fb70     libucrtd:atox.obj
 0002:00004be0       ??_C@_1BM@PNEBBBDO@?$AA_?$AAp?$AA?5?$AA?$CB?$AA?$DN?$AA?5?$AAn?$AAu?$AAl?$AAl?$AAp?$AAt?$AAr@ 000000018003fbe0     libucrtd:atox.obj
 0002:00004c00       ??_C@_1HG@FCDBLOEG@?$AA_?$AA_?$AAc?$AAr?$AAt?$AA_?$AAs?$AAt?$AAr?$AAt?$AAo?$AAx?$AA?3?$AA?3?$AAc@ 000000018003fc00     libucrtd:atox.obj
 0002:00004c80       ??_C@_1GK@MNHIDABG@?$AA_?$AA_?$AAc?$AAr?$AAt?$AA_?$AAs?$AAt?$AAr?$AAt?$AAo?$AAx?$AA?3?$AA?3?$AAc@ 000000018003fc80     libucrtd:atox.obj
 0002:00004cf0       ??_C@_1HA@MKKIHBHP@?$AA_?$AA_?$AAc?$AAr?$AAt?$AA_?$AAs?$AAt?$AAr?$AAt?$AAo?$AAx?$AA?3?$AA?3?$AAc@ 000000018003fcf0     libucrtd:atox.obj
 0002:00004d78       ??_C@_1BA@GLMCNLEM@?$AAW?$AAa?$AAr?$AAn?$AAi?$AAn?$AAg@ 000000018003fd78     libucrtd:dbgrpt.obj
 0002:00004d88       ??_C@_1M@ILHOPKA@?$AAE?$AAr?$AAr?$AAo?$AAr@ 000000018003fd88     libucrtd:dbgrpt.obj
 0002:00004d98       ??_C@_1CC@CGHMNGDG@?$AAA?$AAs?$AAs?$AAe?$AAr?$AAt?$AAi?$AAo?$AAn?$AA?5?$AAF?$AAa?$AAi?$AAl?$AAe@ 000000018003fd98     libucrtd:dbgrpt.obj
 0002:00004dd0       ??_C@_1OG@PMPPFHAF@?$AA?6?$AA?6?$AAF?$AAo?$AAr?$AA?5?$AAi?$AAn?$AAf?$AAo?$AAr?$AAm?$AAa?$AAt?$AAi@ 000000018003fdd0     libucrtd:dbgrpt.obj
 0002:00004ec0       ??_C@_1MG@LJLILFFD@?$AAD?$AAe?$AAb?$AAu?$AAg?$AA?5?$AA?$CF?$AAl?$AAs?$AA?$CB?$AA?6?$AA?6?$AAP?$AAr?$AAo@ 000000018003fec0     libucrtd:dbgrpt.obj
 0002:00004f90       ??_C@_1MG@OODCADGL@?$AAD?$AAe?$AAb?$AAu?$AAg?$AA?5?$AA?$CF?$AAl?$AAs?$AA?$CB?$AA?6?$AA?6?$AAP?$AAr?$AAo@ 000000018003ff90     libucrtd:dbgrpt.obj
 0002:00005058       ??_C@_0BH@DNAGHKFM@?$DMprogram?5name?5unknown?$DO@ 0000000180040058     libucrtd:dbgrpt.obj
 0002:00005070       ??_C@_1CO@EAEJAADC@?$AA?$DM?$AAp?$AAr?$AAo?$AAg?$AAr?$AAa?$AAm?$AA?5?$AAn?$AAa?$AAm?$AAe?$AA?5?$AAu@ 0000000180040070     libucrtd:dbgrpt.obj
 0002:000050a0       ??_C@_1FO@GMJDLAJD@?$AAm?$AAi?$AAn?$AAk?$AAe?$AAr?$AAn?$AAe?$AAl?$AA?2?$AAc?$AAr?$AAt?$AAs?$AA?2@ 00000001800400a0     libucrtd:dbgrpt.obj
 0002:00005100       ??_C@_1CM@EHMOGBJJ@?$AAc?$AAo?$AAm?$AAm?$AAo?$AAn?$AA_?$AAm?$AAe?$AAs?$AAs?$AAa?$AAg?$AAe?$AA_@ 0000000180040100     libucrtd:dbgrpt.obj
 0002:00005130       ??_C@_1PE@ECNALGCA@?$AAt?$AAr?$AAa?$AAi?$AAt?$AAs?$AA?3?$AA?3?$AAt?$AAc?$AAs?$AAc?$AAp?$AAy?$AA_@ 0000000180040130     libucrtd:dbgrpt.obj
 0002:00005224       ??_C@_11LOCGONAA@@         0000000180040224     libucrtd:dbgrpt.obj
 0002:00005228       ??_C@_1BK@PEDCIPMA@?$AAE?$AAx?$AAp?$AAr?$AAe?$AAs?$AAs?$AAi?$AAo?$AAn?$AA?3?$AA?5@ 0000000180040228     libucrtd:dbgrpt.obj
 0002:00005244       ??_C@_15IABLJNFO@?$AA?6?$AA?6@ 0000000180040244     libucrtd:dbgrpt.obj
 0002:00005250       ??_C@_1BA@GLLGCPCK@?$AA?6?$AAL?$AAi?$AAn?$AAe?$AA?3?$AA?5@ 0000000180040250     libucrtd:dbgrpt.obj
 0002:00005260       ??_C@_1BA@LNHECFIM@?$AA?6?$AAF?$AAi?$AAl?$AAe?$AA?3?$AA?5@ 0000000180040260     libucrtd:dbgrpt.obj
 0002:00005270       ??_C@_17LGKOMLJ@?$AA?4?$AA?4?$AA?4@ 0000000180040270     libucrtd:dbgrpt.obj
 0002:00005278       ??_C@_1BE@CGCJKGHI@?$AA?6?$AAM?$AAo?$AAd?$AAu?$AAl?$AAe?$AA?3?$AA?5@ 0000000180040278     libucrtd:dbgrpt.obj
 0002:00005290       ??_C@_1JM@IBOIJEOO@?$AAw?$AAc?$AAs?$AAc?$AAp?$AAy?$AA_?$AAs?$AA?$CI?$AAm?$AAe?$AAs?$AAs?$AAa?$AAg@ 0000000180040290     libucrtd:dbgrpt.obj
 0002:00005330       ??_C@_1FG@BBOLDHGF@?$AA_?$AAC?$AAr?$AAt?$AAD?$AAb?$AAg?$AAR?$AAe?$AAp?$AAo?$AAr?$AAt?$AA?3?$AA?5@ 0000000180040330     libucrtd:dbgrpt.obj
 0002:00005390       ??_C@_1EK@MBDPDCGA@?$AAM?$AAi?$AAc?$AAr?$AAo?$AAs?$AAo?$AAf?$AAt?$AA?5?$AAV?$AAi?$AAs?$AAu?$AAa@ 0000000180040390     libucrtd:dbgrpt.obj
 0002:000053e0       ??_C@_0DM@DKIFNNOL@minkernel?2crts?2ucrt?2src?2appcrt?2@ 00000001800403e0     libucrtd:per_thread_data.obj
 0002:00005420       ??_C@_1FO@NMANMHOD@?$AAc?$AAa?$AAc?$AAh?$AAe?$AAd?$AA_?$AAs?$AAt?$AAa?$AAt?$AAe?$AA?5?$AA?$DN?$AA?$DN@ 0000000180040420     libucrtd:win_policies.obj
 0002:00005480       ??_C@_1HC@GHLNKBJK@?$AAm?$AAi?$AAn?$AAk?$AAe?$AAr?$AAn?$AAe?$AAl?$AA?2?$AAc?$AAr?$AAt?$AAs?$AA?2@ 0000000180040480     libucrtd:win_policies.obj
 0002:00005668       ??_C@_1CE@JMFACANE@?$AAr?$AAe?$AAs?$AAu?$AAl?$AAt?$AA?5?$AA?$CB?$AA?$DN?$AA?5?$AAn?$AAu?$AAl?$AAl?$AAp@ 0000000180040668     libucrtd:errno.obj
 0002:000056b8       ??_C@_0DI@DNFGFCIK@minkernel?2crts?2ucrt?2inc?2corecrt@ 00000001800406b8     libucrtd:argv_wildcards.obj
 0002:000056f0       ??_C@_1HE@CEMHPOHH@?$AAm?$AAi?$AAn?$AAk?$AAe?$AAr?$AAn?$AAe?$AAl?$AA?2?$AAc?$AAr?$AAt?$AAs?$AA?2@ 00000001800406f0     libucrtd:argv_wildcards.obj
 0002:00005768       ??_C@_1DK@IBFFOJGB@?$AAc?$AAo?$AAm?$AAm?$AAo?$AAn?$AA_?$AAe?$AAx?$AAp?$AAa?$AAn?$AAd?$AA_?$AAa@ 0000000180040768     libucrtd:argv_wildcards.obj
 0002:000057b0       ??_C@_1MC@FLPKOFON@?$AAt?$AAr?$AAa?$AAi?$AAt?$AAs?$AA?3?$AA?3?$AAt?$AAc?$AAs?$AAn?$AAc?$AAp?$AAy@ 00000001800407b0     libucrtd:argv_wildcards.obj
 0002:00005878       ??_C@_0DK@FPFMIIJB@minkernel?2crts?2ucrt?2src?2appcrt?2@ 0000000180040878     libucrtd:argv_wildcards.obj
 0002:000058c0       ??_C@_1EA@KOCCBLAD@?$AAc?$AAo?$AAp?$AAy?$AA_?$AAa?$AAn?$AAd?$AA_?$AAa?$AAd?$AAd?$AA_?$AAa?$AAr@ 00000001800408c0     libucrtd:argv_wildcards.obj
 0002:00005900       ??_C@_1KM@GDJIGAGL@?$AAt?$AAr?$AAa?$AAi?$AAt?$AAs?$AA?3?$AA?3?$AAt?$AAc?$AAs?$AAn?$AAc?$AAp?$AAy@ 0000000180040900     libucrtd:argv_wildcards.obj
 0002:000059b0       ??_C@_1PI@FGFLAGCC@?$AAt?$AAr?$AAa?$AAi?$AAt?$AAs?$AA?3?$AA?3?$AAt?$AAc?$AAs?$AAn?$AAc?$AAp?$AAy@ 00000001800409b0     libucrtd:argv_wildcards.obj
 0002:00005af0       ??_C@_1M@HPNHIDJI@?$AAj?$AAa?$AA?9?$AAJ?$AAP@ 0000000180040af0     libucrtd:mbctype.obj
 0002:00005b00       ??_C@_1M@BIBDDEMK@?$AAz?$AAh?$AA?9?$AAC?$AAN@ 0000000180040b00     libucrtd:mbctype.obj
 0002:00005b10       ??_C@_1M@JLOOOEGK@?$AAk?$AAo?$AA?9?$AAK?$AAR@ 0000000180040b10     libucrtd:mbctype.obj
 0002:00005b20       ??_C@_1M@CLNBBOPM@?$AAz?$AAh?$AA?9?$AAT?$AAW@ 0000000180040b20     libucrtd:mbctype.obj
 0002:00005b30       ??_C@_0DE@HGDKNBFD@minkernel?2crts?2ucrt?2src?2appcrt?2@ 0000000180040b30     libucrtd:mbctype.obj
 0002:00005b70       ??_C@_0ED@BLPEHJAI@minkernel?2crts?2ucrt?2src?2desktop@ 0000000180040b70     libucrtd:get_environment_from_os.obj
 0002:00005c60       ??_C@_1EA@JGEFHKEI@?$AAa?$AAp?$AAi?$AA?9?$AAm?$AAs?$AA?9?$AAw?$AAi?$AAn?$AA?9?$AAc?$AAo?$AAr?$AAe@ 0000000180040c60     libucrtd:winapi_thunks.obj
 0002:00005ca0       ??_C@_1DI@IJCEHOCB@?$AAa?$AAp?$AAi?$AA?9?$AAm?$AAs?$AA?9?$AAw?$AAi?$AAn?$AA?9?$AAc?$AAo?$AAr?$AAe@ 0000000180040ca0     libucrtd:winapi_thunks.obj
 0002:00005ce0       ??_C@_1EI@MPIAOHOC@?$AAa?$AAp?$AAi?$AA?9?$AAm?$AAs?$AA?9?$AAw?$AAi?$AAn?$AA?9?$AAc?$AAo?$AAr?$AAe@ 0000000180040ce0     libucrtd:winapi_thunks.obj
 0002:00005d30       ??_C@_1FK@FPHCKFIE@?$AAa?$AAp?$AAi?$AA?9?$AAm?$AAs?$AA?9?$AAw?$AAi?$AAn?$AA?9?$AAc?$AAo?$AAr?$AAe@ 0000000180040d30     libucrtd:winapi_thunks.obj
 0002:00005d90       ??_C@_1EM@DILCGIIO@?$AAa?$AAp?$AAi?$AA?9?$AAm?$AAs?$AA?9?$AAw?$AAi?$AAn?$AA?9?$AAc?$AAo?$AAr?$AAe@ 0000000180040d90     libucrtd:winapi_thunks.obj
 0002:00005de0       ??_C@_1DM@LNCGDDPN@?$AAa?$AAp?$AAi?$AA?9?$AAm?$AAs?$AA?9?$AAw?$AAi?$AAn?$AA?9?$AAc?$AAo?$AAr?$AAe@ 0000000180040de0     libucrtd:winapi_thunks.obj
 0002:00005e20       ??_C@_1DO@FPAPJEMD@?$AAa?$AAp?$AAi?$AA?9?$AAm?$AAs?$AA?9?$AAw?$AAi?$AAn?$AA?9?$AAc?$AAo?$AAr?$AAe@ 0000000180040e20     libucrtd:winapi_thunks.obj
 0002:00005e60       ??_C@_1DK@NDHNAHIO@?$AAa?$AAp?$AAi?$AA?9?$AAm?$AAs?$AA?9?$AAw?$AAi?$AAn?$AA?9?$AAc?$AAo?$AAr?$AAe@ 0000000180040e60     libucrtd:winapi_thunks.obj
 0002:00005ea0       ??_C@_1DM@KGHDGBCM@?$AAa?$AAp?$AAi?$AA?9?$AAm?$AAs?$AA?9?$AAw?$AAi?$AAn?$AA?9?$AAc?$AAo?$AAr?$AAe@ 0000000180040ea0     libucrtd:winapi_thunks.obj
 0002:00005ee0       ??_C@_1EO@IJIOEFOH@?$AAa?$AAp?$AAi?$AA?9?$AAm?$AAs?$AA?9?$AAw?$AAi?$AAn?$AA?9?$AAr?$AAt?$AAc?$AAo@ 0000000180040ee0     libucrtd:winapi_thunks.obj
 0002:00005f30       ??_C@_1FG@HHGEKANL@?$AAa?$AAp?$AAi?$AA?9?$AAm?$AAs?$AA?9?$AAw?$AAi?$AAn?$AA?9?$AAs?$AAe?$AAc?$AAu@ 0000000180040f30     libucrtd:winapi_thunks.obj
 0002:00005f90       ??_C@_1EG@DBIOJECG@?$AAe?$AAx?$AAt?$AA?9?$AAm?$AAs?$AA?9?$AAw?$AAi?$AAn?$AA?9?$AAn?$AAt?$AAu?$AAs@ 0000000180040f90     libucrtd:winapi_thunks.obj
 0002:00005fe0       ??_C@_1EO@FIHMJCLF@?$AAe?$AAx?$AAt?$AA?9?$AAm?$AAs?$AA?9?$AAw?$AAi?$AAn?$AA?9?$AAn?$AAt?$AAu?$AAs@ 0000000180040fe0     libucrtd:winapi_thunks.obj
 0002:00006030       ??_C@_1BC@DNHGCMLG@?$AAa?$AAd?$AAv?$AAa?$AAp?$AAi?$AA3?$AA2@ 0000000180041030     libucrtd:winapi_thunks.obj
 0002:00006048       ??_C@_1M@OAIMIKLP@?$AAn?$AAt?$AAd?$AAl?$AAl@ 0000000180041048     libucrtd:winapi_thunks.obj
 0002:00006060       ??_C@_1EG@DPGNFKGC@?$AAa?$AAp?$AAi?$AA?9?$AAm?$AAs?$AA?9?$AAw?$AAi?$AAn?$AA?9?$AAa?$AAp?$AAp?$AAm@ 0000000180041060     libucrtd:winapi_thunks.obj
 0002:000060a8       ??_C@_1O@BCCLBEOE@?$AAu?$AAs?$AAe?$AAr?$AA3?$AA2@ 00000001800410a8     libucrtd:winapi_thunks.obj
 0002:000060b8       ??_C@_1BA@IAIFMGEF@?$AAe?$AAx?$AAt?$AA?9?$AAm?$AAs?$AA?9@ 00000001800410b8     libucrtd:winapi_thunks.obj
 0002:000060d0       ??_C@_1HE@OILMBOBA@?$AAm?$AAi?$AAn?$AAk?$AAe?$AAr?$AAn?$AAe?$AAl?$AA?2?$AAc?$AAr?$AAt?$AAs?$AA?2@ 00000001800410d0     libucrtd:winapi_thunks.obj
 0002:00006148       ??_C@_0BA@FHFNEAED@AreFileApisANSI@ 0000000180041148     libucrtd:winapi_thunks.obj
 0002:00006180       ??_C@_0BA@HNOPNCHB@GetActiveWindow@ 0000000180041180     libucrtd:winapi_thunks.obj
 0002:00006198       ??_C@_0BD@HHGDFDBJ@GetLastActivePopup@ 0000000180041198     libucrtd:winapi_thunks.obj
 0002:000061b8       ??_C@_0BI@DFKBFLJE@GetProcessWindowStation@ 00000001800411b8     libucrtd:winapi_thunks.obj
 0002:000061d8       ??_C@_0BK@DEKFELLI@GetUserObjectInformationW@ 00000001800411d8     libucrtd:winapi_thunks.obj
 0002:00006208       ??_C@_0O@KKBNKAPF@LCMapStringEx@ 0000000180041208     libucrtd:winapi_thunks.obj
 0002:00006220       ??_C@_0BB@HBDEELFH@LocaleNameToLCID@ 0000000180041220     libucrtd:winapi_thunks.obj
 0002:00006240       ??_C@_0M@CHKKJDAI@MessageBoxA@ 0000000180041240     libucrtd:winapi_thunks.obj
 0002:00006258       ??_C@_0M@DLDCCGNP@MessageBoxW@ 0000000180041258     libucrtd:winapi_thunks.obj
 0002:00006268       ??_C@_0CF@OJOFEIGO@AppPolicyGetProcessTerminationM@ 0000000180041268     libucrtd:winapi_thunks.obj
 0002:00006298       ??_C@_0CE@OICFMIKE@AppPolicyGetShowDeveloperDiagno@ 0000000180041298     libucrtd:winapi_thunks.obj
 0002:000062c0       ??_C@_0BL@ODDJNEDA@AppPolicyGetWindowingModel@ 00000001800412c0     libucrtd:winapi_thunks.obj
 0002:000062e0       ??_C@_1DA@NBILLKNO@?$AAl?$AAo?$AAc?$AAa?$AAl?$AA_?$AAa?$AAc?$AAt?$AAi?$AAo?$AAn?$AA?5?$AA?$CB?$AA?$DN@ 00000001800412e0     libucrtd:signal.obj
 0002:00006310       ??_C@_1FO@CCGDPEKE@?$AAm?$AAi?$AAn?$AAk?$AAe?$AAr?$AAn?$AAe?$AAl?$AA?2?$AAc?$AAr?$AAt?$AAs?$AA?2@ 0000000180041310     libucrtd:signal.obj
 0002:00006370       ??_C@_1M@DMJEIKHL@?$AAr?$AAa?$AAi?$AAs?$AAe@ 0000000180041370     libucrtd:signal.obj
 0002:00006380       ??_C@_1DO@MLNEDKGB@?$AA?$CI?$AA?$CC?$AAI?$AAn?$AAv?$AAa?$AAl?$AAi?$AAd?$AA?5?$AAs?$AAi?$AAg?$AAn?$AAa@ 0000000180041380     libucrtd:signal.obj
 0002:000063c0       __lc_time_c                00000001800413c0     libucrtd:nlsdata.obj
 0002:00006680       ??_C@_03KOEHGMDN@Sun@      0000000180041680     libucrtd:nlsdata.obj
 0002:00006684       ??_C@_03PDAGKDH@Mon@       0000000180041684     libucrtd:nlsdata.obj
 0002:00006688       ??_C@_03NAGEINEP@Tue@      0000000180041688     libucrtd:nlsdata.obj
 0002:0000668c       ??_C@_03MHOMLAJA@Wed@      000000018004168c     libucrtd:nlsdata.obj
 0002:00006690       ??_C@_03IOFIKPDN@Thu@      0000000180041690     libucrtd:nlsdata.obj
 0002:00006694       ??_C@_03IDIOELNC@Fri@      0000000180041694     libucrtd:nlsdata.obj
 0002:00006698       ??_C@_03FEFJNEK@Sat@       0000000180041698     libucrtd:nlsdata.obj
 0002:0000669c       ??_C@_06OOPIFAJ@Sunday@    000000018004169c     libucrtd:nlsdata.obj
 0002:000066a4       ??_C@_06JLEDEDGH@Monday@   00000001800416a4     libucrtd:nlsdata.obj
 0002:000066b0       ??_C@_07BAAGCFCM@Tuesday@  00000001800416b0     libucrtd:nlsdata.obj
 0002:000066b8       ??_C@_09DLIGFAKA@Wednesday@ 00000001800416b8     libucrtd:nlsdata.obj
 0002:000066c8       ??_C@_08HACCIKIA@Thursday@ 00000001800416c8     libucrtd:nlsdata.obj
 0002:000066d4       ??_C@_06JECMNKMI@Friday@   00000001800416d4     libucrtd:nlsdata.obj
 0002:000066e0       ??_C@_08INBOOONO@Saturday@ 00000001800416e0     libucrtd:nlsdata.obj
 0002:000066ec       ??_C@_03JIHJHPIE@Jan@      00000001800416ec     libucrtd:nlsdata.obj
 0002:000066f0       ??_C@_03HJBDCHOM@Feb@      00000001800416f0     libucrtd:nlsdata.obj
 0002:000066f4       ??_C@_03ODNJBKGA@Mar@      00000001800416f4     libucrtd:nlsdata.obj
 0002:000066f8       ??_C@_03LEOLGMJP@Apr@      00000001800416f8     libucrtd:nlsdata.obj
 0002:000066fc       ??_C@_03CNMDKL@May@        00000001800416fc     libucrtd:nlsdata.obj
 0002:00006700       ??_C@_03IDFGHECI@Jun@      0000000180041700     libucrtd:nlsdata.obj
 0002:00006704       ??_C@_03LBGABGKK@Jul@      0000000180041704     libucrtd:nlsdata.obj
 0002:00006708       ??_C@_03IFJFEIGA@Aug@      0000000180041708     libucrtd:nlsdata.obj
 0002:0000670c       ??_C@_03GGCAPAJC@Sep@      000000018004170c     libucrtd:nlsdata.obj
 0002:00006710       ??_C@_03BMAOKBAD@Oct@      0000000180041710     libucrtd:nlsdata.obj
 0002:00006714       ??_C@_03JPJOFNIA@Nov@      0000000180041714     libucrtd:nlsdata.obj
 0002:00006718       ??_C@_03MKABNOCG@Dec@      0000000180041718     libucrtd:nlsdata.obj
 0002:00006720       ??_C@_07CGJPFGJA@January@  0000000180041720     libucrtd:nlsdata.obj
 0002:00006728       ??_C@_08GNJGEPFN@February@ 0000000180041728     libucrtd:nlsdata.obj
 0002:00006734       ??_C@_05HPCKOFNC@March@    0000000180041734     libucrtd:nlsdata.obj
 0002:0000673c       ??_C@_05DMJDNLEJ@April@    000000018004173c     libucrtd:nlsdata.obj
 0002:00006744       ??_C@_04CNLMGBGM@June@     0000000180041744     libucrtd:nlsdata.obj
 0002:0000674c       ??_C@_04MIEPOIFP@July@     000000018004174c     libucrtd:nlsdata.obj
 0002:00006754       ??_C@_06LBBHFDDG@August@   0000000180041754     libucrtd:nlsdata.obj
 0002:00006760       ??_C@_09BHHEALKD@September@ 0000000180041760     libucrtd:nlsdata.obj
 0002:00006770       ??_C@_07JJNFCEND@October@  0000000180041770     libucrtd:nlsdata.obj
 0002:00006778       ??_C@_08HCHEGEOA@November@ 0000000180041778     libucrtd:nlsdata.obj
 0002:00006788       ??_C@_08EDHMEBNP@December@ 0000000180041788     libucrtd:nlsdata.obj
 0002:00006794       ??_C@_02DEDBPAFC@AM@       0000000180041794     libucrtd:nlsdata.obj
 0002:00006798       ??_C@_02CJNFDJBF@PM@       0000000180041798     libucrtd:nlsdata.obj
 0002:000067a0       ??_C@_08BPBNCDIB@MM?1dd?1yy@ 00000001800417a0     libucrtd:nlsdata.obj
 0002:000067b0       ??_C@_0BE@CKGJFCPC@dddd?0?5MMMM?5dd?0?5yyyy@ 00000001800417b0     libucrtd:nlsdata.obj
 0002:000067c8       ??_C@_08JCCMCCIL@HH?3mm?3ss@ 00000001800417c8     libucrtd:nlsdata.obj
 0002:000067d8       ??_C@_17MBGCMIPB@?$AAS?$AAu?$AAn@ 00000001800417d8     libucrtd:nlsdata.obj
 0002:000067e0       ??_C@_17KBOMKBF@?$AAM?$AAo?$AAn@ 00000001800417e0     libucrtd:nlsdata.obj
 0002:000067e8       ??_C@_17BMKGEGOJ@?$AAT?$AAu?$AAe@ 00000001800417e8     libucrtd:nlsdata.obj
 0002:000067f0       ??_C@_17CJEDCEPE@?$AAW?$AAe?$AAd@ 00000001800417f0     libucrtd:nlsdata.obj
 0002:000067f8       ??_C@_17PDPHAADD@?$AAT?$AAh?$AAu@ 00000001800417f8     libucrtd:nlsdata.obj
 0002:00006800       ??_C@_17HFOLPPLP@?$AAF?$AAr?$AAi@ 0000000180041800     libucrtd:nlsdata.obj
 0002:00006808       ??_C@_17GGIBDPIH@?$AAS?$AAa?$AAt@ 0000000180041808     libucrtd:nlsdata.obj
 0002:00006810       ??_C@_1O@IHNHDHPB@?$AAS?$AAu?$AAn?$AAd?$AAa?$AAy@ 0000000180041810     libucrtd:nlsdata.obj
 0002:00006820       ??_C@_1O@MMNBFLIA@?$AAM?$AAo?$AAn?$AAd?$AAa?$AAy@ 0000000180041820     libucrtd:nlsdata.obj
 0002:00006830       ??_C@_1BA@ENFBFFEK@?$AAT?$AAu?$AAe?$AAs?$AAd?$AAa?$AAy@ 0000000180041830     libucrtd:nlsdata.obj
 0002:00006840       ??_C@_1BE@EBOGMDOH@?$AAW?$AAe?$AAd?$AAn?$AAe?$AAs?$AAd?$AAa?$AAy@ 0000000180041840     libucrtd:nlsdata.obj
 0002:00006858       ??_C@_1BC@HHMNLIHE@?$AAT?$AAh?$AAu?$AAr?$AAs?$AAd?$AAa?$AAy@ 0000000180041858     libucrtd:nlsdata.obj
 0002:00006870       ??_C@_1O@PDICJHAG@?$AAF?$AAr?$AAi?$AAd?$AAa?$AAy@ 0000000180041870     libucrtd:nlsdata.obj
 0002:00006880       ??_C@_1BC@ENMNNPAJ@?$AAS?$AAa?$AAt?$AAu?$AAr?$AAd?$AAa?$AAy@ 0000000180041880     libucrtd:nlsdata.obj
 0002:00006898       ??_C@_17DKNBKCHM@?$AAJ?$AAa?$AAn@ 0000000180041898     libucrtd:nlsdata.obj
 0002:000068a0       ??_C@_17LMDJEKJN@?$AAF?$AAe?$AAb@ 00000001800418a0     libucrtd:nlsdata.obj
 0002:000068a8       ??_C@_17CKNLEDEC@?$AAM?$AAa?$AAr@ 00000001800418a8     libucrtd:nlsdata.obj
 0002:000068b0       ??_C@_17LFPOIHDD@?$AAA?$AAp?$AAr@ 00000001800418b0     libucrtd:nlsdata.obj
 0002:000068b8       ??_C@_17PNNKMEED@?$AAM?$AAa?$AAy@ 00000001800418b8     libucrtd:nlsdata.obj
 0002:000068c0       ??_C@_17KCJGOCPB@?$AAJ?$AAu?$AAn@ 00000001800418c0     libucrtd:nlsdata.obj
 0002:000068c8       ??_C@_17IJPCKHK@?$AAJ?$AAu?$AAl@ 00000001800418c8     libucrtd:nlsdata.obj
 0002:000068d0       ??_C@_17ICPELBCN@?$AAA?$AAu?$AAg@ 00000001800418d0     libucrtd:nlsdata.obj
 0002:000068d8       ??_C@_17HCHCOKMG@?$AAS?$AAe?$AAp@ 00000001800418d8     libucrtd:nlsdata.obj
 0002:000068e0       ??_C@_17FNLKOI@?$AAO?$AAc?$AAt@ 00000001800418e0     libucrtd:nlsdata.obj
 0002:000068e8       ??_C@_17BBDMLCIG@?$AAN?$AAo?$AAv@ 00000001800418e8     libucrtd:nlsdata.obj
 0002:000068f0       ??_C@_17EGKACKIF@?$AAD?$AAe?$AAc@ 00000001800418f0     libucrtd:nlsdata.obj
 0002:000068f8       ??_C@_1BA@EFMEIEBA@?$AAJ?$AAa?$AAn?$AAu?$AAa?$AAr?$AAy@ 00000001800418f8     libucrtd:nlsdata.obj
 0002:00006908       ??_C@_1BC@JGDDFFAM@?$AAF?$AAe?$AAb?$AAr?$AAu?$AAa?$AAr?$AAy@ 0000000180041908     libucrtd:nlsdata.obj
 0002:00006920       ??_C@_1M@IKEENEDF@?$AAM?$AAa?$AAr?$AAc?$AAh@ 0000000180041920     libucrtd:nlsdata.obj
 0002:00006930       ??_C@_1M@GJNLMHFD@?$AAA?$AAp?$AAr?$AAi?$AAl@ 0000000180041930     libucrtd:nlsdata.obj
 0002:00006940       ??_C@_19EPFLPGAP@?$AAJ?$AAu?$AAn?$AAe@ 0000000180041940     libucrtd:nlsdata.obj
 0002:00006950       ??_C@_19BIFMLPCD@?$AAJ?$AAu?$AAl?$AAy@ 0000000180041950     libucrtd:nlsdata.obj
 0002:00006960       ??_C@_1O@PAHLKOAC@?$AAA?$AAu?$AAg?$AAu?$AAs?$AAt@ 0000000180041960     libucrtd:nlsdata.obj
 0002:00006970       ??_C@_1BE@DKAAMBJL@?$AAS?$AAe?$AAp?$AAt?$AAe?$AAm?$AAb?$AAe?$AAr@ 0000000180041970     libucrtd:nlsdata.obj
 0002:00006988       ??_C@_1BA@EPANDLNG@?$AAO?$AAc?$AAt?$AAo?$AAb?$AAe?$AAr@ 0000000180041988     libucrtd:nlsdata.obj
 0002:00006998       ??_C@_1BC@BGLIFPF@?$AAN?$AAo?$AAv?$AAe?$AAm?$AAb?$AAe?$AAr@ 0000000180041998     libucrtd:nlsdata.obj
 0002:000069b0       ??_C@_1BC@FEMKIFH@?$AAD?$AAe?$AAc?$AAe?$AAm?$AAb?$AAe?$AAr@ 00000001800419b0     libucrtd:nlsdata.obj
 0002:000069c4       ??_C@_15ODEHAHHF@?$AAA?$AAM@ 00000001800419c4     libucrtd:nlsdata.obj
 0002:000069cc       ??_C@_15CLMNNGEL@?$AAP?$AAM@ 00000001800419cc     libucrtd:nlsdata.obj
 0002:000069d8       ??_C@_1BC@IEBCMHCM@?$AAM?$AAM?$AA?1?$AAd?$AAd?$AA?1?$AAy?$AAy@ 00000001800419d8     libucrtd:nlsdata.obj
 0002:000069f0       ??_C@_1CI@KNAKOEBC@?$AAd?$AAd?$AAd?$AAd?$AA?0?$AA?5?$AAM?$AAM?$AAM?$AAM?$AA?5?$AAd?$AAd?$AA?0?$AA?5@ 00000001800419f0     libucrtd:nlsdata.obj
 0002:00006a18       ??_C@_1BC@GDGBMEMK@?$AAH?$AAH?$AA?3?$AAm?$AAm?$AA?3?$AAs?$AAs@ 0000000180041a18     libucrtd:nlsdata.obj
 0002:00006a30       ??_C@_1M@BMHNFIME@?$AAe?$AAn?$AA?9?$AAU?$AAS@ 0000000180041a30     libucrtd:nlsdata.obj
 0002:00006a40       ??_C@_1DC@OGOLMDEL@?$AAp?$AAu?$AAb?$AAl?$AAi?$AAc?$AA_?$AAs?$AAt?$AAr?$AAe?$AAa?$AAm?$AA?5?$AA?$CB@ 0000000180041a40     libucrtd:_sftbuf.obj
 0002:00006a78       ??_C@_1CI@JELMFMDH@?$AAc?$AA?5?$AA?$DO?$AA?$DN?$AA?5?$AA?9?$AA1?$AA?5?$AA?$CG?$AA?$CG?$AA?5?$AAc?$AA?5?$AA?$DM?$AA?$DN@ 0000000180041a78     libucrtd:isctype.obj
 0002:00006aa0       ??_C@_1GG@KPBGDFHJ@?$AAm?$AAi?$AAn?$AAk?$AAe?$AAr?$AAn?$AAe?$AAl?$AA?2?$AAc?$AAr?$AAt?$AAs?$AA?2@ 0000000180041aa0     libucrtd:isctype.obj
 0002:00006b10       ??_C@_1FO@GEKPJHID@?$AAm?$AAi?$AAn?$AAk?$AAe?$AAr?$AAn?$AAe?$AAl?$AA?2?$AAc?$AAr?$AAt?$AAs?$AA?2@ 0000000180041b10     libucrtd:expand.obj
 0002:00006b70       ??_C@_1BK@JMCGJOCC@?$AA_?$AAe?$AAx?$AAp?$AAa?$AAn?$AAd?$AA_?$AAb?$AAa?$AAs?$AAe@ 0000000180041b70     libucrtd:expand.obj
 0002:00006b90       ??_C@_1IC@DCNEKBE@?$AAm?$AAi?$AAn?$AAk?$AAe?$AAr?$AAn?$AAe?$AAl?$AA?2?$AAc?$AAr?$AAt?$AAs?$AA?2@ 0000000180041b90     libucrtd:report_runtime_error.obj
 0002:00006c18       ??_C@_1DI@BLFJHKKP@?$AA_?$AA_?$AAa?$AAc?$AAr?$AAt?$AA_?$AAr?$AAe?$AAp?$AAo?$AAr?$AAt?$AA_?$AAr@ 0000000180041c18     libucrtd:report_runtime_error.obj
 0002:00006c50       ??_C@_1LE@MHPGJGKE@?$AAw?$AAc?$AAs?$AAc?$AAp?$AAy?$AA_?$AAs?$AA?$CI?$AAo?$AAu?$AAt?$AAm?$AAs?$AAg@ 0000000180041c50     libucrtd:report_runtime_error.obj
 0002:00006d08       ??_C@_1DE@JNGNBFGO@?$AAR?$AAu?$AAn?$AAt?$AAi?$AAm?$AAe?$AA?5?$AAE?$AAr?$AAr?$AAo?$AAr?$AA?$CB?$AA?6@ 0000000180041d08     libucrtd:report_runtime_error.obj
 0002:00006d40       ??_C@_1HK@FJJNAABO@?$AAw?$AAc?$AAs?$AAc?$AAp?$AAy?$AA_?$AAs?$AA?$CI?$AAp?$AAr?$AAo?$AAg?$AAn?$AAa@ 0000000180041d40     libucrtd:report_runtime_error.obj
 0002:00006dc0       ??_C@_1HI@FLHKGEBE@?$AAw?$AAc?$AAs?$AAn?$AAc?$AAp?$AAy?$AA_?$AAs?$AA?$CI?$AAp?$AAc?$AAh?$AA?0?$AA?5@ 0000000180041dc0     libucrtd:report_runtime_error.obj
 0002:00006e40       ??_C@_1IG@MNNKBLBI@?$AAw?$AAc?$AAs?$AAc?$AAa?$AAt?$AA_?$AAs?$AA?$CI?$AAo?$AAu?$AAt?$AAm?$AAs?$AAg@ 0000000180041e40     libucrtd:report_runtime_error.obj
 0002:00006ed0       ??_C@_1IG@DFBBBDAN@?$AAw?$AAc?$AAs?$AAc?$AAa?$AAt?$AA_?$AAs?$AA?$CI?$AAo?$AAu?$AAt?$AAm?$AAs?$AAg@ 0000000180041ed0     libucrtd:report_runtime_error.obj
 0002:00006f60       ??_C@_1BBC@DECGKMGJ@?$AA_?$AAl?$AAo?$AAc?$AA_?$AAu?$AAp?$AAd?$AAa?$AAt?$AAe?$AA?4?$AAG?$AAe?$AAt@ 0000000180041f60     libucrtd:mbtowc.obj
 0002:00007080       ??_C@_1GE@CGIHMDEJ@?$AAm?$AAi?$AAn?$AAk?$AAe?$AAr?$AAn?$AAe?$AAl?$AA?2?$AAc?$AAr?$AAt?$AAs?$AA?2@ 0000000180042080     libucrtd:mbtowc.obj
 0002:000070f0       ??_C@_1HA@KNBGJAIN@?$AAU?$AAT?$AAF?$AA?9?$AA8?$AA?5?$AAi?$AAs?$AAn?$AA?8?$AAt?$AA?5?$AAs?$AAu?$AAp@ 00000001800420f0     libucrtd:mbtowc.obj
 0002:00007160       ??_C@_1BBA@EIIJPPL@?$AA_?$AAl?$AAo?$AAc?$AA_?$AAu?$AAp?$AAd?$AAa?$AAt?$AAe?$AA?4?$AAG?$AAe?$AAt@ 0000000180042160     libucrtd:mbtowc.obj
 0002:00007270       ??_C@_1IE@CDCHDACI@?$AA_?$AAl?$AAo?$AAc?$AA_?$AAu?$AAp?$AAd?$AAa?$AAt?$AAe?$AA?4?$AAG?$AAe?$AAt@ 0000000180042270     libucrtd:mbtowc.obj
 0002:000072f8       ??_C@_1DK@NBNOAGKB@?$AAd?$AAe?$AAs?$AAt?$AAi?$AAn?$AAa?$AAt?$AAi?$AAo?$AAn?$AA_?$AAc?$AAo?$AAu@ 00000001800422f8     libucrtd:wctomb.obj
 0002:00007340       ??_C@_1GE@FCCEPHFG@?$AAm?$AAi?$AAn?$AAk?$AAe?$AAr?$AAn?$AAe?$AAl?$AA?2?$AAc?$AAr?$AAt?$AAs?$AA?2@ 0000000180042340     libucrtd:wctomb.obj
 0002:000073a8       ??_C@_1BI@IEADNOHF@?$AA_?$AAw?$AAc?$AAt?$AAo?$AAm?$AAb?$AA_?$AAs?$AA_?$AAl@ 00000001800423a8     libucrtd:wctomb.obj
 0002:000073c0       ??_C@_1CM@ENFEGCNE@?$AAd?$AAe?$AAs?$AAt?$AAi?$AAn?$AAa?$AAt?$AAi?$AAo?$AAn?$AA_?$AAc?$AAo?$AAu@ 00000001800423c0     libucrtd:wctomb.obj
 0002:000074a0       ??_C@_03OEIAHPBN@INF@      00000001800424a0     libucrtd:cvt.obj
 0002:000074a4       ??_C@_03OJHLLCGB@inf@      00000001800424a4     libucrtd:cvt.obj
 0002:000074a8       ??_C@_03LKNCIKJB@NAN@      00000001800424a8     libucrtd:cvt.obj
 0002:000074ac       ??_C@_03LHCJEHON@nan@      00000001800424ac     libucrtd:cvt.obj
 0002:000074b0       ??_C@_09OFJJIMPC@NAN?$CISNAN?$CJ@ 00000001800424b0     libucrtd:cvt.obj
 0002:000074c0       ??_C@_09IPFBKMDL@nan?$CIsnan?$CJ@ 00000001800424c0     libucrtd:cvt.obj
 0002:000074d0       ??_C@_08IKHNHAJ@NAN?$CIIND?$CJ@ 00000001800424d0     libucrtd:cvt.obj
 0002:000074e0       ??_C@_08OFCDMILK@nan?$CIind?$CJ@ 00000001800424e0     libucrtd:cvt.obj
 0002:000074f0       ??_C@_1FO@GKAKAPLI@?$AAm?$AAi?$AAn?$AAk?$AAe?$AAr?$AAn?$AAe?$AAl?$AA?2?$AAc?$AAr?$AAt?$AAs?$AA?2@ 00000001800424f0     libucrtd:cvt.obj
 0002:00007550       ??_C@_1DE@EHGIGIDK@?$AAf?$AAp?$AA_?$AAf?$AAo?$AAr?$AAm?$AAa?$AAt?$AA_?$AAn?$AAa?$AAn?$AA_?$AAo@ 0000000180042550     libucrtd:cvt.obj
 0002:00007590       ??_C@_1LI@PCMLJPCO@?$AAs?$AAt?$AAr?$AAc?$AAp?$AAy?$AA_?$AAs?$AA?$CI?$AA?5?$AAr?$AAe?$AAs?$AAu?$AAl@ 0000000180042590     libucrtd:cvt.obj
 0002:00007650       ??_C@_1KO@LJHOFBCD@?$AAr?$AAe?$AAs?$AAu?$AAl?$AAt?$AA_?$AAb?$AAu?$AAf?$AAf?$AAe?$AAr?$AA_?$AAc@ 0000000180042650     libucrtd:cvt.obj
 0002:00007700       ??_C@_1CK@BOLHOMFO@?$AAf?$AAp?$AA_?$AAf?$AAo?$AAr?$AAm?$AAa?$AAt?$AA_?$AAe?$AA_?$AAi?$AAn?$AAt@ 0000000180042700     libucrtd:cvt.obj
 0002:00007730       ??_C@_1BBE@LHDOMEDC@?$AAs?$AAt?$AAr?$AAc?$AAp?$AAy?$AA_?$AAs?$AA?$CI?$AA?5?$AAp?$AA?0?$AA?5?$AAr?$AAe@ 0000000180042730     libucrtd:cvt.obj
 0002:00007844       ??_C@_05KLBDPFGC@e?$CL000@ 0000000180042844     libucrtd:cvt.obj
 0002:00007850       ??_C@_1IC@FILKPBAB@?$AAr?$AAe?$AAs?$AAu?$AAl?$AAt?$AA_?$AAb?$AAu?$AAf?$AAf?$AAe?$AAr?$AA_?$AAc@ 0000000180042850     libucrtd:cvt.obj
 0002:000078d8       ??_C@_1BI@PNBDLNBB@?$AAf?$AAp?$AA_?$AAf?$AAo?$AAr?$AAm?$AAa?$AAt?$AA_?$AAa@ 00000001800428d8     libucrtd:cvt.obj
 0002:000078f0       ??_C@_1DC@MGKAFPFD@?$AAr?$AAe?$AAs?$AAu?$AAl?$AAt?$AA_?$AAb?$AAu?$AAf?$AAf?$AAe?$AAr?$AA?5?$AA?$CB@ 00000001800428f0     libucrtd:cvt.obj
 0002:00007928       ??_C@_1CC@LDAHJAKK@?$AA_?$AA_?$AAa?$AAc?$AAr?$AAt?$AA_?$AAf?$AAp?$AA_?$AAf?$AAo?$AAr?$AAm?$AAa@ 0000000180042928     libucrtd:cvt.obj
 0002:00007950       ??_C@_1DA@NMLJJOCO@?$AAr?$AAe?$AAs?$AAu?$AAl?$AAt?$AA_?$AAb?$AAu?$AAf?$AAf?$AAe?$AAr?$AA_?$AAc@ 0000000180042950     libucrtd:cvt.obj
 0002:00007980       ??_C@_1DE@MNOPBCOK@?$AAs?$AAc?$AAr?$AAa?$AAt?$AAc?$AAh?$AA_?$AAb?$AAu?$AAf?$AAf?$AAe?$AAr?$AA?5@ 0000000180042980     libucrtd:cvt.obj
 0002:000079b8       ??_C@_1DC@CKBKNFKH@?$AAs?$AAc?$AAr?$AAa?$AAt?$AAc?$AAh?$AA_?$AAb?$AAu?$AAf?$AAf?$AAe?$AAr?$AA_@ 00000001800429b8     libucrtd:cvt.obj
 0002:000079f0       ??_C@_1EI@JAHBOGIM@?$AA?$CI?$AA?$CC?$AAU?$AAn?$AAs?$AAu?$AAp?$AAp?$AAo?$AAr?$AAt?$AAe?$AAd?$AA?5?$AAf@ 00000001800429f0     libucrtd:cvt.obj
 0002:00007a38       ??_C@_1BO@MHPFFFJJ@?$AAs?$AAt?$AAr?$AAe?$AAa?$AAm?$AA?4?$AAv?$AAa?$AAl?$AAi?$AAd?$AA?$CI?$AA?$CJ@ 0000000180042a38     libucrtd:fileno.obj
 0002:00007a60       ??_C@_1GA@KCAHHNGP@?$AAm?$AAi?$AAn?$AAk?$AAe?$AAr?$AAn?$AAe?$AAl?$AA?2?$AAc?$AAr?$AAt?$AAs?$AA?2@ 0000000180042a60     libucrtd:fileno.obj
 0002:00007ac0       ??_C@_1BA@JGHIEKKM@?$AA_?$AAf?$AAi?$AAl?$AAe?$AAn?$AAo@ 0000000180042ac0     libucrtd:fileno.obj
 0002:00007ad0       ??_C@_0CP@GDJHIDC@minkernel?2crts?2ucrt?2src?2appcrt?2@ 0000000180042ad0     libucrtd:_file.obj
 0002:00007b00       ??_C@_1GA@LFAOKOOP@?$AAm?$AAi?$AAn?$AAk?$AAe?$AAr?$AAn?$AAe?$AAl?$AA?2?$AAc?$AAr?$AAt?$AAs?$AA?2@ 0000000180042b00     libucrtd:dbgrptt.obj
 0002:00007b60       ??_C@_1CA@KHJHLKA@?$AA_?$AAV?$AAC?$AAr?$AAt?$AAD?$AAb?$AAg?$AAR?$AAe?$AAp?$AAo?$AAr?$AAt?$AAA@ 0000000180042b60     libucrtd:dbgrptt.obj
 0002:00007b80       ??_C@_1FA@JPHJBHEM@?$AA_?$AAi?$AAt?$AAo?$AAa?$AA_?$AAs?$AA?$CI?$AAn?$AAL?$AAi?$AAn?$AAe?$AA?0?$AA?5@ 0000000180042b80     libucrtd:dbgrptt.obj
 0002:00007bd0       ??_C@_0CG@BNGLOCEO@Second?5Chance?5Assertion?5Failed?3@ 0000000180042bd0     libucrtd:dbgrptt.obj
 0002:00007bf8       ??_C@_0P@DFJNDPOP@?$DMfile?5unknown?$DO@ 0000000180042bf8     libucrtd:dbgrptt.obj
 0002:00007c08       ??_C@_07BHGABMGB@?0?5Line?5@ 0000000180042c08     libucrtd:dbgrptt.obj
 0002:00007c10       ??_C@_01EEMJAFIK@?6@       0000000180042c10     libucrtd:dbgrptt.obj
 0002:00007c20       ??_C@_1JI@GAALPGBM@?$AAs?$AAt?$AAr?$AAc?$AAp?$AAy?$AA_?$AAs?$AA?$CI?$AAs?$AAz?$AAU?$AAs?$AAe?$AAr@ 0000000180042c20     libucrtd:dbgrptt.obj
 0002:00007cb8       ??_C@_0CL@EACFGMNB@_CrtDbgReport?3?5String?5too?5long?5@ 0000000180042cb8     libucrtd:dbgrptt.obj
 0002:00007cf0       ??_C@_1KK@GIGAEDMO@?$AAs?$AAt?$AAr?$AAc?$AAp?$AAy?$AA_?$AAs?$AA?$CI?$AAs?$AAz?$AAL?$AAi?$AAn?$AAe@ 0000000180042cf0     libucrtd:dbgrptt.obj
 0002:00007da0       ??_C@_0BD@CAENFOHP@Assertion?5failed?3?5@ 0000000180042da0     libucrtd:dbgrptt.obj
 0002:00007db8       ??_C@_0BC@LAIDCHCH@Assertion?5failed?$CB@ 0000000180042db8     libucrtd:dbgrptt.obj
 0002:00007dd0       ??_C@_1FK@NPGBPOFO@?$AAs?$AAt?$AAr?$AAc?$AAa?$AAt?$AA_?$AAs?$AA?$CI?$AAs?$AAz?$AAL?$AAi?$AAn?$AAe@ 0000000180042dd0     libucrtd:dbgrptt.obj
 0002:00007e30       ??_C@_1EI@CACDLAFK@?$AAs?$AAt?$AAr?$AAc?$AAa?$AAt?$AA_?$AAs?$AA?$CI?$AAs?$AAz?$AAL?$AAi?$AAn?$AAe@ 0000000180042e30     libucrtd:dbgrptt.obj
 0002:00007e78       ??_C@_01LIIJDEN@?$AN@      0000000180042e78     libucrtd:dbgrptt.obj
 0002:00007e80       ??_C@_1EI@LDHJEDO@?$AAs?$AAt?$AAr?$AAc?$AAa?$AAt?$AA_?$AAs?$AA?$CI?$AAs?$AAz?$AAL?$AAi?$AAn?$AAe@ 0000000180042e80     libucrtd:dbgrptt.obj
 0002:00007ec8       ??_C@_0M@IPILFDFN@?$CFs?$CI?$CFd?$CJ?5?3?5?$CFs@ 0000000180042ec8     libucrtd:dbgrptt.obj
 0002:00007ee0       ??_C@_1JG@CPKCIOEE@?$AAs?$AAt?$AAr?$AAc?$AAp?$AAy?$AA_?$AAs?$AA?$CI?$AAs?$AAz?$AAO?$AAu?$AAt?$AAM@ 0000000180042ee0     libucrtd:dbgrptt.obj
 0002:00007f80       ??_C@_1FI@IBIOIHEG@?$AAs?$AAt?$AAr?$AAc?$AAp?$AAy?$AA_?$AAs?$AA?$CI?$AAs?$AAz?$AAO?$AAu?$AAt?$AAM@ 0000000180042f80     libucrtd:dbgrptt.obj
 0002:00007fe0       ??_C@_1IM@OOKIFKOH@?$AAe?$AA?5?$AA?$DN?$AA?5?$AAm?$AAb?$AAs?$AAt?$AAo?$AAw?$AAc?$AAs?$AA_?$AAs?$AA?$CI@ 0000000180042fe0     libucrtd:dbgrptt.obj
 0002:00008070       ??_C@_1MC@IGEECMDB@?$AAw?$AAc?$AAs?$AAc?$AAp?$AAy?$AA_?$AAs?$AA?$CI?$AAs?$AAz?$AAO?$AAu?$AAt?$AAM@ 0000000180043070     libucrtd:dbgrptt.obj
 0002:00008140       ??_C@_1HO@PJOFIKFE@?$AA_?$AAC?$AAr?$AAt?$AAD?$AAb?$AAg?$AAR?$AAe?$AAp?$AAo?$AAr?$AAt?$AA?3?$AA?5@ 0000000180043140     libucrtd:dbgrptt.obj
 0002:000081c0       ??_C@_1CA@HPALHDOD@?$AA_?$AAV?$AAC?$AAr?$AAt?$AAD?$AAb?$AAg?$AAR?$AAe?$AAp?$AAo?$AAr?$AAt?$AAW@ 00000001800431c0     libucrtd:dbgrptt.obj
 0002:000081e0       ??_C@_1FA@CNLLOMHI@?$AA_?$AAi?$AAt?$AAo?$AAw?$AA_?$AAs?$AA?$CI?$AAn?$AAL?$AAi?$AAn?$AAe?$AA?0?$AA?5@ 00000001800431e0     libucrtd:dbgrptt.obj
 0002:00008230       ??_C@_1EM@MJFLEDMB@?$AAS?$AAe?$AAc?$AAo?$AAn?$AAd?$AA?5?$AAC?$AAh?$AAa?$AAn?$AAc?$AAe?$AA?5?$AAA@ 0000000180043230     libucrtd:dbgrptt.obj
 0002:00008280       ??_C@_1BO@OCHMLCAG@?$AA?$DM?$AAf?$AAi?$AAl?$AAe?$AA?5?$AAu?$AAn?$AAk?$AAn?$AAo?$AAw?$AAn?$AA?$DO@ 0000000180043280     libucrtd:dbgrptt.obj
 0002:000082a0       ??_C@_1BA@ELMMDCFC@?$AA?0?$AA?5?$AAL?$AAi?$AAn?$AAe?$AA?5@ 00000001800432a0     libucrtd:dbgrptt.obj
 0002:000082b0       ??_C@_13LBAGMAIH@?$AA?6@   00000001800432b0     libucrtd:dbgrptt.obj
 0002:000082c0       ??_C@_1JK@KHFABAEO@?$AAw?$AAc?$AAs?$AAc?$AAp?$AAy?$AA_?$AAs?$AA?$CI?$AAs?$AAz?$AAU?$AAs?$AAe?$AAr@ 00000001800432c0     libucrtd:dbgrptt.obj
 0002:00008360       ??_C@_1KO@DGAHENCH@?$AAw?$AAc?$AAs?$AAc?$AAp?$AAy?$AA_?$AAs?$AA?$CI?$AAs?$AAz?$AAL?$AAi?$AAn?$AAe@ 0000000180043360     libucrtd:dbgrptt.obj
 0002:00008410       ??_C@_1CG@FFFGGODN@?$AAA?$AAs?$AAs?$AAe?$AAr?$AAt?$AAi?$AAo?$AAn?$AA?5?$AAf?$AAa?$AAi?$AAl?$AAe@ 0000000180043410     libucrtd:dbgrptt.obj
 0002:00008438       ??_C@_1CE@OJBNHDMO@?$AAA?$AAs?$AAs?$AAe?$AAr?$AAt?$AAi?$AAo?$AAn?$AA?5?$AAf?$AAa?$AAi?$AAl?$AAe@ 0000000180043438     libucrtd:dbgrptt.obj
 0002:00008460       ??_C@_1FK@HPADHBBD@?$AAw?$AAc?$AAs?$AAc?$AAa?$AAt?$AA_?$AAs?$AA?$CI?$AAs?$AAz?$AAL?$AAi?$AAn?$AAe@ 0000000180043460     libucrtd:dbgrptt.obj
 0002:000084c0       ??_C@_1EK@NMDFGHMF@?$AAw?$AAc?$AAs?$AAc?$AAa?$AAt?$AA_?$AAs?$AA?$CI?$AAs?$AAz?$AAL?$AAi?$AAn?$AAe@ 00000001800434c0     libucrtd:dbgrptt.obj
 0002:0000850c       ??_C@_13CMNBPIDO@?$AA?$AN@ 000000018004350c     libucrtd:dbgrptt.obj
 0002:00008510       ??_C@_1EK@PHCBEDKB@?$AAw?$AAc?$AAs?$AAc?$AAa?$AAt?$AA_?$AAs?$AA?$CI?$AAs?$AAz?$AAL?$AAi?$AAn?$AAe@ 0000000180043510     libucrtd:dbgrptt.obj
 0002:00008560       ??_C@_1BM@GIBPMLNL@?$AA?$CF?$AAl?$AAs?$AA?$CI?$AA?$CF?$AAd?$AA?$CJ?$AA?5?$AA?3?$AA?5?$AA?$CF?$AAl?$AAs@ 0000000180043560     libucrtd:dbgrptt.obj
 0002:00008580       ??_C@_1JI@EACPGHID@?$AAw?$AAc?$AAs?$AAc?$AAp?$AAy?$AA_?$AAs?$AA?$CI?$AAs?$AAz?$AAO?$AAu?$AAt?$AAM@ 0000000180043580     libucrtd:dbgrptt.obj
 0002:00008620       ??_C@_1FI@DBAIJPJE@?$AAw?$AAc?$AAs?$AAc?$AAp?$AAy?$AA_?$AAs?$AA?$CI?$AAs?$AAz?$AAO?$AAu?$AAt?$AAM@ 0000000180043620     libucrtd:dbgrptt.obj
 0002:00008680       ??_C@_1IK@LEBMBAP@?$AAw?$AAc?$AAs?$AAt?$AAo?$AAm?$AAb?$AAs?$AA_?$AAs?$AA?$CI?$AAn?$AAu?$AAl?$AAl@ 0000000180043680     libucrtd:dbgrptt.obj
 0002:00008710       ??_C@_1MA@LBAMNNOB@?$AAs?$AAt?$AAr?$AAc?$AAp?$AAy?$AA_?$AAs?$AA?$CI?$AAs?$AAz?$AAO?$AAu?$AAt?$AAM@ 0000000180043710     libucrtd:dbgrptt.obj
 0002:000087d0       ??_C@_0DP@GNPEPHJD@_CrtDbgReport?3?5String?5too?5long?5@ 00000001800437d0     libucrtd:dbgrptt.obj
 0002:00008810       ??_C@_1IE@CPGKIAGP@?$AAw?$AAc?$AAs?$AAt?$AAo?$AAm?$AAb?$AAs?$AA_?$AAs?$AA?$CI?$AA?$CG?$AAr?$AAe?$AAt@ 0000000180043810     libucrtd:dbgrptt.obj
 0002:00008894       ??_C@_05HGHHAHAP@log10@    0000000180043894     libucrtd:fpexcept.obj
 0002:000088a0       ??_C@_1BKC@NBNHJIDM@?$AA?$CI?$AAp?$AAt?$AAl?$AAo?$AAc?$AAi?$AA?9?$AA?$DO?$AAl?$AAc?$AA_?$AAc?$AAa?$AAt@ 00000001800438a0     libucrtd:locale_refcounting.obj
 0002:00008a50       ??_C@_1HK@HCNMEOLA@?$AAm?$AAi?$AAn?$AAk?$AAe?$AAr?$AAn?$AAe?$AAl?$AA?2?$AAc?$AAr?$AAt?$AAs?$AA?2@ 0000000180043a50     libucrtd:locale_refcounting.obj
 0002:00008af8       ??_C@_1DI@OOEEHOBJ@?$AAb?$AAa?$AAs?$AAe?$AA?5?$AA?$CB?$AA?$DN?$AA?5?$AAn?$AAu?$AAl?$AAl?$AAp?$AAt?$AAr@ 0000000180043af8     libucrtd:qsort.obj
 0002:00008b30       ??_C@_1GA@KPPCKKGE@?$AAm?$AAi?$AAn?$AAk?$AAe?$AAr?$AAn?$AAe?$AAl?$AA?2?$AAc?$AAr?$AAt?$AAs?$AA?2@ 0000000180043b30     libucrtd:qsort.obj
 0002:00008b90       ??_C@_1M@INMHODIG@?$AAq?$AAs?$AAo?$AAr?$AAt@ 0000000180043b90     libucrtd:qsort.obj
 0002:00008ba0       ??_C@_1BE@NJBEBBME@?$AAw?$AAi?$AAd?$AAt?$AAh?$AA?5?$AA?$DO?$AA?5?$AA0@ 0000000180043ba0     libucrtd:qsort.obj
 0002:00008bb8       ??_C@_1CA@LIDFOMIN@?$AAc?$AAo?$AAm?$AAp?$AA?5?$AA?$CB?$AA?$DN?$AA?5?$AAn?$AAu?$AAl?$AAl?$AAp?$AAt?$AAr@ 0000000180043bb8     libucrtd:qsort.obj
 0002:00008bd8       ??_C@_1CC@CHNFGJIC@?$AAc?$AAo?$AAm?$AAm?$AAo?$AAn?$AA_?$AAt?$AAc?$AAs?$AAn?$AAc?$AAp?$AAy?$AA_@ 0000000180043bd8     libucrtd:wcsncpy_s.obj
 0002:00008c00       ??_C@_1CE@BLLJFLOH@?$AAs?$AAt?$AAr?$AAi?$AAn?$AAg?$AA?5?$AA?$CB?$AA?$DN?$AA?5?$AAn?$AAu?$AAl?$AAl?$AAp@ 0000000180043c00     libucrtd:mbsdec.obj
 0002:00008c30       ??_C@_1GO@DDOMFNGF@?$AAm?$AAi?$AAn?$AAk?$AAe?$AAr?$AAn?$AAe?$AAl?$AA?2?$AAc?$AAr?$AAt?$AAs?$AA?2@ 0000000180043c30     libucrtd:mbsdec.obj
 0002:00008ca0       ??_C@_1BE@KLNCOLCD@?$AA_?$AAm?$AAb?$AAs?$AAd?$AAe?$AAc?$AA_?$AAl@ 0000000180043ca0     libucrtd:mbsdec.obj
 0002:00008cb8       ??_C@_1CG@CMGPGAOD@?$AAc?$AAu?$AAr?$AAr?$AAe?$AAn?$AAt?$AA?5?$AA?$CB?$AA?$DN?$AA?5?$AAn?$AAu?$AAl?$AAl@ 0000000180043cb8     libucrtd:mbsdec.obj
 0002:00008ce0       ??_C@_1FE@KNPCCODH@?$AA?$CI?$AA?$CC?$AAC?$AAo?$AAr?$AAr?$AAu?$AAp?$AAt?$AAe?$AAd?$AA?5?$AAp?$AAo?$AAi@ 0000000180043ce0     libucrtd:getstringtypea.obj
 0002:00008d40       ??_C@_1EM@NOKMBKND@?$AAv?$AAc?$AAc?$AAr?$AAt?$AA?2?$AAv?$AAc?$AAr?$AAu?$AAn?$AAt?$AAi?$AAm?$AAe@ 0000000180043d40     libucrtd:getstringtypea.obj
 0002:00008d90       ??_C@_0DJ@HCPJODDK@minkernel?2crts?2ucrt?2src?2appcrt?2@ 0000000180043d90     libucrtd:getstringtypea.obj
 0002:00008dd0       ??_C@_0DH@IKPCBLP@minkernel?2crts?2ucrt?2src?2appcrt?2@ 0000000180043dd0     libucrtd:lcmapstringa.obj
 0002:00009c50       ??_C@_15EMKDOKLE@?$AAa?$AAr@ 0000000180044c50     libucrtd:lcidtoname_downlevel.obj
 0002:00009c58       ??_C@_15KNPADPLH@?$AAb?$AAg@ 0000000180044c58     libucrtd:lcidtoname_downlevel.obj
 0002:00009c60       ??_C@_15EDMHLDMO@?$AAc?$AAa@ 0000000180044c60     libucrtd:lcidtoname_downlevel.obj
 0002:00009c68       ??_C@_1O@BPEAJADD@?$AAz?$AAh?$AA?9?$AAC?$AAH?$AAS@ 0000000180044c68     libucrtd:lcidtoname_downlevel.obj
 0002:00009c78       ??_C@_15LJNHCMNK@?$AAc?$AAs@ 0000000180044c78     libucrtd:lcidtoname_downlevel.obj
 0002:00009c80       ??_C@_15FOMCIDHG@?$AAd?$AAa@ 0000000180044c80     libucrtd:lcidtoname_downlevel.obj
 0002:00009c88       ??_C@_15NBKABECB@?$AAd?$AAe@ 0000000180044c88     libucrtd:lcidtoname_downlevel.obj
 0002:00009c90       ??_C@_15GHPEIIAO@?$AAe?$AAl@ 0000000180044c90     libucrtd:lcidtoname_downlevel.obj
 0002:00009c98       ??_C@_15MNPNEAIF@?$AAe?$AAn@ 0000000180044c98     libucrtd:lcidtoname_downlevel.obj
 0002:00009ca0       ??_C@_15GPIOMPMH@?$AAe?$AAs@ 0000000180044ca0     libucrtd:lcidtoname_downlevel.obj
 0002:00009ca8       ??_C@_15NGLOAKJC@?$AAf?$AAi@ 0000000180044ca8     libucrtd:lcidtoname_downlevel.obj
 0002:00009cb0       ??_C@_15FBKGNKAM@?$AAf?$AAr@ 0000000180044cb0     libucrtd:lcidtoname_downlevel.obj
 0002:00009cb8       ??_C@_15KGGCNEFK@?$AAh?$AAe@ 0000000180044cb8     libucrtd:lcidtoname_downlevel.obj
 0002:00009cc0       ??_C@_15PGHLIDMF@?$AAh?$AAu@ 0000000180044cc0     libucrtd:lcidtoname_downlevel.obj
 0002:00009cc8       ??_C@_15BIEMAPLM@?$AAi?$AAs@ 0000000180044cc8     libucrtd:lcidtoname_downlevel.obj
 0002:00009cd0       ??_C@_15IFJLDHAF@?$AAi?$AAt@ 0000000180044cd0     libucrtd:lcidtoname_downlevel.obj
 0002:00009cd8       ??_C@_15GEMIOCAG@?$AAj?$AAa@ 0000000180044cd8     libucrtd:lcidtoname_downlevel.obj
 0002:00009ce0       ??_C@_15EPELEGJA@?$AAk?$AAo@ 0000000180044ce0     libucrtd:lcidtoname_downlevel.obj
 0002:00009ce8       ??_C@_15NDDHIMN@?$AAn?$AAl@ 0000000180044ce8     libucrtd:lcidtoname_downlevel.obj
 0002:00009cf0       ??_C@_15BPIGNHCD@?$AAn?$AAo@ 0000000180044cf0     libucrtd:lcidtoname_downlevel.obj
 0002:00009cf8       ??_C@_15DEOPBLCG@?$AAp?$AAl@ 0000000180044cf8     libucrtd:lcidtoname_downlevel.obj
 0002:00009d00       ??_C@_15KBECGEFG@?$AAp?$AAt@ 0000000180044d00     libucrtd:lcidtoname_downlevel.obj
 0002:00009d08       ??_C@_15GLJCBFMD@?$AAr?$AAo@ 0000000180044d08     libucrtd:lcidtoname_downlevel.obj
 0002:00009d10       ??_C@_15FEDGKCDI@?$AAr?$AAu@ 0000000180044d10     libucrtd:lcidtoname_downlevel.obj
 0002:00009d18       ??_C@_15GLKMLLHM@?$AAh?$AAr@ 0000000180044d18     libucrtd:lcidtoname_downlevel.obj
 0002:00009d20       ??_C@_15CPKMFBDB@?$AAs?$AAk@ 0000000180044d20     libucrtd:lcidtoname_downlevel.obj
 0002:00009d28       ??_C@_15BAAIOGMK@?$AAs?$AAq@ 0000000180044d28     libucrtd:lcidtoname_downlevel.obj
 0002:00009d30       ??_C@_15INNPNOHD@?$AAs?$AAv@ 0000000180044d30     libucrtd:lcidtoname_downlevel.obj
 0002:00009d38       ??_C@_15CABMMOGH@?$AAt?$AAh@ 0000000180044d38     libucrtd:lcidtoname_downlevel.obj
 0002:00009d40       ??_C@_15BPLIHJJM@?$AAt?$AAr@ 0000000180044d40     libucrtd:lcidtoname_downlevel.obj
 0002:00009d48       ??_C@_15NEOEKKDJ@?$AAu?$AAr@ 0000000180044d48     libucrtd:lcidtoname_downlevel.obj
 0002:00009d50       ??_C@_15NFICGAJK@?$AAi?$AAd@ 0000000180044d50     libucrtd:lcidtoname_downlevel.obj
 0002:00009d58       ??_C@_15PJPFLCCM@?$AAu?$AAk@ 0000000180044d58     libucrtd:lcidtoname_downlevel.obj
 0002:00009d60       ??_C@_15HPJPHDM@?$AAb?$AAe@ 0000000180044d60     libucrtd:lcidtoname_downlevel.obj
 0002:00009d68       ??_C@_15LCHLGJII@?$AAs?$AAl@ 0000000180044d68     libucrtd:lcidtoname_downlevel.obj
 0002:00009d70       ??_C@_15PCFJPHHO@?$AAe?$AAt@ 0000000180044d70     libucrtd:lcidtoname_downlevel.obj
 0002:00009d78       ??_C@_15HPFPGODN@?$AAl?$AAv@ 0000000180044d78     libucrtd:lcidtoname_downlevel.obj
 0002:00009d80       ??_C@_15NFFGKGLG@?$AAl?$AAt@ 0000000180044d80     libucrtd:lcidtoname_downlevel.obj
 0002:00009d88       ??_C@_15BDAKCCHN@?$AAf?$AAa@ 0000000180044d88     libucrtd:lcidtoname_downlevel.obj
 0002:00009d90       ??_C@_15NFGIAIAJ@?$AAv?$AAi@ 0000000180044d90     libucrtd:lcidtoname_downlevel.obj
 0002:00009d98       ??_C@_15LMKNDMHN@?$AAh?$AAy@ 0000000180044d98     libucrtd:lcidtoname_downlevel.obj
 0002:00009da0       ??_C@_15IJBHMCFL@?$AAa?$AAz@ 0000000180044da0     libucrtd:lcidtoname_downlevel.obj
 0002:00009da8       ??_C@_15EKOFJABL@?$AAe?$AAu@ 0000000180044da8     libucrtd:lcidtoname_downlevel.obj
 0002:00009db0       ??_C@_15BGHADCNK@?$AAm?$AAk@ 0000000180044db0     libucrtd:lcidtoname_downlevel.obj
 0002:00009db8       ??_C@_15JDNICKHM@?$AAa?$AAf@ 0000000180044db8     libucrtd:lcidtoname_downlevel.obj
 0002:00009dc0       ??_C@_15KPJEDBKD@?$AAk?$AAa@ 0000000180044dc0     libucrtd:lcidtoname_downlevel.obj
 0002:00009dc8       ??_C@_15PDNFFFEO@?$AAf?$AAo@ 0000000180044dc8     libucrtd:lcidtoname_downlevel.obj
 0002:00009dd0       ??_C@_15OMLEGLOC@?$AAh?$AAi@ 0000000180044dd0     libucrtd:lcidtoname_downlevel.obj
 0002:00009dd8       ??_C@_15IDNNENKK@?$AAm?$AAs@ 0000000180044dd8     libucrtd:lcidtoname_downlevel.obj
 0002:00009de0       ??_C@_15MACJNBMH@?$AAk?$AAk@ 0000000180044de0     libucrtd:lcidtoname_downlevel.obj
 0002:00009de8       ??_C@_15DKDJEOND@?$AAk?$AAy@ 0000000180044de8     libucrtd:lcidtoname_downlevel.obj
 0002:00009df0       ??_C@_15DFGDLJBG@?$AAs?$AAw@ 0000000180044df0     libucrtd:lcidtoname_downlevel.obj
 0002:00009df8       ??_C@_15BBFAICNG@?$AAu?$AAz@ 0000000180044df8     libucrtd:lcidtoname_downlevel.obj
 0002:00009e00       ??_C@_15DKNDCGEA@?$AAt?$AAt@ 0000000180044e00     libucrtd:lcidtoname_downlevel.obj
 0002:00009e08       ??_C@_15MGIFMDPL@?$AAp?$AAa@ 0000000180044e08     libucrtd:lcidtoname_downlevel.obj
 0002:00009e10       ??_C@_15HCNDBBA@?$AAg?$AAu@ 0000000180044e10     libucrtd:lcidtoname_downlevel.obj
 0002:00009e18       ??_C@_15FNBEIBON@?$AAt?$AAa@ 0000000180044e18     libucrtd:lcidtoname_downlevel.obj
 0002:00009e20       ??_C@_15NCHGBGLK@?$AAt?$AAe@ 0000000180044e20     libucrtd:lcidtoname_downlevel.obj
 0002:00009e28       ??_C@_15PHPHCBPF@?$AAk?$AAn@ 0000000180044e28     libucrtd:lcidtoname_downlevel.obj
 0002:00009e30       ??_C@_15DLGBCKMP@?$AAm?$AAr@ 0000000180044e30     libucrtd:lcidtoname_downlevel.obj
 0002:00009e38       ??_C@_15EABBLBFF@?$AAs?$AAa@ 0000000180044e38     libucrtd:lcidtoname_downlevel.obj
 0002:00009e40       ??_C@_15CBKOMCOI@?$AAm?$AAn@ 0000000180044e40     libucrtd:lcidtoname_downlevel.obj
 0002:00009e48       ??_C@_15CKDMCJAF@?$AAg?$AAl@ 0000000180044e48     libucrtd:lcidtoname_downlevel.obj
 0002:00009e50       ??_C@_17CNJFBPG@?$AAk?$AAo?$AAk@ 0000000180044e50     libucrtd:lcidtoname_downlevel.obj
 0002:00009e58       ??_C@_17FFBJICPL@?$AAs?$AAy?$AAr@ 0000000180044e58     libucrtd:lcidtoname_downlevel.obj
 0002:00009e60       ??_C@_17KPNDCPAF@?$AAd?$AAi?$AAv@ 0000000180044e60     libucrtd:lcidtoname_downlevel.obj
 0002:00009e68       ??_C@_1M@OKAHONE@?$AAa?$AAr?$AA?9?$AAS?$AAA@ 0000000180044e68     libucrtd:lcidtoname_downlevel.obj
 0002:00009e78       ??_C@_1M@FFFIGIGK@?$AAb?$AAg?$AA?9?$AAB?$AAG@ 0000000180044e78     libucrtd:lcidtoname_downlevel.obj
 0002:00009e88       ??_C@_1M@BJNKEDC@?$AAc?$AAa?$AA?9?$AAE?$AAS@ 0000000180044e88     libucrtd:lcidtoname_downlevel.obj
 0002:00009e98       ??_C@_1M@IJJHFJHA@?$AAc?$AAs?$AA?9?$AAC?$AAZ@ 0000000180044e98     libucrtd:lcidtoname_downlevel.obj
 0002:00009ea8       ??_C@_1M@CLPEOBGI@?$AAd?$AAa?$AA?9?$AAD?$AAK@ 0000000180044ea8     libucrtd:lcidtoname_downlevel.obj
 0002:00009eb8       ??_C@_1M@MCMADGCB@?$AAd?$AAe?$AA?9?$AAD?$AAE@ 0000000180044eb8     libucrtd:lcidtoname_downlevel.obj
 0002:00009ec8       ??_C@_1M@OOCKEMAM@?$AAe?$AAl?$AA?9?$AAG?$AAR@ 0000000180044ec8     libucrtd:lcidtoname_downlevel.obj
 0002:00009ed8       ??_C@_1M@DDNJFGID@?$AAf?$AAi?$AA?9?$AAF?$AAI@ 0000000180044ed8     libucrtd:lcidtoname_downlevel.obj
 0002:00009ee8       ??_C@_1M@GLIPPMAC@?$AAf?$AAr?$AA?9?$AAF?$AAR@ 0000000180044ee8     libucrtd:lcidtoname_downlevel.obj
 0002:00009ef8       ??_C@_1M@GFMCHPE@?$AAh?$AAe?$AA?9?$AAI?$AAL@ 0000000180044ef8     libucrtd:lcidtoname_downlevel.obj
 0002:00009f08       ??_C@_1M@MHLPGNKM@?$AAh?$AAu?$AA?9?$AAH?$AAU@ 0000000180044f08     libucrtd:lcidtoname_downlevel.obj
 0002:00009f18       ??_C@_1M@LPDDNNPN@?$AAi?$AAs?$AA?9?$AAI?$AAS@ 0000000180044f18     libucrtd:lcidtoname_downlevel.obj
 0002:00009f28       ??_C@_1M@MADIPODN@?$AAi?$AAt?$AA?9?$AAI?$AAT@ 0000000180044f28     libucrtd:lcidtoname_downlevel.obj
 0002:00009f38       ??_C@_1M@IHBJJGG@?$AAn?$AAl?$AA?9?$AAN?$AAL@ 0000000180044f38     libucrtd:lcidtoname_downlevel.obj
 0002:00009f48       ??_C@_1M@EANAGDL@?$AAn?$AAb?$AA?9?$AAN?$AAO@ 0000000180044f48     libucrtd:lcidtoname_downlevel.obj
 0002:00009f58       ??_C@_1M@NEIEMEGP@?$AAp?$AAl?$AA?9?$AAP?$AAL@ 0000000180044f58     libucrtd:lcidtoname_downlevel.obj
 0002:00009f68       ??_C@_1M@BOCFIGEP@?$AAp?$AAt?$AA?9?$AAB?$AAR@ 0000000180044f68     libucrtd:lcidtoname_downlevel.obj
 0002:00009f78       ??_C@_1M@IMPFOPBG@?$AAr?$AAo?$AA?9?$AAR?$AAO@ 0000000180044f78     libucrtd:lcidtoname_downlevel.obj
 0002:00009f88       ??_C@_1M@IDNNEJMM@?$AAr?$AAu?$AA?9?$AAR?$AAU@ 0000000180044f88     libucrtd:lcidtoname_downlevel.obj
 0002:00009f98       ??_C@_1M@LILEEOGM@?$AAh?$AAr?$AA?9?$AAH?$AAR@ 0000000180044f98     libucrtd:lcidtoname_downlevel.obj
 0002:00009fa8       ??_C@_1M@FKIFEHPB@?$AAs?$AAk?$AA?9?$AAS?$AAK@ 0000000180044fa8     libucrtd:lcidtoname_downlevel.obj
 0002:00009fb8       ??_C@_1M@LJMAMNPJ@?$AAs?$AAq?$AA?9?$AAA?$AAL@ 0000000180044fb8     libucrtd:lcidtoname_downlevel.obj
 0002:00009fc8       ??_C@_1M@GIAKDKJK@?$AAs?$AAv?$AA?9?$AAS?$AAE@ 0000000180044fc8     libucrtd:lcidtoname_downlevel.obj
 0002:00009fd8       ??_C@_1M@MKJKIKCL@?$AAt?$AAh?$AA?9?$AAT?$AAH@ 0000000180044fd8     libucrtd:lcidtoname_downlevel.obj
 0002:00009fe8       ??_C@_1M@MFLCCMPB@?$AAt?$AAr?$AA?9?$AAT?$AAR@ 0000000180044fe8     libucrtd:lcidtoname_downlevel.obj
 0002:00009ff8       ??_C@_1M@OIJHDKJN@?$AAu?$AAr?$AA?9?$AAP?$AAK@ 0000000180044ff8     libucrtd:lcidtoname_downlevel.obj
 0002:0000a008       ??_C@_1M@LHIPCIEK@?$AAi?$AAd?$AA?9?$AAI?$AAD@ 0000000180045008     libucrtd:lcidtoname_downlevel.obj
 0002:0000a018       ??_C@_1M@MFMOBGI@?$AAu?$AAk?$AA?9?$AAU?$AAA@ 0000000180045018     libucrtd:lcidtoname_downlevel.obj
 0002:0000a028       ??_C@_1M@OBGLJIPL@?$AAb?$AAe?$AA?9?$AAB?$AAY@ 0000000180045028     libucrtd:lcidtoname_downlevel.obj
 0002:0000a038       ??_C@_1M@BCFAJEAD@?$AAs?$AAl?$AA?9?$AAS?$AAI@ 0000000180045038     libucrtd:lcidtoname_downlevel.obj
 0002:0000a048       ??_C@_1M@FKFFEDDN@?$AAe?$AAt?$AA?9?$AAE?$AAE@ 0000000180045048     libucrtd:lcidtoname_downlevel.obj
 0002:0000a058       ??_C@_1M@KGKKAACI@?$AAl?$AAv?$AA?9?$AAL?$AAV@ 0000000180045058     libucrtd:lcidtoname_downlevel.obj
 0002:0000a068       ??_C@_1M@IFGBIJO@?$AAl?$AAt?$AA?9?$AAL?$AAT@ 0000000180045068     libucrtd:lcidtoname_downlevel.obj
 0002:0000a078       ??_C@_1M@FGEAHEDM@?$AAf?$AAa?$AA?9?$AAI?$AAR@ 0000000180045078     libucrtd:lcidtoname_downlevel.obj
 0002:0000a088       ??_C@_1M@KBMAIBFN@?$AAv?$AAi?$AA?9?$AAV?$AAN@ 0000000180045088     libucrtd:lcidtoname_downlevel.obj
 0002:0000a098       ??_C@_1M@GPCBKDJK@?$AAh?$AAy?$AA?9?$AAA?$AAM@ 0000000180045098     libucrtd:lcidtoname_downlevel.obj
 0002:0000a0a8       ??_C@_1BG@BECMDDJB@?$AAa?$AAz?$AA?9?$AAA?$AAZ?$AA?9?$AAL?$AAa?$AAt?$AAn@ 00000001800450a8     libucrtd:lcidtoname_downlevel.obj
 0002:0000a0c0       ??_C@_1M@MAOFCAEA@?$AAe?$AAu?$AA?9?$AAE?$AAS@ 00000001800450c0     libucrtd:lcidtoname_downlevel.obj
 0002:0000a0d0       ??_C@_1M@IGHABKPI@?$AAm?$AAk?$AA?9?$AAM?$AAK@ 00000001800450d0     libucrtd:lcidtoname_downlevel.obj
 0002:0000a0e0       ??_C@_1M@IAIGNEJG@?$AAt?$AAn?$AA?9?$AAZ?$AAA@ 00000001800450e0     libucrtd:lcidtoname_downlevel.obj
 0002:0000a0f0       ??_C@_1M@IIJCOJFA@?$AAx?$AAh?$AA?9?$AAZ?$AAA@ 00000001800450f0     libucrtd:lcidtoname_downlevel.obj
 0002:0000a100       ??_C@_1M@LGPJHNJH@?$AAz?$AAu?$AA?9?$AAZ?$AAA@ 0000000180045100     libucrtd:lcidtoname_downlevel.obj
 0002:0000a110       ??_C@_1M@HOKAOIO@?$AAa?$AAf?$AA?9?$AAZ?$AAA@ 0000000180045110     libucrtd:lcidtoname_downlevel.obj
 0002:0000a120       ??_C@_1M@DPCLHLIE@?$AAk?$AAa?$AA?9?$AAG?$AAE@ 0000000180045120     libucrtd:lcidtoname_downlevel.obj
 0002:0000a130       ??_C@_1M@BLKMHJBI@?$AAf?$AAo?$AA?9?$AAF?$AAO@ 0000000180045130     libucrtd:lcidtoname_downlevel.obj
 0002:0000a140       ??_C@_1M@LGGJAPPB@?$AAh?$AAi?$AA?9?$AAI?$AAN@ 0000000180045140     libucrtd:lcidtoname_downlevel.obj
 0002:0000a150       ??_C@_1M@FIKPIHFE@?$AAm?$AAt?$AA?9?$AAM?$AAT@ 0000000180045150     libucrtd:lcidtoname_downlevel.obj
 0002:0000a160       ??_C@_1M@HEGGPBFA@?$AAs?$AAe?$AA?9?$AAN?$AAO@ 0000000180045160     libucrtd:lcidtoname_downlevel.obj
 0002:0000a170       ??_C@_1M@EIBJEEPA@?$AAm?$AAs?$AA?9?$AAM?$AAY@ 0000000180045170     libucrtd:lcidtoname_downlevel.obj
 0002:0000a180       ??_C@_1M@FHLBGMPP@?$AAk?$AAk?$AA?9?$AAK?$AAZ@ 0000000180045180     libucrtd:lcidtoname_downlevel.obj
 0002:0000a190       ??_C@_1M@NGJJLCGI@?$AAk?$AAy?$AA?9?$AAK?$AAG@ 0000000180045190     libucrtd:lcidtoname_downlevel.obj
 0002:0000a1a0       ??_C@_1M@GIENNBFC@?$AAs?$AAw?$AA?9?$AAK?$AAE@ 00000001800451a0     libucrtd:lcidtoname_downlevel.obj
 0002:0000a1b0       ??_C@_1BG@NDGMJIMJ@?$AAu?$AAz?$AA?9?$AAU?$AAZ?$AA?9?$AAL?$AAa?$AAt?$AAn@ 00000001800451b0     libucrtd:lcidtoname_downlevel.obj
 0002:0000a1c8       ??_C@_1M@IDCCIHBC@?$AAt?$AAt?$AA?9?$AAR?$AAU@ 00000001800451c8     libucrtd:lcidtoname_downlevel.obj
 0002:0000a1d8       ??_C@_1M@LOICPMOJ@?$AAb?$AAn?$AA?9?$AAI?$AAN@ 00000001800451d8     libucrtd:lcidtoname_downlevel.obj
 0002:0000a1e8       ??_C@_1M@KPKKNEAH@?$AAp?$AAa?$AA?9?$AAI?$AAN@ 00000001800451e8     libucrtd:lcidtoname_downlevel.obj
 0002:0000a1f8       ??_C@_1M@PJGPPBOG@?$AAg?$AAu?$AA?9?$AAI?$AAN@ 00000001800451f8     libucrtd:lcidtoname_downlevel.obj
 0002:0000a208       ??_C@_1M@KMKMOPHI@?$AAt?$AAa?$AA?9?$AAI?$AAN@ 0000000180045208     libucrtd:lcidtoname_downlevel.obj
 0002:0000a218       ??_C@_1M@KFEHEPAC@?$AAt?$AAe?$AA?9?$AAI?$AAN@ 0000000180045218     libucrtd:lcidtoname_downlevel.obj
 0002:0000a228       ??_C@_1M@CDCLMGHI@?$AAk?$AAn?$AA?9?$AAI?$AAN@ 0000000180045228     libucrtd:lcidtoname_downlevel.obj
 0002:0000a238       ??_C@_1M@MIODLDKF@?$AAm?$AAl?$AA?9?$AAI?$AAN@ 0000000180045238     libucrtd:lcidtoname_downlevel.obj
 0002:0000a248       ??_C@_1M@PBIEACPO@?$AAm?$AAr?$AA?9?$AAI?$AAN@ 0000000180045248     libucrtd:lcidtoname_downlevel.obj
 0002:0000a258       ??_C@_1M@NIDEAGPH@?$AAs?$AAa?$AA?9?$AAI?$AAN@ 0000000180045258     libucrtd:lcidtoname_downlevel.obj
 0002:0000a268       ??_C@_1M@FHIHCBIO@?$AAm?$AAn?$AA?9?$AAM?$AAN@ 0000000180045268     libucrtd:lcidtoname_downlevel.obj
 0002:0000a278       ??_C@_1M@JAIJPENP@?$AAc?$AAy?$AA?9?$AAG?$AAB@ 0000000180045278     libucrtd:lcidtoname_downlevel.obj
 0002:0000a288       ??_C@_1M@PHGFBEPN@?$AAg?$AAl?$AA?9?$AAE?$AAS@ 0000000180045288     libucrtd:lcidtoname_downlevel.obj
 0002:0000a298       ??_C@_1O@KPIPDNCP@?$AAk?$AAo?$AAk?$AA?9?$AAI?$AAN@ 0000000180045298     libucrtd:lcidtoname_downlevel.obj
 0002:0000a2a8       ??_C@_1O@KNHJLDJA@?$AAs?$AAy?$AAr?$AA?9?$AAS?$AAY@ 00000001800452a8     libucrtd:lcidtoname_downlevel.obj
 0002:0000a2b8       ??_C@_1O@MKEKBLAH@?$AAd?$AAi?$AAv?$AA?9?$AAM?$AAV@ 00000001800452b8     libucrtd:lcidtoname_downlevel.obj
 0002:0000a2c8       ??_C@_1O@OHDCKDDF@?$AAq?$AAu?$AAz?$AA?9?$AAB?$AAO@ 00000001800452c8     libucrtd:lcidtoname_downlevel.obj
 0002:0000a2d8       ??_C@_1M@LEPJNLFD@?$AAn?$AAs?$AA?9?$AAZ?$AAA@ 00000001800452d8     libucrtd:lcidtoname_downlevel.obj
 0002:0000a2e8       ??_C@_1M@OMLEIIJB@?$AAm?$AAi?$AA?9?$AAN?$AAZ@ 00000001800452e8     libucrtd:lcidtoname_downlevel.obj
 0002:0000a2f8       ??_C@_1M@PMPEAILG@?$AAa?$AAr?$AA?9?$AAI?$AAQ@ 00000001800452f8     libucrtd:lcidtoname_downlevel.obj
 0002:0000a308       ??_C@_1M@CNKPNOEE@?$AAd?$AAe?$AA?9?$AAC?$AAH@ 0000000180045308     libucrtd:lcidtoname_downlevel.obj
 0002:0000a318       ??_C@_1M@LKMGMLKO@?$AAe?$AAn?$AA?9?$AAG?$AAB@ 0000000180045318     libucrtd:lcidtoname_downlevel.obj
 0002:0000a328       ??_C@_1M@PGKJFFGL@?$AAe?$AAs?$AA?9?$AAM?$AAX@ 0000000180045328     libucrtd:lcidtoname_downlevel.obj
 0002:0000a338       ??_C@_1M@DNNANBDC@?$AAf?$AAr?$AA?9?$AAB?$AAE@ 0000000180045338     libucrtd:lcidtoname_downlevel.obj
 0002:0000a348       ??_C@_1M@HLGMDFHM@?$AAi?$AAt?$AA?9?$AAC?$AAH@ 0000000180045348     libucrtd:lcidtoname_downlevel.obj
 0002:0000a358       ??_C@_1M@CLLBGJH@?$AAn?$AAl?$AA?9?$AAB?$AAE@ 0000000180045358     libucrtd:lcidtoname_downlevel.obj
 0002:0000a368       ??_C@_1M@BODBOGLF@?$AAn?$AAn?$AA?9?$AAN?$AAO@ 0000000180045368     libucrtd:lcidtoname_downlevel.obj
 0002:0000a378       ??_C@_1M@HFFAHKAD@?$AAp?$AAt?$AA?9?$AAP?$AAT@ 0000000180045378     libucrtd:lcidtoname_downlevel.obj
 0002:0000a388       ??_C@_1BG@LNOAKHIE@?$AAs?$AAr?$AA?9?$AAS?$AAP?$AA?9?$AAL?$AAa?$AAt?$AAn@ 0000000180045388     libucrtd:lcidtoname_downlevel.obj
 0002:0000a3a0       ??_C@_1M@HBMHBGAK@?$AAs?$AAv?$AA?9?$AAF?$AAI@ 00000001800453a0     libucrtd:lcidtoname_downlevel.obj
 0002:0000a3b0       ??_C@_1BG@DGCJGJBE@?$AAa?$AAz?$AA?9?$AAA?$AAZ?$AA?9?$AAC?$AAy?$AAr?$AAl@ 00000001800453b0     libucrtd:lcidtoname_downlevel.obj
 0002:0000a3c8       ??_C@_1M@KEJDAAHB@?$AAs?$AAe?$AA?9?$AAS?$AAE@ 00000001800453c8     libucrtd:lcidtoname_downlevel.obj
 0002:0000a3d8       ??_C@_1M@HEIBJJAD@?$AAm?$AAs?$AA?9?$AAB?$AAN@ 00000001800453d8     libucrtd:lcidtoname_downlevel.obj
 0002:0000a3e8       ??_C@_1BG@PBGJMCEM@?$AAu?$AAz?$AA?9?$AAU?$AAZ?$AA?9?$AAC?$AAy?$AAr?$AAl@ 00000001800453e8     libucrtd:lcidtoname_downlevel.obj
 0002:0000a400       ??_C@_1O@LAOBCMDF@?$AAq?$AAu?$AAz?$AA?9?$AAE?$AAC@ 0000000180045400     libucrtd:lcidtoname_downlevel.obj
 0002:0000a410       ??_C@_1M@POEEMAIO@?$AAa?$AAr?$AA?9?$AAE?$AAG@ 0000000180045410     libucrtd:lcidtoname_downlevel.obj
 0002:0000a420       ??_C@_1M@EFAKDEDL@?$AAz?$AAh?$AA?9?$AAH?$AAK@ 0000000180045420     libucrtd:lcidtoname_downlevel.obj
 0002:0000a430       ??_C@_1M@HKKIJHGI@?$AAd?$AAe?$AA?9?$AAA?$AAT@ 0000000180045430     libucrtd:lcidtoname_downlevel.obj
 0002:0000a440       ??_C@_1M@KBFBEHJF@?$AAe?$AAn?$AA?9?$AAA?$AAU@ 0000000180045440     libucrtd:lcidtoname_downlevel.obj
 0002:0000a450       ??_C@_1M@MNPLFAAH@?$AAe?$AAs?$AA?9?$AAE?$AAS@ 0000000180045450     libucrtd:lcidtoname_downlevel.obj
 0002:0000a460       ??_C@_1M@HJOOJFMA@?$AAf?$AAr?$AA?9?$AAC?$AAA@ 0000000180045460     libucrtd:lcidtoname_downlevel.obj
 0002:0000a470       ??_C@_1BG@JPOFPNAB@?$AAs?$AAr?$AA?9?$AAS?$AAP?$AA?9?$AAC?$AAy?$AAr?$AAl@ 0000000180045470     libucrtd:lcidtoname_downlevel.obj
 0002:0000a488       ??_C@_1M@LNFOCMOB@?$AAs?$AAe?$AA?9?$AAF?$AAI@ 0000000180045488     libucrtd:lcidtoname_downlevel.obj
 0002:0000a498       ??_C@_1O@MGJBOAMB@?$AAq?$AAu?$AAz?$AA?9?$AAP?$AAE@ 0000000180045498     libucrtd:lcidtoname_downlevel.obj
 0002:0000a4a8       ??_C@_1M@GJINLBOK@?$AAa?$AAr?$AA?9?$AAL?$AAY@ 00000001800454a8     libucrtd:lcidtoname_downlevel.obj
 0002:0000a4b8       ??_C@_1M@GGMNHJNL@?$AAz?$AAh?$AA?9?$AAS?$AAG@ 00000001800454b8     libucrtd:lcidtoname_downlevel.obj
 0002:0000a4c8       ??_C@_1M@HOIKODND@?$AAd?$AAe?$AA?9?$AAL?$AAU@ 00000001800454c8     libucrtd:lcidtoname_downlevel.obj
 0002:0000a4d8       ??_C@_1M@DDOCCGFG@?$AAe?$AAn?$AA?9?$AAC?$AAA@ 00000001800454d8     libucrtd:lcidtoname_downlevel.obj
 0002:0000a4e8       ??_C@_1M@BNOEMJLF@?$AAe?$AAs?$AA?9?$AAG?$AAT@ 00000001800454e8     libucrtd:lcidtoname_downlevel.obj
 0002:0000a4f8       ??_C@_1M@EOGNKEK@?$AAf?$AAr?$AA?9?$AAC?$AAH@ 00000001800454f8     libucrtd:lcidtoname_downlevel.obj
 0002:0000a508       ??_C@_1M@FLIDJFHL@?$AAh?$AAr?$AA?9?$AAB?$AAA@ 0000000180045508     libucrtd:lcidtoname_downlevel.obj
 0002:0000a518       ??_C@_1O@FMCELNAJ@?$AAs?$AAm?$AAj?$AA?9?$AAN?$AAO@ 0000000180045518     libucrtd:lcidtoname_downlevel.obj
 0002:0000a528       ??_C@_1M@JHGLJMGJ@?$AAa?$AAr?$AA?9?$AAD?$AAZ@ 0000000180045528     libucrtd:lcidtoname_downlevel.obj
 0002:0000a538       ??_C@_1M@JKKFDCNP@?$AAz?$AAh?$AA?9?$AAM?$AAO@ 0000000180045538     libucrtd:lcidtoname_downlevel.obj
 0002:0000a548       ??_C@_1M@GEEFALPE@?$AAd?$AAe?$AA?9?$AAL?$AAI@ 0000000180045548     libucrtd:lcidtoname_downlevel.obj
 0002:0000a558       ??_C@_1M@IGEOFBG@?$AAe?$AAn?$AA?9?$AAN?$AAZ@ 0000000180045558     libucrtd:lcidtoname_downlevel.obj
 0002:0000a568       ??_C@_1M@KDBONEHP@?$AAe?$AAs?$AA?9?$AAC?$AAR@ 0000000180045568     libucrtd:lcidtoname_downlevel.obj
 0002:0000a578       ??_C@_1M@FHMDOHNN@?$AAf?$AAr?$AA?9?$AAL?$AAU@ 0000000180045578     libucrtd:lcidtoname_downlevel.obj
 0002:0000a588       ??_C@_1BG@NFKKMAFG@?$AAb?$AAs?$AA?9?$AAB?$AAA?$AA?9?$AAL?$AAa?$AAt?$AAn@ 0000000180045588     libucrtd:lcidtoname_downlevel.obj
 0002:0000a5a0       ??_C@_1O@IMNBEMCI@?$AAs?$AAm?$AAj?$AA?9?$AAS?$AAE@ 00000001800455a0     libucrtd:lcidtoname_downlevel.obj
 0002:0000a5b0       ??_C@_1M@DHHMBNDP@?$AAa?$AAr?$AA?9?$AAM?$AAA@ 00000001800455b0     libucrtd:lcidtoname_downlevel.obj
 0002:0000a5c0       ??_C@_1M@BNBLJCGH@?$AAe?$AAn?$AA?9?$AAI?$AAE@ 00000001800455c0     libucrtd:lcidtoname_downlevel.obj
 0002:0000a5d0       ??_C@_1M@GEPAFMDL@?$AAe?$AAs?$AA?9?$AAP?$AAA@ 00000001800455d0     libucrtd:lcidtoname_downlevel.obj
 0002:0000a5e0       ??_C@_1M@OJONDMDL@?$AAf?$AAr?$AA?9?$AAM?$AAC@ 00000001800455e0     libucrtd:lcidtoname_downlevel.obj
 0002:0000a5f0       ??_C@_1BG@OBCNFJB@?$AAs?$AAr?$AA?9?$AAB?$AAA?$AA?9?$AAL?$AAa?$AAt?$AAn@ 00000001800455f0     libucrtd:lcidtoname_downlevel.obj
 0002:0000a608       ??_C@_1O@KEMEEGPO@?$AAs?$AAm?$AAa?$AA?9?$AAN?$AAO@ 0000000180045608     libucrtd:lcidtoname_downlevel.obj
 0002:0000a618       ??_C@_1M@ELMGFODK@?$AAa?$AAr?$AA?9?$AAT?$AAN@ 0000000180045618     libucrtd:lcidtoname_downlevel.obj
 0002:0000a628       ??_C@_1M@BHDLHFAF@?$AAe?$AAn?$AA?9?$AAZ?$AAA@ 0000000180045628     libucrtd:lcidtoname_downlevel.obj
 0002:0000a638       ??_C@_1M@BMGIGLIF@?$AAe?$AAs?$AA?9?$AAD?$AAO@ 0000000180045638     libucrtd:lcidtoname_downlevel.obj
 0002:0000a648       ??_C@_1BG@CMBHIPBE@?$AAs?$AAr?$AA?9?$AAB?$AAA?$AA?9?$AAC?$AAy?$AAr?$AAl@ 0000000180045648     libucrtd:lcidtoname_downlevel.obj
 0002:0000a660       ??_C@_1O@HEDBLHNP@?$AAs?$AAm?$AAa?$AA?9?$AAS?$AAE@ 0000000180045660     libucrtd:lcidtoname_downlevel.obj
 0002:0000a670       ??_C@_1M@DAGCADIM@?$AAa?$AAr?$AA?9?$AAO?$AAM@ 0000000180045670     libucrtd:lcidtoname_downlevel.obj
 0002:0000a680       ??_C@_1M@FODLMICG@?$AAe?$AAn?$AA?9?$AAJ?$AAM@ 0000000180045680     libucrtd:lcidtoname_downlevel.obj
 0002:0000a690       ??_C@_1M@DNMLCIHB@?$AAe?$AAs?$AA?9?$AAV?$AAE@ 0000000180045690     libucrtd:lcidtoname_downlevel.obj
 0002:0000a6a0       ??_C@_1O@EOKHMKJK@?$AAs?$AAm?$AAs?$AA?9?$AAF?$AAI@ 00000001800456a0     libucrtd:lcidtoname_downlevel.obj
 0002:0000a6b0       ??_C@_1M@CAFJMKOF@?$AAa?$AAr?$AA?9?$AAY?$AAE@ 00000001800456b0     libucrtd:lcidtoname_downlevel.obj
 0002:0000a6c0       ??_C@_1M@CBFHIJLI@?$AAe?$AAn?$AA?9?$AAC?$AAB@ 00000001800456c0     libucrtd:lcidtoname_downlevel.obj
 0002:0000a6d0       ??_C@_1M@BGNFLDN@?$AAe?$AAs?$AA?9?$AAC?$AAO@ 00000001800456d0     libucrtd:lcidtoname_downlevel.obj
 0002:0000a6e0       ??_C@_1O@JMPHMAMC@?$AAs?$AAm?$AAn?$AA?9?$AAF?$AAI@ 00000001800456e0     libucrtd:lcidtoname_downlevel.obj
 0002:0000a6f0       ??_C@_1M@JLANABKE@?$AAa?$AAr?$AA?9?$AAS?$AAY@ 00000001800456f0     libucrtd:lcidtoname_downlevel.obj
 0002:0000a700       ??_C@_1M@HPKGCFGN@?$AAe?$AAn?$AA?9?$AAB?$AAZ@ 0000000180045700     libucrtd:lcidtoname_downlevel.obj
 0002:0000a710       ??_C@_1M@OLJCMLGM@?$AAe?$AAs?$AA?9?$AAP?$AAE@ 0000000180045710     libucrtd:lcidtoname_downlevel.obj
 0002:0000a720       ??_C@_1M@MKKGFKLE@?$AAa?$AAr?$AA?9?$AAJ?$AAO@ 0000000180045720     libucrtd:lcidtoname_downlevel.obj
 0002:0000a730       ??_C@_1M@EKPGLDNI@?$AAe?$AAn?$AA?9?$AAT?$AAT@ 0000000180045730     libucrtd:lcidtoname_downlevel.obj
 0002:0000a740       ??_C@_1M@OONGHFHE@?$AAe?$AAs?$AA?9?$AAA?$AAR@ 0000000180045740     libucrtd:lcidtoname_downlevel.obj
 0002:0000a750       ??_C@_1M@OOJFGBHE@?$AAa?$AAr?$AA?9?$AAL?$AAB@ 0000000180045750     libucrtd:lcidtoname_downlevel.obj
 0002:0000a760       ??_C@_1M@GCEJHNEG@?$AAe?$AAn?$AA?9?$AAZ?$AAW@ 0000000180045760     libucrtd:lcidtoname_downlevel.obj
 0002:0000a770       ??_C@_1M@JNOCAHJI@?$AAe?$AAs?$AA?9?$AAE?$AAC@ 0000000180045770     libucrtd:lcidtoname_downlevel.obj
 0002:0000a780       ??_C@_1M@JEFHPGGB@?$AAa?$AAr?$AA?9?$AAK?$AAW@ 0000000180045780     libucrtd:lcidtoname_downlevel.obj
 0002:0000a790       ??_C@_1M@MLKIBJOJ@?$AAe?$AAn?$AA?9?$AAP?$AAH@ 0000000180045790     libucrtd:lcidtoname_downlevel.obj
 0002:0000a7a0       ??_C@_1M@BDNIPEND@?$AAe?$AAs?$AA?9?$AAC?$AAL@ 00000001800457a0     libucrtd:lcidtoname_downlevel.obj
 0002:0000a7b0       ??_C@_1M@MPNMEKBD@?$AAa?$AAr?$AA?9?$AAA?$AAE@ 00000001800457b0     libucrtd:lcidtoname_downlevel.obj
 0002:0000a7c0       ??_C@_1M@KBJALCPI@?$AAe?$AAs?$AA?9?$AAU?$AAY@ 00000001800457c0     libucrtd:lcidtoname_downlevel.obj
 0002:0000a7d0       ??_C@_1M@LLCCOAGA@?$AAa?$AAr?$AA?9?$AAB?$AAH@ 00000001800457d0     libucrtd:lcidtoname_downlevel.obj
 0002:0000a7e0       ??_C@_1M@PBFNCDEL@?$AAe?$AAs?$AA?9?$AAP?$AAY@ 00000001800457e0     libucrtd:lcidtoname_downlevel.obj
 0002:0000a7f0       ??_C@_1M@EDGINPNP@?$AAa?$AAr?$AA?9?$AAQ?$AAA@ 00000001800457f0     libucrtd:lcidtoname_downlevel.obj
 0002:0000a800       ??_C@_1M@MKDBIIJI@?$AAe?$AAs?$AA?9?$AAB?$AAO@ 0000000180045800     libucrtd:lcidtoname_downlevel.obj
 0002:0000a810       ??_C@_1M@CPKKEBLD@?$AAe?$AAs?$AA?9?$AAS?$AAV@ 0000000180045810     libucrtd:lcidtoname_downlevel.obj
 0002:0000a820       ??_C@_1M@NDBGMMJL@?$AAe?$AAs?$AA?9?$AAH?$AAN@ 0000000180045820     libucrtd:lcidtoname_downlevel.obj
 0002:0000a830       ??_C@_1M@JIJIBHDP@?$AAe?$AAs?$AA?9?$AAN?$AAI@ 0000000180045830     libucrtd:lcidtoname_downlevel.obj
 0002:0000a840       ??_C@_1M@CGFMKEEK@?$AAe?$AAs?$AA?9?$AAP?$AAR@ 0000000180045840     libucrtd:lcidtoname_downlevel.obj
 0002:0000a850       ??_C@_1O@ICJHKIIK@?$AAz?$AAh?$AA?9?$AAC?$AAH?$AAT@ 0000000180045850     libucrtd:lcidtoname_downlevel.obj
 0002:0000a860       ??_C@_15CLNEJCE@?$AAs?$AAr@ 0000000180045860     libucrtd:lcidtoname_downlevel.obj
 0002:0000b6b0       ??_C@_1M@KAHEKEIG@?$AAa?$AAf?$AA?9?$AAz?$AAa@ 00000001800466b0     libucrtd:lcidtoname_downlevel.obj
 0002:0000b6c0       ??_C@_1M@GIECOABL@?$AAa?$AAr?$AA?9?$AAa?$AAe@ 00000001800466c0     libucrtd:lcidtoname_downlevel.obj
 0002:0000b6d0       ??_C@_1M@BMLMEKGI@?$AAa?$AAr?$AA?9?$AAb?$AAh@ 00000001800466d0     libucrtd:lcidtoname_downlevel.obj
 0002:0000b6e0       ??_C@_1M@DAPFDGGB@?$AAa?$AAr?$AA?9?$AAd?$AAz@ 00000001800466e0     libucrtd:lcidtoname_downlevel.obj
 0002:0000b6f0       ??_C@_1M@FJNKGKIG@?$AAa?$AAr?$AA?9?$AAe?$AAg@ 00000001800466f0     libucrtd:lcidtoname_downlevel.obj
 0002:0000b700       ??_C@_1M@FLGKKCLO@?$AAa?$AAr?$AA?9?$AAi?$AAq@ 0000000180046700     libucrtd:lcidtoname_downlevel.obj
 0002:0000b710       ??_C@_1M@GNDIPALM@?$AAa?$AAr?$AA?9?$AAj?$AAo@ 0000000180046710     libucrtd:lcidtoname_downlevel.obj
 0002:0000b720       ??_C@_1M@DDMJFMGJ@?$AAa?$AAr?$AA?9?$AAk?$AAw@ 0000000180046720     libucrtd:lcidtoname_downlevel.obj
 0002:0000b730       ??_C@_1M@EJALMLHM@?$AAa?$AAr?$AA?9?$AAl?$AAb@ 0000000180046730     libucrtd:lcidtoname_downlevel.obj
 0002:0000b740       ??_C@_1M@MOBDBLOC@?$AAa?$AAr?$AA?9?$AAl?$AAy@ 0000000180046740     libucrtd:lcidtoname_downlevel.obj
 0002:0000b750       ??_C@_1M@JAOCLHDH@?$AAa?$AAr?$AA?9?$AAm?$AAa@ 0000000180046750     libucrtd:lcidtoname_downlevel.obj
 0002:0000b760       ??_C@_1M@JHPMKJIE@?$AAa?$AAr?$AA?9?$AAo?$AAm@ 0000000180046760     libucrtd:lcidtoname_downlevel.obj
 0002:0000b770       ??_C@_1M@OEPGHFNH@?$AAa?$AAr?$AA?9?$AAq?$AAa@ 0000000180046770     libucrtd:lcidtoname_downlevel.obj
 0002:0000b780       ??_C@_1M@KJDONENM@?$AAa?$AAr?$AA?9?$AAs?$AAa@ 0000000180046780     libucrtd:lcidtoname_downlevel.obj
 0002:0000b790       ??_C@_1M@DMJDKLKM@?$AAa?$AAr?$AA?9?$AAs?$AAy@ 0000000180046790     libucrtd:lcidtoname_downlevel.obj
 0002:0000b7a0       ??_C@_1M@OMFIPEDC@?$AAa?$AAr?$AA?9?$AAt?$AAn@ 00000001800467a0     libucrtd:lcidtoname_downlevel.obj
 0002:0000b7b0       ??_C@_1M@IHMHGAON@?$AAa?$AAr?$AA?9?$AAy?$AAe@ 00000001800467b0     libucrtd:lcidtoname_downlevel.obj
 0002:0000b7c0       ??_C@_1BG@KDCPGJGB@?$AAa?$AAz?$AA?9?$AAa?$AAz?$AA?9?$AAc?$AAy?$AAr?$AAl@ 00000001800467c0     libucrtd:lcidtoname_downlevel.obj
 0002:0000b7d8       ??_C@_1BG@IBCKDDOE@?$AAa?$AAz?$AA?9?$AAa?$AAz?$AA?9?$AAl?$AAa?$AAt?$AAn@ 00000001800467d8     libucrtd:lcidtoname_downlevel.obj
 0002:0000b7f0       ??_C@_1M@EGPFDCPD@?$AAb?$AAe?$AA?9?$AAb?$AAy@ 00000001800467f0     libucrtd:lcidtoname_downlevel.obj
 0002:0000b800       ??_C@_1M@PCMGMCGC@?$AAb?$AAg?$AA?9?$AAb?$AAg@ 0000000180046800     libucrtd:lcidtoname_downlevel.obj
 0002:0000b810       ??_C@_1M@BJBMFGOB@?$AAb?$AAn?$AA?9?$AAi?$AAn@ 0000000180046810     libucrtd:lcidtoname_downlevel.obj
 0002:0000b820       ??_C@_1BG@EAKMMACD@?$AAb?$AAs?$AA?9?$AAb?$AAa?$AA?9?$AAl?$AAa?$AAt?$AAn@ 0000000180046820     libucrtd:lcidtoname_downlevel.obj
 0002:0000b838       ??_C@_1M@KGADAODK@?$AAc?$AAa?$AA?9?$AAe?$AAs@ 0000000180046838     libucrtd:lcidtoname_downlevel.obj
 0002:0000b848       ??_C@_1M@COAJPDHI@?$AAc?$AAs?$AA?9?$AAc?$AAz@ 0000000180046848     libucrtd:lcidtoname_downlevel.obj
 0002:0000b858       ??_C@_1M@DHBHFONH@?$AAc?$AAy?$AA?9?$AAg?$AAb@ 0000000180046858     libucrtd:lcidtoname_downlevel.obj
 0002:0000b868       ??_C@_1M@IMGKELGA@?$AAd?$AAa?$AA?9?$AAd?$AAk@ 0000000180046868     libucrtd:lcidtoname_downlevel.obj
 0002:0000b878       ??_C@_1M@NNDGDNGA@?$AAd?$AAe?$AA?9?$AAa?$AAt@ 0000000180046878     libucrtd:lcidtoname_downlevel.obj
 0002:0000b888       ??_C@_1M@IKDBHEEM@?$AAd?$AAe?$AA?9?$AAc?$AAh@ 0000000180046888     libucrtd:lcidtoname_downlevel.obj
 0002:0000b898       ??_C@_1M@GFFOJMCJ@?$AAd?$AAe?$AA?9?$AAd?$AAe@ 0000000180046898     libucrtd:lcidtoname_downlevel.obj
 0002:0000b8a8       ??_C@_1M@MDNLKBPM@?$AAd?$AAe?$AA?9?$AAl?$AAi@ 00000001800468a8     libucrtd:lcidtoname_downlevel.obj
 0002:0000b8b8       ??_C@_1M@NJBEEJNL@?$AAd?$AAe?$AA?9?$AAl?$AAu@ 00000001800468b8     libucrtd:lcidtoname_downlevel.obj
 0002:0000b8c8       ??_C@_1O@GNNELBAP@?$AAd?$AAi?$AAv?$AA?9?$AAm?$AAv@ 00000001800468c8     libucrtd:lcidtoname_downlevel.obj
 0002:0000b8d8       ??_C@_1M@EJLEOGAE@?$AAe?$AAl?$AA?9?$AAg?$AAr@ 00000001800468d8     libucrtd:lcidtoname_downlevel.obj
 0002:0000b8e8       ??_C@_1M@GMPONJN@?$AAe?$AAn?$AA?9?$AAa?$AAu@ 00000001800468e8     libucrtd:lcidtoname_downlevel.obj
 0002:0000b8f8       ??_C@_1M@NIDIIPGF@?$AAe?$AAn?$AA?9?$AAb?$AAz@ 00000001800468f8     libucrtd:lcidtoname_downlevel.obj
 0002:0000b908       ??_C@_1M@JEHMIMFO@?$AAe?$AAn?$AA?9?$AAc?$AAa@ 0000000180046908     libucrtd:lcidtoname_downlevel.obj
 0002:0000b918       ??_C@_1M@IGMJCDLA@?$AAe?$AAn?$AA?9?$AAc?$AAb@ 0000000180046918     libucrtd:lcidtoname_downlevel.obj
 0002:0000b928       ??_C@_1M@BNFIGBKG@?$AAe?$AAn?$AA?9?$AAg?$AAb@ 0000000180046928     libucrtd:lcidtoname_downlevel.obj
 0002:0000b938       ??_C@_1M@LKIFDIGP@?$AAe?$AAn?$AA?9?$AAi?$AAe@ 0000000180046938     libucrtd:lcidtoname_downlevel.obj
 0002:0000b948       ??_C@_1M@PJKFGCCO@?$AAe?$AAn?$AA?9?$AAj?$AAm@ 0000000180046948     libucrtd:lcidtoname_downlevel.obj
 0002:0000b958       ??_C@_1M@KPPKEPBO@?$AAe?$AAn?$AA?9?$AAn?$AAz@ 0000000180046958     libucrtd:lcidtoname_downlevel.obj
 0002:0000b968       ??_C@_1M@GMDGLDOB@?$AAe?$AAn?$AA?9?$AAp?$AAh@ 0000000180046968     libucrtd:lcidtoname_downlevel.obj
 0002:0000b978       ??_C@_1M@ONGIBJNA@?$AAe?$AAn?$AA?9?$AAt?$AAt@ 0000000180046978     libucrtd:lcidtoname_downlevel.obj
 0002:0000b988       ??_C@_1M@LLODPCMM@?$AAe?$AAn?$AA?9?$AAu?$AAs@ 0000000180046988     libucrtd:lcidtoname_downlevel.obj
 0002:0000b998       ??_C@_1M@LAKFNPAN@?$AAe?$AAn?$AA?9?$AAz?$AAa@ 0000000180046998     libucrtd:lcidtoname_downlevel.obj
 0002:0000b9a8       ??_C@_1M@MFNHNHEO@?$AAe?$AAn?$AA?9?$AAz?$AAw@ 00000001800469a8     libucrtd:lcidtoname_downlevel.obj
 0002:0000b9b8       ??_C@_1M@EJEINPHM@?$AAe?$AAs?$AA?9?$AAa?$AAr@ 00000001800469b8     libucrtd:lcidtoname_downlevel.obj
 0002:0000b9c8       ??_C@_1M@GNKPCCJA@?$AAe?$AAs?$AA?9?$AAb?$AAo@ 00000001800469c8     libucrtd:lcidtoname_downlevel.obj
 0002:0000b9d8       ??_C@_1M@LEEGFONL@?$AAe?$AAs?$AA?9?$AAc?$AAl@ 00000001800469d8     libucrtd:lcidtoname_downlevel.obj
 0002:0000b9e8       ??_C@_1M@KGPDPBDF@?$AAe?$AAs?$AA?9?$AAc?$AAo@ 00000001800469e8     libucrtd:lcidtoname_downlevel.obj
 0002:0000b9f8       ??_C@_1M@EIAHOHH@?$AAe?$AAs?$AA?9?$AAc?$AAr@ 00000001800469f8     libucrtd:lcidtoname_downlevel.obj
 0002:0000ba08       ??_C@_1M@LLPGMBIN@?$AAe?$AAs?$AA?9?$AAd?$AAo@ 0000000180046a08     libucrtd:lcidtoname_downlevel.obj
 0002:0000ba18       ??_C@_1M@DKHMKNJA@?$AAe?$AAs?$AA?9?$AAe?$AAc@ 0000000180046a18     libucrtd:lcidtoname_downlevel.obj
 0002:0000ba28       ??_C@_1M@GKGFPKAP@?$AAe?$AAs?$AA?9?$AAe?$AAs@ 0000000180046a28     libucrtd:lcidtoname_downlevel.obj
 0002:0000ba38       ??_C@_1M@LKHKGDLN@?$AAe?$AAs?$AA?9?$AAg?$AAt@ 0000000180046a38     libucrtd:lcidtoname_downlevel.obj
 0002:0000ba48       ??_C@_1M@HEIIGGJD@?$AAe?$AAs?$AA?9?$AAh?$AAn@ 0000000180046a48     libucrtd:lcidtoname_downlevel.obj
 0002:0000ba58       ??_C@_1M@FBDHPPGD@?$AAe?$AAs?$AA?9?$AAm?$AAx@ 0000000180046a58     libucrtd:lcidtoname_downlevel.obj
 0002:0000ba68       ??_C@_1M@DPAGLNDH@?$AAe?$AAs?$AA?9?$AAn?$AAi@ 0000000180046a68     libucrtd:lcidtoname_downlevel.obj
 0002:0000ba78       ??_C@_1M@MDGOPGDD@?$AAe?$AAs?$AA?9?$AAp?$AAa@ 0000000180046a78     libucrtd:lcidtoname_downlevel.obj
 0002:0000ba88       ??_C@_1M@EMAMGBGE@?$AAe?$AAs?$AA?9?$AAp?$AAe@ 0000000180046a88     libucrtd:lcidtoname_downlevel.obj
 0002:0000ba98       ??_C@_1M@IBMCAOEC@?$AAe?$AAs?$AA?9?$AAp?$AAr@ 0000000180046a98     libucrtd:lcidtoname_downlevel.obj
 0002:0000baa8       ??_C@_1M@FGMDIJED@?$AAe?$AAs?$AA?9?$AAp?$AAy@ 0000000180046aa8     libucrtd:lcidtoname_downlevel.obj
 0002:0000bab8       ??_C@_1M@IIDEOLLL@?$AAe?$AAs?$AA?9?$AAs?$AAv@ 0000000180046ab8     libucrtd:lcidtoname_downlevel.obj
 0002:0000bac8       ??_C@_1M@GAOBIPA@?$AAe?$AAs?$AA?9?$AAu?$AAy@ 0000000180046ac8     libucrtd:lcidtoname_downlevel.obj
 0002:0000bad8       ??_C@_1M@JKFFICHJ@?$AAe?$AAs?$AA?9?$AAv?$AAe@ 0000000180046ad8     libucrtd:lcidtoname_downlevel.obj
 0002:0000bae8       ??_C@_1M@PNMLOJDF@?$AAe?$AAt?$AA?9?$AAe?$AAe@ 0000000180046ae8     libucrtd:lcidtoname_downlevel.obj
 0002:0000baf8       ??_C@_1M@GHHLIKEI@?$AAe?$AAu?$AA?9?$AAe?$AAs@ 0000000180046af8     libucrtd:lcidtoname_downlevel.obj
 0002:0000bb08       ??_C@_1M@PBNONODE@?$AAf?$AAa?$AA?9?$AAi?$AAr@ 0000000180046b08     libucrtd:lcidtoname_downlevel.obj
 0002:0000bb18       ??_C@_1M@JEEHPMIL@?$AAf?$AAi?$AA?9?$AAf?$AAi@ 0000000180046b18     libucrtd:lcidtoname_downlevel.obj
 0002:0000bb28       ??_C@_1M@LMDCNDBA@?$AAf?$AAo?$AA?9?$AAf?$AAo@ 0000000180046b28     libucrtd:lcidtoname_downlevel.obj
 0002:0000bb38       ??_C@_1M@JKEOHLDK@?$AAf?$AAr?$AA?9?$AAb?$AAe@ 0000000180046b38     libucrtd:lcidtoname_downlevel.obj
 0002:0000bb48       ??_C@_1M@NOHADPMI@?$AAf?$AAr?$AA?9?$AAc?$AAa@ 0000000180046b48     libucrtd:lcidtoname_downlevel.obj
 0002:0000bb58       ??_C@_1M@KDHIHAEC@?$AAf?$AAr?$AA?9?$AAc?$AAh@ 0000000180046b58     libucrtd:lcidtoname_downlevel.obj
 0002:0000bb68       ??_C@_1M@MMBBFGAK@?$AAf?$AAr?$AA?9?$AAf?$AAr@ 0000000180046b68     libucrtd:lcidtoname_downlevel.obj
 0002:0000bb78       ??_C@_1M@PAFNENNF@?$AAf?$AAr?$AA?9?$AAl?$AAu@ 0000000180046b78     libucrtd:lcidtoname_downlevel.obj
 0002:0000bb88       ??_C@_1M@EOHDJGDD@?$AAf?$AAr?$AA?9?$AAm?$AAc@ 0000000180046b88     libucrtd:lcidtoname_downlevel.obj
 0002:0000bb98       ??_C@_1M@FAPLLOPF@?$AAg?$AAl?$AA?9?$AAe?$AAs@ 0000000180046b98     libucrtd:lcidtoname_downlevel.obj
 0002:0000bba8       ??_C@_1M@FOPBFLOO@?$AAg?$AAu?$AA?9?$AAi?$AAn@ 0000000180046ba8     libucrtd:lcidtoname_downlevel.obj
 0002:0000bbb8       ??_C@_1M@KBMCINPM@?$AAh?$AAe?$AA?9?$AAi?$AAl@ 0000000180046bb8     libucrtd:lcidtoname_downlevel.obj
 0002:0000bbc8       ??_C@_1M@BBPHKFPJ@?$AAh?$AAi?$AA?9?$AAi?$AAn@ 0000000180046bc8     libucrtd:lcidtoname_downlevel.obj
 0002:0000bbd8       ??_C@_1M@PMBNDPHD@?$AAh?$AAr?$AA?9?$AAb?$AAa@ 0000000180046bd8     libucrtd:lcidtoname_downlevel.obj
 0002:0000bbe8       ??_C@_1M@BPCKOEGE@?$AAh?$AAr?$AA?9?$AAh?$AAr@ 0000000180046be8     libucrtd:lcidtoname_downlevel.obj
 0002:0000bbf8       ??_C@_1M@GACBMHKE@?$AAh?$AAu?$AA?9?$AAh?$AAu@ 0000000180046bf8     libucrtd:lcidtoname_downlevel.obj
 0002:0000bc08       ??_C@_1M@MILPAJJC@?$AAh?$AAy?$AA?9?$AAa?$AAm@ 0000000180046c08     libucrtd:lcidtoname_downlevel.obj
 0002:0000bc18       ??_C@_1M@BABBICEC@?$AAi?$AAd?$AA?9?$AAi?$AAd@ 0000000180046c18     libucrtd:lcidtoname_downlevel.obj
 0002:0000bc28       ??_C@_1M@BIKNHHPF@?$AAi?$AAs?$AA?9?$AAi?$AAs@ 0000000180046c28     libucrtd:lcidtoname_downlevel.obj
 0002:0000bc38       ??_C@_1M@NMPCJPHE@?$AAi?$AAt?$AA?9?$AAc?$AAh@ 0000000180046c38     libucrtd:lcidtoname_downlevel.obj
 0002:0000bc48       ??_C@_1M@GHKGFEDF@?$AAi?$AAt?$AA?9?$AAi?$AAt@ 0000000180046c48     libucrtd:lcidtoname_downlevel.obj
 0002:0000bc58       ??_C@_1M@NIEJCJJA@?$AAj?$AAa?$AA?9?$AAj?$AAp@ 0000000180046c58     libucrtd:lcidtoname_downlevel.obj
 0002:0000bc68       ??_C@_1M@JILFNBIM@?$AAk?$AAa?$AA?9?$AAg?$AAe@ 0000000180046c68     libucrtd:lcidtoname_downlevel.obj
 0002:0000bc78       ??_C@_1M@PACPMGPH@?$AAk?$AAk?$AA?9?$AAk?$AAz@ 0000000180046c78     libucrtd:lcidtoname_downlevel.obj
 0002:0000bc88       ??_C@_1M@IELFGMHA@?$AAk?$AAn?$AA?9?$AAi?$AAn@ 0000000180046c88     libucrtd:lcidtoname_downlevel.obj
 0002:0000bc98       ??_C@_1O@IBBJHCH@?$AAk?$AAo?$AAk?$AA?9?$AAi?$AAn@ 0000000180046c98     libucrtd:lcidtoname_downlevel.obj
 0002:0000bca8       ??_C@_1M@DMHAEOGC@?$AAk?$AAo?$AA?9?$AAk?$AAr@ 0000000180046ca8     libucrtd:lcidtoname_downlevel.obj
 0002:0000bcb8       ??_C@_1M@HBAHBIGA@?$AAk?$AAy?$AA?9?$AAk?$AAg@ 0000000180046cb8     libucrtd:lcidtoname_downlevel.obj
 0002:0000bcc8       ??_C@_1M@KPMILCJG@?$AAl?$AAt?$AA?9?$AAl?$AAt@ 0000000180046cc8     libucrtd:lcidtoname_downlevel.obj
 0002:0000bcd8       ??_C@_1M@BDEKKCA@?$AAl?$AAv?$AA?9?$AAl?$AAv@ 0000000180046cd8     libucrtd:lcidtoname_downlevel.obj
 0002:0000bce8       ??_C@_1M@ELCKCCJJ@?$AAm?$AAi?$AA?9?$AAn?$AAz@ 0000000180046ce8     libucrtd:lcidtoname_downlevel.obj
 0002:0000bcf8       ??_C@_1M@CBOOLAPA@?$AAm?$AAk?$AA?9?$AAm?$AAk@ 0000000180046cf8     libucrtd:lcidtoname_downlevel.obj
 0002:0000bd08       ??_C@_1M@GPHNBJKN@?$AAm?$AAl?$AA?9?$AAi?$AAn@ 0000000180046d08     libucrtd:lcidtoname_downlevel.obj
 0002:0000bd18       ??_C@_1M@PABJILIG@?$AAm?$AAn?$AA?9?$AAm?$AAn@ 0000000180046d18     libucrtd:lcidtoname_downlevel.obj
 0002:0000bd28       ??_C@_1M@FGBKKIPG@?$AAm?$AAr?$AA?9?$AAi?$AAn@ 0000000180046d28     libucrtd:lcidtoname_downlevel.obj
 0002:0000bd38       ??_C@_1M@NDBPDDAL@?$AAm?$AAs?$AA?9?$AAb?$AAn@ 0000000180046d38     libucrtd:lcidtoname_downlevel.obj
 0002:0000bd48       ??_C@_1M@OPIHOOPI@?$AAm?$AAs?$AA?9?$AAm?$AAy@ 0000000180046d48     libucrtd:lcidtoname_downlevel.obj
 0002:0000bd58       ??_C@_1M@PPDBCNFM@?$AAm?$AAt?$AA?9?$AAm?$AAt@ 0000000180046d58     libucrtd:lcidtoname_downlevel.obj
 0002:0000bd68       ??_C@_1M@KDJDKMDD@?$AAn?$AAb?$AA?9?$AAn?$AAo@ 0000000180046d68     libucrtd:lcidtoname_downlevel.obj
 0002:0000bd78       ??_C@_1M@KFCFLMJP@?$AAn?$AAl?$AA?9?$AAb?$AAe@ 0000000180046d78     libucrtd:lcidtoname_downlevel.obj
 0002:0000bd88       ??_C@_1M@KPOPDDGO@?$AAn?$AAl?$AA?9?$AAn?$AAl@ 0000000180046d88     libucrtd:lcidtoname_downlevel.obj
 0002:0000bd98       ??_C@_1M@LJKPEMLN@?$AAn?$AAn?$AA?9?$AAn?$AAo@ 0000000180046d98     libucrtd:lcidtoname_downlevel.obj
 0002:0000bda8       ??_C@_1M@BDGHHBFL@?$AAn?$AAs?$AA?9?$AAz?$AAa@ 0000000180046da8     libucrtd:lcidtoname_downlevel.obj
 0002:0000bdb8       ??_C@_1M@IDEHOAP@?$AAp?$AAa?$AA?9?$AAi?$AAn@ 0000000180046db8     libucrtd:lcidtoname_downlevel.obj
 0002:0000bdc8       ??_C@_1M@HDBKGOGH@?$AAp?$AAl?$AA?9?$AAp?$AAl@ 0000000180046dc8     libucrtd:lcidtoname_downlevel.obj
 0002:0000bdd8       ??_C@_1M@LJLLCMEH@?$AAp?$AAt?$AA?9?$AAb?$AAr@ 0000000180046dd8     libucrtd:lcidtoname_downlevel.obj
 0002:0000bde8       ??_C@_1M@NCMONAAL@?$AAp?$AAt?$AA?9?$AAp?$AAt@ 0000000180046de8     libucrtd:lcidtoname_downlevel.obj
 0002:0000bdf8       ??_C@_1O@EAKMAJDN@?$AAq?$AAu?$AAz?$AA?9?$AAb?$AAo@ 0000000180046df8     libucrtd:lcidtoname_downlevel.obj
 0002:0000be08       ??_C@_1O@BHHPIGDN@?$AAq?$AAu?$AAz?$AA?9?$AAe?$AAc@ 0000000180046e08     libucrtd:lcidtoname_downlevel.obj
 0002:0000be18       ??_C@_1O@GBAPEKMJ@?$AAq?$AAu?$AAz?$AA?9?$AAp?$AAe@ 0000000180046e18     libucrtd:lcidtoname_downlevel.obj
 0002:0000be28       ??_C@_1M@CLGLEFBO@?$AAr?$AAo?$AA?9?$AAr?$AAo@ 0000000180046e28     libucrtd:lcidtoname_downlevel.obj
 0002:0000be38       ??_C@_1M@CEEDODME@?$AAr?$AAu?$AA?9?$AAr?$AAu@ 0000000180046e38     libucrtd:lcidtoname_downlevel.obj
 0002:0000be48       ??_C@_1M@HPKKKMPP@?$AAs?$AAa?$AA?9?$AAi?$AAn@ 0000000180046e48     libucrtd:lcidtoname_downlevel.obj
 0002:0000be58       ??_C@_1M@BKMAIGOJ@?$AAs?$AAe?$AA?9?$AAf?$AAi@ 0000000180046e58     libucrtd:lcidtoname_downlevel.obj
 0002:0000be68       ??_C@_1M@NDPIFLFI@?$AAs?$AAe?$AA?9?$AAn?$AAo@ 0000000180046e68     libucrtd:lcidtoname_downlevel.obj
 0002:0000be78       ??_C@_1M@DANKKHJ@?$AAs?$AAe?$AA?9?$AAs?$AAe@ 0000000180046e78     libucrtd:lcidtoname_downlevel.obj
 0002:0000be88       ??_C@_1M@PNBLONPJ@?$AAs?$AAk?$AA?9?$AAs?$AAk@ 0000000180046e88     libucrtd:lcidtoname_downlevel.obj
 0002:0000be98       ??_C@_1M@LFMODOAL@?$AAs?$AAl?$AA?9?$AAs?$AAi@ 0000000180046e98     libucrtd:lcidtoname_downlevel.obj
 0002:0000bea8       ??_C@_1O@DFKOMPG@?$AAs?$AAm?$AAa?$AA?9?$AAn?$AAo@ 0000000180046ea8     libucrtd:lcidtoname_downlevel.obj
 0002:0000beb8       ??_C@_1O@NDKPBNNH@?$AAs?$AAm?$AAa?$AA?9?$AAs?$AAe@ 0000000180046eb8     libucrtd:lcidtoname_downlevel.obj
 0002:0000bec8       ??_C@_1O@PLLKBHAB@?$AAs?$AAm?$AAj?$AA?9?$AAn?$AAo@ 0000000180046ec8     libucrtd:lcidtoname_downlevel.obj
 0002:0000bed8       ??_C@_1O@CLEPOGCA@?$AAs?$AAm?$AAj?$AA?9?$AAs?$AAe@ 0000000180046ed8     libucrtd:lcidtoname_downlevel.obj
 0002:0000bee8       ??_C@_1O@DLGJGKMK@?$AAs?$AAm?$AAn?$AA?9?$AAf?$AAi@ 0000000180046ee8     libucrtd:lcidtoname_downlevel.obj
 0002:0000bef8       ??_C@_1O@OJDJGAJC@?$AAs?$AAm?$AAs?$AA?9?$AAf?$AAi@ 0000000180046ef8     libucrtd:lcidtoname_downlevel.obj
 0002:0000bf08       ??_C@_1M@BOFOGHPB@?$AAs?$AAq?$AA?9?$AAa?$AAl@ 0000000180046f08     libucrtd:lcidtoname_downlevel.obj
 0002:0000bf18       ??_C@_1BG@LJBBIPGB@?$AAs?$AAr?$AA?9?$AAb?$AAa?$AA?9?$AAc?$AAy?$AAr?$AAl@ 0000000180046f18     libucrtd:lcidtoname_downlevel.obj
 0002:0000bf30       ??_C@_1BG@JLBENFOE@?$AAs?$AAr?$AA?9?$AAb?$AAa?$AA?9?$AAl?$AAa?$AAt?$AAn@ 0000000180046f30     libucrtd:lcidtoname_downlevel.obj
 0002:0000bf48       ??_C@_1BG@KODPNHE@?$AAs?$AAr?$AA?9?$AAs?$AAp?$AA?9?$AAc?$AAy?$AAr?$AAl@ 0000000180046f48     libucrtd:lcidtoname_downlevel.obj
 0002:0000bf60       ??_C@_1BG@CIOGKHPB@?$AAs?$AAr?$AA?9?$AAs?$AAp?$AA?9?$AAl?$AAa?$AAt?$AAn@ 0000000180046f60     libucrtd:lcidtoname_downlevel.obj
 0002:0000bf78       ??_C@_1M@NGFJLMAC@?$AAs?$AAv?$AA?9?$AAf?$AAi@ 0000000180046f78     libucrtd:lcidtoname_downlevel.obj
 0002:0000bf88       ??_C@_1M@MPJEJAJC@?$AAs?$AAv?$AA?9?$AAs?$AAe@ 0000000180046f88     libucrtd:lcidtoname_downlevel.obj
 0002:0000bf98       ??_C@_1M@MPNDHLFK@?$AAs?$AAw?$AA?9?$AAk?$AAe@ 0000000180046f98     libucrtd:lcidtoname_downlevel.obj
 0002:0000bfa8       ??_C@_1O@KOHBJJI@?$AAs?$AAy?$AAr?$AA?9?$AAs?$AAy@ 0000000180046fa8     libucrtd:lcidtoname_downlevel.obj
 0002:0000bfb8       ??_C@_1M@LDCEFHA@?$AAt?$AAa?$AA?9?$AAi?$AAn@ 0000000180046fb8     libucrtd:lcidtoname_downlevel.obj
 0002:0000bfc8       ??_C@_1M@CNJOFAK@?$AAt?$AAe?$AA?9?$AAi?$AAn@ 0000000180046fc8     libucrtd:lcidtoname_downlevel.obj
 0002:0000bfd8       ??_C@_1M@GNAECACD@?$AAt?$AAh?$AA?9?$AAt?$AAh@ 0000000180046fd8     libucrtd:lcidtoname_downlevel.obj
 0002:0000bfe8       ??_C@_1M@CHBIHOJO@?$AAt?$AAn?$AA?9?$AAz?$AAa@ 0000000180046fe8     libucrtd:lcidtoname_downlevel.obj
 0002:0000bff8       ??_C@_1M@GCCMIGPJ@?$AAt?$AAr?$AA?9?$AAt?$AAr@ 0000000180046ff8     libucrtd:lcidtoname_downlevel.obj
 0002:0000c008       ??_C@_1M@CELMCNBK@?$AAt?$AAt?$AA?9?$AAr?$AAu@ 0000000180047008     libucrtd:lcidtoname_downlevel.obj
 0002:0000c018       ??_C@_1M@KLMCELGA@?$AAu?$AAk?$AA?9?$AAu?$AAa@ 0000000180047018     libucrtd:lcidtoname_downlevel.obj
 0002:0000c028       ??_C@_1M@EPAJJAJF@?$AAu?$AAr?$AA?9?$AAp?$AAk@ 0000000180047028     libucrtd:lcidtoname_downlevel.obj
 0002:0000c038       ??_C@_1BG@GEGPMCDJ@?$AAu?$AAz?$AA?9?$AAu?$AAz?$AA?9?$AAc?$AAy?$AAr?$AAl@ 0000000180047038     libucrtd:lcidtoname_downlevel.obj
 0002:0000c050       ??_C@_1BG@EGGKJILM@?$AAu?$AAz?$AA?9?$AAu?$AAz?$AA?9?$AAl?$AAa?$AAt?$AAn@ 0000000180047050     libucrtd:lcidtoname_downlevel.obj
 0002:0000c068       ??_C@_1M@GFOCLFF@?$AAv?$AAi?$AA?9?$AAv?$AAn@ 0000000180047068     libucrtd:lcidtoname_downlevel.obj
 0002:0000c078       ??_C@_1M@CPAMEDFI@?$AAx?$AAh?$AA?9?$AAz?$AAa@ 0000000180047078     libucrtd:lcidtoname_downlevel.obj
 0002:0000c088       ??_C@_1O@EBKIFIGN@?$AAz?$AAh?$AA?9?$AAc?$AAh?$AAs@ 0000000180047088     libucrtd:lcidtoname_downlevel.obj
 0002:0000c098       ??_C@_1O@NMHPGANE@?$AAz?$AAh?$AA?9?$AAc?$AAh?$AAt@ 0000000180047098     libucrtd:lcidtoname_downlevel.obj
 0002:0000c0a8       ??_C@_1M@LPINJOMC@?$AAz?$AAh?$AA?9?$AAc?$AAn@ 00000001800470a8     libucrtd:lcidtoname_downlevel.obj
 0002:0000c0b8       ??_C@_1M@OCJEJODD@?$AAz?$AAh?$AA?9?$AAh?$AAk@ 00000001800470b8     libucrtd:lcidtoname_downlevel.obj
 0002:0000c0c8       ??_C@_1M@DNDLJINH@?$AAz?$AAh?$AA?9?$AAm?$AAo@ 00000001800470c8     libucrtd:lcidtoname_downlevel.obj
 0002:0000c0d8       ??_C@_1M@MBFDNDND@?$AAz?$AAh?$AA?9?$AAs?$AAg@ 00000001800470d8     libucrtd:lcidtoname_downlevel.obj
 0002:0000c0e8       ??_C@_1M@IMEPLEPE@?$AAz?$AAh?$AA?9?$AAt?$AAw@ 00000001800470e8     libucrtd:lcidtoname_downlevel.obj
 0002:0000c0f8       ??_C@_1M@BBGHNHJP@?$AAz?$AAu?$AA?9?$AAz?$AAa@ 00000001800470f8     libucrtd:lcidtoname_downlevel.obj
 0002:0000c108       ??_C@_0DB@JFFPGLDM@minkernel?2crts?2ucrt?2src?2appcrt?2@ 0000000180047108     libucrtd:osfinfo.obj
 0002:0000c140       ??_C@_1EM@BPODPNEJ@?$AAs?$AAt?$AAa?$AAt?$AAi?$AAc?$AA_?$AAc?$AAa?$AAs?$AAt?$AA?$DM?$AAu?$AAn?$AAs@ 0000000180047140     libucrtd:osfinfo.obj
 0002:0000c190       ??_C@_1GC@LDGKBAFM@?$AAm?$AAi?$AAn?$AAk?$AAe?$AAr?$AAn?$AAe?$AAl?$AA?2?$AAc?$AAr?$AAt?$AAs?$AA?2@ 0000000180047190     libucrtd:osfinfo.obj
 0002:0000c1f8       ??_C@_1DM@JELNOMLN@?$AA_?$AA_?$AAa?$AAc?$AAr?$AAt?$AA_?$AAl?$AAo?$AAw?$AAi?$AAo?$AA_?$AAe?$AAn@ 00000001800471f8     libucrtd:osfinfo.obj
 0002:0000c240       ??_C@_1FK@MGHFJLAL@?$AAf?$AAh?$AA?5?$AA?$DO?$AA?$DN?$AA?5?$AA0?$AA?5?$AA?$CG?$AA?$CG?$AA?5?$AA?$CI?$AAu?$AAn?$AAs@ 0000000180047240     libucrtd:osfinfo.obj
 0002:0000c2a0       ??_C@_1BO@EMBOBGKE@?$AA_?$AAg?$AAe?$AAt?$AA_?$AAo?$AAs?$AAf?$AAh?$AAa?$AAn?$AAd?$AAl?$AAe@ 00000001800472a0     libucrtd:osfinfo.obj
 0002:0000c2c0       ??_C@_1CI@ILOIOBLM@?$AA_?$AAo?$AAs?$AAf?$AAi?$AAl?$AAe?$AA?$CI?$AAf?$AAh?$AA?$CJ?$AA?5?$AA?$CG?$AA?5?$AAF@ 00000001800472c0     libucrtd:osfinfo.obj
 0002:0000c2f0       __newctype                 00000001800472f0     libucrtd:ctype.obj
 0002:0000c5f0       __newclmap                 00000001800475f0     libucrtd:ctype.obj
 0002:0000c770       __newcumap                 0000000180047770     libucrtd:ctype.obj
 0002:0000c8f0       _wctype                    00000001800478f0     libucrtd:ctype.obj
 0002:0000cb00       ??_C@_1FO@LPCLHKGE@?$AA?$CI?$AAf?$AAh?$AA?5?$AA?$DO?$AA?$DN?$AA?5?$AA0?$AA?5?$AA?$CG?$AA?$CG?$AA?5?$AA?$CI?$AAu?$AAn@ 0000000180047b00     libucrtd:isatty.obj
 0002:0000cb60       ??_C@_1GA@DEPMKPD@?$AAm?$AAi?$AAn?$AAk?$AAe?$AAr?$AAn?$AAe?$AAl?$AA?2?$AAc?$AAr?$AAt?$AAs?$AA?2@ 0000000180047b60     libucrtd:isatty.obj
 0002:0000cbc0       ??_C@_1BA@LEBDGIHM@?$AA_?$AAi?$AAs?$AAa?$AAt?$AAt?$AAy@ 0000000180047bc0     libucrtd:isatty.obj
 0002:0000cbd0       ??_C@_1CA@EOJJMFA@?$AAc?$AAo?$AAm?$AAm?$AAo?$AAn?$AA_?$AAt?$AAc?$AAs?$AAc?$AAa?$AAt?$AA_?$AAs@ 0000000180047bd0     libucrtd:wcscat_s.obj
 0002:0000cbf0       ??_C@_1DM@FHLMIEG@?$AAS?$AAt?$AAr?$AAi?$AAn?$AAg?$AA?5?$AAi?$AAs?$AA?5?$AAn?$AAo?$AAt?$AA?5?$AAn@ 0000000180047bf0     libucrtd:wcscat_s.obj
 0002:0000cc30       ??_C@_1FA@MJKDNFFB@?$AA?$CI?$AAL?$AA?$CC?$AAS?$AAt?$AAr?$AAi?$AAn?$AAg?$AA?5?$AAi?$AAs?$AA?5?$AAn?$AAo@ 0000000180047c30     libucrtd:wcscat_s.obj
 0002:0000cc80       ??_C@_1DE@BCNCAIK@?$AA?$CI?$AA?$CC?$AAI?$AAn?$AAv?$AAa?$AAl?$AAi?$AAd?$AA?5?$AAe?$AAr?$AAr?$AAo?$AAr@ 0000000180047c80     libucrtd:set_error_mode.obj
 0002:0000ccc0       ??_C@_1GO@EBFPMMIJ@?$AAm?$AAi?$AAn?$AAk?$AAe?$AAr?$AAn?$AAe?$AAl?$AA?2?$AAc?$AAr?$AAt?$AAs?$AA?2@ 0000000180047cc0     libucrtd:set_error_mode.obj
 0002:0000cd30       ??_C@_1CA@LFDHAMEM@?$AA_?$AAs?$AAe?$AAt?$AA_?$AAe?$AAr?$AAr?$AAo?$AAr?$AA_?$AAm?$AAo?$AAd?$AAe@ 0000000180047d30     libucrtd:set_error_mode.obj
 0002:0000cd50       ??_C@_1GG@MCCIENJO@?$AAm?$AAi?$AAn?$AAk?$AAe?$AAr?$AAn?$AAe?$AAl?$AA?2?$AAc?$AAr?$AAt?$AAs?$AA?2@ 0000000180047d50     libucrtd:mbrtowc.obj
 0002:0000cdc0       ??_C@_1EK@MCEFBPIK@?$AAr?$AAe?$AAt?$AAv?$AAa?$AAl?$AA?5?$AA?$CB?$AA?$DN?$AA?5?$AA_?$AA_?$AAc?$AAr?$AAt@ 0000000180047dc0     libucrtd:mbrtowc.obj
 0002:0000ce10       ??_C@_1EK@OANGPA@?$AA1?$AA?5?$AA?$DM?$AA?$DN?$AA?5?$AAt?$AAr?$AAa?$AAi?$AAl?$AA_?$AAb?$AAy?$AAt?$AAe@ 0000000180047e10     libucrtd:c32rtomb.obj
 0002:0000ce60       ??_C@_1GI@FBFKMNDD@?$AAm?$AAi?$AAn?$AAk?$AAe?$AAr?$AAn?$AAe?$AAl?$AA?2?$AAc?$AAr?$AAt?$AAs?$AA?2@ 0000000180047e60     libucrtd:c32rtomb.obj
 0002:0000ced0       ??_C@_1EA@DDDCIHI@?$AAc?$AA3?$AA2?$AA?5?$AA?$DM?$AA?5?$AA?$CI?$AA1?$AAu?$AA?5?$AA?$DM?$AA?$DM?$AA?5?$AA?$CI?$AA7@ 0000000180047ed0     libucrtd:c32rtomb.obj
 0002:0000cf10       ??_C@_1CE@MCCHPLBM@?$AAb?$AAu?$AAf?$AAf?$AAe?$AAr?$AA?5?$AA?$CB?$AA?$DN?$AA?5?$AAn?$AAu?$AAl?$AAl?$AAp@ 0000000180047f10     libucrtd:_fptostr.obj
 0002:0000cf40       ??_C@_1GI@IMEEHIAK@?$AAm?$AAi?$AAn?$AAk?$AAe?$AAr?$AAn?$AAe?$AAl?$AA?2?$AAc?$AAr?$AAt?$AAs?$AA?2@ 0000000180047f40     libucrtd:_fptostr.obj
 0002:0000cfa8       ??_C@_1DG@NMGBKPMI@?$AA_?$AA_?$AAa?$AAc?$AAr?$AAt?$AA_?$AAf?$AAp?$AA_?$AAs?$AAt?$AAr?$AAf?$AAl@ 0000000180047fa8     libucrtd:_fptostr.obj
 0002:0000cfe0       ??_C@_1CC@ONIJBMJF@?$AAb?$AAu?$AAf?$AAf?$AAe?$AAr?$AA_?$AAc?$AAo?$AAu?$AAn?$AAt?$AA?5?$AA?$DO?$AA?5@ 0000000180047fe0     libucrtd:_fptostr.obj
 0002:0000d010       ??_C@_1IE@EAOKIIFP@?$AAb?$AAu?$AAf?$AAf?$AAe?$AAr?$AA_?$AAc?$AAo?$AAu?$AAn?$AAt?$AA?5?$AA?$DO?$AA?5@ 0000000180048010     libucrtd:_fptostr.obj
 0002:0000d098       ??_C@_1CA@EDEEBMBB@?$AAp?$AAf?$AAl?$AAt?$AA?5?$AA?$CB?$AA?$DN?$AA?5?$AAn?$AAu?$AAl?$AAl?$AAp?$AAt?$AAr@ 0000000180048098     libucrtd:_fptostr.obj
 0002:0000d0c0       ?large_power_data@?1??multiply_by_power_of_ten@__crt_strtox@@YA_NAEAUbig_integer@2@I@Z@4QBIB 00000001800480c0     libucrtd:cfout.obj
 0002:0000da68       ?small_powers_of_ten@?1??multiply_by_power_of_ten@__crt_strtox@@YA_NAEAUbig_integer@2@I@Z@4QBIB 0000000180048a68     libucrtd:cfout.obj
 0002:0000da90       ??_C@_1DI@GICAMMFM@?$AA?$CI?$AA?$CC?$AAD?$AAi?$AAv?$AAi?$AAs?$AAi?$AAo?$AAn?$AA?5?$AAb?$AAy?$AA?5?$AAz@ 0000000180048a90     libucrtd:cfout.obj
 0002:0000dad0       ??_C@_1GO@BFGDDONN@?$AAm?$AAi?$AAn?$AAk?$AAe?$AAr?$AAn?$AAe?$AAl?$AA?2?$AAc?$AAr?$AAt?$AAs?$AA?2@ 0000000180048ad0     libucrtd:cfout.obj
 0002:0000db40       ??_C@_1GC@DDAKNBNC@?$AAm?$AAi?$AAn?$AAk?$AAe?$AAr?$AAn?$AAe?$AAl?$AA?2?$AAc?$AAr?$AAt?$AAs?$AA?2@ 0000000180048b40     libucrtd:cfout.obj
 0002:0000dba8       ??_C@_1BM@FAAOAKKO@?$AA_?$AA_?$AAa?$AAc?$AAr?$AAt?$AA_?$AAf?$AAl?$AAt?$AAo?$AAu?$AAt@ 0000000180048ba8     libucrtd:cfout.obj
 0002:0000dbd0       ??_C@_1EI@OACEJKEP@?$AAs?$AAt?$AAr?$AAc?$AAp?$AAy?$AA_?$AAs?$AA?$CI?$AAr?$AAe?$AAs?$AAu?$AAl?$AAt@ 0000000180048bd0     libucrtd:cfout.obj
 0002:0000dc18       ??_C@_01GBGANLPD@0@        0000000180048c18     libucrtd:cfout.obj
 0002:0000dc20       ??_C@_1FC@KIECGFMP@?$AAs?$AAt?$AAr?$AAc?$AAp?$AAy?$AA_?$AAs?$AA?$CI?$AAr?$AAe?$AAs?$AAu?$AAl?$AAt@ 0000000180048c20     libucrtd:cfout.obj
 0002:0000dc74       ??_C@_05DNEBIAHO@1?$CDINF@ 0000000180048c74     libucrtd:cfout.obj
 0002:0000dc80       ??_C@_1FC@NFPJEIBD@?$AAs?$AAt?$AAr?$AAc?$AAp?$AAy?$AA_?$AAs?$AA?$CI?$AAr?$AAe?$AAs?$AAu?$AAl?$AAt@ 0000000180048c80     libucrtd:cfout.obj
 0002:0000dcd4       ??_C@_06IMKFLFPG@1?$CDQNAN@ 0000000180048cd4     libucrtd:cfout.obj
 0002:0000dce0       ??_C@_1FC@DEJHIMLO@?$AAs?$AAt?$AAr?$AAc?$AAp?$AAy?$AA_?$AAs?$AA?$CI?$AAr?$AAe?$AAs?$AAu?$AAl?$AAt@ 0000000180048ce0     libucrtd:cfout.obj
 0002:0000dd34       ??_C@_06PGGFOGJG@1?$CDSNAN@ 0000000180048d34     libucrtd:cfout.obj
 0002:0000dd40       ??_C@_1FC@KMLHLFPC@?$AAs?$AAt?$AAr?$AAc?$AAp?$AAy?$AA_?$AAs?$AA?$CI?$AAr?$AAe?$AAs?$AAu?$AAl?$AAt@ 0000000180048d40     libucrtd:cfout.obj
 0002:0000dd94       ??_C@_05PHHOCPM@1?$CDIND@  0000000180048d94     libucrtd:cfout.obj
 0002:0000dda0       ??_C@_1DE@KHKADFOO@?$AAm?$AAa?$AAn?$AAt?$AAi?$AAs?$AAs?$AAa?$AA_?$AAb?$AAu?$AAf?$AAf?$AAe?$AAr@ 0000000180048da0     libucrtd:cfout.obj
 0002:0000dde0       ??_C@_1FI@LFKLOPAC@?$AA?$CI?$AA?$CC?$AAu?$AAn?$AAe?$AAx?$AAp?$AAe?$AAc?$AAt?$AAe?$AAd?$AA?5?$AAi?$AAn@ 0000000180048de0     libucrtd:cfout.obj
 0002:0000de40       ??_C@_1FG@MLHBDPBG@?$AAq?$AAu?$AAo?$AAt?$AAi?$AAe?$AAn?$AAt?$AA?5?$AA?$DM?$AA?5?$AAd?$AAi?$AAg?$AAi@ 0000000180048e40     libucrtd:cfout.obj
 0002:0000dea0       ??_C@_1GE@GPOPIOIG@?$AAm?$AAi?$AAn?$AAk?$AAe?$AAr?$AAn?$AAe?$AAl?$AA?2?$AAc?$AAr?$AAt?$AAs?$AA?2@ 0000000180048ea0     libucrtd:_freebuf.obj
 0002:0000df10       ??_C@_1GA@HBEFGMHK@?$AAm?$AAi?$AAn?$AAk?$AAe?$AAr?$AAn?$AAe?$AAl?$AA?2?$AAc?$AAr?$AAt?$AAs?$AA?2@ 0000000180048f10     libucrtd:xtoa.obj
 0002:0000df70       ??_C@_1BM@HMPEMLNP@?$AAc?$AAo?$AAm?$AAm?$AAo?$AAn?$AA_?$AAx?$AAt?$AAo?$AAx?$AA_?$AAs@ 0000000180048f70     libucrtd:xtoa.obj
 0002:0000df90       ??_C@_1HA@JFIOFNKD@?$AAb?$AAu?$AAf?$AAf?$AAe?$AAr?$AA_?$AAc?$AAo?$AAu?$AAn?$AAt?$AA?5?$AA?$DO?$AA?5@ 0000000180048f90     libucrtd:xtoa.obj
 0002:0000e000       ??_C@_1DE@PCJGDBBD@?$AA2?$AA?5?$AA?$DM?$AA?$DN?$AA?5?$AAr?$AAa?$AAd?$AAi?$AAx?$AA?5?$AA?$CG?$AA?$CG?$AA?5?$AAr@ 0000000180049000     libucrtd:xtoa.obj
 0002:0000e038       ??_C@_1CM@LONILNIJ@?$AAl?$AAe?$AAn?$AAg?$AAt?$AAh?$AA?5?$AA?$DM?$AA?5?$AAb?$AAu?$AAf?$AAf?$AAe?$AAr@ 0000000180049038     libucrtd:xtoa.obj
 0002:0000e068       ??_C@_1BI@OLPLFKOE@?$AAc?$AAo?$AAm?$AAm?$AAo?$AAn?$AA_?$AAx?$AAt?$AAo?$AAx@ 0000000180049068     libucrtd:xtoa.obj
 0002:0000e080       ??_C@_1BK@FPAMLIDG@?$AAs?$AA?5?$AA?$CB?$AA?$DN?$AA?5?$AAn?$AAu?$AAl?$AAl?$AAp?$AAt?$AAr@ 0000000180049080     libucrtd:mbstowcs.obj
 0002:0000e0a0       ??_C@_1GI@KABMHNPH@?$AAm?$AAi?$AAn?$AAk?$AAe?$AAr?$AAn?$AAe?$AAl?$AA?2?$AAc?$AAr?$AAt?$AAs?$AA?2@ 00000001800490a0     libucrtd:mbstowcs.obj
 0002:0000e108       ??_C@_1CG@JEHFHLNG@?$AA_?$AAm?$AAb?$AAs?$AAt?$AAo?$AAw?$AAc?$AAs?$AA_?$AAl?$AA_?$AAh?$AAe?$AAl@ 0000000180049108     libucrtd:mbstowcs.obj
 0002:0000e130       ??_C@_1JM@MEKBACIG@?$AA?$CI?$AAp?$AAw?$AAc?$AAs?$AA?5?$AA?$DN?$AA?$DN?$AA?5?$AAn?$AAu?$AAl?$AAl?$AAp?$AAt@ 0000000180049130     libucrtd:mbstowcs.obj
 0002:0000e1d0       ??_C@_1BM@PHENIGHD@?$AA_?$AAm?$AAb?$AAs?$AAt?$AAo?$AAw?$AAc?$AAs?$AA_?$AAs?$AA_?$AAl@ 00000001800491d0     libucrtd:mbstowcs.obj
 0002:0000e1f0       ??_C@_1CM@LLECFMFH@?$AAb?$AAu?$AAf?$AAf?$AAe?$AAr?$AAS?$AAi?$AAz?$AAe?$AA?5?$AA?$DM?$AA?$DN?$AA?5?$AAI@ 00000001800491f0     libucrtd:mbstowcs.obj
 0002:0000e220       ??_C@_1CO@JNPEPJAL@?$AAr?$AAe?$AAt?$AAs?$AAi?$AAz?$AAe?$AA?5?$AA?$DM?$AA?$DN?$AA?5?$AAs?$AAi?$AAz?$AAe@ 0000000180049220     libucrtd:mbstowcs.obj
 0002:0000e278       ??_C@_1CA@NOKNKDIG@?$AAp?$AAw?$AAc?$AAs?$AA?5?$AA?$CB?$AA?$DN?$AA?5?$AAn?$AAu?$AAl?$AAl?$AAp?$AAt?$AAr@ 0000000180049278     libucrtd:wcstombs.obj
 0002:0000e2a0       ??_C@_1GI@EEJDEALP@?$AAm?$AAi?$AAn?$AAk?$AAe?$AAr?$AAn?$AAe?$AAl?$AA?2?$AAc?$AAr?$AAt?$AAs?$AA?2@ 00000001800492a0     libucrtd:wcstombs.obj
 0002:0000e308       ??_C@_1CG@LLJCAOHF@?$AA_?$AAw?$AAc?$AAs?$AAt?$AAo?$AAm?$AAb?$AAs?$AA_?$AAl?$AA_?$AAh?$AAe?$AAl@ 0000000180049308     libucrtd:wcstombs.obj
 0002:0000e330       ??_C@_1JI@DFNKFCLG@?$AA?$CI?$AAd?$AAs?$AAt?$AA?5?$AA?$CB?$AA?$DN?$AA?5?$AAn?$AAu?$AAl?$AAl?$AAp?$AAt?$AAr@ 0000000180049330     libucrtd:wcstombs.obj
 0002:0000e3c8       ??_C@_1BM@BDMCLLDL@?$AA_?$AAw?$AAc?$AAs?$AAt?$AAo?$AAm?$AAb?$AAs?$AA_?$AAs?$AA_?$AAl@ 00000001800493c8     libucrtd:wcstombs.obj
 0002:0000e3e8       ??_C@_1CM@KEOGBFLI@?$AAs?$AAi?$AAz?$AAe?$AAI?$AAn?$AAB?$AAy?$AAt?$AAe?$AAs?$AA?5?$AA?$DO?$AA?5?$AAr@ 00000001800493e8     libucrtd:wcstombs.obj
 0002:0000e430       ??_C@_1JE@ECKHFIFP@?$AA?$CI?$AA?$CC?$AAI?$AAn?$AAv?$AAa?$AAl?$AAi?$AAd?$AA?5?$AAf?$AAi?$AAl?$AAe?$AA?5@ 0000000180049430     libucrtd:commit.obj
 0002:0000e4d0       ??_C@_1GA@MPOOLHCO@?$AAm?$AAi?$AAn?$AAk?$AAe?$AAr?$AAn?$AAe?$AAl?$AA?2?$AAc?$AAr?$AAt?$AAs?$AA?2@ 00000001800494d0     libucrtd:commit.obj
 0002:0000e530       ??_C@_1BA@FLNMBBIM@?$AA_?$AAc?$AAo?$AAm?$AAm?$AAi?$AAt@ 0000000180049530     libucrtd:commit.obj
 0002:0000e540       ??_C@_1CM@OKGMMMDH@?$AA?$CI?$AA_?$AAo?$AAs?$AAf?$AAi?$AAl?$AAe?$AA?$CI?$AAf?$AAh?$AA?$CJ?$AA?5?$AA?$CG?$AA?5@ 0000000180049540     libucrtd:commit.obj
 0002:0000e570       ??_C@_1FO@CAMPMGCN@?$AAm?$AAi?$AAn?$AAk?$AAe?$AAr?$AAn?$AAe?$AAl?$AA?2?$AAc?$AAr?$AAt?$AAs?$AA?2@ 0000000180049570     libucrtd:write.obj
 0002:0000e5d0       ??_C@_1O@KOFKDHPL@?$AA_?$AAw?$AAr?$AAi?$AAt?$AAe@ 00000001800495d0     libucrtd:write.obj
 0002:0000e5e0       ??_C@_1CK@MMEFCHHN@?$AA?$CB?$AA_?$AAd?$AAb?$AAc?$AAs?$AAB?$AAu?$AAf?$AAf?$AAe?$AAr?$AAU?$AAs?$AAe@ 00000001800495e0     libucrtd:write.obj
 0002:0000e610       ??_C@_1EG@LICJGLJJ@?$AA1?$AA?5?$AA?$DM?$AA?5?$AAm?$AAb?$AA_?$AAl?$AAe?$AAn?$AA?5?$AA?$CG?$AA?$CG?$AA?5?$AAm@ 0000000180049610     libucrtd:write.obj
 0002:0000e660       ??_C@_1FC@NFILPJB@?$AAm?$AAb?$AA_?$AAb?$AAu?$AAf?$AA_?$AAu?$AAs?$AAe?$AAd?$AA?5?$AA?$CL?$AA?5?$AAb@ 0000000180049660     libucrtd:write.obj
 0002:0000e6c0       ??_C@_1FC@HEJOPHLA@?$AAa?$AAv?$AAa?$AAi?$AAl?$AAa?$AAb?$AAl?$AAe?$AA_?$AAb?$AAy?$AAt?$AAe?$AAs@ 00000001800496c0     libucrtd:write.obj
 0002:0000e718       ??_C@_1DI@CNMHHHLG@?$AAi?$AAs?$AAl?$AAe?$AAa?$AAd?$AAb?$AAy?$AAt?$AAe?$AA?$CI?$AA_?$AAd?$AAb?$AAc@ 0000000180049718     libucrtd:write.obj
 0002:0000e750       ??_C@_1BM@NCANHCIP@?$AA_?$AAw?$AAr?$AAi?$AAt?$AAe?$AA_?$AAn?$AAo?$AAl?$AAo?$AAc?$AAk@ 0000000180049750     libucrtd:write.obj
 0002:0000e770       ??_C@_1CK@CPEAGIIP@?$AAb?$AAu?$AAf?$AAf?$AAe?$AAr?$AA_?$AAs?$AAi?$AAz?$AAe?$AA?5?$AA?$CF?$AA?5?$AA2@ 0000000180049770     libucrtd:write.obj
 0002:0000e9f0       __real@3ff0000000000000    00000001800499f0     libucrtd:ceil.obj
 0002:0000ea00       ??_C@_1FO@KIIHJNFN@?$AAm?$AAi?$AAn?$AAk?$AAe?$AAr?$AAn?$AAe?$AAl?$AA?2?$AAc?$AAr?$AAt?$AAs?$AA?2@ 0000000180049a00     libucrtd:lseek.obj
 0002:0000ea60       ??_C@_1DM@LMLOLGJ@?$AA?$CI?$AA?$CC?$AAI?$AAn?$AAv?$AAa?$AAl?$AAi?$AAd?$AA?5?$AAf?$AAi?$AAl?$AAe?$AA?5@ 0000000180049a60     libucrtd:lseek.obj
 0002:0000eaa0       ??_C@_1GA@DKNOMDCL@?$AAm?$AAi?$AAn?$AAk?$AAe?$AAr?$AAn?$AAe?$AAl?$AA?2?$AAc?$AAr?$AAt?$AAs?$AA?2@ 0000000180049aa0     libucrtd:fclose.obj
 0002:0000eb00       ??_C@_1O@EGMJNCOI@?$AAf?$AAc?$AAl?$AAo?$AAs?$AAe@ 0000000180049b00     libucrtd:fclose.obj
 0002:0000eb10       ??_C@_1BO@JINCABEC@?$AA_?$AAf?$AAc?$AAl?$AAo?$AAs?$AAe?$AA_?$AAn?$AAo?$AAl?$AAo?$AAc?$AAk@ 0000000180049b10     libucrtd:fclose.obj
 0002:0000eb30       __log10_256_lead           0000000180049b30     libucrtd:log10_256_lead_tail_table.obj
 0002:0000f340       __log10_256_tail           000000018004a340     libucrtd:log10_256_lead_tail_table.obj
 0002:0000fb50       __log_F_inv_qword          000000018004ab50     libucrtd:log_f_inv_qword_table.obj
 0002:00010360       ??_C@_1FO@IPDGALOE@?$AAm?$AAi?$AAn?$AAk?$AAe?$AAr?$AAn?$AAe?$AAl?$AA?2?$AAc?$AAr?$AAt?$AAs?$AA?2@ 000000018004b360     libucrtd:close.obj
 0002:000103c0       ??_C@_1O@EDEJGJBM@?$AA_?$AAc?$AAl?$AAo?$AAs?$AAe@ 000000018004b3c0     libucrtd:close.obj
 0002:000103d0       ??_C@_1BA@BALFACEM@?$AAC?$AAO?$AAN?$AAO?$AAU?$AAT?$AA$@ 000000018004b3d0     libucrtd:initcon.obj
 0002:000103e8       ??_7type_info@@6B@         000000018004b3e8     LIBCMTD:std_type_info_static.obj
 0002:00010450       _load_config_used          000000018004b450     LIBCMTD:loadcfg.obj
 0002:00010580       ??_R4exception@std@@6B@    000000018004b580     libvcruntimed:frame.obj
 0002:000105a8       ??_R3exception@std@@8      000000018004b5a8     libvcruntimed:frame.obj
 0002:000105c0       ??_R2exception@std@@8      000000018004b5c0     libvcruntimed:frame.obj
 0002:000105d0       ??_R1A@?0A@EA@exception@std@@8 000000018004b5d0     libvcruntimed:frame.obj
 0002:000105f8       ??_R4bad_exception@std@@6B@ 000000018004b5f8     libvcruntimed:frame.obj
 0002:00010620       ??_R3bad_exception@std@@8  000000018004b620     libvcruntimed:frame.obj
 0002:00010638       ??_R2bad_exception@std@@8  000000018004b638     libvcruntimed:frame.obj
 0002:00010650       ??_R1A@?0A@EA@bad_exception@std@@8 000000018004b650     libvcruntimed:frame.obj
 0002:00010678       ??_R4type_info@@6B@        000000018004b678     LIBCMTD:std_type_info_static.obj
 0002:000106a0       ??_R3type_info@@8          000000018004b6a0     LIBCMTD:std_type_info_static.obj
 0002:000106b8       ??_R2type_info@@8          000000018004b6b8     LIBCMTD:std_type_info_static.obj
 0002:000106c8       ??_R1A@?0A@EA@type_info@@8 000000018004b6c8     LIBCMTD:std_type_info_static.obj
 0002:000109e0       __rtc_iaa                  000000018004b9e0     LIBCMTD:initsect.obj
 0002:000109e8       __rtc_izz                  000000018004b9e8     LIBCMTD:initsect.obj
 0002:000109f0       __rtc_taa                  000000018004b9f0     LIBCMTD:initsect.obj
 0002:000109f8       __rtc_tzz                  000000018004b9f8     LIBCMTD:initsect.obj
 0002:00011aa8       _TI2?AVbad_exception@std@@ 000000018004caa8     libvcruntimed:frame.obj
 0002:00011ac8       _CTA2?AVbad_exception@std@@ 000000018004cac8     libvcruntimed:frame.obj
 0002:00011ae0       _CT??_R0?AVbad_exception@std@@@8??0bad_exception@std@@QEAA@AEBV01@@Z24 000000018004cae0     libvcruntimed:frame.obj
 0002:00011b08       _CT??_R0?AVexception@std@@@8??0exception@std@@QEAA@AEBV01@@Z24 000000018004cb08     libvcruntimed:frame.obj
 0002:00011ba4       __IMPORT_DESCRIPTOR_KERNEL32 000000018004cba4     kernel32:KERNEL32.dll
 0002:00011bb8       __NULL_IMPORT_DESCRIPTOR   000000018004cbb8     kernel32:KERNEL32.dll
 0003:00000000       __security_cookie_complement 000000018004e000     LIBCMTD:gs_cookie.obj
 0003:00000008       __security_cookie          000000018004e008     LIBCMTD:gs_cookie.obj
 0003:00000010       _fltused                   000000018004e010     LIBCMTD:fltused.obj
 0003:00000014       __scrt_native_dllmain_reason 000000018004e014     LIBCMTD:utility.obj
 0003:00000018       __isa_available            000000018004e018     LIBCMTD:cpu_disp.obj
 0003:0000001c       __isa_enabled              000000018004e01c     LIBCMTD:cpu_disp.obj
 0003:00000020       __memcpy_nt_iters          000000018004e020     LIBCMTD:cpu_disp.obj
 0003:00000028       __memset_nt_iters          000000018004e028     LIBCMTD:cpu_disp.obj
 0003:00000044       _crtDbgFlag                000000018004e044     libucrtd:debug_heap.obj
 0003:00000048       _crtBreakAlloc             000000018004e048     libucrtd:debug_heap.obj
 0003:00000050       __abort_behavior           000000018004e050     libucrtd:abort.obj
 0003:00000070       __acrt_initial_multibyte_data 000000018004e070     libucrtd:mbctype.obj
 0003:000005b0       __acrt_initial_locale_data 000000018004e5b0     libucrtd:nlsdata.obj
 0003:00000708       __acrt_initial_locale_pointers 000000018004e708     libucrtd:nlsdata.obj
 0003:00000718       __acrt_wide_c_locale_string 000000018004e718     libucrtd:nlsdata.obj
 0003:00000720       _pfnAllocHook              000000018004e720     libucrtd:debug_heap_hook.obj
 0003:00000730       _iob                       000000018004e730     libucrtd:_file.obj
 0003:00000838       _crtAssertBusy             000000018004e838     libucrtd:dbgrptt.obj
 0003:00000840       _CrtDbgMode                000000018004e840     libucrtd:dbgrptt.obj
 0003:00000850       _CrtDbgFile                000000018004e850     libucrtd:dbgrptt.obj
 0003:0000086c       __globallocalestatus       000000018004e86c     libucrtd:glstatus.obj
 0003:00000870       __acrt_lconv_c             000000018004e870     libucrtd:localeconv.obj
 0003:00000908       __acrt_lconv_static_decimal 000000018004e908     libucrtd:localeconv.obj
 0003:0000090c       __acrt_lconv_static_W_decimal 000000018004e90c     libucrtd:localeconv.obj
 0003:00000910       _pwctype                   000000018004e910     libucrtd:ctype.obj
 0003:00000920       _lookuptrailbytes          000000018004e920     libucrtd:read.obj
 0003:00000a30       ??_R0?AVbad_exception@std@@@8 000000018004ea30     libvcruntimed:frame.obj
 0003:00000a58       ??_R0?AVexception@std@@@8  000000018004ea58     libvcruntimed:frame.obj
 0003:00000a80       ??_R0?AVtype_info@@@8      000000018004ea80     LIBCMTD:std_type_info_static.obj
 0003:00001020       ?__type_info_root_node@@3U__type_info_node@@A 000000018004f020     LIBCMTD:tncleanup.obj
 0003:00001030       ?_OptionsStorage@?1??__local_stdio_printf_options@@9@4_KA 000000018004f030     LIBCMTD:default_local_stdio_options.obj
 0003:00001038       ?_OptionsStorage@?1??__local_stdio_scanf_options@@9@4_KA 000000018004f038     LIBCMTD:default_local_stdio_options.obj
 0003:00001040       __scrt_current_native_startup_state 000000018004f040     LIBCMTD:utility.obj
 0003:00001048       __scrt_native_startup_lock 000000018004f048     LIBCMTD:utility.obj
 0003:00001088       __scrt_debugger_hook_flag  000000018004f088     LIBCMTD:utility_desktop.obj
 0003:0000108c       __favor                    000000018004f08c     LIBCMTD:cpu_disp.obj
 0003:00001090       ?__WinRTOutOfMemoryExceptionCallback@@3P6APEAXXZEA 000000018004f090     libvcruntimed:ehhelpers.obj
 0003:00001098       ?pArgList@UnDecorator@@0PEAVReplicator@@EA 000000018004f098     libvcruntimed:undname.obj
 0003:000010a0       ?pZNameList@UnDecorator@@0PEAVReplicator@@EA 000000018004f0a0     libvcruntimed:undname.obj
 0003:000010a8       ?pTemplateArgList@UnDecorator@@0PEAVReplicator@@EA 000000018004f0a8     libvcruntimed:undname.obj
 0003:000010b0       ?gName@UnDecorator@@0PEBDEB 000000018004f0b0     libvcruntimed:undname.obj
 0003:000010b8       ?name@UnDecorator@@0PEBDEB 000000018004f0b8     libvcruntimed:undname.obj
 0003:000010c0       ?disableFlags@UnDecorator@@0KA 000000018004f0c0     libvcruntimed:undname.obj
 0003:000010c4       ?fExplicitTemplateParams@UnDecorator@@0_NA 000000018004f0c4     libvcruntimed:undname.obj
 0003:000010c5       ?fGetTemplateArgumentList@UnDecorator@@0_NA 000000018004f0c5     libvcruntimed:undname.obj
 0003:000010c8       ?m_pGetParameter@UnDecorator@@0P6APEADJ@ZEA 000000018004f0c8     libvcruntimed:undname.obj
 0003:000010d0       ?m_CHPENameOffset@UnDecorator@@0KA 000000018004f0d0     libvcruntimed:undname.obj
 0003:000010d4       ?m_recursionLevel@UnDecorator@@0KA 000000018004f0d4     libvcruntimed:undname.obj
 0003:000011f0       __pPurecall                000000018004f1f0     libvcruntimed:purevirt_data.obj
 0003:00001208       ?c_exit_complete@?1???R<lambda_6e4b09c48022b2350581041d5f6b0c4c>@@QEBA@XZ@4_NA 000000018004f208     libucrtd:exit.obj
 0003:00001318       _environ_table             000000018004f318     libucrtd:environment_initialization.obj
 0003:00001320       _wenviron_table            000000018004f320     libucrtd:environment_initialization.obj
 0003:00001328       __dcrt_initial_wide_environment 000000018004f328     libucrtd:environment_initialization.obj
 0003:00001330       __dcrt_initial_narrow_environment 000000018004f330     libucrtd:environment_initialization.obj
 0003:00001338       __acrt_atexit_table        000000018004f338     libucrtd:onexit.obj
 0003:00001350       __acrt_at_quick_exit_table 000000018004f350     libucrtd:onexit.obj
 0003:00001398       _pfnDumpClient             000000018004f398     libucrtd:debug_heap.obj
 0003:000015f8       _mbctype                   000000018004f5f8     libucrtd:mbctype.obj
 0003:00001600       _mbcasemap                 000000018004f600     libucrtd:mbctype.obj
 0003:00001608       __acrt_current_multibyte_data 000000018004f608     libucrtd:mbctype.obj
 0003:00001618       _pgmptr                    000000018004f618     libucrtd:argv_data.obj
 0003:00001620       __argc                     000000018004f620     libucrtd:argv_data.obj
 0003:00001628       __argv                     000000018004f628     libucrtd:argv_data.obj
 0003:00001630       __wargv                    000000018004f630     libucrtd:argv_data.obj
 0003:00001638       _acmdln                    000000018004f638     libucrtd:argv_data.obj
 0003:00001640       _wcmdln                    000000018004f640     libucrtd:argv_data.obj
 0003:00001800       __acrt_heap                000000018004f800     libucrtd:heap_handle.obj
 0003:00001810       __pioinfo                  000000018004f810     libucrtd:ioinit.obj
 0003:00001c10       _nhandle                   000000018004fc10     libucrtd:ioinit.obj
 0003:00001c48       __acrt_current_locale_data 000000018004fc48     libucrtd:nlsdata.obj
 0003:00001c50       __acrt_stdout_buffer       000000018004fc50     libucrtd:_sftbuf.obj
 0003:00001c58       __acrt_stderr_buffer       000000018004fc58     libucrtd:_sftbuf.obj
 0003:00001c64       __acrt_locale_changed_data 000000018004fc64     libucrtd:wsetlocale.obj
 0003:000022a0       _nstream                   00000001800502a0     libucrtd:_file.obj
 0003:000022a8       __piob                     00000001800502a8     libucrtd:_file.obj
 0003:000022b8       _pfnReportHook             00000001800502b8     libucrtd:dbgrptt.obj
 0003:000022c0       _pReportHookList           00000001800502c0     libucrtd:dbgrptt.obj
 0003:000022c8       _pReportHookListW          00000001800502c8     libucrtd:dbgrptt.obj
 0003:000022d0       __acrt_lconv_static_null   00000001800502d0     libucrtd:localeconv.obj
 0003:000022d4       __acrt_lconv_static_W_null 00000001800502d4     libucrtd:localeconv.obj
 0003:000022e8       __fma3_is_available        00000001800502e8     libucrtd:fma3_available.obj
 0003:000022ec       __use_fma3_lib             00000001800502ec     libucrtd:fma3_available.obj
 0003:000022f8       __scrt_ucrt_dll_is_in_use  00000001800502f8     <common>
 0003:00002300       __dyn_tls_init_callback    0000000180050300     <common>

 entry point at        0001:00003290

 Static symbols

 0000:fffaa000       .debug$S                   0000000180000000     handmade.exp
 0000:fffaa000       .debug$S                   0000000180000000     kernel32:KERNEL32.dll
 0000:fffaa000       .debug$S                   0000000180000000     kernel32:KERNEL32.dll
 0000:fffaa000       .debug$S                   0000000180000000     kernel32:KERNEL32.dll
 0000:fffaa000       .debug$S                   0000000180000000     kernel32:KERNEL32.dll
 0000:fffaa000       .debug$S                   0000000180000000     kernel32:KERNEL32.dll
 0000:fffaa000       .debug$S                   0000000180000000     kernel32:KERNEL32.dll
 0000:fffaa000       .debug$S                   0000000180000000     kernel32:KERNEL32.dll
 0000:fffaa000       .debug$S                   0000000180000000     kernel32:KERNEL32.dll
 0000:fffaa000       .debug$S                   0000000180000000     kernel32:KERNEL32.dll
 0000:fffaa000       .debug$S                   0000000180000000     kernel32:KERNEL32.dll
 0000:fffaa000       .debug$S                   0000000180000000     kernel32:KERNEL32.dll
 0000:fffaa000       .debug$S                   0000000180000000     kernel32:KERNEL32.dll
 0000:fffaa000       .debug$S                   0000000180000000     kernel32:KERNEL32.dll
 0000:fffaa000       .debug$S                   0000000180000000     kernel32:KERNEL32.dll
 0000:fffaa000       .debug$S                   0000000180000000     kernel32:KERNEL32.dll
 0000:fffaa000       .debug$S                   0000000180000000     kernel32:KERNEL32.dll
 0000:fffaa000       .debug$S                   0000000180000000     kernel32:KERNEL32.dll
 0000:fffaa000       .debug$S                   0000000180000000     kernel32:KERNEL32.dll
 0000:fffaa000       .debug$S                   0000000180000000     kernel32:KERNEL32.dll
 0000:fffaa000       .debug$S                   0000000180000000     kernel32:KERNEL32.dll
 0000:fffaa000       .debug$S                   0000000180000000     kernel32:KERNEL32.dll
 0000:fffaa000       .debug$S                   0000000180000000     kernel32:KERNEL32.dll
 0000:fffaa000       .debug$S                   0000000180000000     kernel32:KERNEL32.dll
 0000:fffaa000       .debug$S                   0000000180000000     kernel32:KERNEL32.dll
 0000:fffaa000       .debug$S                   0000000180000000     kernel32:KERNEL32.dll
 0000:fffaa000       .debug$S                   0000000180000000     kernel32:KERNEL32.dll
 0000:fffaa000       .debug$S                   0000000180000000     kernel32:KERNEL32.dll
 0000:fffaa000       .debug$S                   0000000180000000     kernel32:KERNEL32.dll
 0000:fffaa000       .debug$S                   0000000180000000     kernel32:KERNEL32.dll
 0000:fffaa000       .debug$S                   0000000180000000     kernel32:KERNEL32.dll
 0000:fffaa000       .debug$S                   0000000180000000     kernel32:KERNEL32.dll
 0000:fffaa000       .debug$S                   0000000180000000     kernel32:KERNEL32.dll
 0000:fffaa000       .debug$S                   0000000180000000     kernel32:KERNEL32.dll
 0000:fffaa000       .debug$S                   0000000180000000     kernel32:KERNEL32.dll
 0000:fffaa000       .debug$S                   0000000180000000     kernel32:KERNEL32.dll
 0000:fffaa000       .debug$S                   0000000180000000     kernel32:KERNEL32.dll
 0000:fffaa000       .debug$S                   0000000180000000     kernel32:KERNEL32.dll
 0000:fffaa000       .debug$S                   0000000180000000     kernel32:KERNEL32.dll
 0000:fffaa000       .debug$S                   0000000180000000     kernel32:KERNEL32.dll
 0000:fffaa000       .debug$S                   0000000180000000     kernel32:KERNEL32.dll
 0000:fffaa000       .debug$S                   0000000180000000     kernel32:KERNEL32.dll
 0000:fffaa000       .debug$S                   0000000180000000     kernel32:KERNEL32.dll
 0000:fffaa000       .debug$S                   0000000180000000     kernel32:KERNEL32.dll
 0000:fffaa000       .debug$S                   0000000180000000     kernel32:KERNEL32.dll
 0000:fffaa000       .debug$S                   0000000180000000     kernel32:KERNEL32.dll
 0000:fffaa000       .debug$S                   0000000180000000     kernel32:KERNEL32.dll
 0000:fffaa000       .debug$S                   0000000180000000     kernel32:KERNEL32.dll
 0000:fffaa000       .debug$S                   0000000180000000     kernel32:KERNEL32.dll
 0000:fffaa000       .debug$S                   0000000180000000     kernel32:KERNEL32.dll
 0000:fffaa000       .debug$S                   0000000180000000     kernel32:KERNEL32.dll
 0000:fffaa000       .debug$S                   0000000180000000     kernel32:KERNEL32.dll
 0000:fffaa000       .debug$S                   0000000180000000     kernel32:KERNEL32.dll
 0000:fffaa000       .debug$S                   0000000180000000     kernel32:KERNEL32.dll
 0000:fffaa000       .debug$S                   0000000180000000     kernel32:KERNEL32.dll
 0000:fffaa000       .debug$S                   0000000180000000     kernel32:KERNEL32.dll
 0000:fffaa000       .debug$S                   0000000180000000     kernel32:KERNEL32.dll
 0000:fffaa000       .debug$S                   0000000180000000     kernel32:KERNEL32.dll
 0000:fffaa000       .debug$S                   0000000180000000     kernel32:KERNEL32.dll
 0000:fffaa000       .debug$S                   0000000180000000     kernel32:KERNEL32.dll
 0000:fffaa000       .debug$S                   0000000180000000     kernel32:KERNEL32.dll
 0000:fffaa000       .debug$S                   0000000180000000     kernel32:KERNEL32.dll
 0000:fffaa000       .debug$S                   0000000180000000     kernel32:KERNEL32.dll
 0000:fffaa000       .debug$S                   0000000180000000     kernel32:KERNEL32.dll
 0000:fffaa000       .debug$S                   0000000180000000     kernel32:KERNEL32.dll
 0000:fffaa000       .debug$S                   0000000180000000     kernel32:KERNEL32.dll
 0000:fffaa000       .debug$S                   0000000180000000     kernel32:KERNEL32.dll
 0000:fffaa000       .debug$S                   0000000180000000     kernel32:KERNEL32.dll
 0000:fffaa000       .debug$S                   0000000180000000     kernel32:KERNEL32.dll
 0000:fffaa000       .debug$S                   0000000180000000     kernel32:KERNEL32.dll
 0000:fffaa000       .debug$S                   0000000180000000     kernel32:KERNEL32.dll
 0000:fffaa000       .debug$S                   0000000180000000     kernel32:KERNEL32.dll
 0000:fffaa000       .debug$S                   0000000180000000     kernel32:KERNEL32.dll
 0000:fffaa000       .debug$S                   0000000180000000     kernel32:KERNEL32.dll
 0000:fffaa000       .debug$S                   0000000180000000     kernel32:KERNEL32.dll
 0000:fffaa000       .debug$S                   0000000180000000     kernel32:KERNEL32.dll
 0000:fffaa000       .debug$S                   0000000180000000     kernel32:KERNEL32.dll
 0000:fffaa000       .debug$S                   0000000180000000     kernel32:KERNEL32.dll
 0000:fffaa000       .debug$S                   0000000180000000     kernel32:KERNEL32.dll
 0000:fffaa000       .debug$S                   0000000180000000     kernel32:KERNEL32.dll
 0000:fffaa000       .debug$S                   0000000180000000     kernel32:KERNEL32.dll
 0000:fffaa000       .debug$S                   0000000180000000     kernel32:KERNEL32.dll
 0000:fffaa000       .debug$S                   0000000180000000     kernel32:KERNEL32.dll
 0000:fffaa000       .debug$S                   0000000180000000     kernel32:KERNEL32.dll
 0000:fffaa000       .debug$S                   0000000180000000     kernel32:KERNEL32.dll
 0000:fffaa000       .debug$S                   0000000180000000     kernel32:KERNEL32.dll
 0000:fffaa000       .debug$S                   0000000180000000     kernel32:KERNEL32.dll
 0000:fffaa000       .debug$S                   0000000180000000     kernel32:KERNEL32.dll
 0001:00000000       ?GameOutputSound@@YAXPEAUthread_context@@PEAUgame_state@@PEAUgame_sound_output_buffer@@H@Z 0000000180001000 f   handmade.obj
 0001:000000b0       ?DrawRectangle@@YAXPEAUgame_offscreen_buffer@@MMMMMMM@Z 00000001800010b0 f   handmade.obj
 0001:000002b0       ?IsWorldPointEmpty@@YAHPEAUworld@@Ucanonical_position@@@Z 00000001800012b0 f   handmade.obj
 0001:00002e40       $$000000                   0000000180003e40     LIBCMTD:amdsecgs.obj
 0001:00002e80       ?dllmain_crt_dispatch@@YAHQEAUHINSTANCE__@@KQEAX@Z 0000000180003e80 f   LIBCMTD:dll_dllmain.obj
 0001:00002f10       ?dllmain_crt_process_attach@@YAHQEAUHINSTANCE__@@QEAX@Z 0000000180003f10 f   LIBCMTD:dll_dllmain.obj
 0001:00003050       ?dllmain_crt_process_detach@@YAH_N@Z 0000000180004050 f   LIBCMTD:dll_dllmain.obj
 0001:000030f0       ?dllmain_dispatch@@YAHQEAUHINSTANCE__@@KQEAX@Z 00000001800040f0 f   LIBCMTD:dll_dllmain.obj
 0001:00003230       ?dllmain_raw@@YAHQEAUHINSTANCE__@@KQEAX@Z 0000000180004230 f   LIBCMTD:dll_dllmain.obj
 0001:000034b0       capture_current_context    00000001800044b0 f   LIBCMTD:gs_report.obj
 0001:000034b0       ?capture_current_context@@YAXQEAU_CONTEXT@@@Z 00000001800044b0 f   libucrtd:invalid_parameter.obj
 0001:00003550       capture_previous_context   0000000180004550 f   LIBCMTD:gs_report.obj
 0001:00003610       __get_entropy              0000000180004610 f   LIBCMTD:gs_support.obj
 0001:00003840       ?find_pe_section@@YAPEAU_IMAGE_SECTION_HEADER@@QEAE_K@Z 0000000180004840 f   LIBCMTD:utility.obj
 0001:00003920       ?is_potentially_valid_image_base@@YA_NQEAX@Z 0000000180004920 f   LIBCMTD:utility.obj
 0001:00004970       ??0<lambda_8d0ee55de4b1038c4002e0adecdf1839>@@QEAA@AEBQEAU__acrt_ptd@@@Z 0000000180005970 f i libucrtd:per_thread_data.obj
 0001:00004970       ??0<lambda_8f455de75cd7d7f24b4096f044d8b9e6>@@QEAA@AEBQEAU__acrt_ptd@@@Z 0000000180005970 f i libucrtd:per_thread_data.obj
 0001:00004970       ??0<lambda_e157831efee4ea0afb0a2ace5dd5fd0d>@@QEAA@AEBQEAU__acrt_ptd@@@Z 0000000180005970 f i libucrtd:per_thread_data.obj
 0001:00004970       ??0<lambda_4e7105787b7b0e0227fbf2b2d883fa65>@@QEAA@AEBH@Z 0000000180005970 f i libucrtd:close.obj
 0001:00004970       ??0<lambda_5533cddd4bda0037814beee657757329>@@QEAA@AEBH@Z 0000000180005970 f i libucrtd:commit.obj
 0001:00004970       ??0<lambda_df1553121bfa390f1154bd84936f2730>@@QEAA@AEAV?$__crt_unique_heap_ptr@PEADU__crt_internal_free_policy@@@@@Z 0000000180005970 f i libucrtd:argv_parsing.obj
 0001:00004970       ??0<lambda_d121dba8a4adeaf3a9819e48611155df>@@QEAA@AEBQEAU_onexit_table_t@@@Z 0000000180005970 f i libucrtd:onexit.obj
 0001:000049d0       ?begin@?$argument_list@D@?A0x5f5c8891@@QEBAPEAPEADXZ 00000001800059d0 f i libucrtd:argv_wildcards.obj
 0001:00004b90       init_memcpy_functions      0000000180005b90 f   libvcruntimed:initialization.obj
 0001:00004cd0       ?_FilterSetCurrentException@@YAKPEAU_EXCEPTION_POINTERS@@E@Z 0000000180005cd0 f   libvcruntimed:ehhelpers.obj
 0001:00004ef0       $$000000                   0000000180005ef0     libvcruntimed:notify.obj
 0001:00005070       ??0scoped_get_last_error_reset@?A0x8fdcb2b3@@QEAA@XZ 0000000180006070 f   libvcruntimed:per_thread_data.obj
 0001:00005090       ??1scoped_get_last_error_reset@?A0x8fdcb2b3@@QEAA@XZ 0000000180006090 f   libvcruntimed:per_thread_data.obj
 0001:000050e0       ?store_and_initialize_ptd@@YA_NQEAU__vcrt_ptd@@@Z 00000001800060e0 f   libvcruntimed:per_thread_data.obj
 0001:000054e0       $$000000                   00000001800064e0     libvcruntimed:memcpy.obj
 0001:00005950       ??$SehTransFilter@V__FrameHandler3@@@@YAHPEAU_EXCEPTION_POINTERS@@PEAUEHExceptionRecord@@PEA_KPEAU_CONTEXT@@PEAU_xDISPATCHER_CONTEXT@@PEBU_s_FuncInfo@@PEAH@Z 0000000180006950 f   libvcruntimed:risctrnsctrl.obj
 0001:000063e0       ?invalid_function_sentinel@@YAPEAXXZ 00000001800073e0 f   libvcruntimed:winapi_downlevel.obj
 0001:000063e0       ?invalid_function_sentinel@@YAPEAXXZ 00000001800073e0 f   libucrtd:winapi_thunks.obj
 0001:000063f0       ?try_get_FlsAlloc@@YAP6AKP6AXPEAX@Z@ZXZ 00000001800073f0 f   libvcruntimed:winapi_downlevel.obj
 0001:00006420       ?try_get_FlsFree@@YAP6AHK@ZXZ 0000000180007420 f   libvcruntimed:winapi_downlevel.obj
 0001:00006450       ?try_get_FlsGetValue@@YAP6APEAXK@ZXZ 0000000180007450 f   libvcruntimed:winapi_downlevel.obj
 0001:00006480       ?try_get_FlsSetValue@@YAP6AHKPEAX@ZXZ 0000000180007480 f   libvcruntimed:winapi_downlevel.obj
 0001:000064b0       ?try_get_InitializeCriticalSectionEx@@YAP6AHPEAU_RTL_CRITICAL_SECTION@@KK@ZXZ 00000001800074b0 f   libvcruntimed:winapi_downlevel.obj
 0001:000064e0       ?try_get_first_available_module@@YAPEAUHINSTANCE__@@QEBW4module_id@?A0x5a6460af@@0@Z 00000001800074e0 f   libvcruntimed:winapi_downlevel.obj
 0001:00006540       ?try_get_function@@YAPEAXW4function_id@?A0x5a6460af@@QEBDQEBW4module_id@2@2@Z 0000000180007540 f   libvcruntimed:winapi_downlevel.obj
 0001:000066b0       ?try_get_module@@YAPEAUHINSTANCE__@@W4module_id@?A0x5a6460af@@@Z 00000001800076b0 f   libvcruntimed:winapi_downlevel.obj
 0001:00006810       ?try_get_proc_address_from_first_available_module@@YAPEAXQEBDQEBW4module_id@?A0x5a6460af@@1@Z 0000000180007810 f   libvcruntimed:winapi_downlevel.obj
 0001:00006860       ?try_load_library_from_system_directory@@YAPEAUHINSTANCE__@@QEB_W@Z 0000000180007860 f   libvcruntimed:winapi_downlevel.obj
 0001:00006d30       ?adjustIp@@YA_KPEAU_xDISPATCHER_CONTEXT@@_K@Z 0000000180007d30 f   libvcruntimed:ehstate.obj
 0001:00006d40       ??$BuildCatchObjectHelperInternal@V__FrameHandler3@@@@YAHPEAUEHExceptionRecord@@PEAXPEBU_s_HandlerType@@PEBU_s_CatchableType@@@Z 0000000180007d40 f   libvcruntimed:frame.obj
 0001:00007120       ??$BuildCatchObjectInternal@V__FrameHandler3@@@@YAXPEAUEHExceptionRecord@@PEAXPEBU_s_HandlerType@@PEBU_s_CatchableType@@@Z 0000000180008120 f   libvcruntimed:frame.obj
 0001:00007270       ??$CatchIt@V__FrameHandler3@@@@YAXPEAUEHExceptionRecord@@PEA_KPEAU_CONTEXT@@PEAU_xDISPATCHER_CONTEXT@@PEBU_s_FuncInfo@@PEBU_s_HandlerType@@PEBU_s_CatchableType@@PEBU_s_TryBlockMapEntry@@H1EE@Z 0000000180008270 f   libvcruntimed:frame.obj
 0001:000073b0       ??$FindHandler@V__FrameHandler3@@@@YAXPEAUEHExceptionRecord@@PEA_KPEAU_CONTEXT@@PEAU_xDISPATCHER_CONTEXT@@PEBU_s_FuncInfo@@EH1@Z 00000001800083b0 f   libvcruntimed:frame.obj
 0001:00007b90       ??$FindHandlerForForeignException@V__FrameHandler3@@@@YAXPEAUEHExceptionRecord@@PEA_KPEAU_CONTEXT@@PEAU_xDISPATCHER_CONTEXT@@PEBU_s_FuncInfo@@HH1@Z 0000000180008b90 f   libvcruntimed:frame.obj
 0001:000085a0       ??0<lambda_92619d2358a28f41a33ba319515a20b9>@@QEAA@AEBQEAU__acrt_ptd@@AEBQEAPEAU__crt_locale_data@@@Z 00000001800095a0 f i libucrtd:per_thread_data.obj
 0001:000085a0       ??0<lambda_bd5a608237428601b7e45fbdc72b1ae8>@@QEAA@AEBQEAU__acrt_ptd@@AEBQEAPEAU__crt_multibyte_data@@@Z 00000001800095a0 f i libucrtd:mbctype.obj
 0001:00008c30       ?ExFilterRethrow@@YAHPEAU_EXCEPTION_POINTERS@@PEAUEHExceptionRecord@@PEAH@Z 0000000180009c30 f   libvcruntimed:frame.obj
 0001:00009050       ?IsInExceptionSpec@@YAEPEAUEHExceptionRecord@@PEBU_s_ESTypeList@@@Z 000000018000a050 f   libvcruntimed:frame.obj
 0001:00009170       ?Is_bad_exception_allowed@@YAEPEBU_s_ESTypeList@@@Z 000000018000a170 f   libvcruntimed:frame.obj
 0001:000092f0       ?__RethrowException@@YAXPEAUEHExceptionRecord@@@Z 000000018000a2f0 f   libvcruntimed:frame.obj
 0001:00009510       $$000000                   000000018000a510     libvcruntimed:memset.obj
 0001:000096d0       $$000000                   000000018000a6d0     libvcruntimed:handlers.obj
 0001:00009d30       ?xcptlookup@@YAPEAU__crt_signal_action_t@@KQEAU1@@Z 000000018000ad30 f   libucrtd:exception_filter.obj
 0001:0000a050       $LN33                      000000018000b050     libucrtd:exception_filter.obj
 0001:0000a090       ??$?RV<lambda_d80eeec6fff315bfe5c115232f3240e3>@@AEAV<lambda_6e4b09c48022b2350581041d5f6b0c4c>@@V<lambda_2358e3775559c9db80273638284d5e45>@@@?$__crt_seh_guarded_call@X@@QEAAX$$QEAV<lambda_d80eeec6fff315bfe5c115232f3240e3>@@AEAV<lambda_6e4b09c48022b2350581041d5f6b0c4c>@@$$QEAV<lambda_2358e3775559c9db80273638284d5e45>@@@Z 000000018000b090 f   libucrtd:exit.obj
 0001:0000a0d0       ??$__acrt_lock_and_call@V<lambda_6e4b09c48022b2350581041d5f6b0c4c>@@@@YAXW4__acrt_lock_id@@$$QEAV<lambda_6e4b09c48022b2350581041d5f6b0c4c>@@@Z 000000018000b0d0 f   libucrtd:exit.obj
 0001:0000a1f0       ??0<lambda_04ddeca75b7c13fd67716e8dfcef87ee>@@QEAA@AEBW4__acrt_lock_id@@@Z 000000018000b1f0 f   libucrtd:per_thread_data.obj
 0001:0000a1f0       ??0<lambda_0ae27a3a962d80f24befdcbee591983d>@@QEAA@AEBW4__acrt_lock_id@@@Z 000000018000b1f0 f   libucrtd:per_thread_data.obj
 0001:0000a1f0       ??0<lambda_2d41944a1d46af3157314b8a01080d33>@@QEAA@AEBW4__acrt_lock_id@@@Z 000000018000b1f0 f   libucrtd:per_thread_data.obj
 0001:0000a1f0       ??0<lambda_6992ecaafeb10aed2b74cb1fae11a551>@@QEAA@AEBW4__acrt_lock_id@@@Z 000000018000b1f0 f   libucrtd:per_thread_data.obj
 0001:0000a1f0       ??0<lambda_74a0ef281e44d15e1136f792f539efb3>@@QEAA@AEBW4__acrt_lock_id@@@Z 000000018000b1f0 f   libucrtd:per_thread_data.obj
 0001:0000a1f0       ??0<lambda_aa500f224e6afead328df44964fe2772>@@QEAA@AEBW4__acrt_lock_id@@@Z 000000018000b1f0 f   libucrtd:per_thread_data.obj
 0001:0000a1f0       ??0<lambda_aa87e3671a710a21b5dc78c0bdf72e11>@@QEAA@AEBW4__acrt_lock_id@@@Z 000000018000b1f0 f   libucrtd:per_thread_data.obj
 0001:0000a1f0       ??0<lambda_dc504788e8f1664fe9b84e20bfb512f2>@@QEAA@AEBW4__acrt_lock_id@@@Z 000000018000b1f0 f   libucrtd:per_thread_data.obj
 0001:0000a1f0       ??0<lambda_38119f0e861e05405d8a144b9b982f0a>@@QEAA@AEBW4__acrt_lock_id@@@Z 000000018000b1f0 f   libucrtd:wsetlocale.obj
 0001:0000a1f0       ??0<lambda_410d79af7f07d98d83a3f525b3859a53>@@QEAA@AEBW4__acrt_lock_id@@@Z 000000018000b1f0 f   libucrtd:wsetlocale.obj
 0001:0000a1f0       ??0<lambda_53fc7fc888e23d815d7080162c0aeeb2>@@QEAA@AEBH@Z 000000018000b1f0 f   libucrtd:close.obj
 0001:0000a1f0       ??0<lambda_8ddc48ad9d26c778cb15812d1d88fc8a>@@QEAA@AEBH@Z 000000018000b1f0 f   libucrtd:close.obj
 0001:0000a1f0       ??0<lambda_47cffbaa968af5c721c38a4a6f8da44d>@@QEAA@AEBH@Z 000000018000b1f0 f   libucrtd:commit.obj
 0001:0000a1f0       ??0<lambda_4e3dbe6921bc0b5a1a6bc6573fdc859e>@@QEAA@AEBH@Z 000000018000b1f0 f   libucrtd:commit.obj
 0001:0000a1f0       ??0<lambda_728235dc0fc2b1f82d1fa5b3e7102d8f>@@QEAA@AEBW4__acrt_lock_id@@@Z 000000018000b1f0 f   libucrtd:mbctype.obj
 0001:0000a1f0       ??0<lambda_efa02eb69bf647d2f7ff0dd6f1103f72>@@QEAA@AEBW4__acrt_lock_id@@@Z 000000018000b1f0 f   libucrtd:mbctype.obj
 0001:0000a1f0       ??0<lambda_450d765d439847d4c735a33c368b5fc0>@@QEAA@AEBW4__acrt_lock_id@@@Z 000000018000b1f0 f   libucrtd:signal.obj
 0001:0000a1f0       ??0<lambda_601a2a7da3b7a96e9554ac7215c4b07c>@@QEAA@AEBW4__acrt_lock_id@@@Z 000000018000b1f0 f   libucrtd:signal.obj
 0001:0000a1f0       ??0<lambda_2358e3775559c9db80273638284d5e45>@@QEAA@AEBW4__acrt_lock_id@@@Z 000000018000b1f0 f   libucrtd:exit.obj
 0001:0000a1f0       ??0<lambda_d80eeec6fff315bfe5c115232f3240e3>@@QEAA@AEBW4__acrt_lock_id@@@Z 000000018000b1f0 f   libucrtd:exit.obj
 0001:0000a1f0       ??0<lambda_6a47f4c8fd0152770a780fc1d70204eb>@@QEAA@AEBW4__acrt_lock_id@@@Z 000000018000b1f0 f   libucrtd:onexit.obj
 0001:0000a1f0       ??0<lambda_6aaa2265f5b6a89667e7d7630012e97a>@@QEAA@AEBW4__acrt_lock_id@@@Z 000000018000b1f0 f   libucrtd:onexit.obj
 0001:0000a1f0       ??0<lambda_886d6c58226a84441f68b9f2b8217b83>@@QEAA@AEBW4__acrt_lock_id@@@Z 000000018000b1f0 f   libucrtd:fflush.obj
 0001:0000a1f0       ??0<lambda_f7f22ab5edc0698d5f6905b0d3f44752>@@QEAA@AEBW4__acrt_lock_id@@@Z 000000018000b1f0 f   libucrtd:fflush.obj
 0001:0000a210       ??0<lambda_6e4b09c48022b2350581041d5f6b0c4c>@@QEAA@AEBW4_crt_exit_cleanup_mode@@AEBW4_crt_exit_return_mode@@AEA_N@Z 000000018000b210 f   libucrtd:exit.obj
 0001:0000a210       ??0<lambda_ab61a845afdef5b7c387490eaf3616ee>@@QEAA@AEAHAEB_N0@Z 000000018000b210 f   libucrtd:fflush.obj
 0001:0000a280       ??R<lambda_04ddeca75b7c13fd67716e8dfcef87ee>@@QEBAXXZ 000000018000b280 f   libucrtd:per_thread_data.obj
 0001:0000a280       ??R<lambda_6992ecaafeb10aed2b74cb1fae11a551>@@QEBAXXZ 000000018000b280 f   libucrtd:per_thread_data.obj
 0001:0000a280       ??R<lambda_aa500f224e6afead328df44964fe2772>@@QEBAXXZ 000000018000b280 f   libucrtd:per_thread_data.obj
 0001:0000a280       ??R<lambda_dc504788e8f1664fe9b84e20bfb512f2>@@QEBAXXZ 000000018000b280 f   libucrtd:per_thread_data.obj
 0001:0000a280       ??R<lambda_38119f0e861e05405d8a144b9b982f0a>@@QEBAXXZ 000000018000b280 f   libucrtd:wsetlocale.obj
 0001:0000a280       ??R<lambda_728235dc0fc2b1f82d1fa5b3e7102d8f>@@QEBAXXZ 000000018000b280 f   libucrtd:mbctype.obj
 0001:0000a280       ??R<lambda_601a2a7da3b7a96e9554ac7215c4b07c>@@QEBAXXZ 000000018000b280 f   libucrtd:signal.obj
 0001:0000a280       ??R<lambda_2358e3775559c9db80273638284d5e45>@@QEBAXXZ 000000018000b280 f   libucrtd:exit.obj
 0001:0000a280       ??R<lambda_6aaa2265f5b6a89667e7d7630012e97a>@@QEBAXXZ 000000018000b280 f   libucrtd:onexit.obj
 0001:0000a280       ??R<lambda_f7f22ab5edc0698d5f6905b0d3f44752>@@QEBAXXZ 000000018000b280 f   libucrtd:fflush.obj
 0001:0000a2a0       ??R<lambda_6e4b09c48022b2350581041d5f6b0c4c>@@QEBA@XZ 000000018000b2a0 f   libucrtd:exit.obj
 0001:0000a3a0       ??R<lambda_0ae27a3a962d80f24befdcbee591983d>@@QEBAXXZ 000000018000b3a0 f   libucrtd:per_thread_data.obj
 0001:0000a3a0       ??R<lambda_2d41944a1d46af3157314b8a01080d33>@@QEBAXXZ 000000018000b3a0 f   libucrtd:per_thread_data.obj
 0001:0000a3a0       ??R<lambda_74a0ef281e44d15e1136f792f539efb3>@@QEBAXXZ 000000018000b3a0 f   libucrtd:per_thread_data.obj
 0001:0000a3a0       ??R<lambda_aa87e3671a710a21b5dc78c0bdf72e11>@@QEBAXXZ 000000018000b3a0 f   libucrtd:per_thread_data.obj
 0001:0000a3a0       ??R<lambda_410d79af7f07d98d83a3f525b3859a53>@@QEBAXXZ 000000018000b3a0 f   libucrtd:wsetlocale.obj
 0001:0000a3a0       ??R<lambda_efa02eb69bf647d2f7ff0dd6f1103f72>@@QEBAXXZ 000000018000b3a0 f   libucrtd:mbctype.obj
 0001:0000a3a0       ??R<lambda_450d765d439847d4c735a33c368b5fc0>@@QEBAXXZ 000000018000b3a0 f   libucrtd:signal.obj
 0001:0000a3a0       ??R<lambda_d80eeec6fff315bfe5c115232f3240e3>@@QEBAXXZ 000000018000b3a0 f   libucrtd:exit.obj
 0001:0000a3a0       ??R<lambda_6a47f4c8fd0152770a780fc1d70204eb>@@QEBAXXZ 000000018000b3a0 f   libucrtd:onexit.obj
 0001:0000a3a0       ??R<lambda_886d6c58226a84441f68b9f2b8217b83>@@QEBAXXZ 000000018000b3a0 f   libucrtd:fflush.obj
 0001:0000a430       ?atexit_exception_filter@@YAHK@Z 000000018000b430 f   libucrtd:exit.obj
 0001:0000a4d0       ?common_exit@@YAXHW4_crt_exit_cleanup_mode@@W4_crt_exit_return_mode@@@Z 000000018000b4d0 f   libucrtd:exit.obj
 0001:0000a560       ?exit_or_terminate_process@@YAXI@Z 000000018000b560 f   libucrtd:exit.obj
 0001:0000a5b0       ?is_managed_app@@YA_NXZ    000000018000b5b0 f   libucrtd:exit.obj
 0001:0000a660       ?should_call_terminate_process@@YA_NXZ 000000018000b660 f   libucrtd:exit.obj
 0001:0000a6c0       ?try_cor_exit_process@@YAXI@Z 000000018000b6c0 f   libucrtd:exit.obj
 0001:0000a7e0       ??$common_configure_argv@D@@YAHW4_crt_argv_mode@@@Z 000000018000b7e0 f   libucrtd:argv_parsing.obj
 0001:0000abb0       ??$parse_command_line@D@@YAXPEADPEAPEAD0PEA_K2@Z 000000018000bbb0 f   libucrtd:argv_parsing.obj
 0001:0000b060       ??R<lambda_df1553121bfa390f1154bd84936f2730>@@QEBAHXZ 000000018000c060 f   libucrtd:argv_parsing.obj
 0001:0000b0c0       ?do_locale_initialization@@YAXD@Z 000000018000c0c0 f   libucrtd:argv_parsing.obj
 0001:0000b0e0       ?expand_argv_wildcards@@YAHQEAPEADQEAPEAPEAD@Z 000000018000c0e0 f   libucrtd:argv_parsing.obj
 0001:0000b110       ?get_argv@@YAAEAPEAPEADD@Z 000000018000c110 f   libucrtd:argv_parsing.obj
 0001:0000b120       ?get_command_line@@YAPEADD@Z 000000018000c120 f   libucrtd:argv_parsing.obj
 0001:0000b130       ?should_copy_another_character@@YA_ND@Z 000000018000c130 f   libucrtd:argv_parsing.obj
 0001:0000b2c4       ??$common_initialize_environment_nolock@D@@YAHXZ 000000018000c2c4 f   libucrtd:environment_initialization.obj
 0001:0000b33c       ??$create_environment@D@@YAQEAPEADQEAD@Z 000000018000c33c f   libucrtd:environment_initialization.obj
 0001:0000b498       ??$free_environment@D@@YAXQEAPEAD@Z 000000018000c498 f   libucrtd:environment_initialization.obj
 0001:0000b498       ??$free_environment@_W@@YAXQEAPEA_W@Z 000000018000c498 f   libucrtd:environment_initialization.obj
 0001:0000b4f4       ??$uninitialize_environment_internal@D@@YAXAEAPEAPEAD@Z 000000018000c4f4 f   libucrtd:environment_initialization.obj
 0001:0000b510       ??$uninitialize_environment_internal@_W@@YAXAEAPEAPEA_W@Z 000000018000c510 f   libucrtd:environment_initialization.obj
 0001:0000b5b0       ??$?RV<lambda_6a47f4c8fd0152770a780fc1d70204eb>@@AEAV<lambda_d121dba8a4adeaf3a9819e48611155df>@@V<lambda_6aaa2265f5b6a89667e7d7630012e97a>@@@?$__crt_seh_guarded_call@H@@QEAAH$$QEAV<lambda_6a47f4c8fd0152770a780fc1d70204eb>@@AEAV<lambda_d121dba8a4adeaf3a9819e48611155df>@@$$QEAV<lambda_6aaa2265f5b6a89667e7d7630012e97a>@@@Z 000000018000c5b0 f   libucrtd:onexit.obj
 0001:0000b600       ??$__acrt_lock_and_call@V<lambda_d121dba8a4adeaf3a9819e48611155df>@@@@YAHW4__acrt_lock_id@@$$QEAV<lambda_d121dba8a4adeaf3a9819e48611155df>@@@Z 000000018000c600 f   libucrtd:onexit.obj
 0001:0000b650       ??R<lambda_d121dba8a4adeaf3a9819e48611155df>@@QEBAHXZ 000000018000c650 f   libucrtd:onexit.obj
 0001:0000b940       initialize_global_variables 000000018000c940 f   libucrtd:initialization.obj
 0001:0000b960       initialize_c               000000018000c960 f   libucrtd:initialization.obj
 0001:0000b990       uninitialize_c             000000018000c990 f   libucrtd:initialization.obj
 0001:0000b990       uninitialize_global_state_isolation 000000018000c990 f   libucrtd:initialization.obj
 0001:0000b9a0       initialize_environment     000000018000c9a0 f   libucrtd:initialization.obj
 0001:0000b9a0       initialize_global_state_isolation 000000018000c9a0 f   libucrtd:initialization.obj
 0001:0000b9b0       uninitialize_environment   000000018000c9b0 f   libucrtd:initialization.obj
 0001:0000b9e0       initialize_pointers        000000018000c9e0 f   libucrtd:initialization.obj
 0001:0000ba40       uninitialize_vcruntime     000000018000ca40 f   libucrtd:initialization.obj
 0001:0000ba60       uninitialize_allocated_memory 000000018000ca60 f   libucrtd:initialization.obj
 0001:0000baa0       uninitialize_allocated_io_buffers 000000018000caa0 f   libucrtd:initialization.obj
 0001:0000bb20       report_memory_leaks        000000018000cb20 f   libucrtd:initialization.obj
 0001:0000bb50       ??$uninitialize@V<lambda_af27fe6ede5d83bbdbd622796c194e9c>@@@?$dual_state_global@PEAU__crt_multibyte_data@@@__crt_state_management@@QEAAX$$QEAV<lambda_af27fe6ede5d83bbdbd622796c194e9c>@@@Z 000000018000cb50 f   libucrtd:initialization.obj
 0001:0000bba0       ??R<lambda_af27fe6ede5d83bbdbd622796c194e9c>@@QEBAXAEAPEAU__crt_multibyte_data@@@Z 000000018000cba0 f   libucrtd:initialization.obj
 0001:0000beb0       ?block_from_header@@YAPEAEQEAU_CrtMemBlockHeader@@@Z 000000018000ceb0 f   libucrtd:debug_heap.obj
 0001:0000bec0       ?check_block@@YA_NQEAU_CrtMemBlockHeader@@@Z 000000018000cec0 f   libucrtd:debug_heap.obj
 0001:0000c280       ?check_bytes@@YA_NQEBEE_K@Z 000000018000d280 f   libucrtd:debug_heap.obj
 0001:0000c2f0       ?dump_all_object_since_nolock@@YAXQEBU_CrtMemState@@@Z 000000018000d2f0 f   libucrtd:debug_heap.obj
 0001:0000c6b0       ?free_dbg_nolock@@YAXQEAXH@Z 000000018000d6b0 f   libucrtd:debug_heap.obj
 0001:0000cd00       ?header_from_block@@YAPEAU_CrtMemBlockHeader@@QEBX@Z 000000018000dd00 f   libucrtd:debug_heap.obj
 0001:0000cd10       ?heap_alloc_dbg@@YAPEAX_KHQEBDH@Z 000000018000dd10 f   libucrtd:debug_heap.obj
 0001:0000cdb0       ?heap_alloc_dbg_internal@@YAPEAX_KHQEBDH@Z 000000018000ddb0 f   libucrtd:debug_heap.obj
 0001:0000d1f0       ?is_bad_read_pointer@@YA_NQEBX_K@Z 000000018000e1f0 f   libucrtd:debug_heap.obj
 0001:0000d300       ?is_block_an_aligned_allocation@@YA_NQEBX@Z 000000018000e300 f   libucrtd:debug_heap.obj
 0001:0000d340       ?is_block_type_valid@@YA_NH@Z 000000018000e340 f   libucrtd:debug_heap.obj
 0001:0000d390       ?print_block_data@@YAXQEAU__crt_locale_pointers@@QEAU_CrtMemBlockHeader@@@Z 000000018000e390 f   libucrtd:debug_heap.obj
 0001:0000d5c0       ?realloc_dbg_nolock@@YAPEAXQEAXQEA_KHQEBDH_N@Z 000000018000e5c0 f   libucrtd:debug_heap.obj
 0001:0000dde0       ?validate_heap_if_required_nolock@@YAXXZ 000000018000ede0 f   libucrtd:debug_heap.obj
 0001:0000eb90       ??$common_tcscpy_s@D@@YAHQEAD_KQEBD@Z 000000018000fb90 f   libucrtd:strcpy_s.obj
 0001:0000f090       $$000000                   0000000180010090     libucrtd:strcmp.obj
 0001:0000f110       $$000000                   0000000180010110     libucrtd:strlen.obj
 0001:0000f3d0       ??$common_vsnprintf_s@D@@YAH_KQEAD00QEBDQEAU__crt_locale_pointers@@1@Z 00000001800103d0 f   libucrtd:output.obj
 0001:0000f990       ??$common_vsnprintf_s@_W@@YAH_KQEA_W00QEB_WQEAU__crt_locale_pointers@@QEAD@Z 0000000180010990 f   libucrtd:output.obj
 0001:0000ff60       ??$common_vsprintf@Vformat_validation_base@__crt_stdio_output@@D@@YAH_KQEAD0QEBDQEAU__crt_locale_pointers@@1@Z 0000000180010f60 f   libucrtd:output.obj
 0001:00010440       ??$common_vsprintf@Vformat_validation_base@__crt_stdio_output@@_W@@YAH_KQEA_W0QEB_WQEAU__crt_locale_pointers@@QEAD@Z 0000000180011440 f   libucrtd:output.obj
 0001:00010910       ??$common_vsprintf_s@D@@YAH_KQEAD0QEBDQEAU__crt_locale_pointers@@1@Z 0000000180011910 f   libucrtd:output.obj
 0001:000111f0       ??$extract_argument_from_va_list@PEAUansi_string@?1??type_case_Z@?$output_processor@DV?$string_output_adapter@D@__crt_stdio_output@@V?$format_validation_base@DV?$string_output_adapter@D@__crt_stdio_output@@@2@@__crt_stdio_output@@AEAA_NXZ@PEAU1?1??234@AEAA_NXZ@@?$standard_base@DV?$string_output_adapter@D@__crt_stdio_output@@@__crt_stdio_output@@IEAA_NAEAPEAUansi_string@?1??type_case_Z@?$output_processor@DV?$string_output_adapter@D@__crt_stdio_output@@V?$format_validation_base@DV?$string_output_adapter@D@__crt_stdio_output@@@2@@1@AEAA_NXZ@@Z 00000001800121f0 f   libucrtd:output.obj
 0001:000111f0       ??$extract_argument_from_va_list@PEAUansi_string@?1??type_case_Z@?$output_processor@_WV?$string_output_adapter@_W@__crt_stdio_output@@V?$format_validation_base@_WV?$string_output_adapter@_W@__crt_stdio_output@@@2@@__crt_stdio_output@@AEAA_NXZ@PEAU1?1??234@AEAA_NXZ@@?$standard_base@_WV?$string_output_adapter@_W@__crt_stdio_output@@@__crt_stdio_output@@IEAA_NAEAPEAUansi_string@?1??type_case_Z@?$output_processor@_WV?$string_output_adapter@_W@__crt_stdio_output@@V?$format_validation_base@_WV?$string_output_adapter@_W@__crt_stdio_output@@@2@@1@AEAA_NXZ@@Z 00000001800121f0 f   libucrtd:output.obj
 0001:000115c0       ??$read_va_arg@PEAUansi_string@?1??type_case_Z@?$output_processor@DV?$string_output_adapter@D@__crt_stdio_output@@V?$format_validation_base@DV?$string_output_adapter@D@__crt_stdio_output@@@2@@__crt_stdio_output@@AEAA_NXZ@@__crt_stdio_output@@YAPEAUansi_string@?1??type_case_Z@?$output_processor@DV?$string_output_adapter@D@__crt_stdio_output@@V?$format_validation_base@DV?$string_output_adapter@D@__crt_stdio_output@@@2@@0@AEAA_NXZ@AEAPEAD@Z 00000001800125c0 f   libucrtd:output.obj
 0001:000115c0       ??$read_va_arg@PEAUansi_string@?1??type_case_Z@?$output_processor@_WV?$string_output_adapter@_W@__crt_stdio_output@@V?$format_validation_base@_WV?$string_output_adapter@_W@__crt_stdio_output@@@2@@__crt_stdio_output@@AEAA_NXZ@@__crt_stdio_output@@YAPEAUansi_string@?1??type_case_Z@?$output_processor@_WV?$string_output_adapter@_W@__crt_stdio_output@@V?$format_validation_base@_WV?$string_output_adapter@_W@__crt_stdio_output@@@2@@0@AEAA_NXZ@AEAPEAD@Z 00000001800125c0 f   libucrtd:output.obj
 0001:00012c6c       $LN39                      0000000180013c6c     libucrtd:output.obj
 0001:00012fcc       $LN39                      0000000180013fcc     libucrtd:output.obj
 0001:00013ab8       $LN54                      0000000180014ab8     libucrtd:output.obj
 0001:00013ae0       $LN53                      0000000180014ae0     libucrtd:output.obj
 0001:00013f38       $LN54                      0000000180014f38     libucrtd:output.obj
 0001:00013f60       $LN53                      0000000180014f60     libucrtd:output.obj
 0001:000143d4       $LN44                      00000001800153d4     libucrtd:output.obj
 0001:00014404       $LN43                      0000000180015404     libucrtd:output.obj
 0001:0001492c       $LN44                      000000018001592c     libucrtd:output.obj
 0001:0001495c       $LN43                      000000018001595c     libucrtd:output.obj
 0001:00014be0       $LN19                      0000000180015be0     libucrtd:output.obj
 0001:00018b80       $$000000                   0000000180019b80     libucrtd:strncmp.obj
 0001:00018c10       ??$common_message_window@D@@YAHHQEAXQEBD111@Z 0000000180019c10 f   libucrtd:dbgrpt.obj
 0001:000192e0       ??$common_message_window@_W@@YAHHQEAXQEB_W111@Z 000000018001a2e0 f   libucrtd:dbgrpt.obj
 0001:00019b00       ?get_output_message_format@@YAPEB_WD@Z 000000018001ab00 f   libucrtd:dbgrpt.obj
 0001:00019b10       ?get_output_message_format@@YAPEB_W_W@Z 000000018001ab10 f   libucrtd:dbgrpt.obj
 0001:00019b20       ?get_program_name_unknown_text@@YAPEBDD@Z 000000018001ab20 f   libucrtd:dbgrpt.obj
 0001:00019b30       ?get_program_name_unknown_text@@YAPEB_W_W@Z 000000018001ab30 f   libucrtd:dbgrpt.obj
 0001:00019ec0       _call_matherr              000000018001aec0 f   libucrtd:libm_error.obj
 0001:00019f50       _exception_enabled         000000018001af50 f   libucrtd:libm_error.obj
 0001:0001a2b0       ??$?RV<lambda_0ae27a3a962d80f24befdcbee591983d>@@AEAV<lambda_8d0ee55de4b1038c4002e0adecdf1839>@@V<lambda_dc504788e8f1664fe9b84e20bfb512f2>@@@?$__crt_seh_guarded_call@X@@QEAAX$$QEAV<lambda_0ae27a3a962d80f24befdcbee591983d>@@AEAV<lambda_8d0ee55de4b1038c4002e0adecdf1839>@@$$QEAV<lambda_dc504788e8f1664fe9b84e20bfb512f2>@@@Z 000000018001b2b0 f   libucrtd:per_thread_data.obj
 0001:0001a2f0       ??$?RV<lambda_2d41944a1d46af3157314b8a01080d33>@@AEAV<lambda_8f455de75cd7d7f24b4096f044d8b9e6>@@V<lambda_aa500f224e6afead328df44964fe2772>@@@?$__crt_seh_guarded_call@X@@QEAAX$$QEAV<lambda_2d41944a1d46af3157314b8a01080d33>@@AEAV<lambda_8f455de75cd7d7f24b4096f044d8b9e6>@@$$QEAV<lambda_aa500f224e6afead328df44964fe2772>@@@Z 000000018001b2f0 f   libucrtd:per_thread_data.obj
 0001:0001a330       ??$?RV<lambda_74a0ef281e44d15e1136f792f539efb3>@@AEAV<lambda_e157831efee4ea0afb0a2ace5dd5fd0d>@@V<lambda_04ddeca75b7c13fd67716e8dfcef87ee>@@@?$__crt_seh_guarded_call@X@@QEAAX$$QEAV<lambda_74a0ef281e44d15e1136f792f539efb3>@@AEAV<lambda_e157831efee4ea0afb0a2ace5dd5fd0d>@@$$QEAV<lambda_04ddeca75b7c13fd67716e8dfcef87ee>@@@Z 000000018001b330 f   libucrtd:per_thread_data.obj
 0001:0001a370       ??$?RV<lambda_aa87e3671a710a21b5dc78c0bdf72e11>@@AEAV<lambda_92619d2358a28f41a33ba319515a20b9>@@V<lambda_6992ecaafeb10aed2b74cb1fae11a551>@@@?$__crt_seh_guarded_call@X@@QEAAX$$QEAV<lambda_aa87e3671a710a21b5dc78c0bdf72e11>@@AEAV<lambda_92619d2358a28f41a33ba319515a20b9>@@$$QEAV<lambda_6992ecaafeb10aed2b74cb1fae11a551>@@@Z 000000018001b370 f   libucrtd:per_thread_data.obj
 0001:0001a3b0       ??$__acrt_lock_and_call@V<lambda_8d0ee55de4b1038c4002e0adecdf1839>@@@@YAXW4__acrt_lock_id@@$$QEAV<lambda_8d0ee55de4b1038c4002e0adecdf1839>@@@Z 000000018001b3b0 f   libucrtd:per_thread_data.obj
 0001:0001a400       ??$__acrt_lock_and_call@V<lambda_8f455de75cd7d7f24b4096f044d8b9e6>@@@@YAXW4__acrt_lock_id@@$$QEAV<lambda_8f455de75cd7d7f24b4096f044d8b9e6>@@@Z 000000018001b400 f   libucrtd:per_thread_data.obj
 0001:0001a450       ??$__acrt_lock_and_call@V<lambda_92619d2358a28f41a33ba319515a20b9>@@@@YAXW4__acrt_lock_id@@$$QEAV<lambda_92619d2358a28f41a33ba319515a20b9>@@@Z 000000018001b450 f   libucrtd:per_thread_data.obj
 0001:0001a4a0       ??$__acrt_lock_and_call@V<lambda_e157831efee4ea0afb0a2ace5dd5fd0d>@@@@YAXW4__acrt_lock_id@@$$QEAV<lambda_e157831efee4ea0afb0a2ace5dd5fd0d>@@@Z 000000018001b4a0 f   libucrtd:per_thread_data.obj
 0001:0001a530       ??R<lambda_8d0ee55de4b1038c4002e0adecdf1839>@@QEBAXXZ 000000018001b530 f   libucrtd:per_thread_data.obj
 0001:0001a550       ??R<lambda_8f455de75cd7d7f24b4096f044d8b9e6>@@QEBAXXZ 000000018001b550 f   libucrtd:per_thread_data.obj
 0001:0001a570       ??R<lambda_92619d2358a28f41a33ba319515a20b9>@@QEBAXXZ 000000018001b570 f   libucrtd:per_thread_data.obj
 0001:0001a5a0       ??R<lambda_e157831efee4ea0afb0a2ace5dd5fd0d>@@QEBAXXZ 000000018001b5a0 f   libucrtd:per_thread_data.obj
 0001:0001a610       ?construct_ptd@@YAXQEAU__acrt_ptd@@QEAPEAU__crt_locale_data@@@Z 000000018001b610 f   libucrtd:per_thread_data.obj
 0001:0001a6f0       ?construct_ptd_array@@YAXQEAU__acrt_ptd@@@Z 000000018001b6f0 f   libucrtd:per_thread_data.obj
 0001:0001a760       ?destroy_fls@@YAXPEAX@Z    000000018001b760 f   libucrtd:per_thread_data.obj
 0001:0001a7a0       ?destroy_ptd@@YAXQEAU__acrt_ptd@@@Z 000000018001b7a0 f   libucrtd:per_thread_data.obj
 0001:0001a8c0       ?destroy_ptd_array@@YAXQEAU__acrt_ptd@@@Z 000000018001b8c0 f   libucrtd:per_thread_data.obj
 0001:0001a920       ?internal_get_ptd_head@@YAPEAU__acrt_ptd@@XZ 000000018001b920 f   libucrtd:per_thread_data.obj
 0001:0001aa50       ?internal_getptd_noexit@@YAPEAU__acrt_ptd@@XZ 000000018001ba50 f   libucrtd:per_thread_data.obj
 0001:0001aac0       ?replace_current_thread_locale_nolock@@YAXQEAU__acrt_ptd@@QEAU__crt_locale_data@@@Z 000000018001bac0 f   libucrtd:per_thread_data.obj
 0001:0001ab80       ?try_get_ptd_head@@YAPEAU__acrt_ptd@@XZ 000000018001bb80 f   libucrtd:per_thread_data.obj
 0001:0001ae30       ??$get_cached_win_policy@Udeveloper_information_policy_properties@?1??__acrt_get_developer_information_policy@@YA?AW4developer_information_policy@@XZ@@@YA?AW4developer_information_policy@@W4AppPolicyShowDeveloperDiagnostic@@@Z 000000018001be30 f   libucrtd:win_policies.obj
 0001:0001af00       ??$get_cached_win_policy@Uwindowing_model_policy_properties@?1??__acrt_get_windowing_model_policy@@YA?AW4windowing_model_policy@@XZ@@@YA?AW4windowing_model_policy@@W4AppPolicyWindowingModel@@@Z 000000018001bf00 f   libucrtd:win_policies.obj
 0001:0001afd0       ??$get_win_policy@Uprocess_end_policy_properties@?1??__acrt_get_process_end_policy@@YA?AW4process_end_policy@@XZ@@@YA?AW4process_end_policy@@W4AppPolicyProcessTerminationMethod@@@Z 000000018001bfd0 f   libucrtd:win_policies.obj
 0001:0001b020       ?appmodel_get_policy@developer_information_policy_properties@?1??__acrt_get_developer_information_policy@@YA?AW4developer_information_policy@@XZ@SAJPEAW4AppPolicyShowDeveloperDiagnostic@@@Z 000000018001c020 f   libucrtd:win_policies.obj
 0001:0001b040       ?appmodel_get_policy@process_end_policy_properties@?1??__acrt_get_process_end_policy@@YA?AW4process_end_policy@@XZ@SAJPEAW4AppPolicyProcessTerminationMethod@@@Z 000000018001c040 f   libucrtd:win_policies.obj
 0001:0001b060       ?appmodel_get_policy@windowing_model_policy_properties@?1??__acrt_get_windowing_model_policy@@YA?AW4windowing_model_policy@@XZ@SAJPEAW4AppPolicyWindowingModel@@@Z 000000018001c060 f   libucrtd:win_policies.obj
 0001:0001b080       ?appmodel_policy_to_policy_type@developer_information_policy_properties@?1??__acrt_get_developer_information_policy@@YA?AW4developer_information_policy@@XZ@SA?AW43@J@Z 000000018001c080 f   libucrtd:win_policies.obj
 0001:0001b0a0       ?appmodel_policy_to_policy_type@process_end_policy_properties@?1??__acrt_get_process_end_policy@@YA?AW4process_end_policy@@XZ@SA?AW43@W4AppPolicyProcessTerminationMethod@@@Z 000000018001c0a0 f   libucrtd:win_policies.obj
 0001:0001b0c0       ?appmodel_policy_to_policy_type@windowing_model_policy_properties@?1??__acrt_get_windowing_model_policy@@YA?AW4windowing_model_policy@@XZ@SA?AW43@J@Z 000000018001c0c0 f   libucrtd:win_policies.obj
 0001:0001b5d0       ?<lambda_invoker_cdecl>@<lambda_a1ce4c8ae42411fd470c77163914f50e>@@CAHPEBX0@Z 000000018001c5d0 f   libucrtd:argv_wildcards.obj
 0001:0001b600       ??$__acrt_convert_wcs_mbs_cp@D_WV<lambda_7c9dea7b4ca7285d2cdb541a38da6275>@@U__crt_win32_buffer_internal_dynamic_resizing@@@@YAHQEBDAEAV?$__crt_win32_buffer@_WU__crt_win32_buffer_internal_dynamic_resizing@@@@AEBV<lambda_7c9dea7b4ca7285d2cdb541a38da6275>@@I@Z 000000018001c600 f   libucrtd:argv_wildcards.obj
 0001:0001b7a0       ??$__acrt_convert_wcs_mbs_cp@_WDV<lambda_d8593a27d1aa8c02be35c86a17d324c4>@@U__crt_win32_buffer_internal_dynamic_resizing@@@@YAHQEB_WAEAV?$__crt_win32_buffer@DU__crt_win32_buffer_internal_dynamic_resizing@@@@AEBV<lambda_d8593a27d1aa8c02be35c86a17d324c4>@@I@Z 000000018001c7a0 f   libucrtd:argv_wildcards.obj
 0001:0001b9e0       ??$common_expand_argv_wildcards@D@@YAHQEAPEADQEAPEAPEAD@Z 000000018001c9e0 f   libucrtd:argv_wildcards.obj
 0001:0001be10       ??$copy_and_add_argument_to_buffer@D@@YAHQEBD0_KAEAV?$argument_list@D@?A0x5f5c8891@@@Z 000000018001ce10 f   libucrtd:argv_wildcards.obj
 0001:0001bfc0       ??$expand_argument_wildcards@D@@YAHQEAD0AEAV?$argument_list@D@?A0x5f5c8891@@@Z 000000018001cfc0 f   libucrtd:argv_wildcards.obj
 0001:0001c4c0       ??0?$argument_list@D@?A0x5f5c8891@@QEAA@XZ 000000018001d4c0 f   libucrtd:argv_wildcards.obj
 0001:0001c550       ??1?$argument_list@D@?A0x5f5c8891@@QEAA@XZ 000000018001d550 f   libucrtd:argv_wildcards.obj
 0001:0001c5c0       ??B<lambda_a1ce4c8ae42411fd470c77163914f50e>@@QEBAP6AHPEBX0@ZXZ 000000018001d5c0 f   libucrtd:argv_wildcards.obj
 0001:0001c5d0       ??R<lambda_7c9dea7b4ca7285d2cdb541a38da6275>@@QEBAHIQEBDQEA_W_K@Z 000000018001d5d0 f   libucrtd:argv_wildcards.obj
 0001:0001c620       ??R<lambda_a1ce4c8ae42411fd470c77163914f50e>@@QEBAHPEBX0@Z 000000018001d620 f   libucrtd:argv_wildcards.obj
 0001:0001c660       ??R<lambda_cfae5a0e6efa98e0d1aa03c4cec8f74e>@@QEBA_ND@Z 000000018001d660 f   libucrtd:argv_wildcards.obj
 0001:0001c6b0       ??R<lambda_f788ae46380686e8b737efdd8c720d07>@@QEBAHIQEB_WQEAD_K@Z 000000018001d6b0 f   libucrtd:getmodulefilenamea.obj
 0001:0001c6b0       ??R<lambda_d8593a27d1aa8c02be35c86a17d324c4>@@QEBAHIQEB_WQEAD_K@Z 000000018001d6b0 f   libucrtd:argv_wildcards.obj
 0001:0001c960       ?append@?$argument_list@D@?A0x5f5c8891@@QEAAHQEAD@Z 000000018001d960 f   libucrtd:argv_wildcards.obj
 0001:0001caa0       ?end@?$argument_list@D@?A0x5f5c8891@@QEBAPEAPEADXZ 000000018001daa0 f   libucrtd:argv_wildcards.obj
 0001:0001cab0       ?expand_if_necessary@?$argument_list@D@?A0x5f5c8891@@AEAAHXZ 000000018001dab0 f   libucrtd:argv_wildcards.obj
 0001:0001cc90       ?get_file_name@@YAPEADQEAV?$__crt_win32_buffer@DU__crt_win32_buffer_internal_dynamic_resizing@@@@QEA_W@Z 000000018001dc90 f   libucrtd:argv_wildcards.obj
 0001:0001cce0       ?get_wide@@YAPEA_WQEAV?$__crt_win32_buffer@_WU__crt_win32_buffer_internal_dynamic_resizing@@@@QEAD@Z 000000018001dce0 f   libucrtd:argv_wildcards.obj
 0001:0001cd30       ?previous_character@@YAPEADQEAD0@Z 000000018001dd30 f   libucrtd:argv_wildcards.obj
 0001:0001cdc0       ?size@?$argument_list@D@?A0x5f5c8891@@QEBA_KXZ 000000018001ddc0 f   libucrtd:argv_wildcards.obj
 0001:0001ce40       ??$__acrt_convert_wcs_mbs_cp@_WDV<lambda_f788ae46380686e8b737efdd8c720d07>@@U__crt_win32_buffer_no_resizing@@@@YAHQEB_WAEAV?$__crt_win32_buffer@DU__crt_win32_buffer_no_resizing@@@@AEBV<lambda_f788ae46380686e8b737efdd8c720d07>@@I@Z 000000018001de40 f   libucrtd:getmodulefilenamea.obj
 0001:0001d300       ??$?RV<lambda_efa02eb69bf647d2f7ff0dd6f1103f72>@@AEAV<lambda_bd5a608237428601b7e45fbdc72b1ae8>@@V<lambda_728235dc0fc2b1f82d1fa5b3e7102d8f>@@@?$__crt_seh_guarded_call@X@@QEAAX$$QEAV<lambda_efa02eb69bf647d2f7ff0dd6f1103f72>@@AEAV<lambda_bd5a608237428601b7e45fbdc72b1ae8>@@$$QEAV<lambda_728235dc0fc2b1f82d1fa5b3e7102d8f>@@@Z 000000018001e300 f   libucrtd:mbctype.obj
 0001:0001d340       ??$__acrt_lock_and_call@V<lambda_bd5a608237428601b7e45fbdc72b1ae8>@@@@YAXW4__acrt_lock_id@@$$QEAV<lambda_bd5a608237428601b7e45fbdc72b1ae8>@@@Z 000000018001e340 f   libucrtd:mbctype.obj
 0001:0001d470       ??R<lambda_bd5a608237428601b7e45fbdc72b1ae8>@@QEBAXXZ 000000018001e470 f   libucrtd:mbctype.obj
 0001:0001d590       ?CPtoLocaleName@@YAPEB_WH@Z 000000018001e590 f   libucrtd:mbctype.obj
 0001:0001d630       ?getSystemCP@@YAHH@Z       000000018001e630 f   libucrtd:mbctype.obj
 0001:0001d710       ?setSBCS@@YAXPEAU__crt_multibyte_data@@@Z 000000018001e710 f   libucrtd:mbctype.obj
 0001:0001d810       ?setSBUpLow@@YAXPEAU__crt_multibyte_data@@@Z 000000018001e810 f   libucrtd:mbctype.obj
 0001:0001dc00       ?setmbcp_internal@@YAHH_NQEAU__acrt_ptd@@QEAPEAU__crt_multibyte_data@@@Z 000000018001ec00 f   libucrtd:mbctype.obj
 0001:0001de60       ?update_thread_multibyte_data_internal@@YAPEAU__crt_multibyte_data@@QEAU__acrt_ptd@@QEAPEAU1@@Z 000000018001ee60 f   libucrtd:mbctype.obj
 0001:0001e560       memcpy_s                   000000018001f560 f   libucrtd:cfout.obj
 0001:0001e560       memcpy_s                   000000018001f560 f   libucrtd:mbctype.obj
 0001:0001e69c       ?x_ismbbtype_l@@YAHPEAU__crt_locale_pointers@@IHH@Z 000000018001f69c f   libucrtd:ismbbyte.obj
 0001:0001e760       ??$common_tcscpy_s@_W@@YAHQEA_W_KQEB_W@Z 000000018001f760 f   libucrtd:wcscpy_s.obj
 0001:0001ec70       ?filter_mbtowcs_flags@@YAKIK@Z 000000018001fc70 f   libucrtd:multibytetowidechar.obj
 0001:0001ed70       ?filter_wcstomb_flags@@YAKIK@Z 000000018001fd70 f   libucrtd:widechartomultibyte.obj
 0001:0001f040       ?try_get_AppPolicyGetProcessTerminationMethod@@YAP6AJPEAXPEAW4AppPolicyProcessTerminationMethod@@@ZXZ 0000000180020040 f   libucrtd:winapi_thunks.obj
 0001:0001f070       ?try_get_AppPolicyGetShowDeveloperDiagnostic@@YAP6AJPEAXPEAW4AppPolicyShowDeveloperDiagnostic@@@ZXZ 0000000180020070 f   libucrtd:winapi_thunks.obj
 0001:0001f0a0       ?try_get_AppPolicyGetWindowingModel@@YAP6AJPEAXPEAW4AppPolicyWindowingModel@@@ZXZ 00000001800200a0 f   libucrtd:winapi_thunks.obj
 0001:0001f0d0       ?try_get_AreFileApisANSI@@YAP6AHXZXZ 00000001800200d0 f   libucrtd:winapi_thunks.obj
 0001:0001f100       ?try_get_FlsAlloc@@YAP6AKP6AXPEAX@Z@ZXZ 0000000180020100 f   libucrtd:winapi_thunks.obj
 0001:0001f130       ?try_get_FlsFree@@YAP6AHK@ZXZ 0000000180020130 f   libucrtd:winapi_thunks.obj
 0001:0001f160       ?try_get_FlsGetValue@@YAP6APEAXK@ZXZ 0000000180020160 f   libucrtd:winapi_thunks.obj
 0001:0001f190       ?try_get_FlsSetValue@@YAP6AHKPEAX@ZXZ 0000000180020190 f   libucrtd:winapi_thunks.obj
 0001:0001f1c0       ?try_get_GetActiveWindow@@YAP6APEAUHWND__@@XZXZ 00000001800201c0 f   libucrtd:winapi_thunks.obj
 0001:0001f1f0       ?try_get_GetLastActivePopup@@YAP6APEAUHWND__@@PEAU1@@ZXZ 00000001800201f0 f   libucrtd:winapi_thunks.obj
 0001:0001f220       ?try_get_GetProcessWindowStation@@YAP6APEAUHWINSTA__@@XZXZ 0000000180020220 f   libucrtd:winapi_thunks.obj
 0001:0001f250       ?try_get_GetUserObjectInformationW@@YAP6AHPEAXH0KPEAK@ZXZ 0000000180020250 f   libucrtd:winapi_thunks.obj
 0001:0001f280       ?try_get_InitializeCriticalSectionEx@@YAP6AHPEAU_RTL_CRITICAL_SECTION@@KK@ZXZ 0000000180020280 f   libucrtd:winapi_thunks.obj
 0001:0001f2b0       ?try_get_LCMapStringEx@@YAP6AHPEB_WK0HPEA_WHPEAU_nlsversioninfo@@PEAX_J@ZXZ 00000001800202b0 f   libucrtd:winapi_thunks.obj
 0001:0001f2e0       ?try_get_LocaleNameToLCID@@YAP6AKPEB_WK@ZXZ 00000001800202e0 f   libucrtd:winapi_thunks.obj
 0001:0001f310       ?try_get_MessageBoxA@@YAP6AHPEAUHWND__@@PEBD1I@ZXZ 0000000180020310 f   libucrtd:winapi_thunks.obj
 0001:0001f340       ?try_get_MessageBoxW@@YAP6AHPEAUHWND__@@PEB_W1I@ZXZ 0000000180020340 f   libucrtd:winapi_thunks.obj
 0001:0001f370       ?try_get_first_available_module@@YAPEAUHINSTANCE__@@QEBW4module_id@?A0x391cf84c@@0@Z 0000000180020370 f   libucrtd:winapi_thunks.obj
 0001:0001f3d0       ?try_get_function@@YAPEAXW4function_id@?A0x391cf84c@@QEBDQEBW4module_id@2@2@Z 00000001800203d0 f   libucrtd:winapi_thunks.obj
 0001:0001f570       ?try_get_module@@YAPEAUHINSTANCE__@@W4module_id@?A0x391cf84c@@@Z 0000000180020570 f   libucrtd:winapi_thunks.obj
 0001:0001f6d0       ?try_get_proc_address_from_first_available_module@@YAPEAXQEBDQEBW4module_id@?A0x391cf84c@@1@Z 00000001800206d0 f   libucrtd:winapi_thunks.obj
 0001:0001f720       ?try_load_library_from_system_directory@@YAPEAUHINSTANCE__@@QEB_W@Z 0000000180020720 f   libucrtd:winapi_thunks.obj
 0001:0001ff40       ?get_std_handle_id@@YAKH@Z 0000000180020f40 f   libucrtd:ioinit.obj
 0001:0001ff90       ?initialize_inherited_file_handles_nolock@@YAXXZ 0000000180020f90 f   libucrtd:ioinit.obj
 0001:00020140       ?initialize_stdio_handles_nolock@@YAXXZ 0000000180021140 f   libucrtd:ioinit.obj
 0001:000205d0       ??$?RV<lambda_450d765d439847d4c735a33c368b5fc0>@@AEAV<lambda_44731a7d0e6d81c3e6aa82d741081786>@@V<lambda_601a2a7da3b7a96e9554ac7215c4b07c>@@@?$__crt_seh_guarded_call@P6AXH@Z@@QEAAP6AXH@Z$$QEAV<lambda_450d765d439847d4c735a33c368b5fc0>@@AEAV<lambda_44731a7d0e6d81c3e6aa82d741081786>@@$$QEAV<lambda_601a2a7da3b7a96e9554ac7215c4b07c>@@@Z 00000001800215d0 f   libucrtd:signal.obj
 0001:00020620       ??$__acrt_lock_and_call@V<lambda_44731a7d0e6d81c3e6aa82d741081786>@@@@YAP6AXH@ZW4__acrt_lock_id@@$$QEAV<lambda_44731a7d0e6d81c3e6aa82d741081786>@@@Z 0000000180021620 f   libucrtd:signal.obj
 0001:00020670       ??R<lambda_44731a7d0e6d81c3e6aa82d741081786>@@QEBAP6AXH@ZXZ 0000000180021670 f   libucrtd:signal.obj
 0001:000206a0       ?get_global_action_nolock@@YAPEAP6AXH@ZH@Z 00000001800216a0 f   libucrtd:signal.obj
 0001:00020730       ?siglookup@@YAPEAU__crt_signal_action_t@@HQEAU1@@Z 0000000180021730 f   libucrtd:signal.obj
 0001:00020cd0       $LN58                      0000000180021cd0     libucrtd:signal.obj
 0001:00020cdc       $LN57                      0000000180021cdc     libucrtd:signal.obj
 0001:000211d0       ?select_heap@@YAPEAXQEAX@Z 00000001800221d0 f   libucrtd:free_base.obj
 0001:000212f0       ?is_contraction_possible@@YA_N_K@Z 00000001800222f0 f   libucrtd:expand.obj
 0001:000215f0       ??$?RV<lambda_410d79af7f07d98d83a3f525b3859a53>@@AEAV<lambda_3e16ef9562a7dcce91392c22ab16ea36>@@V<lambda_38119f0e861e05405d8a144b9b982f0a>@@@?$__crt_seh_guarded_call@X@@QEAAX$$QEAV<lambda_410d79af7f07d98d83a3f525b3859a53>@@AEAV<lambda_3e16ef9562a7dcce91392c22ab16ea36>@@$$QEAV<lambda_38119f0e861e05405d8a144b9b982f0a>@@@Z 00000001800225f0 f   libucrtd:wsetlocale.obj
 0001:00021630       ??$__acrt_lock_and_call@V<lambda_3e16ef9562a7dcce91392c22ab16ea36>@@@@YAXW4__acrt_lock_id@@$$QEAV<lambda_3e16ef9562a7dcce91392c22ab16ea36>@@@Z 0000000180022630 f   libucrtd:wsetlocale.obj
 0001:00021680       ??$uninitialize@V<lambda_363eea9039da1e8169e2d060c7fe5cbc>@@@?$dual_state_global@PEAU__crt_locale_data@@@__crt_state_management@@QEAAX$$QEAV<lambda_363eea9039da1e8169e2d060c7fe5cbc>@@@Z 0000000180022680 f   libucrtd:wsetlocale.obj
 0001:000216d0       ??R<lambda_363eea9039da1e8169e2d060c7fe5cbc>@@QEBAXAEAPEAU__crt_locale_data@@@Z 00000001800226d0 f   libucrtd:wsetlocale.obj
 0001:00021710       ??R<lambda_3e16ef9562a7dcce91392c22ab16ea36>@@QEBA@XZ 0000000180022710 f   libucrtd:wsetlocale.obj
 0001:000217e0       ?issue_debug_notification@@YA_NQEB_W@Z 00000001800227e0 f   libucrtd:report_runtime_error.obj
 0001:00021840       ?should_write_error_to_console@@YA_NXZ 0000000180022840 f   libucrtd:report_runtime_error.obj
 0001:00021880       ?write_string_to_console@@YAXQEB_W@Z 0000000180022880 f   libucrtd:report_runtime_error.obj
 0001:000227e0       ??$common_strnlen@$00G@@YA_KQEBG_K@Z 00000001800237e0 f   libucrtd:strnlen.obj
 0001:00022840       ??$common_strnlen@$0A@E@@YA_KQEBE_K@Z 0000000180023840 f   libucrtd:strnlen.obj
 0001:000228a0       ??$common_strnlen@$0A@G@@YA_KQEBG_K@Z 00000001800238a0 f   libucrtd:strnlen.obj
 0001:00022900       ??$common_strnlen_c@$00G@@YA_KQEBG_K@Z 0000000180023900 f   libucrtd:strnlen.obj
 0001:00022980       ??$common_strnlen_c@$0A@E@@YA_KQEBE_K@Z 0000000180023980 f   libucrtd:strnlen.obj
 0001:00022a00       ??$common_strnlen_c@$0A@G@@YA_KQEBG_K@Z 0000000180023a00 f   libucrtd:strnlen.obj
 0001:00022a80       ??$common_strnlen_simd@$00$00G@@YA_KQEBG_K@Z 0000000180023a80 f   libucrtd:strnlen.obj
 0001:00022d20       ??$common_strnlen_simd@$00$0A@G@@YA_KQEBG_K@Z 0000000180023d20 f   libucrtd:strnlen.obj
 0001:00023010       ??$common_strnlen_simd@$0A@$00E@@YA_KQEBE_K@Z 0000000180024010 f   libucrtd:strnlen.obj
 0001:00023290       ??$common_strnlen_simd@$0A@$00G@@YA_KQEBG_K@Z 0000000180024290 f   libucrtd:strnlen.obj
 0001:00023530       ??$common_strnlen_simd@$0A@$0A@E@@YA_KQEBE_K@Z 0000000180024530 f   libucrtd:strnlen.obj
 0001:00023800       ??$common_strnlen_simd@$0A@$0A@G@@YA_KQEBG_K@Z 0000000180024800 f   libucrtd:strnlen.obj
 0001:00023af0       ??$last_reached@$00@@YA_NQEBX0@Z 0000000180024af0 f   libucrtd:strnlen.obj
 0001:00023b00       ??$last_reached@$0A@@@YA_NQEBX0@Z 0000000180024b00 f   libucrtd:strnlen.obj
 0001:00023e90       ?fp_format_a@@YAHQEBNPEAD_KQEAD2H_NIQEAU__crt_locale_pointers@@@Z 0000000180024e90 f   libucrtd:cvt.obj
 0001:00024730       ?fp_format_e@@YAHQEBNQEAD_K12H_NIQEAU__crt_locale_pointers@@@Z 0000000180025730 f   libucrtd:cvt.obj
 0001:00024930       ?fp_format_e_internal@@YAHQEAD_KH_NIQEAU_strflt@@2QEAU__crt_locale_pointers@@@Z 0000000180025930 f   libucrtd:cvt.obj
 0001:00024d60       ?fp_format_f@@YAHQEBNQEAD_K12HQEAU__crt_locale_pointers@@@Z 0000000180025d60 f   libucrtd:cvt.obj
 0001:00024eb0       ?fp_format_f_internal@@YAHQEAD_KHQEAU_strflt@@_NQEAU__crt_locale_pointers@@@Z 0000000180025eb0 f   libucrtd:cvt.obj
 0001:00025100       ?fp_format_g@@YAHQEBNQEAD_K12H_NIQEAU__crt_locale_pointers@@@Z 0000000180026100 f   libucrtd:cvt.obj
 0001:00025330       ?fp_format_nan_or_infinity@@YAHW4__acrt_fp_class@@_NPEAD_K1@Z 0000000180026330 f   libucrtd:cvt.obj
 0001:000254a0       ?shift_bytes@@YAXQEAD_K0H@Z 00000001800264a0 f   libucrtd:cvt.obj
 0001:00025a9c       $LN41                      0000000180026a9c     libucrtd:cvt.obj
 0001:00025ab0       $LN40                      0000000180026ab0     libucrtd:cvt.obj
 0001:00027650       ??$common_show_message_box@_W@@YAHQEB_W0I@Z 0000000180028650 f   libucrtd:crtmbox.obj
 0001:00028930       ?shortsort@@YAXPEAD0_KP6AHPEBX2@Z@Z 0000000180029930 f   libucrtd:qsort.obj
 0001:00028a10       ?swap@@YAXPEAD0_K@Z        0000000180029a10 f   libucrtd:qsort.obj
 0001:000291b0       ??$common_tcsncpy_s@_W@@YAHQEA_W_KQEB_W1@Z 000000018002a1b0 f   libucrtd:wcsncpy_s.obj
 0001:00029890       ??$common_tcsncpy_s@D@@YAHQEAD_KQEBD1@Z 000000018002a890 f   libucrtd:strncpy_s.obj
 0001:00029f50       fallbackMethod             000000018002af50 f   libucrtd:strpbrk.obj
 0001:0002a8b4       $LN85                      000000018002b8b4     libucrtd:strpbrk.obj
 0001:0002a8f0       $LN84                      000000018002b8f0     libucrtd:strpbrk.obj
 0001:0002a930       $LN83                      000000018002b930     libucrtd:strpbrk.obj
 0001:0002ae00       ?__acrt_LCMapStringA_stat@@YAHPEAU__crt_locale_pointers@@PEB_WKPEBDHPEADHHH@Z 000000018002be00 f   libucrtd:lcmapstringa.obj
 0001:0002b4a0       ?initialize_multibyte@@YAHXZ 000000018002c4a0 f   libucrtd:multibyte_initializer.obj
 0001:0002b4d0       ?GetTableIndexFromLocaleName@@YAHPEB_W@Z 000000018002c4d0 f   libucrtd:lcidtoname_downlevel.obj
 0001:0002be80       ??$?RV<lambda_842d9ff0dc9ef11c61343bbaebe7f885>@@AEAV<lambda_c5860995281e5c4ce005b3de8f5874ee>@@V<lambda_d90129c13df834fdcbf8d2b88dafcf2d>@@@?$__crt_seh_guarded_call@X@@QEAAX$$QEAV<lambda_842d9ff0dc9ef11c61343bbaebe7f885>@@AEAV<lambda_c5860995281e5c4ce005b3de8f5874ee>@@$$QEAV<lambda_d90129c13df834fdcbf8d2b88dafcf2d>@@@Z 000000018002ce80 f   libucrtd:fflush.obj
 0001:0002bec0       ??$?RV<lambda_886d6c58226a84441f68b9f2b8217b83>@@AEAV<lambda_ab61a845afdef5b7c387490eaf3616ee>@@V<lambda_f7f22ab5edc0698d5f6905b0d3f44752>@@@?$__crt_seh_guarded_call@X@@QEAAX$$QEAV<lambda_886d6c58226a84441f68b9f2b8217b83>@@AEAV<lambda_ab61a845afdef5b7c387490eaf3616ee>@@$$QEAV<lambda_f7f22ab5edc0698d5f6905b0d3f44752>@@@Z 000000018002cec0 f   libucrtd:fflush.obj
 0001:0002bf00       ??$__acrt_lock_and_call@V<lambda_ab61a845afdef5b7c387490eaf3616ee>@@@@YAXW4__acrt_lock_id@@$$QEAV<lambda_ab61a845afdef5b7c387490eaf3616ee>@@@Z 000000018002cf00 f   libucrtd:fflush.obj
 0001:0002bf50       ??$__acrt_lock_stream_and_call@V<lambda_c5860995281e5c4ce005b3de8f5874ee>@@@@YAXQEAU_iobuf@@$$QEAV<lambda_c5860995281e5c4ce005b3de8f5874ee>@@@Z 000000018002cf50 f   libucrtd:fflush.obj
 0001:0002bfa0       ??0<lambda_842d9ff0dc9ef11c61343bbaebe7f885>@@QEAA@AEBQEAU_iobuf@@@Z 000000018002cfa0 f   libucrtd:fflush.obj
 0001:0002bfa0       ??0<lambda_d90129c13df834fdcbf8d2b88dafcf2d>@@QEAA@AEBQEAU_iobuf@@@Z 000000018002cfa0 f   libucrtd:fflush.obj
 0001:0002bfc0       ??0<lambda_c5860995281e5c4ce005b3de8f5874ee>@@QEAA@AEBV__crt_stdio_stream@@AEAHAEB_N1@Z 000000018002cfc0 f   libucrtd:fflush.obj
 0001:0002c020       ??R<lambda_842d9ff0dc9ef11c61343bbaebe7f885>@@QEBAXXZ 000000018002d020 f   libucrtd:fflush.obj
 0001:0002c040       ??R<lambda_ab61a845afdef5b7c387490eaf3616ee>@@QEBA@XZ 000000018002d040 f   libucrtd:fflush.obj
 0001:0002c130       ??R<lambda_c5860995281e5c4ce005b3de8f5874ee>@@QEBAXXZ 000000018002d130 f   libucrtd:fflush.obj
 0001:0002c1d0       ??R<lambda_d90129c13df834fdcbf8d2b88dafcf2d>@@QEBAXXZ 000000018002d1d0 f   libucrtd:fflush.obj
 0001:0002c240       ?common_flush_all@@YAH_N@Z 000000018002d240 f   libucrtd:fflush.obj
 0001:0002c2b0       ?common_flush_all_should_try_to_flush_stream@@YA_NV__crt_stdio_stream@@QEAH@Z 000000018002d2b0 f   libucrtd:fflush.obj
 0001:0002c360       ?is_stream_allocated@@YA_NJ@Z 000000018002d360 f   libucrtd:fflush.obj
 0001:0002c390       ?is_stream_flushable@@YA_NJ@Z 000000018002d390 f   libucrtd:fflush.obj
 0001:0002c3c0       ?is_stream_flushable_or_commitable@@YA_NJ@Z 000000018002d3c0 f   libucrtd:fflush.obj
 0001:0002c940       ??$free_crt_array@D$01@@YAXAEAY01PEAD@Z 000000018002d940 f   libucrtd:inittime.obj
 0001:0002c940       ??$free_crt_array@_W$01@@YAXAEAY01PEA_W@Z 000000018002d940 f   libucrtd:inittime.obj
 0001:0002c960       ??$free_crt_array@D$06@@YAXAEAY06PEAD@Z 000000018002d960 f   libucrtd:inittime.obj
 0001:0002c960       ??$free_crt_array@_W$06@@YAXAEAY06PEA_W@Z 000000018002d960 f   libucrtd:inittime.obj
 0001:0002c980       ??$free_crt_array@D$0M@@@YAXAEAY0M@PEAD@Z 000000018002d980 f   libucrtd:inittime.obj
 0001:0002c980       ??$free_crt_array@_W$0M@@@YAXAEAY0M@PEA_W@Z 000000018002d980 f   libucrtd:inittime.obj
 0001:0002c9a0       ?free_crt_array_internal@@YAXQEAPEBX_K@Z 000000018002d9a0 f   libucrtd:inittime.obj
 0001:0002cb70       ??$common_tcscat_s@_W@@YAHQEA_W_KQEB_W@Z 000000018002db70 f   libucrtd:wcscat_s.obj
 0001:0002d380       ??R<lambda_88e6d024674186fe9d3f7283b675e4c3>@@QEBA_KPEBD@Z 000000018002e380 f   libucrtd:mbrtowc.obj
 0001:0002def0       ??$convert_to_fos_high_precision@N@@YAXNIQEAHQEAD_K@Z 000000018002eef0 f   libucrtd:cfout.obj
 0001:0002e5c0       ??0scoped_fp_state_reset@?A0x71ca7cfb@@QEAA@XZ 000000018002f5c0 f   libucrtd:cfout.obj
 0001:0002e610       ??1scoped_fp_state_reset@?A0x71ca7cfb@@QEAA@XZ 000000018002f610 f   libucrtd:cfout.obj
 0001:000303b0       ??$common_xtox@KD@@YAHKQEAD_KI_N@Z 00000001800313b0 f   libucrtd:xtoa.obj
 0001:000305f0       ??$common_xtox@K_W@@YAHKQEA_W_KI_N@Z 00000001800315f0 f   libucrtd:xtoa.obj
 0001:00030840       ??$common_xtox_s@KD@@YAHKQEAD_KI_N@Z 0000000180031840 f   libucrtd:xtoa.obj
 0001:00030bf0       ??$common_xtox_s@K_W@@YAHKQEA_W_KI_N@Z 0000000180031bf0 f   libucrtd:xtoa.obj
 0001:00031060       ?_mbstowcs_l_helper@@YA_KPEA_WPEBD_KPEAU__crt_locale_pointers@@@Z 0000000180032060 f   libucrtd:mbstowcs.obj
 0001:00031c60       ?_wcstombs_l_helper@@YA_KPEADPEB_W_KPEAU__crt_locale_pointers@@@Z 0000000180032c60 f   libucrtd:wcstombs.obj
 0001:00032510       ?wcsncnt@@YA_KPEB_W_K@Z    0000000180033510 f   libucrtd:wcstombs.obj
 0001:00032b30       ??$common_tcscat_s@D@@YAHQEAD_KQEBD@Z 0000000180033b30 f   libucrtd:strcat_s.obj
 0001:00033290       $$000000                   0000000180034290     libucrtd:fpsr.obj
 0001:00033420       ??$?RV<lambda_4e3dbe6921bc0b5a1a6bc6573fdc859e>@@AEAV<lambda_5533cddd4bda0037814beee657757329>@@V<lambda_47cffbaa968af5c721c38a4a6f8da44d>@@@?$__crt_seh_guarded_call@H@@QEAAH$$QEAV<lambda_4e3dbe6921bc0b5a1a6bc6573fdc859e>@@AEAV<lambda_5533cddd4bda0037814beee657757329>@@$$QEAV<lambda_47cffbaa968af5c721c38a4a6f8da44d>@@@Z 0000000180034420 f   libucrtd:commit.obj
 0001:00033470       ??$__acrt_lowio_lock_fh_and_call@V<lambda_5533cddd4bda0037814beee657757329>@@@@YAHH$$QEAV<lambda_5533cddd4bda0037814beee657757329>@@@Z 0000000180034470 f   libucrtd:commit.obj
 0001:000334c0       ??R<lambda_8ddc48ad9d26c778cb15812d1d88fc8a>@@QEBAXXZ 00000001800344c0 f   libucrtd:close.obj
 0001:000334c0       ??R<lambda_47cffbaa968af5c721c38a4a6f8da44d>@@QEBAXXZ 00000001800344c0 f   libucrtd:commit.obj
 0001:000334e0       ??R<lambda_53fc7fc888e23d815d7080162c0aeeb2>@@QEBAXXZ 00000001800344e0 f   libucrtd:close.obj
 0001:000334e0       ??R<lambda_4e3dbe6921bc0b5a1a6bc6573fdc859e>@@QEBAXXZ 00000001800344e0 f   libucrtd:commit.obj
 0001:00033500       ??R<lambda_5533cddd4bda0037814beee657757329>@@QEBAHXZ 0000000180034500 f   libucrtd:commit.obj
 0001:000337a0       ?write_binary_nolock@@YA?AUwrite_result@?A0x17268360@@HQEBDI@Z 00000001800347a0 f   libucrtd:write.obj
 0001:00033870       ?write_double_translated_ansi_nolock@@YA?AUwrite_result@?A0x17268360@@HQEBDI@Z 0000000180034870 f   libucrtd:write.obj
 0001:000347d0       ?write_double_translated_unicode_nolock@@YA?AUwrite_result@?A0x17268360@@QEBDI@Z 00000001800357d0 f   libucrtd:write.obj
 0001:00034930       ?write_requires_double_translation_nolock@@YA_NH@Z 0000000180035930 f   libucrtd:write.obj
 0001:00034a50       ?write_text_ansi_nolock@@YA?AUwrite_result@?A0x17268360@@HQEBDI@Z 0000000180035a50 f   libucrtd:write.obj
 0001:00034c80       ?write_text_utf16le_nolock@@YA?AUwrite_result@?A0x17268360@@HQEBDI@Z 0000000180035c80 f   libucrtd:write.obj
 0001:00034ec0       ?write_text_utf8_nolock@@YA?AUwrite_result@?A0x17268360@@HQEBDI@Z 0000000180035ec0 f   libucrtd:write.obj
 0001:00035e00       $$000000                   0000000180036e00     libucrtd:log10.obj
 0001:000366a0       ??$common_lseek_nolock@_J@@YA_JH_JH@Z 00000001800376a0 f   libucrtd:lseek.obj
 0001:000367b0       ?common_lseek_do_seek_nolock@@YA_JQEAX_JH@Z 00000001800377b0 f   libucrtd:lseek.obj
 0001:00036ec0       _log_special_common        0000000180037ec0 f   libucrtd:log_special.obj
 0001:00037150       ??$to_abstract_status@W4__acrt_fenv_machine_sse_status@@@@YA?AW4__acrt_fenv_abstract_status@@W4__acrt_fenv_machine_sse_status@@@Z 0000000180038150 f   libucrtd:_fenvutils.obj
 0001:00037170       ??$translate_control_exception_mask@W4__acrt_fenv_abstract_control@@W4__acrt_fenv_machine_sse_control@@@@YA?AW4__acrt_fenv_abstract_control@@W4__acrt_fenv_machine_sse_control@@@Z 0000000180038170 f   libucrtd:_fenvutils.obj
 0001:00037260       ??$translate_control_exception_mask@W4__acrt_fenv_machine_sse_control@@W4__acrt_fenv_abstract_control@@@@YA?AW4__acrt_fenv_machine_sse_control@@W4__acrt_fenv_abstract_control@@@Z 0000000180038260 f   libucrtd:_fenvutils.obj
 0001:00037350       ??$translate_control_rounding_control@W4__acrt_fenv_abstract_control@@W4__acrt_fenv_machine_sse_control@@@@YA?AW4__acrt_fenv_abstract_control@@W4__acrt_fenv_machine_sse_control@@@Z 0000000180038350 f   libucrtd:_fenvutils.obj
 0001:000373c0       ??$translate_control_rounding_control@W4__acrt_fenv_machine_sse_control@@W4__acrt_fenv_abstract_control@@@@YA?AW4__acrt_fenv_machine_sse_control@@W4__acrt_fenv_abstract_control@@@Z 00000001800383c0 f   libucrtd:_fenvutils.obj
 0001:00037430       ??$translate_status@W4__acrt_fenv_abstract_status@@W4__acrt_fenv_machine_sse_status@@@@YA?AW4__acrt_fenv_abstract_status@@W4__acrt_fenv_machine_sse_status@@@Z 0000000180038430 f   libucrtd:_fenvutils.obj
 0001:00037520       ??$translate_status@W4__acrt_fenv_machine_sse_status@@W4__acrt_fenv_abstract_status@@@@YA?AW4__acrt_fenv_machine_sse_status@@W4__acrt_fenv_abstract_status@@@Z 0000000180038520 f   libucrtd:_fenvutils.obj
 0001:000377f0       ?get_machine_sse_control@@YA?AW4__acrt_fenv_machine_sse_control@@XZ 00000001800387f0 f   libucrtd:_fenvutils.obj
 0001:00037810       ?get_machine_sse_status@@YA?AW4__acrt_fenv_machine_sse_status@@XZ 0000000180038810 f   libucrtd:_fenvutils.obj
 0001:00037830       ?set_machine_sse_control@@YAXW4__acrt_fenv_machine_sse_control@@@Z 0000000180038830 f   libucrtd:_fenvutils.obj
 0001:00037890       ?set_machine_sse_status@@YAXW4__acrt_fenv_machine_sse_status@@@Z 0000000180038890 f   libucrtd:_fenvutils.obj
 0001:000378e0       ?to_abstract_control@@YA?AW4__acrt_fenv_abstract_control@@W4__acrt_fenv_machine_sse_control@@@Z 00000001800388e0 f   libucrtd:_fenvutils.obj
 0001:00037930       ?to_machine_sse_control@@YA?AW4__acrt_fenv_machine_sse_control@@W4__acrt_fenv_abstract_control@@@Z 0000000180038930 f   libucrtd:_fenvutils.obj
 0001:00037990       ?to_machine_sse_status@@YA?AW4__acrt_fenv_machine_sse_status@@W4__acrt_fenv_abstract_status@@@Z 0000000180038990 f   libucrtd:_fenvutils.obj
 0001:000379b0       ?translate_control_denormal_control_from_sse@@YA?AW4__acrt_fenv_abstract_control@@W4__acrt_fenv_machine_sse_control@@@Z 00000001800389b0 f   libucrtd:_fenvutils.obj
 0001:00037a30       ?translate_control_denormal_control_to_sse@@YA?AW4__acrt_fenv_machine_sse_control@@W4__acrt_fenv_abstract_control@@@Z 0000000180038a30 f   libucrtd:_fenvutils.obj
 0001:00037b30       _abstract_sw               0000000180038b30 f   libucrtd:ieee.obj
 0001:00037bf0       ??$?RV<lambda_53fc7fc888e23d815d7080162c0aeeb2>@@AEAV<lambda_4e7105787b7b0e0227fbf2b2d883fa65>@@V<lambda_8ddc48ad9d26c778cb15812d1d88fc8a>@@@?$__crt_seh_guarded_call@H@@QEAAH$$QEAV<lambda_53fc7fc888e23d815d7080162c0aeeb2>@@AEAV<lambda_4e7105787b7b0e0227fbf2b2d883fa65>@@$$QEAV<lambda_8ddc48ad9d26c778cb15812d1d88fc8a>@@@Z 0000000180038bf0 f   libucrtd:close.obj
 0001:00037c40       ??$__acrt_lowio_lock_fh_and_call@V<lambda_4e7105787b7b0e0227fbf2b2d883fa65>@@@@YAHH$$QEAV<lambda_4e7105787b7b0e0227fbf2b2d883fa65>@@@Z 0000000180038c40 f   libucrtd:close.obj
 0001:00037c90       ??R<lambda_4e7105787b7b0e0227fbf2b2d883fa65>@@QEBAHXZ 0000000180038c90 f   libucrtd:close.obj
 0001:00037d40       ?close_os_handle_nolock@@YAKH@Z 0000000180038d40 f   libucrtd:close.obj
 0001:00038250       ?combine_second_surrogate@?A0xc60ee810@@YA_U_SPEAU_Mbstatet@@@Z 0000000180039250 f   libucrtd:c16rtomb.obj
 0001:00038270       ?has_surrogate@?A0xc60ee810@@YA_NPEAU_Mbstatet@@@Z 0000000180039270 f   libucrtd:c16rtomb.obj
 0001:000382a0       ?is_first_surrogate@?A0xc60ee810@@YA_N_S@Z 00000001800392a0 f   libucrtd:c16rtomb.obj
 0001:000382e0       ?is_second_surrogate@?A0xc60ee810@@YA_N_S@Z 00000001800392e0 f   libucrtd:c16rtomb.obj
 0001:00038320       ?store_first_surrogate@?A0xc60ee810@@YAX_SPEAU_Mbstatet@@@Z 0000000180039320 f   libucrtd:c16rtomb.obj
 0001:00038790       $$000000                   0000000180039790     LIBCMTD:chkstk.obj
 0001:000388d0       $$000000                   00000001800398d0     libvcruntimed:memcmp.obj
 0001:00038dd0       $$000000                   0000000180039dd0     LIBCMTD:guard_dispatch.obj
 0001:00038df0       ?fin$0@?0??dllmain_crt_process_attach@@YAHQEAUHINSTANCE__@@QEAX@Z@4HA 0000000180039df0 f   LIBCMTD:dll_dllmain.obj
 0001:00038e10       ?fin$0@?0??dllmain_crt_process_detach@@YAH_N@Z@4HA 0000000180039e10 f   LIBCMTD:dll_dllmain.obj
 0001:00038e2a       ?fin$1@?0??dllmain_crt_process_detach@@YAH_N@Z@4HA 0000000180039e2a f   LIBCMTD:dll_dllmain.obj
 0001:00038e40       ?filt$0@?0??dllmain_dispatch@@YAHQEAUHINSTANCE__@@KQEAX@Z@4HA 0000000180039e40 f   LIBCMTD:dll_dllmain.obj
 0001:00038e90       __scrt_is_nonwritable_in_current_image$filt$0 0000000180039e90 f   LIBCMTD:utility.obj
 0001:00038ed0       __DestructExceptionObject$filt$0 0000000180039ed0 f   libvcruntimed:ehhelpers.obj
 0001:00038f00       ?filt$0@?0???$_CallSETranslator@V__FrameHandler3@@@@YAHPEAUEHExceptionRecord@@PEA_KPEAU_CONTEXT@@PEAU_xDISPATCHER_CONTEXT@@PEBU_s_FuncInfo@@K1@Z@4HA 0000000180039f00 f   libvcruntimed:risctrnsctrl.obj
 0001:00038f60       ?filt$0@?0???$BuildCatchObjectHelperInternal@V__FrameHandler3@@@@YAHPEAUEHExceptionRecord@@PEAXPEBU_s_HandlerType@@PEBU_s_CatchableType@@@Z@4HA 0000000180039f60 f   libvcruntimed:frame.obj
 0001:00038f60       ?filt$0@?0???$BuildCatchObjectInternal@V__FrameHandler3@@@@YAXPEAUEHExceptionRecord@@PEAXPEBU_s_HandlerType@@PEBU_s_CatchableType@@@Z@4HA 0000000180039f60 f   libvcruntimed:frame.obj
 0001:00038f60       ?filt$0@?0??is_bad_read_pointer@@YA_NQEBX_K@Z@4HA 0000000180039f60 f   libucrtd:debug_heap.obj
 0001:00038f60       terminate$filt$0           0000000180039f60 f   libucrtd:terminate.obj
 0001:00038f80       ?filt$0@?0??CxxCallCatchBlock@__FrameHandler3@@SAPEAXPEAU_EXCEPTION_RECORD@@@Z@4HA 0000000180039f80 f   libvcruntimed:frame.obj
 0001:00038fa9       ?fin$1@?0??CxxCallCatchBlock@__FrameHandler3@@SAPEAXPEAU_EXCEPTION_RECORD@@@Z@4HA 0000000180039fa9 f   libvcruntimed:frame.obj
 0001:00039040       ?filt$0@?0??FrameUnwindToState@__FrameHandler3@@SAXPEA_KPEAU_xDISPATCHER_CONTEXT@@PEBU_s_FuncInfo@@H@Z@4HA 000000018003a040 f   libvcruntimed:frame.obj
 0001:00039061       ?fin$1@?0??FrameUnwindToState@__FrameHandler3@@SAXPEA_KPEAU_xDISPATCHER_CONTEXT@@PEBU_s_FuncInfo@@H@Z@4HA 000000018003a061 f   libvcruntimed:frame.obj
 0001:000390a0       ?fin$0@?0???$?RV<lambda_0ae27a3a962d80f24befdcbee591983d>@@AEAV<lambda_8d0ee55de4b1038c4002e0adecdf1839>@@V<lambda_dc504788e8f1664fe9b84e20bfb512f2>@@@?$__crt_seh_guarded_call@X@@QEAAX$$QEAV<lambda_0ae27a3a962d80f24befdcbee591983d>@@AEAV<lambda_8d0ee55de4b1038c4002e0adecdf1839>@@$$QEAV<lambda_dc504788e8f1664fe9b84e20bfb512f2>@@@Z@4HA 000000018003a0a0 f   libucrtd:per_thread_data.obj
 0001:000390a0       ?fin$0@?0???$?RV<lambda_2d41944a1d46af3157314b8a01080d33>@@AEAV<lambda_8f455de75cd7d7f24b4096f044d8b9e6>@@V<lambda_aa500f224e6afead328df44964fe2772>@@@?$__crt_seh_guarded_call@X@@QEAAX$$QEAV<lambda_2d41944a1d46af3157314b8a01080d33>@@AEAV<lambda_8f455de75cd7d7f24b4096f044d8b9e6>@@$$QEAV<lambda_aa500f224e6afead328df44964fe2772>@@@Z@4HA 000000018003a0a0 f   libucrtd:per_thread_data.obj
 0001:000390a0       ?fin$0@?0???$?RV<lambda_74a0ef281e44d15e1136f792f539efb3>@@AEAV<lambda_e157831efee4ea0afb0a2ace5dd5fd0d>@@V<lambda_04ddeca75b7c13fd67716e8dfcef87ee>@@@?$__crt_seh_guarded_call@X@@QEAAX$$QEAV<lambda_74a0ef281e44d15e1136f792f539efb3>@@AEAV<lambda_e157831efee4ea0afb0a2ace5dd5fd0d>@@$$QEAV<lambda_04ddeca75b7c13fd67716e8dfcef87ee>@@@Z@4HA 000000018003a0a0 f   libucrtd:per_thread_data.obj
 0001:000390a0       ?fin$0@?0???$?RV<lambda_aa87e3671a710a21b5dc78c0bdf72e11>@@AEAV<lambda_92619d2358a28f41a33ba319515a20b9>@@V<lambda_6992ecaafeb10aed2b74cb1fae11a551>@@@?$__crt_seh_guarded_call@X@@QEAAX$$QEAV<lambda_aa87e3671a710a21b5dc78c0bdf72e11>@@AEAV<lambda_92619d2358a28f41a33ba319515a20b9>@@$$QEAV<lambda_6992ecaafeb10aed2b74cb1fae11a551>@@@Z@4HA 000000018003a0a0 f   libucrtd:per_thread_data.obj
 0001:000390a0       ?fin$0@?0???$?RV<lambda_410d79af7f07d98d83a3f525b3859a53>@@AEAV<lambda_3e16ef9562a7dcce91392c22ab16ea36>@@V<lambda_38119f0e861e05405d8a144b9b982f0a>@@@?$__crt_seh_guarded_call@X@@QEAAX$$QEAV<lambda_410d79af7f07d98d83a3f525b3859a53>@@AEAV<lambda_3e16ef9562a7dcce91392c22ab16ea36>@@$$QEAV<lambda_38119f0e861e05405d8a144b9b982f0a>@@@Z@4HA 000000018003a0a0 f   libucrtd:wsetlocale.obj
 0001:000390a0       ?fin$0@?0???$?RV<lambda_efa02eb69bf647d2f7ff0dd6f1103f72>@@AEAV<lambda_bd5a608237428601b7e45fbdc72b1ae8>@@V<lambda_728235dc0fc2b1f82d1fa5b3e7102d8f>@@@?$__crt_seh_guarded_call@X@@QEAAX$$QEAV<lambda_efa02eb69bf647d2f7ff0dd6f1103f72>@@AEAV<lambda_bd5a608237428601b7e45fbdc72b1ae8>@@$$QEAV<lambda_728235dc0fc2b1f82d1fa5b3e7102d8f>@@@Z@4HA 000000018003a0a0 f   libucrtd:mbctype.obj
 0001:000390a0       ?fin$0@?0???$?RV<lambda_d80eeec6fff315bfe5c115232f3240e3>@@AEAV<lambda_6e4b09c48022b2350581041d5f6b0c4c>@@V<lambda_2358e3775559c9db80273638284d5e45>@@@?$__crt_seh_guarded_call@X@@QEAAX$$QEAV<lambda_d80eeec6fff315bfe5c115232f3240e3>@@AEAV<lambda_6e4b09c48022b2350581041d5f6b0c4c>@@$$QEAV<lambda_2358e3775559c9db80273638284d5e45>@@@Z@4HA 000000018003a0a0 f   libucrtd:exit.obj
 0001:000390a0       ?fin$0@?0???$?RV<lambda_886d6c58226a84441f68b9f2b8217b83>@@AEAV<lambda_ab61a845afdef5b7c387490eaf3616ee>@@V<lambda_f7f22ab5edc0698d5f6905b0d3f44752>@@@?$__crt_seh_guarded_call@X@@QEAAX$$QEAV<lambda_886d6c58226a84441f68b9f2b8217b83>@@AEAV<lambda_ab61a845afdef5b7c387490eaf3616ee>@@$$QEAV<lambda_f7f22ab5edc0698d5f6905b0d3f44752>@@@Z@4HA 000000018003a0a0 f   libucrtd:fflush.obj
 0001:000390c0       ?filt$0@?0???R<lambda_6e4b09c48022b2350581041d5f6b0c4c>@@QEBA@XZ@4HA 000000018003a0c0 f   libucrtd:exit.obj
 0001:000390f0       ?fin$0@?0???$?RV<lambda_450d765d439847d4c735a33c368b5fc0>@@AEAV<lambda_44731a7d0e6d81c3e6aa82d741081786>@@V<lambda_601a2a7da3b7a96e9554ac7215c4b07c>@@@?$__crt_seh_guarded_call@P6AXH@Z@@QEAAP6AXH@Z$$QEAV<lambda_450d765d439847d4c735a33c368b5fc0>@@AEAV<lambda_44731a7d0e6d81c3e6aa82d741081786>@@$$QEAV<lambda_601a2a7da3b7a96e9554ac7215c4b07c>@@@Z@4HA 000000018003a0f0 f   libucrtd:signal.obj
 0001:000390f0       ?fin$0@?0???$?RV<lambda_6a47f4c8fd0152770a780fc1d70204eb>@@AEAV<lambda_d121dba8a4adeaf3a9819e48611155df>@@V<lambda_6aaa2265f5b6a89667e7d7630012e97a>@@@?$__crt_seh_guarded_call@H@@QEAAH$$QEAV<lambda_6a47f4c8fd0152770a780fc1d70204eb>@@AEAV<lambda_d121dba8a4adeaf3a9819e48611155df>@@$$QEAV<lambda_6aaa2265f5b6a89667e7d7630012e97a>@@@Z@4HA 000000018003a0f0 f   libucrtd:onexit.obj
 0001:00039110       ?dtor$0@?0???R<lambda_d121dba8a4adeaf3a9819e48611155df>@@QEBAHXZ@4HA 000000018003a110 f   libucrtd:onexit.obj
 0001:00039130       ?fin$0@?0??heap_alloc_dbg_internal@@YAPEAX_KHQEBDH@Z@4HA 000000018003a130 f   libucrtd:debug_heap.obj
 0001:00039130       _CrtMemCheckpoint$fin$0    000000018003a130 f   libucrtd:debug_heap.obj
 0001:00039150       ?fin$0@?0??validate_heap_if_required_nolock@@YAXXZ@4HA 000000018003a150 f   libucrtd:debug_heap.obj
 0001:00039170       _CrtCheckMemory$fin$0      000000018003a170 f   libucrtd:debug_heap.obj
 0001:00039170       _CrtMemDumpAllObjectsSince$fin$0 000000018003a170 f   libucrtd:debug_heap.obj
 0001:00039170       _CrtSetDbgFlag$fin$0       000000018003a170 f   libucrtd:debug_heap.obj
 0001:00039170       _msize_dbg$fin$0           000000018003a170 f   libucrtd:debug_heap.obj
 0001:00039170       _realloc_dbg$fin$0         000000018003a170 f   libucrtd:debug_heap.obj
 0001:00039190       _free_dbg$fin$0            000000018003a190 f   libucrtd:debug_heap.obj
 0001:00039190       _query_new_handler$fin$0   000000018003a190 f   libucrtd:new_handler.obj
 0001:000391b0       ?fin$0@?0??update_thread_multibyte_data_internal@@YAPEAU__crt_multibyte_data@@QEAU__acrt_ptd@@QEAPEAU1@@Z@4HA 000000018003a1b0 f   libucrtd:mbctype.obj
 0001:000391d0       __acrt_initialize_lowio$fin$0 000000018003a1d0 f   libucrtd:ioinit.obj
 0001:000391f0       raise$fin$0                000000018003a1f0 f   libucrtd:signal.obj
 0001:00039220       ?dtor$0@?0??fp_format_a@@YAHQEBNPEAD_KQEAD2H_NIQEAU__crt_locale_pointers@@@Z@4HA 000000018003a220 f   libucrtd:cvt.obj
 0001:00039240       _VCrtDbgReportA$fin$0      000000018003a240 f   libucrtd:dbgrptt.obj
 0001:0003925b       _VCrtDbgReportA$fin$1      000000018003a25b f   libucrtd:dbgrptt.obj
 0001:00039280       _VCrtDbgReportW$fin$0      000000018003a280 f   libucrtd:dbgrptt.obj
 0001:0003929b       _VCrtDbgReportW$fin$1      000000018003a29b f   libucrtd:dbgrptt.obj
 0001:000392c0       _ctrlfp$filt$0             000000018003a2c0 f   libucrtd:fpctrl.obj
 0001:00039310       __acrt_update_thread_locale_data$fin$0 000000018003a310 f   libucrtd:locale_refcounting.obj
 0001:00039330       ?dtor$0@?0??shortsort@@YAXPEAD0_KP6AHPEBX2@Z@Z@4HA 000000018003a330 f   libucrtd:qsort.obj
 0001:00039350       __acrt_lowio_ensure_fh_exists$fin$0 000000018003a350 f   libucrtd:osfinfo.obj
 0001:00039370       ?fin$0@?0???$?RV<lambda_842d9ff0dc9ef11c61343bbaebe7f885>@@AEAV<lambda_c5860995281e5c4ce005b3de8f5874ee>@@V<lambda_d90129c13df834fdcbf8d2b88dafcf2d>@@@?$__crt_seh_guarded_call@X@@QEAAX$$QEAV<lambda_842d9ff0dc9ef11c61343bbaebe7f885>@@AEAV<lambda_c5860995281e5c4ce005b3de8f5874ee>@@$$QEAV<lambda_d90129c13df834fdcbf8d2b88dafcf2d>@@@Z@4HA 000000018003a370 f   libucrtd:fflush.obj
 0001:00039390       _fcloseall$fin$0           000000018003a390 f   libucrtd:closeall.obj
 0001:000393b0       ?dtor$0@?0??_wcstombs_l_helper@@YA_KPEADPEB_W_KPEAU__crt_locale_pointers@@@Z@4HA 000000018003a3b0 f   libucrtd:wcstombs.obj
 0001:000393d0       ?fin$0@?0???$?RV<lambda_53fc7fc888e23d815d7080162c0aeeb2>@@AEAV<lambda_4e7105787b7b0e0227fbf2b2d883fa65>@@V<lambda_8ddc48ad9d26c778cb15812d1d88fc8a>@@@?$__crt_seh_guarded_call@H@@QEAAH$$QEAV<lambda_53fc7fc888e23d815d7080162c0aeeb2>@@AEAV<lambda_4e7105787b7b0e0227fbf2b2d883fa65>@@$$QEAV<lambda_8ddc48ad9d26c778cb15812d1d88fc8a>@@@Z@4HA 000000018003a3d0 f   libucrtd:close.obj
 0001:000393d0       ?fin$0@?0???$?RV<lambda_4e3dbe6921bc0b5a1a6bc6573fdc859e>@@AEAV<lambda_5533cddd4bda0037814beee657757329>@@V<lambda_47cffbaa968af5c721c38a4a6f8da44d>@@@?$__crt_seh_guarded_call@H@@QEAAH$$QEAV<lambda_4e3dbe6921bc0b5a1a6bc6573fdc859e>@@AEAV<lambda_5533cddd4bda0037814beee657757329>@@$$QEAV<lambda_47cffbaa968af5c721c38a4a6f8da44d>@@@Z@4HA 000000018003a3d0 f   libucrtd:commit.obj
 0001:000393f0       _write$fin$0               000000018003a3f0 f   libucrtd:write.obj
 0001:00039410       fclose$fin$0               000000018003a410 f   libucrtd:fclose.obj
 0001:00039440       _IsNonwritableInCurrentImage$filt$0 000000018003a440 f   LIBCMTD:pesect.obj
 0002:00000318       GS_ExceptionPointers       000000018003b318     LIBCMTD:gs_report.obj
 0002:00000330       ?tokenTable@@3QBUStringLiteral@@B 000000018003b330     libvcruntimed:undname.obj
 0002:00000430       ?nameTable@@3QBUStringLiteral@@B 000000018003b430     libvcruntimed:undname.obj
 0002:00000960       ?rttiTable@@3QBUStringLiteral@@B 000000018003b960     libvcruntimed:undname.obj
 0002:000009b0       ?IndirectionName@@3QBUStringLiteral@@B 000000018003b9b0     libvcruntimed:undname.obj
 0002:00000a10       ?PrefixName@@3QBUStringLiteral@@B 000000018003ba10     libvcruntimed:undname.obj
 0002:00001140       ?ExceptionTemplate@?1??UnwindNestedFrames@__FrameHandler3@@SAXPEA_KPEAUEHExceptionRecord@@PEAU_CONTEXT@@0PEAXPEBU_s_FuncInfo@@HHPEBU_s_HandlerType@@PEAU_xDISPATCHER_CONTEXT@@E@Z@4U_EXCEPTION_RECORD@@B 000000018003c140     libvcruntimed:risctrnsctrl.obj
 0002:000011d8       ?module_names@?A0x5a6460af@@3QBQEB_WB 000000018003c1d8     libvcruntimed:winapi_downlevel.obj
 0002:00001450       ?candidate_modules@?1??try_get_FlsAlloc@@YAP6AKP6AXPEAX@Z@ZXZ@4QBW4module_id@?A0x5a6460af@@B 000000018003c450     libvcruntimed:winapi_downlevel.obj
 0002:00001468       ?candidate_modules@?1??try_get_FlsFree@@YAP6AHK@ZXZ@4QBW4module_id@?A0x5a6460af@@B 000000018003c468     libvcruntimed:winapi_downlevel.obj
 0002:00001478       ?candidate_modules@?1??try_get_FlsGetValue@@YAP6APEAXK@ZXZ@4QBW4module_id@?A0x5a6460af@@B 000000018003c478     libvcruntimed:winapi_downlevel.obj
 0002:00001490       ?candidate_modules@?1??try_get_FlsSetValue@@YAP6AHKPEAX@ZXZ@4QBW4module_id@?A0x5a6460af@@B 000000018003c490     libvcruntimed:winapi_downlevel.obj
 0002:000014a8       ?candidate_modules@?1??try_get_InitializeCriticalSectionEx@@YAP6AHPEAU_RTL_CRITICAL_SECTION@@KK@ZXZ@4QBW4module_id@?A0x5a6460af@@B 000000018003c4a8     libvcruntimed:winapi_downlevel.obj
 0002:00001a28       $cppxdata$??R<lambda_d121dba8a4adeaf3a9819e48611155df>@@QEBAHXZ 000000018003ca28     libucrtd:onexit.obj
 0002:00001a50       __acrt_initializers        000000018003ca50     libucrtd:initialization.obj
 0002:00001b50       ?block_use_names@@3QBQEBDB 000000018003cb50     libucrtd:debug_heap.obj
 0002:00004d60       ?report_type_messages@@3QBQEB_WB 000000018003fd60     libucrtd:dbgrpt.obj
 0002:00004dc0       ?more_info_string@@3QEB_WEB 000000018003fdc0     libucrtd:dbgrpt.obj
 0002:000050fe       ?empty_string@?1???$common_message_window@D@@YAHHQEAXQEBD111@Z@4QBDB 00000001800400fe     libucrtd:dbgrpt.obj
 0002:000053dc       ?empty_string@?1???$common_message_window@_W@@YAHHQEAXQEB_W111@Z@4QB_WB 00000001800403dc     libucrtd:dbgrpt.obj
 0002:00005500       ?errtable@@3QBUerrentry@?A0x31fdb9ec@@B 0000000180040500     libucrtd:errno.obj
 0002:00005690       $cppxdata$??1?$__crt_win32_buffer@DU__crt_win32_buffer_internal_dynamic_resizing@@@@QEAA@XZ 0000000180040690     libucrtd:argv_wildcards.obj
 0002:00005690       $cppxdata$??1?$__crt_win32_buffer@_WU__crt_win32_buffer_internal_dynamic_resizing@@@@QEAA@XZ 0000000180040690     libucrtd:argv_wildcards.obj
 0002:00005aa8       $cppxdata$??1?$__crt_win32_buffer@DU__crt_win32_buffer_no_resizing@@@@QEAA@XZ 0000000180040aa8     libucrtd:getmodulefilenamea.obj
 0002:00005ad0       ?_mb_locale_names@@3QBQEB_WB 0000000180040ad0     libucrtd:mbctype.obj
 0002:00005bc0       ?module_names@?A0x391cf84c@@3QBQEB_WB 0000000180040bc0     libucrtd:winapi_thunks.obj
 0002:00006144       ?candidate_modules@?1??try_get_AreFileApisANSI@@YAP6AHXZXZ@4QBW4module_id@?A0x391cf84c@@B 0000000180041144     libucrtd:winapi_thunks.obj
 0002:00006158       ?candidate_modules@?1??try_get_FlsAlloc@@YAP6AKP6AXPEAX@Z@ZXZ@4QBW4module_id@?A0x391cf84c@@B 0000000180041158     libucrtd:winapi_thunks.obj
 0002:00006160       ?candidate_modules@?1??try_get_FlsFree@@YAP6AHK@ZXZ@4QBW4module_id@?A0x391cf84c@@B 0000000180041160     libucrtd:winapi_thunks.obj
 0002:00006168       ?candidate_modules@?1??try_get_FlsGetValue@@YAP6APEAXK@ZXZ@4QBW4module_id@?A0x391cf84c@@B 0000000180041168     libucrtd:winapi_thunks.obj
 0002:00006170       ?candidate_modules@?1??try_get_FlsSetValue@@YAP6AHKPEAX@ZXZ@4QBW4module_id@?A0x391cf84c@@B 0000000180041170     libucrtd:winapi_thunks.obj
 0002:00006178       ?candidate_modules@?1??try_get_GetActiveWindow@@YAP6APEAUHWND__@@XZXZ@4QBW4module_id@?A0x391cf84c@@B 0000000180041178     libucrtd:winapi_thunks.obj
 0002:00006190       ?candidate_modules@?1??try_get_GetLastActivePopup@@YAP6APEAUHWND__@@PEAU2@@ZXZ@4QBW4module_id@?A0x391cf84c@@B 0000000180041190     libucrtd:winapi_thunks.obj
 0002:000061b0       ?candidate_modules@?1??try_get_GetProcessWindowStation@@YAP6APEAUHWINSTA__@@XZXZ@4QBW4module_id@?A0x391cf84c@@B 00000001800411b0     libucrtd:winapi_thunks.obj
 0002:000061d0       ?candidate_modules@?1??try_get_GetUserObjectInformationW@@YAP6AHPEAXH0KPEAK@ZXZ@4QBW4module_id@?A0x391cf84c@@B 00000001800411d0     libucrtd:winapi_thunks.obj
 0002:000061f8       ?candidate_modules@?1??try_get_InitializeCriticalSectionEx@@YAP6AHPEAU_RTL_CRITICAL_SECTION@@KK@ZXZ@4QBW4module_id@?A0x391cf84c@@B 00000001800411f8     libucrtd:winapi_thunks.obj
 0002:00006200       ?candidate_modules@?1??try_get_LCMapStringEx@@YAP6AHPEB_WK0HPEA_WHPEAU_nlsversioninfo@@PEAX_J@ZXZ@4QBW4module_id@?A0x391cf84c@@B 0000000180041200     libucrtd:winapi_thunks.obj
 0002:00006218       ?candidate_modules@?1??try_get_LocaleNameToLCID@@YAP6AKPEB_WK@ZXZ@4QBW4module_id@?A0x391cf84c@@B 0000000180041218     libucrtd:winapi_thunks.obj
 0002:00006238       ?candidate_modules@?1??try_get_MessageBoxA@@YAP6AHPEAUHWND__@@PEBD1I@ZXZ@4QBW4module_id@?A0x391cf84c@@B 0000000180041238     libucrtd:winapi_thunks.obj
 0002:00006250       ?candidate_modules@?1??try_get_MessageBoxW@@YAP6AHPEAUHWND__@@PEB_W1I@ZXZ@4QBW4module_id@?A0x391cf84c@@B 0000000180041250     libucrtd:winapi_thunks.obj
 0002:00006264       ?candidate_modules@?1??try_get_AppPolicyGetProcessTerminationMethod@@YAP6AJPEAXPEAW4AppPolicyProcessTerminationMethod@@@ZXZ@4QBW4module_id@?A0x391cf84c@@B 0000000180041264     libucrtd:winapi_thunks.obj
 0002:00006290       ?candidate_modules@?1??try_get_AppPolicyGetShowDeveloperDiagnostic@@YAP6AJPEAXPEAW4AppPolicyShowDeveloperDiagnostic@@@ZXZ@4QBW4module_id@?A0x391cf84c@@B 0000000180041290     libucrtd:winapi_thunks.obj
 0002:000062bc       ?candidate_modules@?1??try_get_AppPolicyGetWindowingModel@@YAP6AJPEAXPEAW4AppPolicyWindowingModel@@@ZXZ@4QBW4module_id@?A0x391cf84c@@B 00000001800412bc     libucrtd:winapi_thunks.obj
 0002:000073f0       $cppxdata$?fp_format_a@@YAHQEBNPEAD_KQEAD2H_NIQEAU__crt_locale_pointers@@@Z 00000001800423f0     libucrtd:cvt.obj
 0002:00007420       ?strings@?1??fp_format_nan_or_infinity@@YAHW4__acrt_fp_class@@_NPEAD_K1@Z@4QAY03QEBDA 0000000180042420     libucrtd:cvt.obj
 0002:00008ad0       $cppxdata$?shortsort@@YAXPEAD0_KP6AHPEBX2@Z@Z 0000000180043ad0     libucrtd:qsort.obj
 0002:00008e10       ?LcidToLocaleNameTable@?A0x881e4c05@@3QBULcidToLocaleName@1@B 0000000180043e10     libucrtd:lcidtoname_downlevel.obj
 0002:0000a870       ?LocaleNameToIndexTable@?A0x881e4c05@@3QBULocaleNameIndex@1@B 0000000180045870     libucrtd:lcidtoname_downlevel.obj
 0002:0000d9d0       ?large_power_indices@?1??multiply_by_power_of_ten@__crt_strtox@@YA_NAEAUbig_integer@2@I@Z@4QBUunpack_index@?1??12@YA_N0I@Z@B 00000001800489d0     libucrtd:cfout.obj
 0002:0000e250       $cppxdata$?_wcstombs_l_helper@@YA_KPEADPEB_W_KPEAU__crt_locale_pointers@@@Z 0000000180049250     libucrtd:wcstombs.obj
 0002:0000e420       __real@433fffffffffffff    0000000180049420     libucrtd:fpsr.obj
 0002:0000e428       __real@c33fffffffffffff    0000000180049428     libucrtd:fpsr.obj
 0002:0000e7a0       __real_ninf                00000001800497a0     libucrtd:log10.obj
 0002:0000e7b0       __real_inf                 00000001800497b0     libucrtd:log10.obj
 0002:0000e7c0       __real_neg_qnan            00000001800497c0     libucrtd:log10.obj
 0002:0000e7d0       __real_qnanbit             00000001800497d0     libucrtd:log10.obj
 0002:0000e7e0       __int_1023                 00000001800497e0     libucrtd:log10.obj
 0002:0000e7f0       __mask_001                 00000001800497f0     libucrtd:log10.obj
 0002:0000e800       __mask_mant                0000000180049800     libucrtd:log10.obj
 0002:0000e810       __mask_mant_top8           0000000180049810     libucrtd:log10.obj
 0002:0000e820       __mask_mant9               0000000180049820     libucrtd:log10.obj
 0002:0000e830       __real_log10_e             0000000180049830     libucrtd:log10.obj
 0002:0000e840       __real_log10_e_lead        0000000180049840     libucrtd:log10.obj
 0002:0000e850       __real_log10_e_tail        0000000180049850     libucrtd:log10.obj
 0002:0000e860       __real_log10_2_lead        0000000180049860     libucrtd:log10.obj
 0002:0000e870       __real_log10_2_tail        0000000180049870     libucrtd:log10.obj
 0002:0000e880       __real_two                 0000000180049880     libucrtd:log10.obj
 0002:0000e890       __real_one                 0000000180049890     libucrtd:log10.obj
 0002:0000e8a0       __real_half                00000001800498a0     libucrtd:log10.obj
 0002:0000e8b0       __mask_100                 00000001800498b0     libucrtd:log10.obj
 0002:0000e8c0       __real_1_over_512          00000001800498c0     libucrtd:log10.obj
 0002:0000e8d0       __real_1_over_2            00000001800498d0     libucrtd:log10.obj
 0002:0000e8e0       __real_1_over_3            00000001800498e0     libucrtd:log10.obj
 0002:0000e8f0       __real_1_over_4            00000001800498f0     libucrtd:log10.obj
 0002:0000e900       __real_1_over_5            0000000180049900     libucrtd:log10.obj
 0002:0000e910       __real_1_over_6            0000000180049910     libucrtd:log10.obj
 0002:0000e920       __real_neg_1023            0000000180049920     libucrtd:log10.obj
 0002:0000e930       __mask_2045                0000000180049930     libucrtd:log10.obj
 0002:0000e940       __real_threshold           0000000180049940     libucrtd:log10.obj
 0002:0000e950       __real_near_one_lt         0000000180049950     libucrtd:log10.obj
 0002:0000e960       __real_near_one_gt         0000000180049960     libucrtd:log10.obj
 0002:0000e970       __real_min_norm            0000000180049970     libucrtd:log10.obj
 0002:0000e980       __real_notsign             0000000180049980     libucrtd:log10.obj
 0002:0000e990       __real_ca1                 0000000180049990     libucrtd:log10.obj
 0002:0000e9a0       __real_ca2                 00000001800499a0     libucrtd:log10.obj
 0002:0000e9b0       __real_ca3                 00000001800499b0     libucrtd:log10.obj
 0002:0000e9c0       __real_ca4                 00000001800499c0     libucrtd:log10.obj
 0002:0000e9d0       __mask_lower               00000001800499d0     libucrtd:log10.obj
 0002:0000e9e0       __flag_x_zero              00000001800499e0     libucrtd:log10.obj
 0002:0000e9e4       __flag_x_neg               00000001800499e4     libucrtd:log10.obj
 0002:0000e9e8       __flag_x_nan               00000001800499e8     libucrtd:log10.obj
 0002:00010a00       $unwind$?GetController@@YAPEAUgame_controller_input@@PEAUgame_input@@H@Z 000000018004ba00     handmade.obj
 0002:00010a00       $unwind$?siglookup@@YAPEAU__crt_signal_action_t@@HQEAU1@@Z 000000018004ba00     libucrtd:signal.obj
 0002:00010a00       $unwind$??R<lambda_cfae5a0e6efa98e0d1aa03c4cec8f74e>@@QEBA_ND@Z 000000018004ba00     libucrtd:argv_wildcards.obj
 0002:00010a00       $unwind$?set_flags@__crt_stdio_stream@@QEBA_NJ@Z 000000018004ba00     libucrtd:_sftbuf.obj
 0002:00010a00       $unwind$?unset_flags@__crt_stdio_stream@@QEBA_NJ@Z 000000018004ba00     libucrtd:_sftbuf.obj
 0002:00010a00       $unwind$?has_flag@?$output_processor@DV?$string_output_adapter@D@__crt_stdio_output@@V?$format_validation_base@DV?$string_output_adapter@D@__crt_stdio_output@@@2@@__crt_stdio_output@@AEBA_NI@Z 000000018004ba00     libucrtd:output.obj
 0002:00010a00       $unwind$?has_flag@?$output_processor@_WV?$string_output_adapter@_W@__crt_stdio_output@@V?$format_validation_base@_WV?$string_output_adapter@_W@__crt_stdio_output@@@2@@__crt_stdio_output@@AEBA_NI@Z 000000018004ba00     libucrtd:output.obj
 0002:00010a08       $unwind$?RoundReal32ToInt32@@YAHM@Z 000000018004ba08     handmade.obj
 0002:00010a08       $unwind$?RoundReal32ToUInt32@@YAIM@Z 000000018004ba08     handmade.obj
 0002:00010a10       $unwind$?FloorReal32ToInt32@@YAHM@Z 000000018004ba10     handmade.obj
 0002:00010a18       $unwind$?GameOutputSound@@YAXPEAUthread_context@@PEAUgame_state@@PEAUgame_sound_output_buffer@@H@Z 000000018004ba18     handmade.obj
 0002:00010a20       $unwind$?DrawRectangle@@YAXPEAUgame_offscreen_buffer@@MMMMMMM@Z 000000018004ba20     handmade.obj
 0002:00010a28       $unwind$?IsWorldPointEmpty@@YAHPEAUworld@@Ucanonical_position@@@Z 000000018004ba28     handmade.obj
 0002:00010a30       $unwind$GameUpdateAndRender 000000018004ba30     handmade.obj
 0002:00010a44       $unwind$GameGetSoundSamples 000000018004ba44     handmade.obj
 0002:00010a4c       $unwind$?GetTileMap@@YAPEAUtile_map@@PEAUworld@@HH@Z 000000018004ba4c     handmade.obj
 0002:00010a4c       $unwind$?add_carry@__crt_strtox@@YAIAEAIII@Z 000000018004ba4c     libucrtd:cfout.obj
 0002:00010a4c       $unwind$?multiply_core@__crt_strtox@@YAIQEAIII@Z 000000018004ba4c     libucrtd:cfout.obj
 0002:00010a4c       $unwind$?check_bytes@@YA_NQEBEE_K@Z 000000018004ba4c     libucrtd:debug_heap.obj
 0002:00010a4c       $unwind$_CrtIsValidPointer 000000018004ba4c     libucrtd:debug_heap.obj
 0002:00010a4c       $unwind$??$is_wide_character_specifier@D@__crt_stdio_output@@YA_N_KDW4length_modifier@0@@Z 000000018004ba4c     libucrtd:output.obj
 0002:00010a54       $unwind$?GetTileValueUnchecked@@YAIPEAUworld@@PEAUtile_map@@HH@Z 000000018004ba54     handmade.obj
 0002:00010a5c       $unwind$?IsTileMapPointEmpty@@YAHPEAUworld@@PEAUtile_map@@HH@Z 000000018004ba5c     handmade.obj
 0002:00010a5c       $unwind$?SetUnwindTryBlock@__FrameHandler3@@SAXPEA_KPEAU_xDISPATCHER_CONTEXT@@PEBU_s_FuncInfo@@H@Z 000000018004ba5c     libvcruntimed:ehstate.obj
 0002:00010a5c       $unwind$?_CallMemberFunction2@@YAXQEAX00H@Z 000000018004ba5c     libvcruntimed:frame.obj
 0002:00010a5c       $unwind$?__mbrtowc_utf8@__crt_mbstring@@YA_KPEA_WPEBD_KPEAU_Mbstatet@@@Z 000000018004ba5c     libucrtd:mbrtowc.obj
 0002:00010a5c       $unwind$mbstowcs_s         000000018004ba5c     libucrtd:mbstowcs.obj
 0002:00010a5c       $unwind$wcstombs_s         000000018004ba5c     libucrtd:wcstombs.obj
 0002:00010a5c       $unwind$_calloc_dbg        000000018004ba5c     libucrtd:debug_heap.obj
 0002:00010a5c       $unwind$_vsnprintf_s       000000018004ba5c     libucrtd:dbgrptt.obj
 0002:00010a5c       $unwind$??$?0AEBV?$string_output_adapter@D@__crt_stdio_output@@AEB_KAEBQEBDAEBQEAU__crt_locale_pointers@@AEBQEAD@?$format_validation_base@DV?$string_output_adapter@D@__crt_stdio_output@@@__crt_stdio_output@@IEAA@AEBV?$string_output_adapter@D@1@AEB_KAEBQEBDAEBQEAU__crt_locale_pointers@@AEBQEAD@Z 000000018004ba5c     libucrtd:output.obj
 0002:00010a5c       $unwind$??$?0AEBV?$string_output_adapter@D@__crt_stdio_output@@AEB_KAEBQEBDAEBQEAU__crt_locale_pointers@@AEBQEAD@?$standard_base@DV?$string_output_adapter@D@__crt_stdio_output@@@__crt_stdio_output@@IEAA@AEBV?$string_output_adapter@D@1@AEB_KAEBQEBDAEBQEAU__crt_locale_pointers@@AEBQEAD@Z 000000018004ba5c     libucrtd:output.obj
 0002:00010a5c       $unwind$??$?0AEBV?$string_output_adapter@_W@__crt_stdio_output@@AEB_KAEBQEB_WAEBQEAU__crt_locale_pointers@@AEBQEAD@?$format_validation_base@_WV?$string_output_adapter@_W@__crt_stdio_output@@@__crt_stdio_output@@IEAA@AEBV?$string_output_adapter@_W@1@AEB_KAEBQEB_WAEBQEAU__crt_locale_pointers@@AEBQEAD@Z 000000018004ba5c     libucrtd:output.obj
 0002:00010a5c       $unwind$??$?0AEBV?$string_output_adapter@_W@__crt_stdio_output@@AEB_KAEBQEB_WAEBQEAU__crt_locale_pointers@@AEBQEAD@?$standard_base@_WV?$string_output_adapter@_W@__crt_stdio_output@@@__crt_stdio_output@@IEAA@AEBV?$string_output_adapter@_W@1@AEB_KAEBQEB_WAEBQEAU__crt_locale_pointers@@AEBQEAD@Z 000000018004ba5c     libucrtd:output.obj
 0002:00010a5c       $unwind$??0?$output_processor@DV?$string_output_adapter@D@__crt_stdio_output@@V?$format_validation_base@DV?$string_output_adapter@D@__crt_stdio_output@@@2@@__crt_stdio_output@@QEAA@AEBV?$string_output_adapter@D@1@_KQEBDQEAU__crt_locale_pointers@@QEAD@Z 000000018004ba5c     libucrtd:output.obj
 0002:00010a5c       $unwind$??0?$output_processor@_WV?$string_output_adapter@_W@__crt_stdio_output@@V?$format_validation_base@_WV?$string_output_adapter@_W@__crt_stdio_output@@@2@@__crt_stdio_output@@QEAA@AEBV?$string_output_adapter@_W@1@_KQEB_WQEAU__crt_locale_pointers@@QEAD@Z 000000018004ba5c     libucrtd:output.obj
 0002:00010a5c       $unwind$__stdio_common_vsprintf_s 000000018004ba5c     libucrtd:output.obj
 0002:00010a5c       $unwind$??$__acrt_fenv_translate_bit@W4__acrt_fenv_abstract_control@@W4__acrt_fenv_machine_sse_control@@@@YA?AW4__acrt_fenv_abstract_control@@W4__acrt_fenv_machine_sse_control@@0W40@1@Z 000000018004ba5c     libucrtd:_fenvutils.obj
 0002:00010a5c       $unwind$??$__acrt_fenv_translate_bit@W4__acrt_fenv_machine_sse_control@@W4__acrt_fenv_abstract_control@@@@YA?AW4__acrt_fenv_machine_sse_control@@W4__acrt_fenv_abstract_control@@0W40@1@Z 000000018004ba5c     libucrtd:_fenvutils.obj
 0002:00010a64       $unwind$?RecanonicalizeCoord@@YAXPEAUworld@@HPEAH1PEAM@Z 000000018004ba64     handmade.obj
 0002:00010a64       $unwind$__scrt_dllmain_exception_filter 000000018004ba64     LIBCMTD:utility.obj
 0002:00010a64       $unwind$__acrt_MessageWindowA 000000018004ba64     libucrtd:dbgrpt.obj
 0002:00010a64       $unwind$__acrt_MessageWindowW 000000018004ba64     libucrtd:dbgrpt.obj
 0002:00010a64       $unwind$??R<lambda_7c9dea7b4ca7285d2cdb541a38da6275>@@QEBAHIQEBDQEA_W_K@Z 000000018004ba64     libucrtd:argv_wildcards.obj
 0002:00010a64       $unwind$??$write_multiple_characters@V?$string_output_adapter@D@__crt_stdio_output@@D@__crt_stdio_output@@YAXAEBV?$string_output_adapter@D@0@DHQEAH@Z 000000018004ba64     libucrtd:output.obj
 0002:00010a64       $unwind$??$write_multiple_characters@V?$string_output_adapter@_W@__crt_stdio_output@@D@__crt_stdio_output@@YAXAEBV?$string_output_adapter@_W@0@DHQEAH@Z 000000018004ba64     libucrtd:output.obj
 0002:00010a6c       $unwind$?RecanonicalizePosition@@YA?AUcanonical_position@@PEAUworld@@U1@@Z 000000018004ba6c     handmade.obj
 0002:00010a6c       $unwind$?write_double_translated_unicode_nolock@@YA?AUwrite_result@?A0x17268360@@QEBDI@Z 000000018004ba6c     libucrtd:write.obj
 0002:00010a80       $unwind$__GSHandlerCheckCommon 000000018004ba80     LIBCMTD:gshandler.obj
 0002:00010a80       $unwind$__ascii_wcsnicmp   000000018004ba80     libucrtd:wcsnicmp.obj
 0002:00010a88       $unwind$__GSHandlerCheck   000000018004ba88     LIBCMTD:gshandler.obj
 0002:00010a88       $unwind$?BuildCatchObject@__FrameHandler3@@SAXPEAUEHExceptionRecord@@PEAXPEBU_s_HandlerType@@PEBU_s_CatchableType@@@Z 000000018004ba88     libvcruntimed:frame.obj
 0002:00010a88       $unwind$?shift_bytes@@YAXQEAD_K0H@Z 000000018004ba88     libucrtd:cvt.obj
 0002:00010a88       $unwind$??$message_box@$$TAEBQEB_WAEBQEB_WK@?$__crt_char_traits@_W@@SAH$$QEA$$TAEBQEB_W1$$QEAK@Z 000000018004ba88     libucrtd:crtmbox.obj
 0002:00010a88       $unwind$??$message_box@PEAUHWND__@@AEBQEB_WAEBQEB_WAEBI@?$__crt_char_traits@_W@@SAH$$QEAPEAUHWND__@@AEBQEB_W1AEBI@Z 000000018004ba88     libucrtd:crtmbox.obj
 0002:00010a88       $unwind$_invoke_watson     000000018004ba88     libucrtd:invalid_parameter.obj
 0002:00010a88       $unwind$??$tcsncpy_s@AEAPEAD_KAEAPEADAEB_K@?$__crt_char_traits@D@@SAHAEAPEAD$$QEA_K0AEB_K@Z 000000018004ba88     libucrtd:argv_wildcards.obj
 0002:00010a88       $unwind$??$tcsncpy_s@PEADAEB_KAEBQEBDAEB_K@?$__crt_char_traits@D@@SAH$$QEAPEADAEB_KAEBQEBD1@Z 000000018004ba88     libucrtd:argv_wildcards.obj
 0002:00010a88       $unwind$??$tcsncpy_s@PEAD_KAEBQEBDAEB_K@?$__crt_char_traits@D@@SAH$$QEAPEAD$$QEA_KAEBQEBDAEB_K@Z 000000018004ba88     libucrtd:argv_wildcards.obj
 0002:00010a88       $unwind$??0?$output_adapter_data@DV?$string_output_adapter@D@__crt_stdio_output@@@__crt_stdio_output@@IEAA@AEBV?$string_output_adapter@D@1@_KQEBDQEAU__crt_locale_pointers@@QEAD@Z 000000018004ba88     libucrtd:output.obj
 0002:00010a88       $unwind$??0?$output_adapter_data@_WV?$string_output_adapter@_W@__crt_stdio_output@@@__crt_stdio_output@@IEAA@AEBV?$string_output_adapter@_W@1@_KQEB_WQEAU__crt_locale_pointers@@QEAD@Z 000000018004ba88     libucrtd:output.obj
 0002:00010a88       $unwind$strncpy_s          000000018004ba88     libucrtd:strncpy_s.obj
 0002:00010a88       $unwind$wcsncpy_s          000000018004ba88     libucrtd:wcsncpy_s.obj
 0002:00010a90       $xdatasym                  000000018004ba90     LIBCMTD:amdsecgs.obj
 0002:00010a94       $unwind$?dllmain_crt_process_attach@@YAHQEAUHINSTANCE__@@QEAX@Z 000000018004ba94     LIBCMTD:dll_dllmain.obj
 0002:00010ab4       $unwind$?fin$0@?0??dllmain_crt_process_attach@@YAHQEAUHINSTANCE__@@QEAX@Z@4HA 000000018004bab4     LIBCMTD:dll_dllmain.obj
 0002:00010ab4       $unwind$?fin$0@?0??dllmain_crt_process_detach@@YAH_N@Z@4HA 000000018004bab4     LIBCMTD:dll_dllmain.obj
 0002:00010ab4       $unwind$?fin$1@?0??dllmain_crt_process_detach@@YAH_N@Z@4HA 000000018004bab4     LIBCMTD:dll_dllmain.obj
 0002:00010ab4       $unwind$_IsNonwritableInCurrentImage$filt$0 000000018004bab4     LIBCMTD:pesect.obj
 0002:00010ab4       $unwind$__scrt_is_nonwritable_in_current_image$filt$0 000000018004bab4     LIBCMTD:utility.obj
 0002:00010ab4       $unwind$__DestructExceptionObject$filt$0 000000018004bab4     libvcruntimed:ehhelpers.obj
 0002:00010ab4       $unwind$?filt$0@?0???$BuildCatchObjectHelperInternal@V__FrameHandler3@@@@YAHPEAUEHExceptionRecord@@PEAXPEBU_s_HandlerType@@PEBU_s_CatchableType@@@Z@4HA 000000018004bab4     libvcruntimed:frame.obj
 0002:00010ab4       $unwind$?filt$0@?0???$BuildCatchObjectInternal@V__FrameHandler3@@@@YAXPEAUEHExceptionRecord@@PEAXPEBU_s_HandlerType@@PEBU_s_CatchableType@@@Z@4HA 000000018004bab4     libvcruntimed:frame.obj
 0002:00010ab4       $unwind$?filt$0@?0??CxxCallCatchBlock@__FrameHandler3@@SAPEAXPEAU_EXCEPTION_RECORD@@@Z@4HA 000000018004bab4     libvcruntimed:frame.obj
 0002:00010ab4       $unwind$?filt$0@?0??FrameUnwindToState@__FrameHandler3@@SAXPEA_KPEAU_xDISPATCHER_CONTEXT@@PEBU_s_FuncInfo@@H@Z@4HA 000000018004bab4     libvcruntimed:frame.obj
 0002:00010ab4       $unwind$?fin$1@?0??CxxCallCatchBlock@__FrameHandler3@@SAPEAXPEAU_EXCEPTION_RECORD@@@Z@4HA 000000018004bab4     libvcruntimed:frame.obj
 0002:00010ab4       $unwind$?fin$1@?0??FrameUnwindToState@__FrameHandler3@@SAXPEA_KPEAU_xDISPATCHER_CONTEXT@@PEBU_s_FuncInfo@@H@Z@4HA 000000018004bab4     libvcruntimed:frame.obj
 0002:00010ab4       $unwind$?dtor$0@?0??fp_format_a@@YAHQEBNPEAD_KQEAD2H_NIQEAU__crt_locale_pointers@@@Z@4HA 000000018004bab4     libucrtd:cvt.obj
 0002:00010ab4       $unwind$?dtor$0@?0??_wcstombs_l_helper@@YA_KPEADPEB_W_KPEAU__crt_locale_pointers@@@Z@4HA 000000018004bab4     libucrtd:wcstombs.obj
 0002:00010ab4       $unwind$?filt$0@?0??is_bad_read_pointer@@YA_NQEBX_K@Z@4HA 000000018004bab4     libucrtd:debug_heap.obj
 0002:00010ab4       $unwind$_free_dbg$fin$0    000000018004bab4     libucrtd:debug_heap.obj
 0002:00010ab4       $unwind$_query_new_handler$fin$0 000000018004bab4     libucrtd:new_handler.obj
 0002:00010ab4       $unwind$?fin$0@?0???$?RV<lambda_0ae27a3a962d80f24befdcbee591983d>@@AEAV<lambda_8d0ee55de4b1038c4002e0adecdf1839>@@V<lambda_dc504788e8f1664fe9b84e20bfb512f2>@@@?$__crt_seh_guarded_call@X@@QEAAX$$QEAV<lambda_0ae27a3a962d80f24befdcbee591983d>@@AEAV<lambda_8d0ee55de4b1038c4002e0adecdf1839>@@$$QEAV<lambda_dc504788e8f1664fe9b84e20bfb512f2>@@@Z@4HA 000000018004bab4     libucrtd:per_thread_data.obj
 0002:00010ab4       $unwind$?fin$0@?0???$?RV<lambda_2d41944a1d46af3157314b8a01080d33>@@AEAV<lambda_8f455de75cd7d7f24b4096f044d8b9e6>@@V<lambda_aa500f224e6afead328df44964fe2772>@@@?$__crt_seh_guarded_call@X@@QEAAX$$QEAV<lambda_2d41944a1d46af3157314b8a01080d33>@@AEAV<lambda_8f455de75cd7d7f24b4096f044d8b9e6>@@$$QEAV<lambda_aa500f224e6afead328df44964fe2772>@@@Z@4HA 000000018004bab4     libucrtd:per_thread_data.obj
 0002:00010ab4       $unwind$?fin$0@?0???$?RV<lambda_74a0ef281e44d15e1136f792f539efb3>@@AEAV<lambda_e157831efee4ea0afb0a2ace5dd5fd0d>@@V<lambda_04ddeca75b7c13fd67716e8dfcef87ee>@@@?$__crt_seh_guarded_call@X@@QEAAX$$QEAV<lambda_74a0ef281e44d15e1136f792f539efb3>@@AEAV<lambda_e157831efee4ea0afb0a2ace5dd5fd0d>@@$$QEAV<lambda_04ddeca75b7c13fd67716e8dfcef87ee>@@@Z@4HA 000000018004bab4     libucrtd:per_thread_data.obj
 0002:00010ab4       $unwind$?fin$0@?0???$?RV<lambda_aa87e3671a710a21b5dc78c0bdf72e11>@@AEAV<lambda_92619d2358a28f41a33ba319515a20b9>@@V<lambda_6992ecaafeb10aed2b74cb1fae11a551>@@@?$__crt_seh_guarded_call@X@@QEAAX$$QEAV<lambda_aa87e3671a710a21b5dc78c0bdf72e11>@@AEAV<lambda_92619d2358a28f41a33ba319515a20b9>@@$$QEAV<lambda_6992ecaafeb10aed2b74cb1fae11a551>@@@Z@4HA 000000018004bab4     libucrtd:per_thread_data.obj
 0002:00010ab4       $unwind$__acrt_update_thread_locale_data$fin$0 000000018004bab4     libucrtd:locale_refcounting.obj
 0002:00010ab4       $unwind$?fin$0@?0???$?RV<lambda_410d79af7f07d98d83a3f525b3859a53>@@AEAV<lambda_3e16ef9562a7dcce91392c22ab16ea36>@@V<lambda_38119f0e861e05405d8a144b9b982f0a>@@@?$__crt_seh_guarded_call@X@@QEAAX$$QEAV<lambda_410d79af7f07d98d83a3f525b3859a53>@@AEAV<lambda_3e16ef9562a7dcce91392c22ab16ea36>@@$$QEAV<lambda_38119f0e861e05405d8a144b9b982f0a>@@@Z@4HA 000000018004bab4     libucrtd:wsetlocale.obj
 0002:00010ab4       $unwind$?fin$0@?0???$?RV<lambda_53fc7fc888e23d815d7080162c0aeeb2>@@AEAV<lambda_4e7105787b7b0e0227fbf2b2d883fa65>@@V<lambda_8ddc48ad9d26c778cb15812d1d88fc8a>@@@?$__crt_seh_guarded_call@H@@QEAAH$$QEAV<lambda_53fc7fc888e23d815d7080162c0aeeb2>@@AEAV<lambda_4e7105787b7b0e0227fbf2b2d883fa65>@@$$QEAV<lambda_8ddc48ad9d26c778cb15812d1d88fc8a>@@@Z@4HA 000000018004bab4     libucrtd:close.obj
 0002:00010ab4       $unwind$?fin$0@?0???$?RV<lambda_4e3dbe6921bc0b5a1a6bc6573fdc859e>@@AEAV<lambda_5533cddd4bda0037814beee657757329>@@V<lambda_47cffbaa968af5c721c38a4a6f8da44d>@@@?$__crt_seh_guarded_call@H@@QEAAH$$QEAV<lambda_4e3dbe6921bc0b5a1a6bc6573fdc859e>@@AEAV<lambda_5533cddd4bda0037814beee657757329>@@$$QEAV<lambda_47cffbaa968af5c721c38a4a6f8da44d>@@@Z@4HA 000000018004bab4     libucrtd:commit.obj
 0002:00010ab4       $unwind$__acrt_initialize_lowio$fin$0 000000018004bab4     libucrtd:ioinit.obj
 0002:00010ab4       $unwind$?fin$0@?0???$?RV<lambda_efa02eb69bf647d2f7ff0dd6f1103f72>@@AEAV<lambda_bd5a608237428601b7e45fbdc72b1ae8>@@V<lambda_728235dc0fc2b1f82d1fa5b3e7102d8f>@@@?$__crt_seh_guarded_call@X@@QEAAX$$QEAV<lambda_efa02eb69bf647d2f7ff0dd6f1103f72>@@AEAV<lambda_bd5a608237428601b7e45fbdc72b1ae8>@@$$QEAV<lambda_728235dc0fc2b1f82d1fa5b3e7102d8f>@@@Z@4HA 000000018004bab4     libucrtd:mbctype.obj
 0002:00010ab4       $unwind$?fin$0@?0??update_thread_multibyte_data_internal@@YAPEAU__crt_multibyte_data@@QEAU__acrt_ptd@@QEAPEAU1@@Z@4HA 000000018004bab4     libucrtd:mbctype.obj
 0002:00010ab4       $unwind$?fin$0@?0???$?RV<lambda_450d765d439847d4c735a33c368b5fc0>@@AEAV<lambda_44731a7d0e6d81c3e6aa82d741081786>@@V<lambda_601a2a7da3b7a96e9554ac7215c4b07c>@@@?$__crt_seh_guarded_call@P6AXH@Z@@QEAAP6AXH@Z$$QEAV<lambda_450d765d439847d4c735a33c368b5fc0>@@AEAV<lambda_44731a7d0e6d81c3e6aa82d741081786>@@$$QEAV<lambda_601a2a7da3b7a96e9554ac7215c4b07c>@@@Z@4HA 000000018004bab4     libucrtd:signal.obj
 0002:00010ab4       $unwind$terminate$filt$0   000000018004bab4     libucrtd:terminate.obj
 0002:00010ab4       $unwind$?filt$0@?0???R<lambda_6e4b09c48022b2350581041d5f6b0c4c>@@QEBA@XZ@4HA 000000018004bab4     libucrtd:exit.obj
 0002:00010ab4       $unwind$?fin$0@?0???$?RV<lambda_d80eeec6fff315bfe5c115232f3240e3>@@AEAV<lambda_6e4b09c48022b2350581041d5f6b0c4c>@@V<lambda_2358e3775559c9db80273638284d5e45>@@@?$__crt_seh_guarded_call@X@@QEAAX$$QEAV<lambda_d80eeec6fff315bfe5c115232f3240e3>@@AEAV<lambda_6e4b09c48022b2350581041d5f6b0c4c>@@$$QEAV<lambda_2358e3775559c9db80273638284d5e45>@@@Z@4HA 000000018004bab4     libucrtd:exit.obj
 0002:00010ab4       $unwind$?dtor$0@?0???R<lambda_d121dba8a4adeaf3a9819e48611155df>@@QEBAHXZ@4HA 000000018004bab4     libucrtd:onexit.obj
 0002:00010ab4       $unwind$?fin$0@?0???$?RV<lambda_6a47f4c8fd0152770a780fc1d70204eb>@@AEAV<lambda_d121dba8a4adeaf3a9819e48611155df>@@V<lambda_6aaa2265f5b6a89667e7d7630012e97a>@@@?$__crt_seh_guarded_call@H@@QEAAH$$QEAV<lambda_6a47f4c8fd0152770a780fc1d70204eb>@@AEAV<lambda_d121dba8a4adeaf3a9819e48611155df>@@$$QEAV<lambda_6aaa2265f5b6a89667e7d7630012e97a>@@@Z@4HA 000000018004bab4     libucrtd:onexit.obj
 0002:00010ab4       $unwind$_fcloseall$fin$0   000000018004bab4     libucrtd:closeall.obj
 0002:00010ab4       $unwind$?fin$0@?0???$?RV<lambda_842d9ff0dc9ef11c61343bbaebe7f885>@@AEAV<lambda_c5860995281e5c4ce005b3de8f5874ee>@@V<lambda_d90129c13df834fdcbf8d2b88dafcf2d>@@@?$__crt_seh_guarded_call@X@@QEAAX$$QEAV<lambda_842d9ff0dc9ef11c61343bbaebe7f885>@@AEAV<lambda_c5860995281e5c4ce005b3de8f5874ee>@@$$QEAV<lambda_d90129c13df834fdcbf8d2b88dafcf2d>@@@Z@4HA 000000018004bab4     libucrtd:fflush.obj
 0002:00010ab4       $unwind$?fin$0@?0???$?RV<lambda_886d6c58226a84441f68b9f2b8217b83>@@AEAV<lambda_ab61a845afdef5b7c387490eaf3616ee>@@V<lambda_f7f22ab5edc0698d5f6905b0d3f44752>@@@?$__crt_seh_guarded_call@X@@QEAAX$$QEAV<lambda_886d6c58226a84441f68b9f2b8217b83>@@AEAV<lambda_ab61a845afdef5b7c387490eaf3616ee>@@$$QEAV<lambda_f7f22ab5edc0698d5f6905b0d3f44752>@@@Z@4HA 000000018004bab4     libucrtd:fflush.obj
 0002:00010ab4       $unwind$?dtor$0@?0??shortsort@@YAXPEAD0_KP6AHPEBX2@Z@Z@4HA 000000018004bab4     libucrtd:qsort.obj
 0002:00010ab4       $unwind$_ctrlfp$filt$0     000000018004bab4     libucrtd:fpctrl.obj
 0002:00010abc       $unwind$?dllmain_crt_process_detach@@YAH_N@Z 000000018004babc     LIBCMTD:dll_dllmain.obj
 0002:00010aec       $unwind$?dllmain_crt_dispatch@@YAHQEAUHINSTANCE__@@KQEAX@Z 000000018004baec     LIBCMTD:dll_dllmain.obj
 0002:00010aec       $unwind$?dllmain_raw@@YAHQEAUHINSTANCE__@@KQEAX@Z 000000018004baec     LIBCMTD:dll_dllmain.obj
 0002:00010aec       $unwind$__acrt_InitializeCriticalSectionEx 000000018004baec     libucrtd:winapi_thunks.obj
 0002:00010af4       $unwind$?dllmain_dispatch@@YAHQEAUHINSTANCE__@@KQEAX@Z 000000018004baf4     LIBCMTD:dll_dllmain.obj
 0002:00010b14       $unwind$?filt$0@?0??dllmain_dispatch@@YAHQEAUHINSTANCE__@@KQEAX@Z@4HA 000000018004bb14     LIBCMTD:dll_dllmain.obj
 0002:00010b14       $unwind$?fin$0@?0??validate_heap_if_required_nolock@@YAXXZ@4HA 000000018004bb14     libucrtd:debug_heap.obj
 0002:00010b14       $unwind$_CrtCheckMemory$fin$0 000000018004bb14     libucrtd:debug_heap.obj
 0002:00010b14       $unwind$_CrtMemDumpAllObjectsSince$fin$0 000000018004bb14     libucrtd:debug_heap.obj
 0002:00010b14       $unwind$_CrtSetDbgFlag$fin$0 000000018004bb14     libucrtd:debug_heap.obj
 0002:00010b14       $unwind$_msize_dbg$fin$0   000000018004bb14     libucrtd:debug_heap.obj
 0002:00010b14       $unwind$_realloc_dbg$fin$0 000000018004bb14     libucrtd:debug_heap.obj
 0002:00010b14       $unwind$__acrt_lowio_ensure_fh_exists$fin$0 000000018004bb14     libucrtd:osfinfo.obj
 0002:00010b14       $unwind$_write$fin$0       000000018004bb14     libucrtd:write.obj
 0002:00010b14       $unwind$raise$fin$0        000000018004bb14     libucrtd:signal.obj
 0002:00010b14       $unwind$fclose$fin$0       000000018004bb14     libucrtd:fclose.obj
 0002:00010b1c       $unwind$_DllMainCRTStartup 000000018004bb1c     LIBCMTD:dll_dllmain.obj
 0002:00010b1c       $unwind$c32rtomb           000000018004bb1c     libucrtd:c32rtomb.obj
 0002:00010b1c       $unwind$_lseeki64_nolock   000000018004bb1c     libucrtd:lseek.obj
 0002:00010b1c       $unwind$?type_case_s_compute_narrow_string_length@?$output_processor@DV?$string_output_adapter@D@__crt_stdio_output@@V?$format_validation_base@DV?$string_output_adapter@D@__crt_stdio_output@@@2@@__crt_stdio_output@@AEBAHHD@Z 000000018004bb1c     libucrtd:output.obj
 0002:00010b24       $unwind$__report_securityfailure 000000018004bb24     LIBCMTD:gs_report.obj
 0002:00010b24       $unwind$__scrt_initialize_crt 000000018004bb24     LIBCMTD:utility.obj
 0002:00010b24       $unwind$__scrt_release_startup_lock 000000018004bb24     LIBCMTD:utility.obj
 0002:00010b24       $unwind$__vcrt_uninitialize 000000018004bb24     libvcruntimed:initialization.obj
 0002:00010b24       $unwind$__ascii_towupper   000000018004bb24     libucrtd:atox.obj
 0002:00010b24       $unwind$__acrt_uninitialize 000000018004bb24     libucrtd:initialization.obj
 0002:00010b24       $unwind$__acrt_uninitialize_critical 000000018004bb24     libucrtd:initialization.obj
 0002:00010b24       $unwind$report_memory_leaks 000000018004bb24     libucrtd:initialization.obj
 0002:00010b24       $unwind$uninitialize_allocated_io_buffers 000000018004bb24     libucrtd:initialization.obj
 0002:00010b24       $unwind$uninitialize_environment 000000018004bb24     libucrtd:initialization.obj
 0002:00010b24       $unwind$uninitialize_vcruntime 000000018004bb24     libucrtd:initialization.obj
 0002:00010b24       $unwind$__acrt_lock        000000018004bb24     libucrtd:locks.obj
 0002:00010b24       $unwind$__acrt_unlock      000000018004bb24     libucrtd:locks.obj
 0002:00010b24       $unwind$__acrt_uninitialize_ptd 000000018004bb24     libucrtd:per_thread_data.obj
 0002:00010b24       $unwind$__ascii_towlower   000000018004bb24     libucrtd:wsetlocale.obj
 0002:00010b24       $unwind$__acrt_lowio_lock_fh 000000018004bb24     libucrtd:osfinfo.obj
 0002:00010b24       $unwind$__acrt_lowio_unlock_fh 000000018004bb24     libucrtd:osfinfo.obj
 0002:00010b24       $unwind$?do_locale_initialization@@YAXD@Z 000000018004bb24     libucrtd:argv_parsing.obj
 0002:00010b24       $unwind$_configure_narrow_argv 000000018004bb24     libucrtd:argv_parsing.obj
 0002:00010b24       $unwind$?exit_or_terminate_process@@YAXI@Z 000000018004bb24     libucrtd:exit.obj
 0002:00010b24       $unwind$_exit              000000018004bb24     libucrtd:exit.obj
 0002:00010b24       $unwind$?is_stream_flushable_or_commitable@@YA_NJ@Z 000000018004bb24     libucrtd:fflush.obj
 0002:00010b24       $unwind$??$to_abstract_status@W4__acrt_fenv_machine_sse_status@@@@YA?AW4__acrt_fenv_abstract_status@@W4__acrt_fenv_machine_sse_status@@@Z 000000018004bb24     libucrtd:_fenvutils.obj
 0002:00010b24       $unwind$?__acrt_fenv_shift_abstract_sse_status@@YA?AW4__acrt_fenv_abstract_status@@W41@@Z 000000018004bb24     libucrtd:_fenvutils.obj
 0002:00010b24       $unwind$?__acrt_fenv_unshift_abstract_sse_status@@YA?AW4__acrt_fenv_abstract_status@@W41@@Z 000000018004bb24     libucrtd:_fenvutils.obj
 0002:00010b24       $unwind$?to_machine_sse_status@@YA?AW4__acrt_fenv_machine_sse_status@@W4__acrt_fenv_abstract_status@@@Z 000000018004bb24     libucrtd:_fenvutils.obj
 0002:00010b24       $unwind$__acrt_fenv_set_control 000000018004bb24     libucrtd:_fenvutils.obj
 0002:00010b24       $unwind$__acrt_fenv_set_status 000000018004bb24     libucrtd:_fenvutils.obj
 0002:00010b2c       $unwind$__report_rangecheckfailure 000000018004bb2c     LIBCMTD:gs_report.obj
 0002:00010b2c       $unwind$?__scrt_initialize_type_info@@YAXXZ 000000018004bb2c     LIBCMTD:tncleanup.obj
 0002:00010b2c       $unwind$?__scrt_uninitialize_type_info@@YAXXZ 000000018004bb2c     LIBCMTD:tncleanup.obj
 0002:00010b2c       $unwind$?configure_argv@__scrt_narrow_argv_policy@@SAHXZ 000000018004bb2c     LIBCMTD:utility.obj
 0002:00010b2c       $unwind$?initialize_environment@__scrt_narrow_environment_policy@@SAHXZ 000000018004bb2c     LIBCMTD:utility.obj
 0002:00010b2c       $unwind$__scrt_dllmain_after_initialize_c 000000018004bb2c     LIBCMTD:utility.obj
 0002:00010b2c       $unwind$__scrt_dllmain_before_initialize_c 000000018004bb2c     LIBCMTD:utility.obj
 0002:00010b2c       $unwind$__scrt_dllmain_crt_thread_attach 000000018004bb2c     LIBCMTD:utility.obj
 0002:00010b2c       $unwind$__scrt_dllmain_crt_thread_detach 000000018004bb2c     LIBCMTD:utility.obj
 0002:00010b2c       $unwind$__scrt_dllmain_uninitialize_c 000000018004bb2c     LIBCMTD:utility.obj
 0002:00010b2c       $unwind$__scrt_dllmain_uninitialize_critical 000000018004bb2c     LIBCMTD:utility.obj
 0002:00010b2c       $unwind$__vcrt_initialize  000000018004bb2c     libvcruntimed:initialization.obj
 0002:00010b2c       $unwind$__vcrt_thread_attach 000000018004bb2c     libvcruntimed:initialization.obj
 0002:00010b2c       $unwind$__vcrt_thread_detach 000000018004bb2c     libvcruntimed:initialization.obj
 0002:00010b2c       $unwind$__vcrt_uninitialize_critical 000000018004bb2c     libvcruntimed:initialization.obj
 0002:00010b2c       $unwind$__vcrt_initialize_ptd 000000018004bb2c     libvcruntimed:per_thread_data.obj
 0002:00010b2c       $unwind$__vcrt_uninitialize_ptd 000000018004bb2c     libvcruntimed:per_thread_data.obj
 0002:00010b2c       $unwind$_GetImageBase      000000018004bb2c     libvcruntimed:risctrnsctrl.obj
 0002:00010b2c       $unwind$_GetThrowImageBase 000000018004bb2c     libvcruntimed:risctrnsctrl.obj
 0002:00010b2c       $unwind$?try_get_FlsAlloc@@YAP6AKP6AXPEAX@Z@ZXZ 000000018004bb2c     libvcruntimed:winapi_downlevel.obj
 0002:00010b2c       $unwind$?try_get_FlsFree@@YAP6AHK@ZXZ 000000018004bb2c     libvcruntimed:winapi_downlevel.obj
 0002:00010b2c       $unwind$?try_get_FlsGetValue@@YAP6APEAXK@ZXZ 000000018004bb2c     libvcruntimed:winapi_downlevel.obj
 0002:00010b2c       $unwind$?try_get_FlsSetValue@@YAP6AHKPEAX@ZXZ 000000018004bb2c     libvcruntimed:winapi_downlevel.obj
 0002:00010b2c       $unwind$?try_get_InitializeCriticalSectionEx@@YAP6AHPEAU_RTL_CRITICAL_SECTION@@KK@ZXZ 000000018004bb2c     libvcruntimed:winapi_downlevel.obj
 0002:00010b2c       $unwind$__dcrt_terminate_console_output 000000018004bb2c     libucrtd:initcon.obj
 0002:00010b2c       $unwind$??$uninitialize_environment_internal@D@@YAXAEAPEAPEAD@Z 000000018004bb2c     libucrtd:environment_initialization.obj
 0002:00010b2c       $unwind$??$uninitialize_environment_internal@_W@@YAXAEAPEAPEA_W@Z 000000018004bb2c     libucrtd:environment_initialization.obj
 0002:00010b2c       $unwind$__dcrt_uninitialize_environments_nolock 000000018004bb2c     libucrtd:environment_initialization.obj
 0002:00010b2c       $unwind$__acrt_initialize_heap 000000018004bb2c     libucrtd:heap_handle.obj
 0002:00010b2c       $unwind$_query_new_mode    000000018004bb2c     libucrtd:new_mode.obj
 0002:00010b2c       $unwind$__acrt_initialize  000000018004bb2c     libucrtd:initialization.obj
 0002:00010b2c       $unwind$__acrt_thread_attach 000000018004bb2c     libucrtd:initialization.obj
 0002:00010b2c       $unwind$__acrt_thread_detach 000000018004bb2c     libucrtd:initialization.obj
 0002:00010b2c       $unwind$initialize_c       000000018004bb2c     libucrtd:initialization.obj
 0002:00010b2c       $unwind$initialize_global_variables 000000018004bb2c     libucrtd:initialization.obj
 0002:00010b2c       $unwind$__acrt_getptd_noexit 000000018004bb2c     libucrtd:per_thread_data.obj
 0002:00010b2c       $unwind$__acrt_initialize_ptd 000000018004bb2c     libucrtd:per_thread_data.obj
 0002:00010b2c       $unwind$__acrt_get_developer_information_policy 000000018004bb2c     libucrtd:win_policies.obj
 0002:00010b2c       $unwind$__acrt_get_process_end_policy 000000018004bb2c     libucrtd:win_policies.obj
 0002:00010b2c       $unwind$__acrt_get_windowing_model_policy 000000018004bb2c     libucrtd:win_policies.obj
 0002:00010b2c       $unwind$?try_get_AppPolicyGetProcessTerminationMethod@@YAP6AJPEAXPEAW4AppPolicyProcessTerminationMethod@@@ZXZ 000000018004bb2c     libucrtd:winapi_thunks.obj
 0002:00010b2c       $unwind$?try_get_AppPolicyGetShowDeveloperDiagnostic@@YAP6AJPEAXPEAW4AppPolicyShowDeveloperDiagnostic@@@ZXZ 000000018004bb2c     libucrtd:winapi_thunks.obj
 0002:00010b2c       $unwind$?try_get_AppPolicyGetWindowingModel@@YAP6AJPEAXPEAW4AppPolicyWindowingModel@@@ZXZ 000000018004bb2c     libucrtd:winapi_thunks.obj
 0002:00010b2c       $unwind$?try_get_AreFileApisANSI@@YAP6AHXZXZ 000000018004bb2c     libucrtd:winapi_thunks.obj
 0002:00010b2c       $unwind$?try_get_FlsAlloc@@YAP6AKP6AXPEAX@Z@ZXZ 000000018004bb2c     libucrtd:winapi_thunks.obj
 0002:00010b2c       $unwind$?try_get_FlsFree@@YAP6AHK@ZXZ 000000018004bb2c     libucrtd:winapi_thunks.obj
 0002:00010b2c       $unwind$?try_get_FlsGetValue@@YAP6APEAXK@ZXZ 000000018004bb2c     libucrtd:winapi_thunks.obj
 0002:00010b2c       $unwind$?try_get_FlsSetValue@@YAP6AHKPEAX@ZXZ 000000018004bb2c     libucrtd:winapi_thunks.obj
 0002:00010b2c       $unwind$?try_get_GetActiveWindow@@YAP6APEAUHWND__@@XZXZ 000000018004bb2c     libucrtd:winapi_thunks.obj
 0002:00010b2c       $unwind$?try_get_GetLastActivePopup@@YAP6APEAUHWND__@@PEAU1@@ZXZ 000000018004bb2c     libucrtd:winapi_thunks.obj
 0002:00010b2c       $unwind$?try_get_GetProcessWindowStation@@YAP6APEAUHWINSTA__@@XZXZ 000000018004bb2c     libucrtd:winapi_thunks.obj
 0002:00010b2c       $unwind$?try_get_GetUserObjectInformationW@@YAP6AHPEAXH0KPEAK@ZXZ 000000018004bb2c     libucrtd:winapi_thunks.obj
 0002:00010b2c       $unwind$?try_get_InitializeCriticalSectionEx@@YAP6AHPEAU_RTL_CRITICAL_SECTION@@KK@ZXZ 000000018004bb2c     libucrtd:winapi_thunks.obj
 0002:00010b2c       $unwind$?try_get_LCMapStringEx@@YAP6AHPEB_WK0HPEA_WHPEAU_nlsversioninfo@@PEAX_J@ZXZ 000000018004bb2c     libucrtd:winapi_thunks.obj
 0002:00010b2c       $unwind$?try_get_LocaleNameToLCID@@YAP6AKPEB_WK@ZXZ 000000018004bb2c     libucrtd:winapi_thunks.obj
 0002:00010b2c       $unwind$?try_get_MessageBoxA@@YAP6AHPEAUHWND__@@PEBD1I@ZXZ 000000018004bb2c     libucrtd:winapi_thunks.obj
 0002:00010b2c       $unwind$?try_get_MessageBoxW@@YAP6AHPEAUHWND__@@PEB_W1I@ZXZ 000000018004bb2c     libucrtd:winapi_thunks.obj
 0002:00010b2c       $unwind$__fpecode          000000018004bb2c     libucrtd:signal.obj
 0002:00010b2c       $unwind$__acrt_initialize_command_line 000000018004bb2c     libucrtd:argv_data.obj
 0002:00010b2c       $unwind$_cexit             000000018004bb2c     libucrtd:exit.obj
 0002:00010b2c       $unwind$_is_c_termination_complete 000000018004bb2c     libucrtd:exit.obj
 0002:00010b2c       $unwind$_flushall          000000018004bb2c     libucrtd:fflush.obj
 0002:00010b34       $unwind$__report_gsfailure 000000018004bb34     LIBCMTD:gs_report.obj
 0002:00010b34       $unwind$_IsExceptionObjectToBeDestroyed 000000018004bb34     libvcruntimed:ehhelpers.obj
 0002:00010b34       $unwind$?getESTypes@__FrameHandler3@@SAPEBU_s_ESTypeList@@PEBU_s_FuncInfo@@@Z 000000018004bb34     libvcruntimed:frame.obj
 0002:00010b34       $unwind$__except_validate_context_record 000000018004bb34     libvcruntimed:jbcxrval.obj
 0002:00010b34       $unwind$?release@?$__crt_unique_heap_ptr@U__vcrt_ptd@@U__crt_internal_free_policy@@@@QEAAXXZ 000000018004bb34     libvcruntimed:per_thread_data.obj
 0002:00010b34       $unwind$__vcrt_freeptd     000000018004bb34     libvcruntimed:per_thread_data.obj
 0002:00010b34       $unwind$_FindAndUnlinkFrame 000000018004bb34     libvcruntimed:risctrnsctrl.obj
 0002:00010b34       $unwind$?release@?$__crt_unique_heap_ptr@DU__crt_public_free_policy@@@@QEAAXXZ 000000018004bb34     libvcruntimed:std_exception.obj
 0002:00010b34       $unwind$?release@?$__crt_unique_heap_ptr@DU__crt_internal_free_policy@@@@QEAAXXZ 000000018004bb34     libvcruntimed:std_type_info.obj
 0002:00010b34       $unwind$__std_type_info_destroy_list 000000018004bb34     libvcruntimed:std_type_info.obj
 0002:00010b34       $unwind$?try_load_library_from_system_directory@@YAPEAUHINSTANCE__@@QEB_W@Z 000000018004bb34     libvcruntimed:winapi_downlevel.obj
 0002:00010b34       $unwind$?parse_digit@__crt_strtox@@YAI_W@Z 000000018004bb34     libucrtd:atox.obj
 0002:00010b34       $unwind$?is_block_an_aligned_allocation@@YA_NQEBX@Z 000000018004bb34     libucrtd:debug_heap.obj
 0002:00010b34       $unwind$free               000000018004bb34     libucrtd:free.obj
 0002:00010b34       $unwind$_free_base         000000018004bb34     libucrtd:free_base.obj
 0002:00010b34       $unwind$_callnewh          000000018004bb34     libucrtd:new_handler.obj
 0002:00010b34       $unwind$??R<lambda_e157831efee4ea0afb0a2ace5dd5fd0d>@@QEBAXXZ 000000018004bb34     libucrtd:per_thread_data.obj
 0002:00010b34       $unwind$?construct_ptd_array@@YAXQEAU__acrt_ptd@@@Z 000000018004bb34     libucrtd:per_thread_data.obj
 0002:00010b34       $unwind$?destroy_ptd@@YAXQEAU__acrt_ptd@@@Z 000000018004bb34     libucrtd:per_thread_data.obj
 0002:00010b34       $unwind$?destroy_ptd_array@@YAXQEAU__acrt_ptd@@@Z 000000018004bb34     libucrtd:per_thread_data.obj
 0002:00010b34       $unwind$?release@?$__crt_unique_heap_ptr@U__acrt_ptd@@U__crt_internal_free_policy@@@@QEAAXXZ 000000018004bb34     libucrtd:per_thread_data.obj
 0002:00010b34       $unwind$?try_load_library_from_system_directory@@YAPEAUHINSTANCE__@@QEB_W@Z 000000018004bb34     libucrtd:winapi_thunks.obj
 0002:00010b34       $unwind$__acrt_AppPolicyGetProcessTerminationMethodInternal 000000018004bb34     libucrtd:winapi_thunks.obj
 0002:00010b34       $unwind$__acrt_AppPolicyGetShowDeveloperDiagnosticInternal 000000018004bb34     libucrtd:winapi_thunks.obj
 0002:00010b34       $unwind$__acrt_AppPolicyGetWindowingModelInternal 000000018004bb34     libucrtd:winapi_thunks.obj
 0002:00010b34       $unwind$__acrt_FlsAlloc    000000018004bb34     libucrtd:winapi_thunks.obj
 0002:00010b34       $unwind$__acrt_DownlevelLocaleNameToLCID 000000018004bb34     libucrtd:lcidtoname_downlevel.obj
 0002:00010b34       $unwind$__acrt_add_locale_ref 000000018004bb34     libucrtd:locale_refcounting.obj
 0002:00010b34       $unwind$__acrt_release_locale_ref 000000018004bb34     libucrtd:locale_refcounting.obj
 0002:00010b34       $unwind$??R<lambda_4e7105787b7b0e0227fbf2b2d883fa65>@@QEBAHXZ 000000018004bb34     libucrtd:close.obj
 0002:00010b34       $unwind$?release@?$__crt_unique_heap_ptr@U__crt_lowio_handle_data@@U__crt_internal_free_policy@@@@QEAAXXZ 000000018004bb34     libucrtd:osfinfo.obj
 0002:00010b34       $unwind$??R<lambda_bd5a608237428601b7e45fbdc72b1ae8>@@QEBAXXZ 000000018004bb34     libucrtd:mbctype.obj
 0002:00010b34       $unwind$?release@?$__crt_unique_heap_ptr@U__crt_multibyte_data@@U__crt_internal_free_policy@@@@QEAAXXZ 000000018004bb34     libucrtd:mbctype.obj
 0002:00010b34       $unwind$__acrt_initialize_invalid_parameter_handler 000000018004bb34     libucrtd:invalid_parameter.obj
 0002:00010b34       $unwind$??R<lambda_df1553121bfa390f1154bd84936f2730>@@QEBAHXZ 000000018004bb34     libucrtd:argv_parsing.obj
 0002:00010b34       $unwind$?release@?$__crt_unique_heap_ptr@EU__crt_internal_free_policy@@@@QEAAXXZ 000000018004bb34     libucrtd:argv_parsing.obj
 0002:00010b34       $unwind$?release@?$__crt_unique_heap_ptr@PEADU__crt_internal_free_policy@@@@QEAAXXZ 000000018004bb34     libucrtd:argv_parsing.obj
 0002:00010b34       $unwind$??1?$argument_list@D@?A0x5f5c8891@@QEAA@XZ 000000018004bb34     libucrtd:argv_wildcards.obj
 0002:00010b34       $unwind$?close@__crt_findfile_traits@@SA_NPEAX@Z 000000018004bb34     libucrtd:argv_wildcards.obj
 0002:00010b34       $unwind$?close@__crt_hmodule_traits@@SA_NPEAUHINSTANCE__@@@Z 000000018004bb34     libucrtd:exit.obj
 0002:00010b34       $unwind$_execute_onexit_table 000000018004bb34     libucrtd:onexit.obj
 0002:00010b34       $unwind$_initialize_onexit_table 000000018004bb34     libucrtd:onexit.obj
 0002:00010b34       $unwind$?release@?$__crt_unique_heap_ptr@PEAU__crt_stdio_stream_data@@U__crt_internal_free_policy@@@@QEAAXXZ 000000018004bb34     libucrtd:_file.obj
 0002:00010b34       $unwind$_lock_file         000000018004bb34     libucrtd:_file.obj
 0002:00010b34       $unwind$_unlock_file       000000018004bb34     libucrtd:_file.obj
 0002:00010b34       $unwind$?is_in_use@__crt_stdio_stream@@QEBA_NXZ 000000018004bb34     libucrtd:closeall.obj
 0002:00010b34       $unwind$?__acrt_stdio_reset_buffer@@YAXV__crt_stdio_stream@@@Z 000000018004bb34     libucrtd:fflush.obj
 0002:00010b34       $unwind$_fflush_nolock     000000018004bb34     libucrtd:fflush.obj
 0002:00010b34       $unwind$??$scratch_data@D@formatting_buffer@__crt_stdio_output@@QEAAPEADXZ 000000018004bb34     libucrtd:output.obj
 0002:00010b34       $unwind$?is_string_backed@__crt_stdio_stream@@QEBA_NXZ 000000018004bb34     libucrtd:output.obj
 0002:00010b34       $unwind$?state_case_flag@?$output_processor@DV?$string_output_adapter@D@__crt_stdio_output@@V?$format_validation_base@DV?$string_output_adapter@D@__crt_stdio_output@@@2@@__crt_stdio_output@@AEAA_NXZ 000000018004bb34     libucrtd:output.obj
 0002:00010b34       $unwind$?state_case_flag@?$output_processor@_WV?$string_output_adapter@_W@__crt_stdio_output@@V?$format_validation_base@_WV?$string_output_adapter@_W@__crt_stdio_output@@@2@@__crt_stdio_output@@AEAA_NXZ 000000018004bb34     libucrtd:output.obj
 0002:00010b34       $unwind$?type_case_Z@?$output_processor@DV?$string_output_adapter@D@__crt_stdio_output@@V?$format_validation_base@DV?$string_output_adapter@D@__crt_stdio_output@@@2@@__crt_stdio_output@@AEAA_NXZ 000000018004bb34     libucrtd:output.obj
 0002:00010b34       $unwind$?type_case_Z@?$output_processor@_WV?$string_output_adapter@_W@__crt_stdio_output@@V?$format_validation_base@_WV?$string_output_adapter@_W@__crt_stdio_output@@@2@@__crt_stdio_output@@AEAA_NXZ 000000018004bb34     libucrtd:output.obj
 0002:00010b34       $unwind$?type_case_s@?$output_processor@DV?$string_output_adapter@D@__crt_stdio_output@@V?$format_validation_base@DV?$string_output_adapter@D@__crt_stdio_output@@@2@@__crt_stdio_output@@AEAA_NXZ 000000018004bb34     libucrtd:output.obj
 0002:00010b34       $unwind$?type_case_s@?$output_processor@_WV?$string_output_adapter@_W@__crt_stdio_output@@V?$format_validation_base@_WV?$string_output_adapter@_W@__crt_stdio_output@@@2@@__crt_stdio_output@@AEAA_NXZ 000000018004bb34     libucrtd:output.obj
 0002:00010b34       $unwind$_set_statfp        000000018004bb34     libucrtd:fpctrl.obj
 0002:00010b34       $unwind$??$translate_control_exception_mask@W4__acrt_fenv_abstract_control@@W4__acrt_fenv_machine_sse_control@@@@YA?AW4__acrt_fenv_abstract_control@@W4__acrt_fenv_machine_sse_control@@@Z 000000018004bb34     libucrtd:_fenvutils.obj
 0002:00010b34       $unwind$??$translate_control_rounding_control@W4__acrt_fenv_abstract_control@@W4__acrt_fenv_machine_sse_control@@@@YA?AW4__acrt_fenv_abstract_control@@W4__acrt_fenv_machine_sse_control@@@Z 000000018004bb34     libucrtd:_fenvutils.obj
 0002:00010b34       $unwind$?set_machine_sse_control@@YAXW4__acrt_fenv_machine_sse_control@@@Z 000000018004bb34     libucrtd:_fenvutils.obj
 0002:00010b34       $unwind$?to_abstract_control@@YA?AW4__acrt_fenv_abstract_control@@W4__acrt_fenv_machine_sse_control@@@Z 000000018004bb34     libucrtd:_fenvutils.obj
 0002:00010b34       $unwind$?translate_control_denormal_control_from_sse@@YA?AW4__acrt_fenv_abstract_control@@W4__acrt_fenv_machine_sse_control@@@Z 000000018004bb34     libucrtd:_fenvutils.obj
 0002:00010b34       $unwind$feholdexcept       000000018004bb34     libucrtd:feholdexcept.obj
 0002:00010b34       $unwind$__acrt_invoke_user_matherr 000000018004bb34     libucrtd:matherr.obj
 0002:00010b3c       $unwind$capture_current_context 000000018004bb3c     LIBCMTD:gs_report.obj
 0002:00010b3c       $unwind$capture_previous_context 000000018004bb3c     LIBCMTD:gs_report.obj
 0002:00010b3c       $unwind$?capture_current_context@@YAXQEAU_CONTEXT@@@Z 000000018004bb3c     libucrtd:invalid_parameter.obj
 0002:00010b44       $unwind$??3@YAXPEAX@Z      000000018004bb44     LIBCMTD:delete_scalar.obj
 0002:00010b44       $unwind$__raise_securityfailure 000000018004bb44     LIBCMTD:gs_report.obj
 0002:00010b44       $unwind$ReadPointerNoFence 000000018004bb44     LIBCMTD:guard_support.obj
 0002:00010b44       $unwind$_ValidateImageBase 000000018004bb44     LIBCMTD:pesect.obj
 0002:00010b44       $unwind$?is_potentially_valid_image_base@@YA_NQEAX@Z 000000018004bb44     LIBCMTD:utility.obj
 0002:00010b44       $unwind$??0bad_exception@std@@QEAA@XZ 000000018004bb44     libvcruntimed:frame.obj
 0002:00010b44       $unwind$??1bad_exception@std@@UEAA@XZ 000000018004bb44     libvcruntimed:frame.obj
 0002:00010b44       $unwind$??1exception@std@@UEAA@XZ 000000018004bb44     libvcruntimed:frame.obj
 0002:00010b44       $unwind$?__RethrowException@@YAXPEAUEHExceptionRecord@@@Z 000000018004bb44     libvcruntimed:frame.obj
 0002:00010b44       $unwind$__vcrt_EncodePointer 000000018004bb44     libvcruntimed:frame.obj
 0002:00010b44       $unwind$??0scoped_get_last_error_reset@?A0x8fdcb2b3@@QEAA@XZ 000000018004bb44     libvcruntimed:per_thread_data.obj
 0002:00010b44       $unwind$??1?$__crt_unique_heap_ptr@U__vcrt_ptd@@U__crt_internal_free_policy@@@@QEAA@XZ 000000018004bb44     libvcruntimed:per_thread_data.obj
 0002:00010b44       $unwind$??1scoped_get_last_error_reset@?A0x8fdcb2b3@@QEAA@XZ 000000018004bb44     libvcruntimed:per_thread_data.obj
 0002:00010b44       $unwind$??B?$__crt_unique_heap_ptr@U__vcrt_ptd@@U__crt_internal_free_policy@@@@QEBA_NXZ 000000018004bb44     libvcruntimed:per_thread_data.obj
 0002:00010b44       $unwind$?store_and_initialize_ptd@@YA_NQEAU__vcrt_ptd@@@Z 000000018004bb44     libvcruntimed:per_thread_data.obj
 0002:00010b44       $unwind$__vcrt_freefls     000000018004bb44     libvcruntimed:per_thread_data.obj
 0002:00010b44       $unwind$_SetImageBase      000000018004bb44     libvcruntimed:risctrnsctrl.obj
 0002:00010b44       $unwind$_SetThrowImageBase 000000018004bb44     libvcruntimed:risctrnsctrl.obj
 0002:00010b44       $unwind$??1?$__crt_unique_heap_ptr@DU__crt_public_free_policy@@@@QEAA@XZ 000000018004bb44     libvcruntimed:std_exception.obj
 0002:00010b44       $unwind$??B?$__crt_unique_heap_ptr@DU__crt_public_free_policy@@@@QEBA_NXZ 000000018004bb44     libvcruntimed:std_exception.obj
 0002:00010b44       $unwind$__std_exception_destroy 000000018004bb44     libvcruntimed:std_exception.obj
 0002:00010b44       $unwind$??1?$__crt_unique_heap_ptr@DU__crt_internal_free_policy@@@@QEAA@XZ 000000018004bb44     libvcruntimed:std_type_info.obj
 0002:00010b44       $unwind$??B?$__crt_unique_heap_ptr@DU__crt_internal_free_policy@@@@QEBA_NXZ 000000018004bb44     libvcruntimed:std_type_info.obj
 0002:00010b44       $unwind$??$__crt_interlocked_read_pointer@UHINSTANCE__@@@@YAPEAUHINSTANCE__@@PEDSEAU0@@Z 000000018004bb44     libvcruntimed:winapi_downlevel.obj
 0002:00010b44       $unwind$??$__crt_interlocked_read_pointer@X@@YAPEAXPEDSEAX@Z 000000018004bb44     libvcruntimed:winapi_downlevel.obj
 0002:00010b44       $unwind$_putwch_nolock     000000018004bb44     libucrtd:putwch.obj
 0002:00010b44       $unwind$??0big_integer@__crt_strtox@@QEAA@XZ 000000018004bb44     libucrtd:cfout.obj
 0002:00010b44       $unwind$??0scoped_fp_state_reset@?A0x71ca7cfb@@QEAA@XZ 000000018004bb44     libucrtd:cfout.obj
 0002:00010b44       $unwind$??1scoped_fp_state_reset@?A0x71ca7cfb@@QEAA@XZ 000000018004bb44     libucrtd:cfout.obj
 0002:00010b44       $unwind$_CrtIsValidHeapPointer 000000018004bb44     libucrtd:debug_heap.obj
 0002:00010b44       $unwind$malloc             000000018004bb44     libucrtd:malloc.obj
 0002:00010b44       $unwind$??$__crt_fast_decode_pointer@P6AH_K@Z@@YAP6AH_K@ZQ6AH0@Z@Z 000000018004bb44     libucrtd:new_handler.obj
 0002:00010b44       $unwind$?value@?$dual_state_global@P6AH_K@Z@__crt_state_management@@QEAAAEAP6AH_K@ZXZ 000000018004bb44     libucrtd:new_handler.obj
 0002:00010b44       $unwind$__acrt_initialize_new_handler 000000018004bb44     libucrtd:new_handler.obj
 0002:00010b44       $unwind$?value@?$dual_state_global@J@__crt_state_management@@QEAAAEAJXZ 000000018004bb44     libucrtd:new_mode.obj
 0002:00010b44       $unwind$?_deallocate@?$__crt_win32_buffer@DU__crt_win32_buffer_no_resizing@@@@AEAAXXZ 000000018004bb44     libucrtd:getmodulefilenamea.obj
 0002:00010b44       $unwind$?set_to_nullptr@?$__crt_win32_buffer@DU__crt_win32_buffer_no_resizing@@@@QEAAXXZ 000000018004bb44     libucrtd:getmodulefilenamea.obj
 0002:00010b44       $unwind$??$?BX@__crt_fast_encoded_nullptr_t@@QEBAPEAXXZ 000000018004bb44     libucrtd:initialization.obj
 0002:00010b44       $unwind$??$__crt_fast_encode_pointer@PEAX@@YAPEAXQEAX@Z 000000018004bb44     libucrtd:initialization.obj
 0002:00010b44       $unwind$??0__crt_scoped_get_last_error_reset@@QEAA@XZ 000000018004bb44     libucrtd:per_thread_data.obj
 0002:00010b44       $unwind$??1?$__crt_unique_heap_ptr@U__acrt_ptd@@U__crt_internal_free_policy@@@@QEAA@XZ 000000018004bb44     libucrtd:per_thread_data.obj
 0002:00010b44       $unwind$??1__crt_scoped_get_last_error_reset@@QEAA@XZ 000000018004bb44     libucrtd:per_thread_data.obj
 0002:00010b44       $unwind$??B?$__crt_unique_heap_ptr@U__acrt_ptd@@U__crt_internal_free_policy@@@@QEBA_NXZ 000000018004bb44     libucrtd:per_thread_data.obj
 0002:00010b44       $unwind$??R<lambda_04ddeca75b7c13fd67716e8dfcef87ee>@@QEBAXXZ 000000018004bb44     libucrtd:per_thread_data.obj
 0002:00010b44       $unwind$??R<lambda_0ae27a3a962d80f24befdcbee591983d>@@QEBAXXZ 000000018004bb44     libucrtd:per_thread_data.obj
 0002:00010b44       $unwind$??R<lambda_2d41944a1d46af3157314b8a01080d33>@@QEBAXXZ 000000018004bb44     libucrtd:per_thread_data.obj
 0002:00010b44       $unwind$??R<lambda_6992ecaafeb10aed2b74cb1fae11a551>@@QEBAXXZ 000000018004bb44     libucrtd:per_thread_data.obj
 0002:00010b44       $unwind$??R<lambda_74a0ef281e44d15e1136f792f539efb3>@@QEBAXXZ 000000018004bb44     libucrtd:per_thread_data.obj
 0002:00010b44       $unwind$??R<lambda_8f455de75cd7d7f24b4096f044d8b9e6>@@QEBAXXZ 000000018004bb44     libucrtd:per_thread_data.obj
 0002:00010b44       $unwind$??R<lambda_92619d2358a28f41a33ba319515a20b9>@@QEBAXXZ 000000018004bb44     libucrtd:per_thread_data.obj
 0002:00010b44       $unwind$??R<lambda_aa500f224e6afead328df44964fe2772>@@QEBAXXZ 000000018004bb44     libucrtd:per_thread_data.obj
 0002:00010b44       $unwind$??R<lambda_aa87e3671a710a21b5dc78c0bdf72e11>@@QEBAXXZ 000000018004bb44     libucrtd:per_thread_data.obj
 0002:00010b44       $unwind$??R<lambda_dc504788e8f1664fe9b84e20bfb512f2>@@QEBAXXZ 000000018004bb44     libucrtd:per_thread_data.obj
 0002:00010b44       $unwind$?destroy_fls@@YAXPEAX@Z 000000018004bb44     libucrtd:per_thread_data.obj
 0002:00010b44       $unwind$?value@?$dual_state_global@PEAU__crt_locale_data@@@__crt_state_management@@QEAAAEAPEAU__crt_locale_data@@XZ 000000018004bb44     libucrtd:per_thread_data.obj
 0002:00010b44       $unwind$?appmodel_get_policy@developer_information_policy_properties@?1??__acrt_get_developer_information_policy@@YA?AW4developer_information_policy@@XZ@SAJPEAW4AppPolicyShowDeveloperDiagnostic@@@Z 000000018004bb44     libucrtd:win_policies.obj
 0002:00010b44       $unwind$?appmodel_get_policy@process_end_policy_properties@?1??__acrt_get_process_end_policy@@YA?AW4process_end_policy@@XZ@SAJPEAW4AppPolicyProcessTerminationMethod@@@Z 000000018004bb44     libucrtd:win_policies.obj
 0002:00010b44       $unwind$?appmodel_get_policy@windowing_model_policy_properties@?1??__acrt_get_windowing_model_policy@@YA?AW4windowing_model_policy@@XZ@SAJPEAW4AppPolicyWindowingModel@@@Z 000000018004bb44     libucrtd:win_policies.obj
 0002:00010b44       $unwind$??$__crt_fast_decode_pointer@PEAX@@YAPEAXQEAX@Z 000000018004bb44     libucrtd:winapi_thunks.obj
 0002:00010b44       $unwind$??1?$__crt_scoped_stack_ptr@_W@@QEAA@XZ 000000018004bb44     libucrtd:getstringtypea.obj
 0002:00010b44       $unwind$__acrt_locale_free_monetary 000000018004bb44     libucrtd:initmon.obj
 0002:00010b44       $unwind$__acrt_locale_free_numeric 000000018004bb44     libucrtd:initnum.obj
 0002:00010b44       $unwind$??$free_crt_array@D$01@@YAXAEAY01PEAD@Z 000000018004bb44     libucrtd:inittime.obj
 0002:00010b44       $unwind$??$free_crt_array@D$06@@YAXAEAY06PEAD@Z 000000018004bb44     libucrtd:inittime.obj
 0002:00010b44       $unwind$??$free_crt_array@D$0M@@@YAXAEAY0M@PEAD@Z 000000018004bb44     libucrtd:inittime.obj
 0002:00010b44       $unwind$??$free_crt_array@_W$01@@YAXAEAY01PEA_W@Z 000000018004bb44     libucrtd:inittime.obj
 0002:00010b44       $unwind$??$free_crt_array@_W$06@@YAXAEAY06PEA_W@Z 000000018004bb44     libucrtd:inittime.obj
 0002:00010b44       $unwind$??$free_crt_array@_W$0M@@@YAXAEAY0M@PEA_W@Z 000000018004bb44     libucrtd:inittime.obj
 0002:00010b44       $unwind$__acrt_locale_free_time 000000018004bb44     libucrtd:inittime.obj
 0002:00010b44       $unwind$__acrt_locale_free_lc_time_if_unreferenced 000000018004bb44     libucrtd:locale_refcounting.obj
 0002:00010b44       $unwind$??R<lambda_38119f0e861e05405d8a144b9b982f0a>@@QEBAXXZ 000000018004bb44     libucrtd:wsetlocale.obj
 0002:00010b44       $unwind$??R<lambda_410d79af7f07d98d83a3f525b3859a53>@@QEBAXXZ 000000018004bb44     libucrtd:wsetlocale.obj
 0002:00010b44       $unwind$??R<lambda_53fc7fc888e23d815d7080162c0aeeb2>@@QEBAXXZ 000000018004bb44     libucrtd:close.obj
 0002:00010b44       $unwind$??R<lambda_8ddc48ad9d26c778cb15812d1d88fc8a>@@QEBAXXZ 000000018004bb44     libucrtd:close.obj
 0002:00010b44       $unwind$??R<lambda_47cffbaa968af5c721c38a4a6f8da44d>@@QEBAXXZ 000000018004bb44     libucrtd:commit.obj
 0002:00010b44       $unwind$??R<lambda_4e3dbe6921bc0b5a1a6bc6573fdc859e>@@QEBAXXZ 000000018004bb44     libucrtd:commit.obj
 0002:00010b44       $unwind$??1?$__crt_unique_heap_ptr@U__crt_lowio_handle_data@@U__crt_internal_free_policy@@@@QEAA@XZ 000000018004bb44     libucrtd:osfinfo.obj
 0002:00010b44       $unwind$??B?$__crt_unique_heap_ptr@U__crt_lowio_handle_data@@U__crt_internal_free_policy@@@@QEBA_NXZ 000000018004bb44     libucrtd:osfinfo.obj
 0002:00010b44       $unwind$??1?$__crt_unique_heap_ptr@U__crt_multibyte_data@@U__crt_internal_free_policy@@@@QEAA@XZ 000000018004bb44     libucrtd:mbctype.obj
 0002:00010b44       $unwind$??B?$__crt_unique_heap_ptr@U__crt_multibyte_data@@U__crt_internal_free_policy@@@@QEBA_NXZ 000000018004bb44     libucrtd:mbctype.obj
 0002:00010b44       $unwind$??R<lambda_728235dc0fc2b1f82d1fa5b3e7102d8f>@@QEBAXXZ 000000018004bb44     libucrtd:mbctype.obj
 0002:00010b44       $unwind$??R<lambda_efa02eb69bf647d2f7ff0dd6f1103f72>@@QEBAXXZ 000000018004bb44     libucrtd:mbctype.obj
 0002:00010b44       $unwind$?value@?$dual_state_global@PEAE@__crt_state_management@@QEAAAEAPEAEXZ 000000018004bb44     libucrtd:mbctype.obj
 0002:00010b44       $unwind$?value@?$dual_state_global@PEAU__crt_multibyte_data@@@__crt_state_management@@QEAAAEAPEAU__crt_multibyte_data@@XZ 000000018004bb44     libucrtd:mbctype.obj
 0002:00010b44       $unwind$??$output_debug_string@AEBQEB_W@?$__crt_char_traits@_W@@SAXAEBQEB_W@Z 000000018004bb44     libucrtd:crtmbox.obj
 0002:00010b44       $unwind$??$tcslen@AEAY0BAF@D@?$__crt_char_traits@D@@SA_KAEAY0BAF@D@Z 000000018004bb44     libucrtd:dbgrpt.obj
 0002:00010b44       $unwind$??$tcslen@AEAY0BAF@_W@?$__crt_char_traits@_W@@SA_KAEAY0BAF@_W@Z 000000018004bb44     libucrtd:dbgrpt.obj
 0002:00010b44       $unwind$??$tcslen@AEBQEBD@?$__crt_char_traits@D@@SA_KAEBQEBD@Z 000000018004bb44     libucrtd:dbgrpt.obj
 0002:00010b44       $unwind$??$tcslen@AEBQEB_W@?$__crt_char_traits@_W@@SA_KAEBQEB_W@Z 000000018004bb44     libucrtd:dbgrpt.obj
 0002:00010b44       $unwind$??$__crt_fast_decode_pointer@P6AXPEB_W00I_K@Z@@YAP6AXPEB_W00I_K@ZQ6AX000I1@Z@Z 000000018004bb44     libucrtd:invalid_parameter.obj
 0002:00010b44       $unwind$?value@?$dual_state_global@P6AXPEB_W00I_K@Z@__crt_state_management@@QEAAAEAP6AXPEB_W00I_K@ZXZ 000000018004bb44     libucrtd:invalid_parameter.obj
 0002:00010b44       $unwind$??$?B$$A6AXH@Z@__crt_fast_encoded_nullptr_t@@QEBAP6AXH@ZXZ 000000018004bb44     libucrtd:signal.obj
 0002:00010b44       $unwind$??$__crt_fast_decode_pointer@P6AXH@Z@@YAP6AXH@ZQ6AXH@Z@Z 000000018004bb44     libucrtd:signal.obj
 0002:00010b44       $unwind$??$__crt_fast_encode_pointer@P6AXH@Z@@YAP6AXH@ZQ6AXH@Z@Z 000000018004bb44     libucrtd:signal.obj
 0002:00010b44       $unwind$??R<lambda_44731a7d0e6d81c3e6aa82d741081786>@@QEBAP6AXH@ZXZ 000000018004bb44     libucrtd:signal.obj
 0002:00010b44       $unwind$??R<lambda_450d765d439847d4c735a33c368b5fc0>@@QEBAXXZ 000000018004bb44     libucrtd:signal.obj
 0002:00010b44       $unwind$??R<lambda_601a2a7da3b7a96e9554ac7215c4b07c>@@QEBAXXZ 000000018004bb44     libucrtd:signal.obj
 0002:00010b44       $unwind$?value@?$dual_state_global@P6AXH@Z@__crt_state_management@@QEAAAEAP6AXH@ZXZ 000000018004bb44     libucrtd:signal.obj
 0002:00010b44       $unwind$__acrt_initialize_signal_handlers 000000018004bb44     libucrtd:signal.obj
 0002:00010b44       $unwind$??$set_program_name@PEAD@?$__crt_char_traits@D@@SAX$$QEAPEAD@Z 000000018004bb44     libucrtd:argv_parsing.obj
 0002:00010b44       $unwind$??1?$__crt_unique_heap_ptr@EU__crt_internal_free_policy@@@@QEAA@XZ 000000018004bb44     libucrtd:argv_parsing.obj
 0002:00010b44       $unwind$??1?$__crt_unique_heap_ptr@PEADU__crt_internal_free_policy@@@@QEAA@XZ 000000018004bb44     libucrtd:argv_parsing.obj
 0002:00010b44       $unwind$??B?$__crt_unique_heap_ptr@EU__crt_internal_free_policy@@@@QEBA_NXZ 000000018004bb44     libucrtd:argv_parsing.obj
 0002:00010b44       $unwind$??1?$__crt_unique_handle_t@U__crt_findfile_traits@@@@QEAA@XZ 000000018004bb44     libucrtd:argv_wildcards.obj
 0002:00010b44       $unwind$?_deallocate@?$__crt_win32_buffer@DU__crt_win32_buffer_internal_dynamic_resizing@@@@AEAAXXZ 000000018004bb44     libucrtd:argv_wildcards.obj
 0002:00010b44       $unwind$?_deallocate@?$__crt_win32_buffer@_WU__crt_win32_buffer_internal_dynamic_resizing@@@@AEAAXXZ 000000018004bb44     libucrtd:argv_wildcards.obj
 0002:00010b44       $unwind$?close@?$__crt_unique_handle_t@U__crt_findfile_traits@@@@QEAAXXZ 000000018004bb44     libucrtd:argv_wildcards.obj
 0002:00010b44       $unwind$?set_to_nullptr@?$__crt_win32_buffer@DU__crt_win32_buffer_internal_dynamic_resizing@@@@QEAAXXZ 000000018004bb44     libucrtd:argv_wildcards.obj
 0002:00010b44       $unwind$?set_to_nullptr@?$__crt_win32_buffer@_WU__crt_win32_buffer_internal_dynamic_resizing@@@@QEAAXXZ 000000018004bb44     libucrtd:argv_wildcards.obj
 0002:00010b44       $unwind$??$?B$$A6AXPEAXK0@Z@__crt_fast_encoded_nullptr_t@@QEBAP6AXPEAXK0@ZXZ 000000018004bb44     libucrtd:exit.obj
 0002:00010b44       $unwind$??$__crt_fast_decode_pointer@P6AXPEAXK0@Z@@YAP6AXPEAXK0@ZQ6AX0K0@Z@Z 000000018004bb44     libucrtd:exit.obj
 0002:00010b44       $unwind$??$__crt_fast_encode_pointer@P6AXPEAXK0@Z@@YAP6AXPEAXK0@ZQ6AX0K0@Z@Z 000000018004bb44     libucrtd:exit.obj
 0002:00010b44       $unwind$??$__crt_interlocked_read@J@@YAJPEDJ@Z 000000018004bb44     libucrtd:exit.obj
 0002:00010b44       $unwind$??1?$__crt_unique_handle_t@U__crt_hmodule_traits@@@@QEAA@XZ 000000018004bb44     libucrtd:exit.obj
 0002:00010b44       $unwind$??R<lambda_2358e3775559c9db80273638284d5e45>@@QEBAXXZ 000000018004bb44     libucrtd:exit.obj
 0002:00010b44       $unwind$??R<lambda_d80eeec6fff315bfe5c115232f3240e3>@@QEBAXXZ 000000018004bb44     libucrtd:exit.obj
 0002:00010b44       $unwind$?close@?$__crt_unique_handle_t@U__crt_hmodule_traits@@@@QEAAXXZ 000000018004bb44     libucrtd:exit.obj
 0002:00010b44       $unwind$??$?B$$A6AXXZ@__crt_fast_encoded_nullptr_t@@QEBAP6AXXZXZ 000000018004bb44     libucrtd:onexit.obj
 0002:00010b44       $unwind$??$?BP6AXXZ@__crt_fast_encoded_nullptr_t@@QEBAPEAP6AXXZXZ 000000018004bb44     libucrtd:onexit.obj
 0002:00010b44       $unwind$??$__crt_fast_decode_pointer@P6AXXZ@@YAP6AXXZQ6AXXZ@Z 000000018004bb44     libucrtd:onexit.obj
 0002:00010b44       $unwind$??$__crt_fast_decode_pointer@PEAP6AXXZ@@YAPEAP6AXXZQEAP6AXXZ@Z 000000018004bb44     libucrtd:onexit.obj
 0002:00010b44       $unwind$??$__crt_fast_encode_pointer@P6AXXZ@@YAP6AXXZQ6AXXZ@Z 000000018004bb44     libucrtd:onexit.obj
 0002:00010b44       $unwind$??$__crt_fast_encode_pointer@PEAP6AXXZ@@YAPEAP6AXXZQEAP6AXXZ@Z 000000018004bb44     libucrtd:onexit.obj
 0002:00010b44       $unwind$??R<lambda_6a47f4c8fd0152770a780fc1d70204eb>@@QEBAXXZ 000000018004bb44     libucrtd:onexit.obj
 0002:00010b44       $unwind$??R<lambda_6aaa2265f5b6a89667e7d7630012e97a>@@QEBAXXZ 000000018004bb44     libucrtd:onexit.obj
 0002:00010b44       $unwind$??1?$__crt_unique_heap_ptr@PEAU__crt_stdio_stream_data@@U__crt_internal_free_policy@@@@QEAA@XZ 000000018004bb44     libucrtd:_file.obj
 0002:00010b44       $unwind$?has_crt_buffer@__crt_stdio_stream@@QEBA_NXZ 000000018004bb44     libucrtd:_freebuf.obj
 0002:00010b44       $unwind$??R<lambda_842d9ff0dc9ef11c61343bbaebe7f885>@@QEBAXXZ 000000018004bb44     libucrtd:fflush.obj
 0002:00010b44       $unwind$??R<lambda_886d6c58226a84441f68b9f2b8217b83>@@QEBAXXZ 000000018004bb44     libucrtd:fflush.obj
 0002:00010b44       $unwind$??R<lambda_c5860995281e5c4ce005b3de8f5874ee>@@QEBAXXZ 000000018004bb44     libucrtd:fflush.obj
 0002:00010b44       $unwind$??R<lambda_d90129c13df834fdcbf8d2b88dafcf2d>@@QEBAXXZ 000000018004bb44     libucrtd:fflush.obj
 0002:00010b44       $unwind$??R<lambda_f7f22ab5edc0698d5f6905b0d3f44752>@@QEBAXXZ 000000018004bb44     libucrtd:fflush.obj
 0002:00010b44       $unwind$?lowio_handle@__crt_stdio_stream@@QEBAHXZ 000000018004bb44     libucrtd:fileno.obj
 0002:00010b44       $unwind$??$count@D@formatting_buffer@__crt_stdio_output@@QEBA_KXZ 000000018004bb44     libucrtd:output.obj
 0002:00010b44       $unwind$??$count@_W@formatting_buffer@__crt_stdio_output@@QEBA_KXZ 000000018004bb44     libucrtd:output.obj
 0002:00010b44       $unwind$??$data@D@formatting_buffer@__crt_stdio_output@@QEAAPEADXZ 000000018004bb44     libucrtd:output.obj
 0002:00010b44       $unwind$??$data@_W@formatting_buffer@__crt_stdio_output@@QEAAPEA_WXZ 000000018004bb44     libucrtd:output.obj
 0002:00010b44       $unwind$??$scratch_count@D@formatting_buffer@__crt_stdio_output@@QEBA_KXZ 000000018004bb44     libucrtd:output.obj
 0002:00010b44       $unwind$??0?$common_data@D@__crt_stdio_output@@IEAA@XZ 000000018004bb44     libucrtd:output.obj
 0002:00010b44       $unwind$??0?$common_data@_W@__crt_stdio_output@@IEAA@XZ 000000018004bb44     libucrtd:output.obj
 0002:00010b44       $unwind$??0formatting_buffer@__crt_stdio_output@@QEAA@XZ 000000018004bb44     libucrtd:output.obj
 0002:00010b44       $unwind$??1?$common_data@D@__crt_stdio_output@@QEAA@XZ 000000018004bb44     libucrtd:output.obj
 0002:00010b44       $unwind$??1?$common_data@_W@__crt_stdio_output@@QEAA@XZ 000000018004bb44     libucrtd:output.obj
 0002:00010b44       $unwind$??1?$format_validation_base@DV?$string_output_adapter@D@__crt_stdio_output@@@__crt_stdio_output@@QEAA@XZ 000000018004bb44     libucrtd:output.obj
 0002:00010b44       $unwind$??1?$format_validation_base@_WV?$string_output_adapter@_W@__crt_stdio_output@@@__crt_stdio_output@@QEAA@XZ 000000018004bb44     libucrtd:output.obj
 0002:00010b44       $unwind$??1?$output_adapter_data@DV?$string_output_adapter@D@__crt_stdio_output@@@__crt_stdio_output@@QEAA@XZ 000000018004bb44     libucrtd:output.obj
 0002:00010b44       $unwind$??1?$output_adapter_data@_WV?$string_output_adapter@_W@__crt_stdio_output@@@__crt_stdio_output@@QEAA@XZ 000000018004bb44     libucrtd:output.obj
 0002:00010b44       $unwind$??1?$output_processor@DV?$string_output_adapter@D@__crt_stdio_output@@V?$format_validation_base@DV?$string_output_adapter@D@__crt_stdio_output@@@2@@__crt_stdio_output@@QEAA@XZ 000000018004bb44     libucrtd:output.obj
 0002:00010b44       $unwind$??1?$output_processor@_WV?$string_output_adapter@_W@__crt_stdio_output@@V?$format_validation_base@_WV?$string_output_adapter@_W@__crt_stdio_output@@@2@@__crt_stdio_output@@QEAA@XZ 000000018004bb44     libucrtd:output.obj
 0002:00010b44       $unwind$??1?$standard_base@DV?$string_output_adapter@D@__crt_stdio_output@@@__crt_stdio_output@@QEAA@XZ 000000018004bb44     libucrtd:output.obj
 0002:00010b44       $unwind$??1?$standard_base@_WV?$string_output_adapter@_W@__crt_stdio_output@@@__crt_stdio_output@@QEAA@XZ 000000018004bb44     libucrtd:output.obj
 0002:00010b44       $unwind$??1formatting_buffer@__crt_stdio_output@@QEAA@XZ 000000018004bb44     libucrtd:output.obj
 0002:00010b44       $unwind$?get@__crt_deferred_errno_cache@@QEAAAEAHXZ 000000018004bb44     libucrtd:output.obj
 0002:00010b44       $unwind$?get_flags@__crt_stdio_stream@@QEBAJXZ 000000018004bb44     libucrtd:output.obj
 0002:00010b44       $unwind$?state_case_normal_common@?$output_processor@DV?$string_output_adapter@D@__crt_stdio_output@@V?$format_validation_base@DV?$string_output_adapter@D@__crt_stdio_output@@@2@@__crt_stdio_output@@AEAA_NXZ 000000018004bb44     libucrtd:output.obj
 0002:00010b44       $unwind$?state_case_normal_common@?$output_processor@_WV?$string_output_adapter@_W@__crt_stdio_output@@V?$format_validation_base@_WV?$string_output_adapter@_W@__crt_stdio_output@@@2@@__crt_stdio_output@@AEAA_NXZ 000000018004bb44     libucrtd:output.obj
 0002:00010b44       $unwind$?state_case_precision@?$output_processor@DV?$string_output_adapter@D@__crt_stdio_output@@V?$format_validation_base@DV?$string_output_adapter@D@__crt_stdio_output@@@2@@__crt_stdio_output@@AEAA_NXZ 000000018004bb44     libucrtd:output.obj
 0002:00010b44       $unwind$?state_case_precision@?$output_processor@_WV?$string_output_adapter@_W@__crt_stdio_output@@V?$format_validation_base@_WV?$string_output_adapter@_W@__crt_stdio_output@@@2@@__crt_stdio_output@@AEAA_NXZ 000000018004bb44     libucrtd:output.obj
 0002:00010b44       $unwind$?state_case_width@?$output_processor@DV?$string_output_adapter@D@__crt_stdio_output@@V?$format_validation_base@DV?$string_output_adapter@D@__crt_stdio_output@@@2@@__crt_stdio_output@@AEAA_NXZ 000000018004bb44     libucrtd:output.obj
 0002:00010b44       $unwind$?state_case_width@?$output_processor@_WV?$string_output_adapter@_W@__crt_stdio_output@@V?$format_validation_base@_WV?$string_output_adapter@_W@__crt_stdio_output@@@2@@__crt_stdio_output@@AEAA_NXZ 000000018004bb44     libucrtd:output.obj
 0002:00010b44       $unwind$?tchar_string@?$common_data@D@__crt_stdio_output@@IEAAAEAPEADXZ 000000018004bb44     libucrtd:output.obj
 0002:00010b44       $unwind$?tchar_string@?$common_data@_W@__crt_stdio_output@@IEAAAEAPEA_WXZ 000000018004bb44     libucrtd:output.obj
 0002:00010b44       $unwind$?type_case_X@?$output_processor@DV?$string_output_adapter@D@__crt_stdio_output@@V?$format_validation_base@DV?$string_output_adapter@D@__crt_stdio_output@@@2@@__crt_stdio_output@@AEAA_NXZ 000000018004bb44     libucrtd:output.obj
 0002:00010b44       $unwind$?type_case_X@?$output_processor@_WV?$string_output_adapter@_W@__crt_stdio_output@@V?$format_validation_base@_WV?$string_output_adapter@_W@__crt_stdio_output@@@2@@__crt_stdio_output@@AEAA_NXZ 000000018004bb44     libucrtd:output.obj
 0002:00010b44       $unwind$?type_case_c@?$output_processor@DV?$string_output_adapter@D@__crt_stdio_output@@V?$format_validation_base@DV?$string_output_adapter@D@__crt_stdio_output@@@2@@__crt_stdio_output@@AEAA_NXZ 000000018004bb44     libucrtd:output.obj
 0002:00010b44       $unwind$?type_case_c@?$output_processor@_WV?$string_output_adapter@_W@__crt_stdio_output@@V?$format_validation_base@_WV?$string_output_adapter@_W@__crt_stdio_output@@@2@@__crt_stdio_output@@AEAA_NXZ 000000018004bb44     libucrtd:output.obj
 0002:00010b44       $unwind$?type_case_d@?$output_processor@DV?$string_output_adapter@D@__crt_stdio_output@@V?$format_validation_base@DV?$string_output_adapter@D@__crt_stdio_output@@@2@@__crt_stdio_output@@AEAA_NXZ 000000018004bb44     libucrtd:output.obj
 0002:00010b44       $unwind$?type_case_d@?$output_processor@_WV?$string_output_adapter@_W@__crt_stdio_output@@V?$format_validation_base@_WV?$string_output_adapter@_W@__crt_stdio_output@@@2@@__crt_stdio_output@@AEAA_NXZ 000000018004bb44     libucrtd:output.obj
 0002:00010b44       $unwind$?type_case_o@?$output_processor@DV?$string_output_adapter@D@__crt_stdio_output@@V?$format_validation_base@DV?$string_output_adapter@D@__crt_stdio_output@@@2@@__crt_stdio_output@@AEAA_NXZ 000000018004bb44     libucrtd:output.obj
 0002:00010b44       $unwind$?type_case_o@?$output_processor@_WV?$string_output_adapter@_W@__crt_stdio_output@@V?$format_validation_base@_WV?$string_output_adapter@_W@__crt_stdio_output@@@2@@__crt_stdio_output@@AEAA_NXZ 000000018004bb44     libucrtd:output.obj
 0002:00010b44       $unwind$?type_case_p@?$output_processor@DV?$string_output_adapter@D@__crt_stdio_output@@V?$format_validation_base@DV?$string_output_adapter@D@__crt_stdio_output@@@2@@__crt_stdio_output@@AEAA_NXZ 000000018004bb44     libucrtd:output.obj
 0002:00010b44       $unwind$?type_case_p@?$output_processor@_WV?$string_output_adapter@_W@__crt_stdio_output@@V?$format_validation_base@_WV?$string_output_adapter@_W@__crt_stdio_output@@@2@@__crt_stdio_output@@AEAA_NXZ 000000018004bb44     libucrtd:output.obj
 0002:00010b44       $unwind$?type_case_u@?$output_processor@DV?$string_output_adapter@D@__crt_stdio_output@@V?$format_validation_base@DV?$string_output_adapter@D@__crt_stdio_output@@@2@@__crt_stdio_output@@AEAA_NXZ 000000018004bb44     libucrtd:output.obj
 0002:00010b44       $unwind$?type_case_u@?$output_processor@_WV?$string_output_adapter@_W@__crt_stdio_output@@V?$format_validation_base@_WV?$string_output_adapter@_W@__crt_stdio_output@@@2@@__crt_stdio_output@@AEAA_NXZ 000000018004bb44     libucrtd:output.obj
 0002:00010b44       $unwind$?type_case_x@?$output_processor@DV?$string_output_adapter@D@__crt_stdio_output@@V?$format_validation_base@DV?$string_output_adapter@D@__crt_stdio_output@@@2@@__crt_stdio_output@@AEAA_NXZ 000000018004bb44     libucrtd:output.obj
 0002:00010b44       $unwind$?type_case_x@?$output_processor@_WV?$string_output_adapter@_W@__crt_stdio_output@@V?$format_validation_base@_WV?$string_output_adapter@_W@__crt_stdio_output@@@2@@__crt_stdio_output@@AEAA_NXZ 000000018004bb44     libucrtd:output.obj
 0002:00010b44       $unwind$?update_field_width@?$standard_base@DV?$string_output_adapter@D@__crt_stdio_output@@@__crt_stdio_output@@IEAA_NXZ 000000018004bb44     libucrtd:output.obj
 0002:00010b44       $unwind$?update_field_width@?$standard_base@_WV?$string_output_adapter@_W@__crt_stdio_output@@@__crt_stdio_output@@IEAA_NXZ 000000018004bb44     libucrtd:output.obj
 0002:00010b44       $unwind$?update_precision@?$standard_base@DV?$string_output_adapter@D@__crt_stdio_output@@@__crt_stdio_output@@IEAA_NXZ 000000018004bb44     libucrtd:output.obj
 0002:00010b44       $unwind$?update_precision@?$standard_base@_WV?$string_output_adapter@_W@__crt_stdio_output@@@__crt_stdio_output@@IEAA_NXZ 000000018004bb44     libucrtd:output.obj
 0002:00010b44       $unwind$?__acrt_stdio_free_stream@@YAXV__crt_stdio_stream@@@Z 000000018004bb44     libucrtd:stream.obj
 0002:00010b44       $unwind$wcslen             000000018004bb44     libucrtd:strnlen.obj
 0002:00010b44       $unwind$fegetenv           000000018004bb44     libucrtd:fegetenv.obj
 0002:00010b44       $unwind$??$__crt_fast_decode_pointer@P6AHPEAU_exception@@@Z@@YAP6AHPEAU_exception@@@ZQ6AH0@Z@Z 000000018004bb44     libucrtd:matherr.obj
 0002:00010b44       $unwind$?value@?$dual_state_global@P6AHPEAU_exception@@@Z@__crt_state_management@@QEAAAEAP6AHPEAU_exception@@@ZXZ 000000018004bb44     libucrtd:matherr.obj
 0002:00010b44       $unwind$__acrt_initialize_user_matherr 000000018004bb44     libucrtd:matherr.obj
 0002:00010b4c       $unwind$__scrt_initialize_default_local_stdio_options 000000018004bb4c     LIBCMTD:default_local_stdio_options.obj
 0002:00010b4c       $unwind$__security_init_cookie 000000018004bb4c     LIBCMTD:gs_support.obj
 0002:00010b4c       $unwind$_guard_icall_checks_enforced 000000018004bb4c     LIBCMTD:guard_support.obj
 0002:00010b4c       $unwind$__vcrt_initialize_locks 000000018004bb4c     libvcruntimed:locks.obj
 0002:00010b4c       $unwind$__vcrt_uninitialize_locks 000000018004bb4c     libvcruntimed:locks.obj
 0002:00010b4c       $unwind$__vcrt_getptd      000000018004bb4c     libvcruntimed:per_thread_data.obj
 0002:00010b4c       $unwind$?initialize_multibyte@@YAHXZ 000000018004bb4c     libucrtd:multibyte_initializer.obj
 0002:00010b4c       $unwind$initialize_pointers 000000018004bb4c     libucrtd:initialization.obj
 0002:00010b4c       $unwind$__acrt_initialize_locks 000000018004bb4c     libucrtd:locks.obj
 0002:00010b4c       $unwind$?try_get_ptd_head@@YAPEAU__acrt_ptd@@XZ 000000018004bb4c     libucrtd:per_thread_data.obj
 0002:00010b4c       $unwind$__acrt_freeptd     000000018004bb4c     libucrtd:per_thread_data.obj
 0002:00010b4c       $unwind$__acrt_getptd      000000018004bb4c     libucrtd:per_thread_data.obj
 0002:00010b4c       $unwind$__acrt_getptd_head 000000018004bb4c     libucrtd:per_thread_data.obj
 0002:00010b4c       $unwind$?should_write_error_to_console@@YA_NXZ 000000018004bb4c     libucrtd:report_runtime_error.obj
 0002:00010b4c       $unwind$__acrt_AreFileApisANSI 000000018004bb4c     libucrtd:winapi_thunks.obj
 0002:00010b4c       $unwind$__acrt_can_show_message_box 000000018004bb4c     libucrtd:winapi_thunks.obj
 0002:00010b4c       $unwind$__pctype_func      000000018004bb4c     libucrtd:ctype.obj
 0002:00010b4c       $unwind$__acrt_initialize_multibyte 000000018004bb4c     libucrtd:mbctype.obj
 0002:00010b4c       $unwind$__acrt_update_thread_multibyte_data 000000018004bb4c     libucrtd:mbctype.obj
 0002:00010b4c       $unwind$__doserrno         000000018004bb4c     libucrtd:errno.obj
 0002:00010b4c       $unwind$_errno             000000018004bb4c     libucrtd:errno.obj
 0002:00010b4c       $unwind$_invalid_parameter_noinfo 000000018004bb4c     libucrtd:invalid_parameter.obj
 0002:00010b4c       $unwind$abort              000000018004bb4c     libucrtd:abort.obj
 0002:00010b4c       $unwind$?is_managed_app@@YA_NXZ 000000018004bb4c     libucrtd:exit.obj
 0002:00010b4c       $unwind$?should_call_terminate_process@@YA_NXZ 000000018004bb4c     libucrtd:exit.obj
 0002:00010b4c       $unwind$__acrt_uninitialize_stdio 000000018004bb4c     libucrtd:_file.obj
 0002:00010b4c       $unwind$_clrfp             000000018004bb4c     libucrtd:fpctrl.obj
 0002:00010b4c       $unwind$_statfp            000000018004bb4c     libucrtd:fpctrl.obj
 0002:00010b4c       $unwind$_clearfp           000000018004bb4c     libucrtd:ieee.obj
 0002:00010b4c       $unwind$?get_machine_sse_control@@YA?AW4__acrt_fenv_machine_sse_control@@XZ 000000018004bb4c     libucrtd:_fenvutils.obj
 0002:00010b4c       $unwind$?get_machine_sse_status@@YA?AW4__acrt_fenv_machine_sse_status@@XZ 000000018004bb4c     libucrtd:_fenvutils.obj
 0002:00010b4c       $unwind$__acrt_fenv_get_control 000000018004bb4c     libucrtd:_fenvutils.obj
 0002:00010b4c       $unwind$__acrt_fenv_get_status 000000018004bb4c     libucrtd:_fenvutils.obj
 0002:00010b4c       $unwind$__acrt_has_user_matherr 000000018004bb4c     libucrtd:matherr.obj
 0002:00010b54       $unwind$__get_entropy      000000018004bb54     LIBCMTD:gs_support.obj
 0002:00010b5c       $unwind$__scrt_is_nonwritable_in_current_image 000000018004bb5c     LIBCMTD:utility.obj
 0002:00010b7c       $unwind$__scrt_acquire_startup_lock 000000018004bb7c     LIBCMTD:utility.obj
 0002:00010b7c       $unwind$?internal_getptd_noexit@@YAPEAU__acrt_ptd@@XZ 000000018004bb7c     libucrtd:per_thread_data.obj
 0002:00010b7c       $unwind$?initialize_stdio_handles_nolock@@YAXXZ 000000018004bb7c     libucrtd:ioinit.obj
 0002:00010b84       $unwind$__scrt_uninitialize_crt 000000018004bb84     LIBCMTD:utility.obj
 0002:00010b84       $unwind$??$is_overflow_condition@K@__crt_strtox@@YA_NIK@Z 000000018004bb84     libucrtd:atox.obj
 0002:00010b8c       $unwind$__scrt_initialize_onexit_tables 000000018004bb8c     LIBCMTD:utility.obj
 0002:00010b98       $unwind$?find_pe_section@@YAPEAU_IMAGE_SECTION_HEADER@@QEAE_K@Z 000000018004bb98     LIBCMTD:utility.obj
 0002:00010b98       $unwind$?_CallMemberFunction0@@YAXQEAX0@Z 000000018004bb98     libvcruntimed:ehhelpers.obj
 0002:00010b98       $unwind$?StateFromControlPc@__FrameHandler3@@SAHPEBU_s_FuncInfo@@PEAU_xDISPATCHER_CONTEXT@@@Z 000000018004bb98     libvcruntimed:ehstate.obj
 0002:00010b98       $unwind$??8type_info@@QEBA_NAEBV0@@Z 000000018004bb98     libvcruntimed:frame.obj
 0002:00010b98       $unwind$??9iterator@HandlerMap@__FrameHandler3@@QEBA_NAEBV012@@Z 000000018004bb98     libvcruntimed:frame.obj
 0002:00010b98       $unwind$?ExecutionInCatch@__FrameHandler3@@SA_NPEAU_xDISPATCHER_CONTEXT@@PEBU_s_FuncInfo@@@Z 000000018004bb98     libvcruntimed:risctrnsctrl.obj
 0002:00010b98       $unwind$_CreateFrameInfo   000000018004bb98     libvcruntimed:risctrnsctrl.obj
 0002:00010b98       $unwind$?try_get_first_available_module@@YAPEAUHINSTANCE__@@QEBW4module_id@?A0x5a6460af@@0@Z 000000018004bb98     libvcruntimed:winapi_downlevel.obj
 0002:00010b98       $unwind$?is_space@__crt_strtox@@YA_N_WPEAU__crt_locale_pointers@@@Z 000000018004bb98     libucrtd:atox.obj
 0002:00010b98       $unwind$??0big_integer@__crt_strtox@@QEAA@AEBU01@@Z 000000018004bb98     libucrtd:cfout.obj
 0002:00010b98       $unwind$??4big_integer@__crt_strtox@@QEAAAEAU01@AEBU01@@Z 000000018004bb98     libucrtd:cfout.obj
 0002:00010b98       $unwind$??9__crt_strtox@@YA_NAEBUbig_integer@0@0@Z 000000018004bb98     libucrtd:cfout.obj
 0002:00010b98       $unwind$iswctype           000000018004bb98     libucrtd:iswctype.obj
 0002:00010b98       $unwind$_realloc_base      000000018004bb98     libucrtd:realloc_base.obj
 0002:00010b98       $unwind$?allocate@?$__crt_win32_buffer@DU__crt_win32_buffer_no_resizing@@@@QEAAH_K@Z 000000018004bb98     libucrtd:getmodulefilenamea.obj
 0002:00010b98       $unwind$??$uninitialize@V<lambda_af27fe6ede5d83bbdbd622796c194e9c>@@@?$dual_state_global@PEAU__crt_multibyte_data@@@__crt_state_management@@QEAAX$$QEAV<lambda_af27fe6ede5d83bbdbd622796c194e9c>@@@Z 000000018004bb98     libucrtd:initialization.obj
 0002:00010b98       $unwind$__acrt_execute_uninitializers 000000018004bb98     libucrtd:shared_initialization.obj
 0002:00010b98       $unwind$?try_get_first_available_module@@YAPEAUHINSTANCE__@@QEBW4module_id@?A0x391cf84c@@0@Z 000000018004bb98     libucrtd:winapi_thunks.obj
 0002:00010b98       $unwind$?free_crt_array_internal@@YAXQEAPEBX_K@Z 000000018004bb98     libucrtd:inittime.obj
 0002:00010b98       $unwind$_updatetlocinfoEx_nolock 000000018004bb98     libucrtd:locale_refcounting.obj
 0002:00010b98       $unwind$??$uninitialize@V<lambda_363eea9039da1e8169e2d060c7fe5cbc>@@@?$dual_state_global@PEAU__crt_locale_data@@@__crt_state_management@@QEAAX$$QEAV<lambda_363eea9039da1e8169e2d060c7fe5cbc>@@@Z 000000018004bb98     libucrtd:wsetlocale.obj
 0002:00010b98       $unwind$??$initialize_from_array@$$BY10BAA@E@?$dual_state_global@PEAE@__crt_state_management@@QEAAXAEAY10BAA@E@Z 000000018004bb98     libucrtd:mbctype.obj
 0002:00010b98       $unwind$??$initialize_from_array@$$BY10BAB@E@?$dual_state_global@PEAE@__crt_state_management@@QEAAXAEAY10BAB@E@Z 000000018004bb98     libucrtd:mbctype.obj
 0002:00010b98       $unwind$??$initialize_from_array@$$BY00Q6AXPEB_W00I_K@Z@?$dual_state_global@P6AXPEB_W00I_K@Z@__crt_state_management@@QEAAXAEAY00Q6AXPEB_W00I_K@Z@Z 000000018004bb98     libucrtd:invalid_parameter.obj
 0002:00010b98       $unwind$?allocate@?$__crt_win32_buffer@DU__crt_win32_buffer_internal_dynamic_resizing@@@@QEAAH_K@Z 000000018004bb98     libucrtd:argv_wildcards.obj
 0002:00010b98       $unwind$?allocate@?$__crt_win32_buffer@_WU__crt_win32_buffer_internal_dynamic_resizing@@@@QEAAH_K@Z 000000018004bb98     libucrtd:argv_wildcards.obj
 0002:00010b98       $unwind$?append@?$argument_list@D@?A0x5f5c8891@@QEAAHQEAD@Z 000000018004bb98     libucrtd:argv_wildcards.obj
 0002:00010b98       $unwind$?get_file_name@@YAPEADQEAV?$__crt_win32_buffer@DU__crt_win32_buffer_internal_dynamic_resizing@@@@QEA_W@Z 000000018004bb98     libucrtd:argv_wildcards.obj
 0002:00010b98       $unwind$?get_wide@@YAPEA_WQEAV?$__crt_win32_buffer@_WU__crt_win32_buffer_internal_dynamic_resizing@@@@QEAD@Z 000000018004bb98     libucrtd:argv_wildcards.obj
 0002:00010b98       $unwind$_initterm          000000018004bb98     libucrtd:initterm.obj
 0002:00010b98       $unwind$?common_flush_all_should_try_to_flush_stream@@YA_NV__crt_stdio_stream@@QEAH@Z 000000018004bb98     libucrtd:fflush.obj
 0002:00010b98       $unwind$??$extract_argument_from_va_list@U_CRT_DOUBLE@@U1@@?$standard_base@DV?$string_output_adapter@D@__crt_stdio_output@@@__crt_stdio_output@@IEAA_NAEAU_CRT_DOUBLE@@@Z 000000018004bb98     libucrtd:output.obj
 0002:00010b98       $unwind$??$extract_argument_from_va_list@U_CRT_DOUBLE@@U1@@?$standard_base@_WV?$string_output_adapter@_W@__crt_stdio_output@@@__crt_stdio_output@@IEAA_NAEAU_CRT_DOUBLE@@@Z 000000018004bb98     libucrtd:output.obj
 0002:00010b98       $unwind$?force_decimal_point@__crt_stdio_output@@YAXPEADQEAU__crt_locale_pointers@@@Z 000000018004bb98     libucrtd:output.obj
 0002:00010b98       $unwind$?type_case_c_tchar@?$output_processor@_WV?$string_output_adapter@_W@__crt_stdio_output@@V?$format_validation_base@_WV?$string_output_adapter@_W@__crt_stdio_output@@@2@@__crt_stdio_output@@AEAA_N_W@Z 000000018004bb98     libucrtd:output.obj
 0002:00010b98       $unwind$??$common_strnlen_c@$00G@@YA_KQEBG_K@Z 000000018004bb98     libucrtd:strnlen.obj
 0002:00010b98       $unwind$??$common_strnlen_c@$0A@E@@YA_KQEBE_K@Z 000000018004bb98     libucrtd:strnlen.obj
 0002:00010b98       $unwind$??$common_strnlen_c@$0A@G@@YA_KQEBG_K@Z 000000018004bb98     libucrtd:strnlen.obj
 0002:00010ba0       $unwind$__scrt_fastfail    000000018004bba0     LIBCMTD:utility_desktop.obj
 0002:00010bac       $unwind$_RTC_Initialize    000000018004bbac     LIBCMTD:initsect.obj
 0002:00010bac       $unwind$_RTC_Terminate     000000018004bbac     LIBCMTD:initsect.obj
 0002:00010bac       $unwind$??$common_initialize_environment_nolock@D@@YAHXZ 000000018004bbac     libucrtd:environment_initialization.obj
 0002:00010bb8       $unwind$ReadNoFence64      000000018004bbb8     LIBCMTD:guard_support.obj
 0002:00010bb8       $unwind$?isEHs@__FrameHandler3@@SA_NPEBU_s_FuncInfo@@@Z 000000018004bbb8     libvcruntimed:frame.obj
 0002:00010bb8       $unwind$?isNoExcept@__FrameHandler3@@SA_NPEBU_s_FuncInfo@@@Z 000000018004bbb8     libvcruntimed:frame.obj
 0002:00010bb8       $unwind$?what@exception@std@@UEBAPEBDXZ 000000018004bbb8     libvcruntimed:frame.obj
 0002:00010bb8       $unwind$?detach@?$__crt_unique_heap_ptr@U__vcrt_ptd@@U__crt_internal_free_policy@@@@QEAAPEAU__vcrt_ptd@@XZ 000000018004bbb8     libvcruntimed:per_thread_data.obj
 0002:00010bb8       $unwind$?is_valid@?$__crt_unique_heap_ptr@U__vcrt_ptd@@U__crt_internal_free_policy@@@@QEBA_NXZ 000000018004bbb8     libvcruntimed:per_thread_data.obj
 0002:00010bb8       $unwind$?detach@?$__crt_unique_heap_ptr@DU__crt_public_free_policy@@@@QEAAPEADXZ 000000018004bbb8     libvcruntimed:std_exception.obj
 0002:00010bb8       $unwind$?is_valid@?$__crt_unique_heap_ptr@DU__crt_public_free_policy@@@@QEBA_NXZ 000000018004bbb8     libvcruntimed:std_exception.obj
 0002:00010bb8       $unwind$?__crt_interlocked_read_64@@YA_JPED_J@Z 000000018004bbb8     libvcruntimed:std_type_info.obj
 0002:00010bb8       $unwind$?is_valid@?$__crt_unique_heap_ptr@DU__crt_internal_free_policy@@@@QEBA_NXZ 000000018004bbb8     libvcruntimed:std_type_info.obj
 0002:00010bb8       $unwind$?get@?$c_string_character_source@D@__crt_strtox@@QEAADXZ 000000018004bbb8     libucrtd:atox.obj
 0002:00010bb8       $unwind$?get@?$c_string_character_source@_W@__crt_strtox@@QEAA_WXZ 000000018004bbb8     libucrtd:atox.obj
 0002:00010bb8       $unwind$?has_surrogate@?A0xc60ee810@@YA_NPEAU_Mbstatet@@@Z 000000018004bbb8     libucrtd:c16rtomb.obj
 0002:00010bb8       $unwind$?is_first_surrogate@?A0xc60ee810@@YA_N_S@Z 000000018004bbb8     libucrtd:c16rtomb.obj
 0002:00010bb8       $unwind$?is_second_surrogate@?A0xc60ee810@@YA_N_S@Z 000000018004bbb8     libucrtd:c16rtomb.obj
 0002:00010bb8       $unwind$?is_zero@__crt_strtox@@YA_NAEBUbig_integer@1@@Z 000000018004bbb8     libucrtd:cfout.obj
 0002:00010bb8       $unwind$?__acrt_fp_classify@@YA?AW4__acrt_fp_class@@AEBN@Z 000000018004bbb8     libucrtd:cvt.obj
 0002:00010bb8       $unwind$?__acrt_fp_is_negative@@YA_NAEBN@Z 000000018004bbb8     libucrtd:cvt.obj
 0002:00010bb8       $unwind$_CrtSetDumpClient  000000018004bbb8     libucrtd:debug_heap.obj
 0002:00010bb8       $unwind$__acrt_get_locale_data_prefix 000000018004bbb8     libucrtd:debug_heap.obj
 0002:00010bb8       $unwind$?detach@?$__crt_unique_heap_ptr@U__acrt_ptd@@U__crt_internal_free_policy@@@@QEAAPEAU__acrt_ptd@@XZ 000000018004bbb8     libucrtd:per_thread_data.obj
 0002:00010bb8       $unwind$?is_valid@?$__crt_unique_heap_ptr@U__acrt_ptd@@U__crt_internal_free_policy@@@@QEBA_NXZ 000000018004bbb8     libucrtd:per_thread_data.obj
 0002:00010bb8       $unwind$_MallocaComputeSize 000000018004bbb8     libucrtd:getstringtypea.obj
 0002:00010bb8       $unwind$??B?$__crt_scoped_stack_ptr@_W@@QEBA_NXZ 000000018004bbb8     libucrtd:lcmapstringa.obj
 0002:00010bb8       $unwind$?detach@?$__crt_unique_heap_ptr@U__crt_lowio_handle_data@@U__crt_internal_free_policy@@@@QEAAPEAU__crt_lowio_handle_data@@XZ 000000018004bbb8     libucrtd:osfinfo.obj
 0002:00010bb8       $unwind$?is_valid@?$__crt_unique_heap_ptr@U__crt_lowio_handle_data@@U__crt_internal_free_policy@@@@QEBA_NXZ 000000018004bbb8     libucrtd:osfinfo.obj
 0002:00010bb8       $unwind$?detach@?$__crt_unique_heap_ptr@U__crt_multibyte_data@@U__crt_internal_free_policy@@@@QEAAPEAU__crt_multibyte_data@@XZ 000000018004bbb8     libucrtd:mbctype.obj
 0002:00010bb8       $unwind$?is_valid@?$__crt_unique_heap_ptr@U__crt_multibyte_data@@U__crt_internal_free_policy@@@@QEBA_NXZ 000000018004bbb8     libucrtd:mbctype.obj
 0002:00010bb8       $unwind$?setSBCS@@YAXPEAU__crt_multibyte_data@@@Z 000000018004bbb8     libucrtd:mbctype.obj
 0002:00010bb8       $unwind$?detach@?$__crt_unique_heap_ptr@EU__crt_internal_free_policy@@@@QEAAPEAEXZ 000000018004bbb8     libucrtd:argv_parsing.obj
 0002:00010bb8       $unwind$?detach@?$__crt_unique_heap_ptr@PEADU__crt_internal_free_policy@@@@QEAAPEAPEADXZ 000000018004bbb8     libucrtd:argv_parsing.obj
 0002:00010bb8       $unwind$?is_valid@?$__crt_unique_heap_ptr@EU__crt_internal_free_policy@@@@QEBA_NXZ 000000018004bbb8     libucrtd:argv_parsing.obj
 0002:00010bb8       $unwind$?__crt_fast_encode_pointer@@YA?AU__crt_fast_encoded_nullptr_t@@$$T@Z 000000018004bbb8     libucrtd:exit.obj
 0002:00010bb8       $unwind$?__crt_interlocked_read_32@@YAHPEDH@Z 000000018004bbb8     libucrtd:exit.obj
 0002:00010bb8       $unwind$?detach@?$__crt_unique_heap_ptr@PEAU__crt_stdio_stream_data@@U__crt_internal_free_policy@@@@QEAAPEAPEAU__crt_stdio_stream_data@@XZ 000000018004bbb8     libucrtd:_file.obj
 0002:00010bb8       $unwind$??$read_va_arg@C@__crt_stdio_output@@YACAEAPEAD@Z 000000018004bbb8     libucrtd:output.obj
 0002:00010bb8       $unwind$??$read_va_arg@E@__crt_stdio_output@@YAEAEAPEAD@Z 000000018004bbb8     libucrtd:output.obj
 0002:00010bb8       $unwind$??$read_va_arg@F@__crt_stdio_output@@YAFAEAPEAD@Z 000000018004bbb8     libucrtd:output.obj
 0002:00010bb8       $unwind$??$read_va_arg@G@__crt_stdio_output@@YAGAEAPEAD@Z 000000018004bbb8     libucrtd:output.obj
 0002:00010bb8       $unwind$??$read_va_arg@H@__crt_stdio_output@@YAHAEAPEAD@Z 000000018004bbb8     libucrtd:output.obj
 0002:00010bb8       $unwind$??$read_va_arg@I@__crt_stdio_output@@YAIAEAPEAD@Z 000000018004bbb8     libucrtd:output.obj
 0002:00010bb8       $unwind$??$read_va_arg@PEAD@__crt_stdio_output@@YAPEADAEAPEAD@Z 000000018004bbb8     libucrtd:output.obj
 0002:00010bb8       $unwind$??$read_va_arg@PEAUansi_string@?1??type_case_Z@?$output_processor@DV?$string_output_adapter@D@__crt_stdio_output@@V?$format_validation_base@DV?$string_output_adapter@D@__crt_stdio_output@@@2@@__crt_stdio_output@@AEAA_NXZ@@__crt_stdio_output@@YAPEAUansi_string@?1??type_case_Z@?$output_processor@DV?$string_output_adapter@D@__crt_stdio_output@@V?$format_validation_base@DV?$string_output_adapter@D@__crt_stdio_output@@@2@@0@AEAA_NXZ@AEAPEAD@Z 000000018004bbb8     libucrtd:output.obj
 0002:00010bb8       $unwind$??$read_va_arg@PEAUansi_string@?1??type_case_Z@?$output_processor@_WV?$string_output_adapter@_W@__crt_stdio_output@@V?$format_validation_base@_WV?$string_output_adapter@_W@__crt_stdio_output@@@2@@__crt_stdio_output@@AEAA_NXZ@@__crt_stdio_output@@YAPEAUansi_string@?1??type_case_Z@?$output_processor@_WV?$string_output_adapter@_W@__crt_stdio_output@@V?$format_validation_base@_WV?$string_output_adapter@_W@__crt_stdio_output@@@2@@0@AEAA_NXZ@AEAPEAD@Z 000000018004bbb8     libucrtd:output.obj
 0002:00010bb8       $unwind$??$read_va_arg@PEAX@__crt_stdio_output@@YAPEAXAEAPEAD@Z 000000018004bbb8     libucrtd:output.obj
 0002:00010bb8       $unwind$??$read_va_arg@U_CRT_DOUBLE@@@__crt_stdio_output@@YA?AU_CRT_DOUBLE@@AEAPEAD@Z 000000018004bbb8     libucrtd:output.obj
 0002:00010bb8       $unwind$??$read_va_arg@_J@__crt_stdio_output@@YA_JAEAPEAD@Z 000000018004bbb8     libucrtd:output.obj
 0002:00010bb8       $unwind$??$read_va_arg@_K@__crt_stdio_output@@YA_KAEAPEAD@Z 000000018004bbb8     libucrtd:output.obj
 0002:00010bb8       $unwind$??$read_va_arg@_W@__crt_stdio_output@@YA_WAEAPEAD@Z 000000018004bbb8     libucrtd:output.obj
 0002:00010bb8       $unwind$?advance_to_next_pass@?$standard_base@DV?$string_output_adapter@D@__crt_stdio_output@@@__crt_stdio_output@@IEAA_NXZ 000000018004bbb8     libucrtd:output.obj
 0002:00010bb8       $unwind$?advance_to_next_pass@?$standard_base@_WV?$string_output_adapter@_W@__crt_stdio_output@@@__crt_stdio_output@@IEAA_NXZ 000000018004bbb8     libucrtd:output.obj
 0002:00010bb8       $unwind$?valid@__crt_stdio_stream@@QEBA_NXZ 000000018004bbb8     libucrtd:output.obj
 0002:00010bb8       $unwind$_handle_nan        000000018004bbb8     libucrtd:libm_error.obj
 0002:00010bc0       $unwind$__isa_available_init 000000018004bbc0     LIBCMTD:cpu_disp.obj
 0002:00010bd0       $unwind$__scrt_is_ucrt_dll_in_use 000000018004bbd0     LIBCMTD:ucrt_detection.obj
 0002:00010bd0       $unwind$__acrt_locale_changed 000000018004bbd0     libucrtd:debug_heap.obj
 0002:00010bd0       $unwind$_get_printf_count_output 000000018004bbd0     libucrtd:printf_count_output.obj
 0002:00010bd0       $unwind$?get_zero_pack@?$__crt_simd_pack_traits@$0A@@@SA?AT__m128i@@XZ 000000018004bbd0     libucrtd:strnlen.obj
 0002:00010bd8       $xdatasym                  000000018004bbd8     LIBCMTD:guard_dispatch.obj
 0002:00010bdc       $unwind$??$__InternalCxxFrameHandler@V__FrameHandler3@@@@YA?AW4_EXCEPTION_DISPOSITION@@PEAUEHExceptionRecord@@PEA_KPEAU_CONTEXT@@PEAU_xDISPATCHER_CONTEXT@@PEBU_s_FuncInfo@@H1E@Z 000000018004bbdc     libvcruntimed:frame.obj
 0002:00010bdc       $unwind$__C_specific_handler 000000018004bbdc     libvcruntimed:riscchandler.obj
 0002:00010bdc       $unwind$??$parse_integer@KV?$c_string_character_source@D@__crt_strtox@@@__crt_strtox@@YAKQEAU__crt_locale_pointers@@V?$c_string_character_source@D@0@H_N@Z 000000018004bbdc     libucrtd:atox.obj
 0002:00010bdc       $unwind$??$parse_integer@KV?$c_string_character_source@_W@__crt_strtox@@@__crt_strtox@@YAKQEAU__crt_locale_pointers@@V?$c_string_character_source@_W@0@H_N@Z 000000018004bbdc     libucrtd:atox.obj
 0002:00010bdc       $unwind$_wcstombs_s_l      000000018004bbdc     libucrtd:wcstombs.obj
 0002:00010be4       $unwind$??3@YAXPEAX_K@Z    000000018004bbe4     LIBCMTD:delete_scalar_size.obj
 0002:00010be4       $unwind$_FindPESection     000000018004bbe4     LIBCMTD:pesect.obj
 0002:00010be4       $unwind$??0bad_exception@std@@QEAA@AEBV01@@Z 000000018004bbe4     libvcruntimed:frame.obj
 0002:00010be4       $unwind$?begin@HandlerMap@__FrameHandler3@@QEAA?AViterator@12@XZ 000000018004bbe4     libvcruntimed:frame.obj
 0002:00010be4       $unwind$?end@HandlerMap@__FrameHandler3@@QEAA?AViterator@12@XZ 000000018004bbe4     libvcruntimed:frame.obj
 0002:00010be4       $unwind$??$?RU__vcrt_ptd@@@__crt_internal_free_policy@@QEBAXQEBU__vcrt_ptd@@@Z 000000018004bbe4     libvcruntimed:per_thread_data.obj
 0002:00010be4       $unwind$??$?RD@__crt_public_free_policy@@QEBAXQEBD@Z 000000018004bbe4     libvcruntimed:std_exception.obj
 0002:00010be4       $unwind$??$?RD@__crt_internal_free_policy@@QEBAXQEBD@Z 000000018004bbe4     libvcruntimed:std_type_info.obj
 0002:00010be4       $unwind$__std_type_info_compare 000000018004bbe4     libvcruntimed:std_type_info.obj
 0002:00010be4       $unwind$??R<lambda_af27fe6ede5d83bbdbd622796c194e9c>@@QEBAXAEAPEAU__crt_multibyte_data@@@Z 000000018004bbe4     libucrtd:initialization.obj
 0002:00010be4       $unwind$??$?RU__acrt_ptd@@@__crt_internal_free_policy@@QEBAXQEBU__acrt_ptd@@@Z 000000018004bbe4     libucrtd:per_thread_data.obj
 0002:00010be4       $unwind$?replace_current_thread_locale_nolock@@YAXQEAU__acrt_ptd@@QEAU__crt_locale_data@@@Z 000000018004bbe4     libucrtd:per_thread_data.obj
 0002:00010be4       $unwind$__acrt_update_locale_info 000000018004bbe4     libucrtd:locale_update.obj
 0002:00010be4       $unwind$__acrt_update_multibyte_info 000000018004bbe4     libucrtd:locale_update.obj
 0002:00010be4       $unwind$??R<lambda_363eea9039da1e8169e2d060c7fe5cbc>@@QEBAXAEAPEAU__crt_locale_data@@@Z 000000018004bbe4     libucrtd:wsetlocale.obj
 0002:00010be4       $unwind$??$?RU__crt_lowio_handle_data@@@__crt_internal_free_policy@@QEBAXQEBU__crt_lowio_handle_data@@@Z 000000018004bbe4     libucrtd:osfinfo.obj
 0002:00010be4       $unwind$??$?RU__crt_multibyte_data@@@__crt_internal_free_policy@@QEBAXQEBU__crt_multibyte_data@@@Z 000000018004bbe4     libucrtd:mbctype.obj
 0002:00010be4       $unwind$??$?RE@__crt_internal_free_policy@@QEBAXQEBE@Z 000000018004bbe4     libucrtd:argv_parsing.obj
 0002:00010be4       $unwind$??$?RPEAD@__crt_internal_free_policy@@QEBAXQEBQEAD@Z 000000018004bbe4     libucrtd:argv_parsing.obj
 0002:00010be4       $unwind$?expand_argv_wildcards@@YAHQEAPEADQEAPEAPEAD@Z 000000018004bbe4     libucrtd:argv_parsing.obj
 0002:00010be4       $unwind$?<lambda_invoker_cdecl>@<lambda_a1ce4c8ae42411fd470c77163914f50e>@@CAHPEBX0@Z 000000018004bbe4     libucrtd:argv_wildcards.obj
 0002:00010be4       $unwind$??$tcspbrk@AEAPEADAEAY02$$CBD@?$__crt_char_traits@D@@SAPEADAEAPEADAEAY02$$CBD@Z 000000018004bbe4     libucrtd:argv_wildcards.obj
 0002:00010be4       $unwind$?deallocate@__crt_win32_buffer_internal_dynamic_resizing@@SAXQEAXAEBV__crt_win32_buffer_empty_debug_info@@@Z 000000018004bbe4     libucrtd:argv_wildcards.obj
 0002:00010be4       $unwind$?previous_character@@YAPEADQEAD0@Z 000000018004bbe4     libucrtd:argv_wildcards.obj
 0002:00010be4       $unwind$?strpbrk@@YAPEADQEADQEBD@Z 000000018004bbe4     libucrtd:argv_wildcards.obj
 0002:00010be4       $unwind$__acrt_expand_narrow_argv_wildcards 000000018004bbe4     libucrtd:argv_wildcards.obj
 0002:00010be4       $unwind$??$__crt_get_proc_address@P6AXI@Z@@YAP6AXI@ZQEAUHINSTANCE__@@QEBD@Z 000000018004bbe4     libucrtd:exit.obj
 0002:00010be4       $unwind$??$?RPEAU__crt_stdio_stream_data@@@__crt_internal_free_policy@@QEBAXQEBQEAU__crt_stdio_stream_data@@@Z 000000018004bbe4     libucrtd:_file.obj
 0002:00010be4       $unwind$??$extract_argument_from_va_list@C_J@?$standard_base@DV?$string_output_adapter@D@__crt_stdio_output@@@__crt_stdio_output@@IEAA_NAEA_J@Z 000000018004bbe4     libucrtd:output.obj
 0002:00010be4       $unwind$??$extract_argument_from_va_list@C_J@?$standard_base@_WV?$string_output_adapter@_W@__crt_stdio_output@@@__crt_stdio_output@@IEAA_NAEA_J@Z 000000018004bbe4     libucrtd:output.obj
 0002:00010be4       $unwind$??$extract_argument_from_va_list@E_J@?$standard_base@DV?$string_output_adapter@D@__crt_stdio_output@@@__crt_stdio_output@@IEAA_NAEA_J@Z 000000018004bbe4     libucrtd:output.obj
 0002:00010be4       $unwind$??$extract_argument_from_va_list@E_J@?$standard_base@_WV?$string_output_adapter@_W@__crt_stdio_output@@@__crt_stdio_output@@IEAA_NAEA_J@Z 000000018004bbe4     libucrtd:output.obj
 0002:00010be4       $unwind$??$extract_argument_from_va_list@F_J@?$standard_base@DV?$string_output_adapter@D@__crt_stdio_output@@@__crt_stdio_output@@IEAA_NAEA_J@Z 000000018004bbe4     libucrtd:output.obj
 0002:00010be4       $unwind$??$extract_argument_from_va_list@F_J@?$standard_base@_WV?$string_output_adapter@_W@__crt_stdio_output@@@__crt_stdio_output@@IEAA_NAEA_J@Z 000000018004bbe4     libucrtd:output.obj
 0002:00010be4       $unwind$??$extract_argument_from_va_list@GD@?$standard_base@DV?$string_output_adapter@D@__crt_stdio_output@@@__crt_stdio_output@@IEAA_NAEAD@Z 000000018004bbe4     libucrtd:output.obj
 0002:00010be4       $unwind$??$extract_argument_from_va_list@G_J@?$standard_base@DV?$string_output_adapter@D@__crt_stdio_output@@@__crt_stdio_output@@IEAA_NAEA_J@Z 000000018004bbe4     libucrtd:output.obj
 0002:00010be4       $unwind$??$extract_argument_from_va_list@G_J@?$standard_base@_WV?$string_output_adapter@_W@__crt_stdio_output@@@__crt_stdio_output@@IEAA_NAEA_J@Z 000000018004bbe4     libucrtd:output.obj
 0002:00010be4       $unwind$??$extract_argument_from_va_list@H_J@?$standard_base@DV?$string_output_adapter@D@__crt_stdio_output@@@__crt_stdio_output@@IEAA_NAEA_J@Z 000000018004bbe4     libucrtd:output.obj
 0002:00010be4       $unwind$??$extract_argument_from_va_list@H_J@?$standard_base@_WV?$string_output_adapter@_W@__crt_stdio_output@@@__crt_stdio_output@@IEAA_NAEA_J@Z 000000018004bbe4     libucrtd:output.obj
 0002:00010be4       $unwind$??$extract_argument_from_va_list@I_J@?$standard_base@DV?$string_output_adapter@D@__crt_stdio_output@@@__crt_stdio_output@@IEAA_NAEA_J@Z 000000018004bbe4     libucrtd:output.obj
 0002:00010be4       $unwind$??$extract_argument_from_va_list@I_J@?$standard_base@_WV?$string_output_adapter@_W@__crt_stdio_output@@@__crt_stdio_output@@IEAA_NAEA_J@Z 000000018004bbe4     libucrtd:output.obj
 0002:00010be4       $unwind$??$extract_argument_from_va_list@PEADPEAD@?$standard_base@DV?$string_output_adapter@D@__crt_stdio_output@@@__crt_stdio_output@@IEAA_NAEAPEAD@Z 000000018004bbe4     libucrtd:output.obj
 0002:00010be4       $unwind$??$extract_argument_from_va_list@PEADPEAD@?$standard_base@_WV?$string_output_adapter@_W@__crt_stdio_output@@@__crt_stdio_output@@IEAA_NAEAPEAD@Z 000000018004bbe4     libucrtd:output.obj
 0002:00010be4       $unwind$??$extract_argument_from_va_list@PEAUansi_string@?1??type_case_Z@?$output_processor@DV?$string_output_adapter@D@__crt_stdio_output@@V?$format_validation_base@DV?$string_output_adapter@D@__crt_stdio_output@@@2@@__crt_stdio_output@@AEAA_NXZ@PEAU1?1??234@AEAA_NXZ@@?$standard_base@DV?$string_output_adapter@D@__crt_stdio_output@@@__crt_stdio_output@@IEAA_NAEAPEAUansi_string@?1??type_case_Z@?$output_processor@DV?$string_output_adapter@D@__crt_stdio_output@@V?$format_validation_base@DV?$string_output_adapter@D@__crt_stdio_output@@@2@@1@AEAA_NXZ@@Z 000000018004bbe4     libucrtd:output.obj
 0002:00010be4       $unwind$??$extract_argument_from_va_list@PEAUansi_string@?1??type_case_Z@?$output_processor@_WV?$string_output_adapter@_W@__crt_stdio_output@@V?$format_validation_base@_WV?$string_output_adapter@_W@__crt_stdio_output@@@2@@__crt_stdio_output@@AEAA_NXZ@PEAU1?1??234@AEAA_NXZ@@?$standard_base@_WV?$string_output_adapter@_W@__crt_stdio_output@@@__crt_stdio_output@@IEAA_NAEAPEAUansi_string@?1??type_case_Z@?$output_processor@_WV?$string_output_adapter@_W@__crt_stdio_output@@V?$format_validation_base@_WV?$string_output_adapter@_W@__crt_stdio_output@@@2@@1@AEAA_NXZ@@Z 000000018004bbe4     libucrtd:output.obj
 0002:00010be4       $unwind$??$extract_argument_from_va_list@PEAXPEAX@?$standard_base@DV?$string_output_adapter@D@__crt_stdio_output@@@__crt_stdio_output@@IEAA_NAEAPEAX@Z 000000018004bbe4     libucrtd:output.obj
 0002:00010be4       $unwind$??$extract_argument_from_va_list@PEAXPEAX@?$standard_base@_WV?$string_output_adapter@_W@__crt_stdio_output@@@__crt_stdio_output@@IEAA_NAEAPEAX@Z 000000018004bbe4     libucrtd:output.obj
 0002:00010be4       $unwind$??$extract_argument_from_va_list@_J_J@?$standard_base@DV?$string_output_adapter@D@__crt_stdio_output@@@__crt_stdio_output@@IEAA_NAEA_J@Z 000000018004bbe4     libucrtd:output.obj
 0002:00010be4       $unwind$??$extract_argument_from_va_list@_J_J@?$standard_base@_WV?$string_output_adapter@_W@__crt_stdio_output@@@__crt_stdio_output@@IEAA_NAEA_J@Z 000000018004bbe4     libucrtd:output.obj
 0002:00010be4       $unwind$??$extract_argument_from_va_list@_K_J@?$standard_base@DV?$string_output_adapter@D@__crt_stdio_output@@@__crt_stdio_output@@IEAA_NAEA_J@Z 000000018004bbe4     libucrtd:output.obj
 0002:00010be4       $unwind$??$extract_argument_from_va_list@_K_J@?$standard_base@_WV?$string_output_adapter@_W@__crt_stdio_output@@@__crt_stdio_output@@IEAA_NAEA_J@Z 000000018004bbe4     libucrtd:output.obj
 0002:00010be4       $unwind$??$extract_argument_from_va_list@_W_W@?$standard_base@DV?$string_output_adapter@D@__crt_stdio_output@@@__crt_stdio_output@@IEAA_NAEA_W@Z 000000018004bbe4     libucrtd:output.obj
 0002:00010be4       $unwind$??$extract_argument_from_va_list@_W_W@?$standard_base@_WV?$string_output_adapter@_W@__crt_stdio_output@@@__crt_stdio_output@@IEAA_NAEA_W@Z 000000018004bbe4     libucrtd:output.obj
 0002:00010be4       $unwind$??4?$__crt_unique_heap_ptr@DU__crt_internal_free_policy@@@@QEAAAEAV0@$$QEAV0@@Z 000000018004bbe4     libucrtd:output.obj
 0002:00010be4       $unwind$?crop_zeroes@__crt_stdio_output@@YAXPEADQEAU__crt_locale_pointers@@@Z 000000018004bbe4     libucrtd:output.obj
 0002:00010be4       $unwind$??$common_strnlen@$00G@@YA_KQEBG_K@Z 000000018004bbe4     libucrtd:strnlen.obj
 0002:00010be4       $unwind$??$common_strnlen@$0A@E@@YA_KQEBE_K@Z 000000018004bbe4     libucrtd:strnlen.obj
 0002:00010be4       $unwind$??$common_strnlen@$0A@G@@YA_KQEBG_K@Z 000000018004bbe4     libucrtd:strnlen.obj
 0002:00010be4       $unwind$strnlen            000000018004bbe4     libucrtd:strnlen.obj
 0002:00010be4       $unwind$wcsnlen            000000018004bbe4     libucrtd:strnlen.obj
 0002:00010bec       $unwind$__AdjustPointer    000000018004bbec     libvcruntimed:ehhelpers.obj
 0002:00010bec       $unwind$??8iterator@HandlerMap@__FrameHandler3@@QEBA_NAEBV012@@Z 000000018004bbec     libvcruntimed:frame.obj
 0002:00010bec       $unwind$??Miterator@TryBlockMap@__FrameHandler3@@QEBA_NAEBV012@@Z 000000018004bbec     libvcruntimed:frame.obj
 0002:00010bec       $unwind$?store_first_surrogate@?A0xc60ee810@@YAX_SPEAU_Mbstatet@@@Z 000000018004bbec     libucrtd:c16rtomb.obj
 0002:00010bec       $unwind$??8__crt_strtox@@YA_NAEBUbig_integer@0@0@Z 000000018004bbec     libucrtd:cfout.obj
 0002:00010bec       $unwind$?wcsncnt@@YA_KPEB_W_K@Z 000000018004bbec     libucrtd:wcstombs.obj
 0002:00010bec       $unwind$?initialize@?$dual_state_global@P6AH_K@Z@__crt_state_management@@QEAAXQ6AH_K@Z@Z 000000018004bbec     libucrtd:new_handler.obj
 0002:00010bec       $unwind$?initialize@?$dual_state_global@PEAU__crt_locale_data@@@__crt_state_management@@QEAAXQEAU__crt_locale_data@@@Z 000000018004bbec     libucrtd:initialization.obj
 0002:00010bec       $unwind$?initialize@?$dual_state_global@PEAU__crt_multibyte_data@@@__crt_state_management@@QEAAXQEAU__crt_multibyte_data@@@Z 000000018004bbec     libucrtd:mbctype.obj
 0002:00010bec       $unwind$?initialize@?$dual_state_global@P6AXH@Z@__crt_state_management@@QEAAXQ6AXH@Z@Z 000000018004bbec     libucrtd:signal.obj
 0002:00010bec       $unwind$__strncnt          000000018004bbec     libucrtd:strncnt.obj
 0002:00010bec       $unwind$??$last_reached@$0A@@@YA_NQEBX0@Z 000000018004bbec     libucrtd:strnlen.obj
 0002:00010bec       $unwind$?compare_equals@?$__crt_simd_traits@$0A@E@@SA?AT__m128i@@T2@0@Z 000000018004bbec     libucrtd:strnlen.obj
 0002:00010bec       $unwind$?compare_equals@?$__crt_simd_traits@$0A@G@@SA?AT__m128i@@T2@0@Z 000000018004bbec     libucrtd:strnlen.obj
 0002:00010bec       $unwind$?initialize@?$dual_state_global@P6AHPEAU_exception@@@Z@__crt_state_management@@QEAAXQ6AHPEAU_exception@@@Z@Z 000000018004bbec     libucrtd:matherr.obj
 0002:00010bf4       $unwind$__FrameUnwindFilter 000000018004bbf4     libvcruntimed:ehhelpers.obj
 0002:00010bf4       $unwind$?Is_bad_exception_allowed@@YAEPEBU_s_ESTypeList@@@Z 000000018004bbf4     libvcruntimed:frame.obj
 0002:00010bf4       $unwind$__vcrt_FlsAlloc    000000018004bbf4     libvcruntimed:winapi_downlevel.obj
 0002:00010bf4       $unwind$?validate@?$c_string_character_source@D@__crt_strtox@@QEBA_NXZ 000000018004bbf4     libucrtd:atox.obj
 0002:00010bf4       $unwind$?validate@?$c_string_character_source@_W@__crt_strtox@@QEBA_NXZ 000000018004bbf4     libucrtd:atox.obj
 0002:00010bf4       $unwind$?is_contraction_possible@@YA_N_K@Z 000000018004bbf4     libucrtd:expand.obj
 0002:00010bf4       $unwind$_malloc_base       000000018004bbf4     libucrtd:malloc_base.obj
 0002:00010bf4       $unwind$?issue_debug_notification@@YA_NQEB_W@Z 000000018004bbf4     libucrtd:report_runtime_error.obj
 0002:00010bf4       $unwind$_freea_crt         000000018004bbf4     libucrtd:getstringtypea.obj
 0002:00010bf4       $unwind$?GetTableIndexFromLocaleName@@YAHPEB_W@Z 000000018004bbf4     libucrtd:lcidtoname_downlevel.obj
 0002:00010bf4       $unwind$__acrt_free_locale 000000018004bbf4     libucrtd:locale_refcounting.obj
 0002:00010bf4       $unwind$??R<lambda_5533cddd4bda0037814beee657757329>@@QEBAHXZ 000000018004bbf4     libucrtd:commit.obj
 0002:00010bf4       $unwind$__acrt_lowio_destroy_handle_array 000000018004bbf4     libucrtd:osfinfo.obj
 0002:00010bf4       $unwind$__acrt_stdio_free_buffer_nolock 000000018004bbf4     libucrtd:_freebuf.obj
 0002:00010bf4       $unwind$__acrt_stdio_flush_nolock 000000018004bbf4     libucrtd:fflush.obj
 0002:00010bf4       $unwind$_fileno            000000018004bbf4     libucrtd:fileno.obj
 0002:00010bf4       $unwind$?state_case_normal@?$output_processor@DV?$string_output_adapter@D@__crt_stdio_output@@V?$format_validation_base@DV?$string_output_adapter@D@__crt_stdio_output@@@2@@__crt_stdio_output@@AEAA_NXZ 000000018004bbf4     libucrtd:output.obj
 0002:00010bf4       $unwind$?state_case_normal@?$output_processor@_WV?$string_output_adapter@_W@__crt_stdio_output@@V?$format_validation_base@_WV?$string_output_adapter@_W@__crt_stdio_output@@@2@@__crt_stdio_output@@AEAA_NXZ 000000018004bbf4     libucrtd:output.obj
 0002:00010bf4       $unwind$?validate@?$string_output_adapter@D@__crt_stdio_output@@QEBA_NXZ 000000018004bbf4     libucrtd:output.obj
 0002:00010bf4       $unwind$?validate@?$string_output_adapter@_W@__crt_stdio_output@@QEBA_NXZ 000000018004bbf4     libucrtd:output.obj
 0002:00010bf4       $unwind$?validate_and_update_state_at_end_of_format_string@?$format_validation_base@DV?$string_output_adapter@D@__crt_stdio_output@@@__crt_stdio_output@@IEBA_NXZ 000000018004bbf4     libucrtd:output.obj
 0002:00010bf4       $unwind$?validate_and_update_state_at_end_of_format_string@?$format_validation_base@_WV?$string_output_adapter@_W@__crt_stdio_output@@@__crt_stdio_output@@IEBA_NXZ 000000018004bbf4     libucrtd:output.obj
 0002:00010bfc       $unwind$__DestructExceptionObject 000000018004bbfc     libvcruntimed:ehhelpers.obj
 0002:00010c1c       $unwind$?_FilterSetCurrentException@@YAKPEAU_EXCEPTION_POINTERS@@E@Z 000000018004bc1c     libvcruntimed:ehhelpers.obj
 0002:00010c1c       $unwind$?CatchTryBlock@__FrameHandler3@@SAPEBU_s_TryBlockMapEntry@@PEBU_s_FuncInfo@@H@Z 000000018004bc1c     libvcruntimed:risctrnsctrl.obj
 0002:00010c1c       $unwind$?is_space@__crt_strtox@@YA_NDQEAU__crt_locale_pointers@@@Z 000000018004bc1c     libucrtd:atox.obj
 0002:00010c1c       $unwind$__acrt_FlsSetValue 000000018004bc1c     libucrtd:winapi_thunks.obj
 0002:00010c1c       $unwind$__acrt_LocaleNameToLCID 000000018004bc1c     libucrtd:winapi_thunks.obj
 0002:00010c1c       $unwind$?has_any_of@__crt_stdio_stream@@QEBA_NJ@Z 000000018004bc1c     libucrtd:_sftbuf.obj
 0002:00010c1c       $unwind$?has_all_of@__crt_stdio_stream@@QEBA_NJ@Z 000000018004bc1c     libucrtd:fflush.obj
 0002:00010c1c       $unwind$?type_case_c_tchar@?$output_processor@DV?$string_output_adapter@D@__crt_stdio_output@@V?$format_validation_base@DV?$string_output_adapter@D@__crt_stdio_output@@@2@@__crt_stdio_output@@AEAA_ND@Z 000000018004bc1c     libucrtd:output.obj
 0002:00010c1c       $unwind$_exception_enabled 000000018004bc1c     libucrtd:libm_error.obj
 0002:00010c28       $xdatasym                  000000018004bc28     libvcruntimed:notify.obj
 0002:00010c34       $unwind$__GSHandlerCheck_EH 000000018004bc34     LIBCMTD:gshandlereh.obj
 0002:00010c34       $unwind$__GSHandlerCheck_SEH 000000018004bc34     LIBCMTD:gshandlerseh.obj
 0002:00010c34       $unwind$_vsprintf_s_l      000000018004bc34     libvcruntimed:undname.obj
 0002:00010c34       $unwind$sprintf_s          000000018004bc34     libvcruntimed:undname.obj
 0002:00010c34       $unwind$memcpy_s           000000018004bc34     libucrtd:cfout.obj
 0002:00010c34       $unwind$??$parse_integer_from_string@JDPEAPEAD@__crt_strtox@@YAJQEBDQEAPEADHQEAU__crt_locale_pointers@@@Z 000000018004bc34     libucrtd:strtox.obj
 0002:00010c34       $unwind$??$parse_integer_from_string@J_WPEAPEA_W@__crt_strtox@@YAJQEB_WQEAPEA_WHQEAU__crt_locale_pointers@@@Z 000000018004bc34     libucrtd:strtox.obj
 0002:00010c34       $unwind$__acrt_MessageBoxW 000000018004bc34     libucrtd:winapi_thunks.obj
 0002:00010c34       $unwind$memcpy_s           000000018004bc34     libucrtd:mbctype.obj
 0002:00010c34       $unwind$_snwprintf_s       000000018004bc34     libucrtd:dbgrpt.obj
 0002:00010c34       $unwind$_snprintf_s        000000018004bc34     libucrtd:dbgrptt.obj
 0002:00010c34       $unwind$??$parse_command_line@D@@YAXPEADPEAPEAD0PEA_K2@Z 000000018004bc34     libucrtd:argv_parsing.obj
 0002:00010c34       $unwind$?write_string@?$string_output_adapter@D@__crt_stdio_output@@QEBAXQEBDHQEAHAEAV__crt_deferred_errno_cache@@@Z 000000018004bc34     libucrtd:output.obj
 0002:00010c34       $unwind$?write_string@?$string_output_adapter@_W@__crt_stdio_output@@QEBAXQEB_WHQEAHAEAV__crt_deferred_errno_cache@@@Z 000000018004bc34     libucrtd:output.obj
 0002:00010c34       $unwind$__stdio_common_vsnprintf_s 000000018004bc34     libucrtd:output.obj
 0002:00010c34       $unwind$__stdio_common_vsnwprintf_s 000000018004bc34     libucrtd:output.obj
 0002:00010c34       $unwind$_raise_exc         000000018004bc34     libucrtd:fpexcept.obj
 0002:00010c3c       $unwind$__vcrt_getptd_noexit 000000018004bc3c     libvcruntimed:per_thread_data.obj
 0002:00010c48       $xdatasym                  000000018004bc48     libvcruntimed:memcpy.obj
 0002:00010c58       $unwind$?FrameUnwindToEmptyState@__FrameHandler3@@SAXPEA_KPEAU_xDISPATCHER_CONTEXT@@PEBU_s_FuncInfo@@@Z 000000018004bc58     libvcruntimed:risctrnsctrl.obj
 0002:00010c58       $unwind$??$common_show_message_box@_W@@YAHQEB_W0I@Z 000000018004bc58     libucrtd:crtmbox.obj
 0002:00010c58       $unwind$?find_next_state@?$output_processor@_WV?$string_output_adapter@_W@__crt_stdio_output@@V?$format_validation_base@_WV?$string_output_adapter@_W@__crt_stdio_output@@@2@@__crt_stdio_output@@AEBA?AW4state@2@_WW432@@Z 000000018004bc58     libucrtd:output.obj
 0002:00010c60       $unwind$??$SehTransFilter@V__FrameHandler3@@@@YAHPEAU_EXCEPTION_POINTERS@@PEAUEHExceptionRecord@@PEA_KPEAU_CONTEXT@@PEAU_xDISPATCHER_CONTEXT@@PEBU_s_FuncInfo@@PEAH@Z 000000018004bc60     libvcruntimed:risctrnsctrl.obj
 0002:00010c60       $unwind$?GetEstablisherFrame@__FrameHandler3@@SAPEA_KPEA_KPEAU_xDISPATCHER_CONTEXT@@PEBU_s_FuncInfo@@0@Z 000000018004bc60     libvcruntimed:risctrnsctrl.obj
 0002:00010c60       $unwind$_recalloc_dbg      000000018004bc60     libucrtd:debug_heap.obj
 0002:00010c60       $unwind$??$__acrt_convert_wcs_mbs_cp@_WDV<lambda_f788ae46380686e8b737efdd8c720d07>@@U__crt_win32_buffer_no_resizing@@@@YAHQEB_WAEAV?$__crt_win32_buffer@DU__crt_win32_buffer_no_resizing@@@@AEBV<lambda_f788ae46380686e8b737efdd8c720d07>@@I@Z 000000018004bc60     libucrtd:getmodulefilenamea.obj
 0002:00010c60       $unwind$_vsnwprintf_s_l    000000018004bc60     libucrtd:dbgrpt.obj
 0002:00010c60       $unwind$_vsnprintf_s_l     000000018004bc60     libucrtd:dbgrptt.obj
 0002:00010c60       $unwind$_invalid_parameter 000000018004bc60     libucrtd:invalid_parameter.obj
 0002:00010c60       $unwind$??$__acrt_convert_wcs_mbs_cp@D_WV<lambda_7c9dea7b4ca7285d2cdb541a38da6275>@@U__crt_win32_buffer_internal_dynamic_resizing@@@@YAHQEBDAEAV?$__crt_win32_buffer@_WU__crt_win32_buffer_internal_dynamic_resizing@@@@AEBV<lambda_7c9dea7b4ca7285d2cdb541a38da6275>@@I@Z 000000018004bc60     libucrtd:argv_wildcards.obj
 0002:00010c60       $unwind$??$__acrt_convert_wcs_mbs_cp@_WDV<lambda_d8593a27d1aa8c02be35c86a17d324c4>@@U__crt_win32_buffer_internal_dynamic_resizing@@@@YAHQEB_WAEAV?$__crt_win32_buffer@DU__crt_win32_buffer_internal_dynamic_resizing@@@@AEBV<lambda_d8593a27d1aa8c02be35c86a17d324c4>@@I@Z 000000018004bc60     libucrtd:argv_wildcards.obj
 0002:00010c60       $unwind$??$type_case_integer_parse_into_buffer@_K@?$output_processor@DV?$string_output_adapter@D@__crt_stdio_output@@V?$format_validation_base@DV?$string_output_adapter@D@__crt_stdio_output@@@2@@__crt_stdio_output@@AEAAX_KI_N@Z 000000018004bc60     libucrtd:output.obj
 0002:00010c60       $unwind$??$type_case_integer_parse_into_buffer@_K@?$output_processor@_WV?$string_output_adapter@_W@__crt_stdio_output@@V?$format_validation_base@_WV?$string_output_adapter@_W@__crt_stdio_output@@@2@@__crt_stdio_output@@AEAAX_KI_N@Z 000000018004bc60     libucrtd:output.obj
 0002:00010c60       $unwind$_raise_exc_ex      000000018004bc60     libucrtd:fpexcept.obj
 0002:00010c68       $unwind$?UnwindNestedFrames@__FrameHandler3@@SAXPEA_KPEAUEHExceptionRecord@@PEAU_CONTEXT@@0PEAXPEBU_s_FuncInfo@@HHPEBU_s_HandlerType@@PEAU_xDISPATCHER_CONTEXT@@E@Z 000000018004bc68     libvcruntimed:risctrnsctrl.obj
 0002:00010c7c       $unwind$?GetRangeOfTrysToCheck@__FrameHandler3@@SA?AU?$pair@Viterator@TryBlockMap@__FrameHandler3@@V123@@std@@AEAVTryBlockMap@1@HPEAU_xDISPATCHER_CONTEXT@@PEBU_s_FuncInfo@@H@Z 000000018004bc7c     libvcruntimed:risctrnsctrl.obj
 0002:00010c7c       $unwind$__CxxFrameHandler3 000000018004bc7c     libvcruntimed:risctrnsctrl.obj
 0002:00010c7c       $unwind$__acrt_fp_strflt_to_string 000000018004bc7c     libucrtd:_fptostr.obj
 0002:00010c7c       $unwind$?fp_format_f_internal@@YAHQEAD_KHQEAU_strflt@@_NQEAU__crt_locale_pointers@@@Z 000000018004bc7c     libucrtd:cvt.obj
 0002:00010c7c       $unwind$??$copy_and_add_argument_to_buffer@D@@YAHQEBD0_KAEAV?$argument_list@D@?A0x5f5c8891@@@Z 000000018004bc7c     libucrtd:argv_wildcards.obj
 0002:00010c7c       $unwind$??$common_vsprintf_s@D@@YAH_KQEAD0QEBDQEAU__crt_locale_pointers@@1@Z 000000018004bc7c     libucrtd:output.obj
 0002:00010c84       $unwind$??$_CallSETranslator@V__FrameHandler3@@@@YAHPEAUEHExceptionRecord@@PEA_KPEAU_CONTEXT@@PEAU_xDISPATCHER_CONTEXT@@PEBU_s_FuncInfo@@K1@Z 000000018004bc84     libvcruntimed:risctrnsctrl.obj
 0002:00010ca4       $unwind$?filt$0@?0???$_CallSETranslator@V__FrameHandler3@@@@YAHPEAUEHExceptionRecord@@PEA_KPEAU_CONTEXT@@PEAU_xDISPATCHER_CONTEXT@@PEBU_s_FuncInfo@@K1@Z@4HA 000000018004bca4     libvcruntimed:risctrnsctrl.obj
 0002:00010ca4       $unwind$?fin$0@?0??heap_alloc_dbg_internal@@YAPEAX_KHQEBDH@Z@4HA 000000018004bca4     libucrtd:debug_heap.obj
 0002:00010ca4       $unwind$_CrtMemCheckpoint$fin$0 000000018004bca4     libucrtd:debug_heap.obj
 0002:00010ca4       $unwind$_VCrtDbgReportA$fin$0 000000018004bca4     libucrtd:dbgrptt.obj
 0002:00010ca4       $unwind$_VCrtDbgReportA$fin$1 000000018004bca4     libucrtd:dbgrptt.obj
 0002:00010ca4       $unwind$_VCrtDbgReportW$fin$0 000000018004bca4     libucrtd:dbgrptt.obj
 0002:00010ca4       $unwind$_VCrtDbgReportW$fin$1 000000018004bca4     libucrtd:dbgrptt.obj
 0002:00010cac       $unwind$??$?0AEAViterator@TryBlockMap@__FrameHandler3@@AEAV012@$0A@@?$pair@Viterator@TryBlockMap@__FrameHandler3@@V123@@std@@QEAA@AEAViterator@TryBlockMap@__FrameHandler3@@0@Z 000000018004bcac     libvcruntimed:risctrnsctrl.obj
 0002:00010cb8       $unwind$__vcrt_FlsFree     000000018004bcb8     libvcruntimed:winapi_downlevel.obj
 0002:00010cb8       $unwind$__vcrt_FlsGetValue 000000018004bcb8     libvcruntimed:winapi_downlevel.obj
 0002:00010cb8       $unwind$??$get_cached_win_policy@Udeveloper_information_policy_properties@?1??__acrt_get_developer_information_policy@@YA?AW4developer_information_policy@@XZ@@@YA?AW4developer_information_policy@@W4AppPolicyShowDeveloperDiagnostic@@@Z 000000018004bcb8     libucrtd:win_policies.obj
 0002:00010cb8       $unwind$??$get_cached_win_policy@Uwindowing_model_policy_properties@?1??__acrt_get_windowing_model_policy@@YA?AW4windowing_model_policy@@XZ@@@YA?AW4windowing_model_policy@@W4AppPolicyWindowingModel@@@Z 000000018004bcb8     libucrtd:win_policies.obj
 0002:00010cb8       $unwind$__acrt_uninitialize_winapi_thunks 000000018004bcb8     libucrtd:winapi_thunks.obj
 0002:00010cb8       $unwind$_isatty            000000018004bcb8     libucrtd:isatty.obj
 0002:00010cb8       $unwind$_get_osfhandle     000000018004bcb8     libucrtd:osfinfo.obj
 0002:00010cb8       $unwind$?write_requires_double_translation_nolock@@YA_NH@Z 000000018004bcb8     libucrtd:write.obj
 0002:00010cb8       $unwind$_set_error_mode    000000018004bcb8     libucrtd:set_error_mode.obj
 0002:00010cb8       $unwind$?try_cor_exit_process@@YAXI@Z 000000018004bcb8     libucrtd:exit.obj
 0002:00010cc0       $unwind$__vcrt_FlsSetValue 000000018004bcc0     libvcruntimed:winapi_downlevel.obj
 0002:00010cc0       $unwind$?unget@?$c_string_character_source@D@__crt_strtox@@QEAAXD@Z 000000018004bcc0     libucrtd:atox.obj
 0002:00010cc0       $unwind$??$__acrt_lock_and_call@V<lambda_8d0ee55de4b1038c4002e0adecdf1839>@@@@YAXW4__acrt_lock_id@@$$QEAV<lambda_8d0ee55de4b1038c4002e0adecdf1839>@@@Z 000000018004bcc0     libucrtd:per_thread_data.obj
 0002:00010cc0       $unwind$??$__acrt_lock_and_call@V<lambda_8f455de75cd7d7f24b4096f044d8b9e6>@@@@YAXW4__acrt_lock_id@@$$QEAV<lambda_8f455de75cd7d7f24b4096f044d8b9e6>@@@Z 000000018004bcc0     libucrtd:per_thread_data.obj
 0002:00010cc0       $unwind$??$__acrt_lock_and_call@V<lambda_92619d2358a28f41a33ba319515a20b9>@@@@YAXW4__acrt_lock_id@@$$QEAV<lambda_92619d2358a28f41a33ba319515a20b9>@@@Z 000000018004bcc0     libucrtd:per_thread_data.obj
 0002:00010cc0       $unwind$??$__acrt_lock_and_call@V<lambda_e157831efee4ea0afb0a2ace5dd5fd0d>@@@@YAXW4__acrt_lock_id@@$$QEAV<lambda_e157831efee4ea0afb0a2ace5dd5fd0d>@@@Z 000000018004bcc0     libucrtd:per_thread_data.obj
 0002:00010cc0       $unwind$??$__acrt_lock_and_call@V<lambda_3e16ef9562a7dcce91392c22ab16ea36>@@@@YAXW4__acrt_lock_id@@$$QEAV<lambda_3e16ef9562a7dcce91392c22ab16ea36>@@@Z 000000018004bcc0     libucrtd:wsetlocale.obj
 0002:00010cc0       $unwind$??$__acrt_lowio_lock_fh_and_call@V<lambda_4e7105787b7b0e0227fbf2b2d883fa65>@@@@YAHH$$QEAV<lambda_4e7105787b7b0e0227fbf2b2d883fa65>@@@Z 000000018004bcc0     libucrtd:close.obj
 0002:00010cc0       $unwind$??$__acrt_lowio_lock_fh_and_call@V<lambda_5533cddd4bda0037814beee657757329>@@@@YAHH$$QEAV<lambda_5533cddd4bda0037814beee657757329>@@@Z 000000018004bcc0     libucrtd:commit.obj
 0002:00010cc0       $unwind$??$__acrt_lock_and_call@V<lambda_bd5a608237428601b7e45fbdc72b1ae8>@@@@YAXW4__acrt_lock_id@@$$QEAV<lambda_bd5a608237428601b7e45fbdc72b1ae8>@@@Z 000000018004bcc0     libucrtd:mbctype.obj
 0002:00010cc0       $unwind$??$__acrt_lock_and_call@V<lambda_44731a7d0e6d81c3e6aa82d741081786>@@@@YAP6AXH@ZW4__acrt_lock_id@@$$QEAV<lambda_44731a7d0e6d81c3e6aa82d741081786>@@@Z 000000018004bcc0     libucrtd:signal.obj
 0002:00010cc0       $unwind$??$__acrt_lock_and_call@V<lambda_6e4b09c48022b2350581041d5f6b0c4c>@@@@YAXW4__acrt_lock_id@@$$QEAV<lambda_6e4b09c48022b2350581041d5f6b0c4c>@@@Z 000000018004bcc0     libucrtd:exit.obj
 0002:00010cc0       $unwind$??$__acrt_lock_and_call@V<lambda_d121dba8a4adeaf3a9819e48611155df>@@@@YAHW4__acrt_lock_id@@$$QEAV<lambda_d121dba8a4adeaf3a9819e48611155df>@@@Z 000000018004bcc0     libucrtd:onexit.obj
 0002:00010cc0       $unwind$??$__acrt_lock_and_call@V<lambda_ab61a845afdef5b7c387490eaf3616ee>@@@@YAXW4__acrt_lock_id@@$$QEAV<lambda_ab61a845afdef5b7c387490eaf3616ee>@@@Z 000000018004bcc0     libucrtd:fflush.obj
 0002:00010cc0       $unwind$?state_case_normal_tchar@?$output_processor@DV?$string_output_adapter@D@__crt_stdio_output@@V?$format_validation_base@DV?$string_output_adapter@D@__crt_stdio_output@@@2@@__crt_stdio_output@@AEAA_ND@Z 000000018004bcc0     libucrtd:output.obj
 0002:00010cc8       $unwind$__vcrt_InitializeCriticalSectionEx 000000018004bcc8     libvcruntimed:winapi_downlevel.obj
 0002:00010cc8       $unwind$??$common_lseek_nolock@_J@@YA_JH_JH@Z 000000018004bcc8     libucrtd:lseek.obj
 0002:00010cc8       $unwind$?find_next_state@?$output_processor@DV?$string_output_adapter@D@__crt_stdio_output@@V?$format_validation_base@DV?$string_output_adapter@D@__crt_stdio_output@@@2@@__crt_stdio_output@@AEBA?AW4state@2@DW432@@Z 000000018004bcc8     libucrtd:output.obj
 0002:00010cd0       $unwind$?try_get_module@@YAPEAUHINSTANCE__@@W4module_id@?A0x5a6460af@@@Z 000000018004bcd0     libvcruntimed:winapi_downlevel.obj
 0002:00010cd0       $unwind$?try_get_module@@YAPEAUHINSTANCE__@@W4module_id@?A0x391cf84c@@@Z 000000018004bcd0     libucrtd:winapi_thunks.obj
 0002:00010cd0       $unwind$_close             000000018004bcd0     libucrtd:close.obj
 0002:00010cd0       $unwind$_commit            000000018004bcd0     libucrtd:commit.obj
 0002:00010cd0       $unwind$?common_flush_all@@YAH_N@Z 000000018004bcd0     libucrtd:fflush.obj
 0002:00010cd8       $unwind$?GetUnwindTryBlock@__FrameHandler3@@SAHPEA_KPEAU_xDISPATCHER_CONTEXT@@PEBU_s_FuncInfo@@@Z 000000018004bcd8     libvcruntimed:ehstate.obj
 0002:00010cd8       $unwind$?StateFromIp@__FrameHandler3@@SAHPEBU_s_FuncInfo@@PEAU_xDISPATCHER_CONTEXT@@_K@Z 000000018004bcd8     libvcruntimed:ehstate.obj
 0002:00010cd8       $unwind$?ExFilterRethrow@@YAHPEAU_EXCEPTION_POINTERS@@PEAUEHExceptionRecord@@PEAH@Z 000000018004bcd8     libvcruntimed:frame.obj
 0002:00010cd8       $unwind$?GetHandlerSearchState@__FrameHandler3@@SAHPEA_KPEAU_xDISPATCHER_CONTEXT@@PEBU_s_FuncInfo@@@Z 000000018004bcd8     libvcruntimed:frame.obj
 0002:00010cd8       $unwind$?_CallMemberFunction1@@YAXQEAX00@Z 000000018004bcd8     libvcruntimed:frame.obj
 0002:00010cd8       $unwind$?try_get_proc_address_from_first_available_module@@YAPEAXQEBDQEBW4module_id@?A0x5a6460af@@1@Z 000000018004bcd8     libvcruntimed:winapi_downlevel.obj
 0002:00010cd8       $unwind$?try_get_proc_address_from_first_available_module@@YAPEAXQEBDQEBW4module_id@?A0x391cf84c@@1@Z 000000018004bcd8     libucrtd:winapi_thunks.obj
 0002:00010cd8       $unwind$?common_lseek_do_seek_nolock@@YA_JQEAX_JH@Z 000000018004bcd8     libucrtd:lseek.obj
 0002:00010cd8       $unwind$?allocate@__crt_win32_buffer_internal_dynamic_resizing@@SAHQEAPEAX_KAEBV__crt_win32_buffer_empty_debug_info@@@Z 000000018004bcd8     libucrtd:argv_wildcards.obj
 0002:00010cd8       $unwind$?type_case_s_compute_narrow_string_length@?$output_processor@_WV?$string_output_adapter@_W@__crt_stdio_output@@V?$format_validation_base@_WV?$string_output_adapter@_W@__crt_stdio_output@@@2@@__crt_stdio_output@@AEBAHH_W@Z 000000018004bcd8     libucrtd:output.obj
 0002:00010ce0       $unwind$?try_get_function@@YAPEAXW4function_id@?A0x5a6460af@@QEBDQEBW4module_id@2@2@Z 000000018004bce0     libvcruntimed:winapi_downlevel.obj
 0002:00010ce0       $unwind$?try_get_function@@YAPEAXW4function_id@?A0x391cf84c@@QEBDQEBW4module_id@2@2@Z 000000018004bce0     libucrtd:winapi_thunks.obj
 0002:00010ce0       $unwind$_CrtDbgReport      000000018004bce0     libucrtd:dbgrpt.obj
 0002:00010ce0       $unwind$_CrtDbgReportW     000000018004bce0     libucrtd:dbgrpt.obj
 0002:00010ce0       $unwind$_call_matherr      000000018004bce0     libucrtd:libm_error.obj
 0002:00010ce8       $unwind$?GetCurrentState@__FrameHandler3@@SAHPEA_KPEAU_xDISPATCHER_CONTEXT@@PEBU_s_FuncInfo@@@Z 000000018004bce8     libvcruntimed:ehstate.obj
 0002:00010ce8       $unwind$?TypeMatch@__FrameHandler3@@SAHPEBU_s_HandlerType@@PEBU_s_CatchableType@@PEBU_s_ThrowInfo@@@Z 000000018004bce8     libvcruntimed:frame.obj
 0002:00010ce8       $unwind$__TypeMatch        000000018004bce8     libvcruntimed:frame.obj
 0002:00010ce8       $unwind$mbtowc             000000018004bce8     libucrtd:mbtowc.obj
 0002:00010ce8       $unwind$??$make_c_string_character_source@DPEAPEAD@__crt_strtox@@YA?AV?$c_string_character_source@D@0@QEBDQEAPEAD@Z 000000018004bce8     libucrtd:strtox.obj
 0002:00010ce8       $unwind$??$make_c_string_character_source@_WPEAPEA_W@__crt_strtox@@YA?AV?$c_string_character_source@_W@0@QEB_WQEAPEA_W@Z 000000018004bce8     libucrtd:strtox.obj
 0002:00010ce8       $unwind$strtol             000000018004bce8     libucrtd:strtox.obj
 0002:00010ce8       $unwind$wcstol             000000018004bce8     libucrtd:strtox.obj
 0002:00010ce8       $unwind$?allocate@__crt_win32_buffer_no_resizing@@SAHQEAPEAX_KAEBV__crt_win32_buffer_empty_debug_info@@@Z 000000018004bce8     libucrtd:getmodulefilenamea.obj
 0002:00010ce8       $unwind$__acrt_show_wide_message_box 000000018004bce8     libucrtd:crtmbox.obj
 0002:00010ce8       $unwind$??$get_module_file_name@AEAPEAUHINSTANCE__@@AEAY0BAF@DK@?$__crt_char_traits@D@@SAKAEAPEAUHINSTANCE__@@AEAY0BAF@D$$QEAK@Z 000000018004bce8     libucrtd:dbgrpt.obj
 0002:00010ce8       $unwind$??$get_module_file_name@AEAPEAUHINSTANCE__@@AEAY0BAF@_WK@?$__crt_char_traits@_W@@SAKAEAPEAUHINSTANCE__@@AEAY0BAF@_W$$QEAK@Z 000000018004bce8     libucrtd:dbgrpt.obj
 0002:00010ce8       $unwind$??$tcscpy_s@AEAY0BAF@D_KPEBD@?$__crt_char_traits@D@@SAHAEAY0BAF@D$$QEA_K$$QEAPEBD@Z 000000018004bce8     libucrtd:dbgrpt.obj
 0002:00010ce8       $unwind$??$tcscpy_s@AEAY0BAF@_W_KPEB_W@?$__crt_char_traits@_W@@SAHAEAY0BAF@_W$$QEA_K$$QEAPEB_W@Z 000000018004bce8     libucrtd:dbgrpt.obj
 0002:00010ce8       $unwind$??$get_module_file_name@$$TAEAY0BAF@DH@?$__crt_char_traits@D@@SAK$$QEA$$TAEAY0BAF@D$$QEAH@Z 000000018004bce8     libucrtd:argv_parsing.obj
 0002:00010ce8       $unwind$??$tcstol@PEBDPEAPEADH@?$__crt_char_traits@D@@SAJ$$QEAPEBD$$QEAPEAPEAD$$QEAH@Z 000000018004bce8     libucrtd:output.obj
 0002:00010ce8       $unwind$??$tcstol@PEB_WPEAPEA_WH@?$__crt_char_traits@_W@@SAJ$$QEAPEB_W$$QEAPEAPEA_W$$QEAH@Z 000000018004bce8     libucrtd:output.obj
 0002:00010ce8       $unwind$strcat_s           000000018004bce8     libucrtd:strcat_s.obj
 0002:00010ce8       $unwind$strcpy_s           000000018004bce8     libucrtd:strcpy_s.obj
 0002:00010ce8       $unwind$wcscat_s           000000018004bce8     libucrtd:wcscat_s.obj
 0002:00010ce8       $unwind$wcscpy_s           000000018004bce8     libucrtd:wcscpy_s.obj
 0002:00010cf0       $unwind$?FrameUnwindToState@__FrameHandler3@@SAXPEA_KPEAU_xDISPATCHER_CONTEXT@@PEBU_s_FuncInfo@@H@Z 000000018004bcf0     libvcruntimed:frame.obj
 0002:00010d20       $unwind$?CxxCallCatchBlock@__FrameHandler3@@SAPEAXPEAU_EXCEPTION_RECORD@@@Z 000000018004bd20     libvcruntimed:frame.obj
 0002:00010d50       $unwind$??Diterator@HandlerMap@__FrameHandler3@@QEAA?BU_s_HandlerType@@XZ 000000018004bd50     libvcruntimed:frame.obj
 0002:00010d50       $unwind$??Diterator@TryBlockMap@__FrameHandler3@@QEAA?BU_s_TryBlockMapEntry@@XZ 000000018004bd50     libvcruntimed:frame.obj
 0002:00010d58       $unwind$??0exception@std@@QEAA@QEBDH@Z 000000018004bd58     libvcruntimed:frame.obj
 0002:00010d60       $unwind$??0exception@std@@QEAA@AEBV01@@Z 000000018004bd60     libvcruntimed:frame.obj
 0002:00010d68       $unwind$??_Gtype_info@@UEAAPEAXI@Z 000000018004bd68     LIBCMTD:std_type_info_static.obj
 0002:00010d68       $unwind$??_Gbad_exception@std@@UEAAPEAXI@Z 000000018004bd68     libvcruntimed:frame.obj
 0002:00010d68       $unwind$??_Gexception@std@@UEAAPEAXI@Z 000000018004bd68     libvcruntimed:frame.obj
 0002:00010d68       $unwind$?strrchr@@YAPEADQEADH@Z 000000018004bd68     libucrtd:cvt.obj
 0002:00010d68       $unwind$_isleadbyte_fast_internal 000000018004bd68     libucrtd:isctype.obj
 0002:00010d68       $unwind$?xcptlookup@@YAPEAU__crt_signal_action_t@@KQEAU1@@Z 000000018004bd68     libucrtd:exception_filter.obj
 0002:00010d68       $unwind$_seh_filter_dll    000000018004bd68     libucrtd:exception_filter.obj
 0002:00010d68       $unwind$__acrt_isleadbyte_l_noupdate 000000018004bd68     libucrtd:output.obj
 0002:00010d68       $unwind$_isdigit_fast_internal 000000018004bd68     libucrtd:output.obj
 0002:00010d70       $unwind$?IsInExceptionSpec@@YAEPEAUEHExceptionRecord@@PEBU_s_ESTypeList@@@Z 000000018004bd70     libvcruntimed:frame.obj
 0002:00010d70       $unwind$__std_exception_copy 000000018004bd70     libvcruntimed:std_exception.obj
 0002:00010d70       $unwind$?parse_int_from_format_string@?$output_processor@DV?$string_output_adapter@D@__crt_stdio_output@@V?$format_validation_base@DV?$string_output_adapter@D@__crt_stdio_output@@@2@@__crt_stdio_output@@AEAA_NQEAH@Z 000000018004bd70     libucrtd:output.obj
 0002:00010d70       $unwind$?parse_int_from_format_string@?$output_processor@_WV?$string_output_adapter@_W@__crt_stdio_output@@V?$format_validation_base@_WV?$string_output_adapter@_W@__crt_stdio_output@@@2@@__crt_stdio_output@@AEAA_NQEAH@Z 000000018004bd70     libucrtd:output.obj
 0002:00010d70       $unwind$?write_stored_string_tchar@?$output_processor@_WV?$string_output_adapter@_W@__crt_stdio_output@@V?$format_validation_base@_WV?$string_output_adapter@_W@__crt_stdio_output@@@2@@__crt_stdio_output@@AEAA_N_W@Z 000000018004bd70     libucrtd:output.obj
 0002:00010d78       $unwind$??$TypeMatchHelper@V__FrameHandler3@@@@YAHPEBU_s_HandlerType@@PEBU_s_CatchableType@@PEBU_s_ThrowInfo@@@Z 000000018004bd78     libvcruntimed:frame.obj
 0002:00010d78       $unwind$__acrt_allocate_buffer_for_argv 000000018004bd78     libucrtd:argv_parsing.obj
 0002:00010d80       $unwind$??$BuildCatchObjectHelperInternal@V__FrameHandler3@@@@YAHPEAUEHExceptionRecord@@PEAXPEBU_s_HandlerType@@PEBU_s_CatchableType@@@Z 000000018004bd80     libvcruntimed:frame.obj
 0002:00010da0       $unwind$??$BuildCatchObjectInternal@V__FrameHandler3@@@@YAXPEAUEHExceptionRecord@@PEAXPEBU_s_HandlerType@@PEBU_s_CatchableType@@@Z 000000018004bda0     libvcruntimed:frame.obj
 0002:00010dc0       $unwind$??$FindHandler@V__FrameHandler3@@@@YAXPEAUEHExceptionRecord@@PEA_KPEAU_CONTEXT@@PEAU_xDISPATCHER_CONTEXT@@PEBU_s_FuncInfo@@EH1@Z 000000018004bdc0     libvcruntimed:frame.obj
 0002:00010dd4       $unwind$??$CatchIt@V__FrameHandler3@@@@YAXPEAUEHExceptionRecord@@PEA_KPEAU_CONTEXT@@PEAU_xDISPATCHER_CONTEXT@@PEBU_s_FuncInfo@@PEBU_s_HandlerType@@PEBU_s_CatchableType@@PEBU_s_TryBlockMapEntry@@H1EE@Z 000000018004bdd4     libvcruntimed:frame.obj
 0002:00010dd4       $unwind$?fp_format_e@@YAHQEBNQEAD_K12H_NIQEAU__crt_locale_pointers@@@Z 000000018004bdd4     libucrtd:cvt.obj
 0002:00010dd4       $unwind$?fp_format_e_internal@@YAHQEAD_KH_NIQEAU_strflt@@2QEAU__crt_locale_pointers@@@Z 000000018004bdd4     libucrtd:cvt.obj
 0002:00010dd4       $unwind$__acrt_fp_format   000000018004bdd4     libucrtd:cvt.obj
 0002:00010dd4       $unwind$?realloc_dbg_nolock@@YAPEAXQEAXQEA_KHQEBDH_N@Z 000000018004bdd4     libucrtd:debug_heap.obj
 0002:00010dd4       $unwind$??$common_vsnprintf_s@D@@YAH_KQEAD00QEBDQEAU__crt_locale_pointers@@1@Z 000000018004bdd4     libucrtd:output.obj
 0002:00010dd4       $unwind$??$common_vsnprintf_s@_W@@YAH_KQEA_W00QEB_WQEAU__crt_locale_pointers@@QEAD@Z 000000018004bdd4     libucrtd:output.obj
 0002:00010ddc       $unwind$??$FindHandlerForForeignException@V__FrameHandler3@@@@YAXPEAUEHExceptionRecord@@PEA_KPEAU_CONTEXT@@PEAU_xDISPATCHER_CONTEXT@@PEBU_s_FuncInfo@@HH1@Z 000000018004bddc     libvcruntimed:frame.obj
 0002:00010df0       $xdatasym                  000000018004bdf0     libvcruntimed:memset.obj
 0002:00010e00       $xdatasym                  000000018004be00     libvcruntimed:handlers.obj
 0002:00010e20       $unwind$_CxxThrowException 000000018004be20     libvcruntimed:throw.obj
 0002:00010e28       $unwind$floorf             000000018004be28     libucrtd:floorf.obj
 0002:00010e30       $unwind$?unget@?$c_string_character_source@_W@__crt_strtox@@QEAAX_W@Z 000000018004be30     libucrtd:atox.obj
 0002:00010e30       $unwind$?construct_ptd@@YAXQEAU__acrt_ptd@@QEAPEAU__crt_locale_data@@@Z 000000018004be30     libucrtd:per_thread_data.obj
 0002:00010e30       $unwind$__acrt_execute_initializers 000000018004be30     libucrtd:shared_initialization.obj
 0002:00010e30       $unwind$_initterm_e        000000018004be30     libucrtd:initterm.obj
 0002:00010e30       $unwind$??$__acrt_lock_stream_and_call@V<lambda_c5860995281e5c4ce005b3de8f5874ee>@@@@YAXQEAU_iobuf@@$$QEAV<lambda_c5860995281e5c4ce005b3de8f5874ee>@@@Z 000000018004be30     libucrtd:fflush.obj
 0002:00010e30       $unwind$??$ensure_buffer_is_big_enough@D@formatting_buffer@__crt_stdio_output@@QEAA_N_K@Z 000000018004be30     libucrtd:output.obj
 0002:00010e30       $unwind$??$ensure_buffer_is_big_enough@_W@formatting_buffer@__crt_stdio_output@@QEAA_N_K@Z 000000018004be30     libucrtd:output.obj
 0002:00010e38       $unwind$_seh_filter_exe    000000018004be38     libucrtd:exception_filter.obj
 0002:00010e40       $unwind$?common_exit@@YAXHW4_crt_exit_cleanup_mode@@W4_crt_exit_return_mode@@@Z 000000018004be40     libucrtd:exit.obj
 0002:00010e48       $unwind$??R<lambda_6e4b09c48022b2350581041d5f6b0c4c>@@QEBA@XZ 000000018004be48     libucrtd:exit.obj
 0002:00010e68       $unwind$??$?RV<lambda_d80eeec6fff315bfe5c115232f3240e3>@@AEAV<lambda_6e4b09c48022b2350581041d5f6b0c4c>@@V<lambda_2358e3775559c9db80273638284d5e45>@@@?$__crt_seh_guarded_call@X@@QEAAX$$QEAV<lambda_d80eeec6fff315bfe5c115232f3240e3>@@AEAV<lambda_6e4b09c48022b2350581041d5f6b0c4c>@@$$QEAV<lambda_2358e3775559c9db80273638284d5e45>@@@Z 000000018004be68     libucrtd:exit.obj
 0002:00010e88       $unwind$__acrt_uninitialize_locks 000000018004be88     libucrtd:locks.obj
 0002:00010e88       $unwind$??$get_win_policy@Uprocess_end_policy_properties@?1??__acrt_get_process_end_policy@@YA?AW4process_end_policy@@XZ@@@YA?AW4process_end_policy@@W4AppPolicyProcessTerminationMethod@@@Z 000000018004be88     libucrtd:win_policies.obj
 0002:00010e88       $unwind$__acrt_FlsFree     000000018004be88     libucrtd:winapi_thunks.obj
 0002:00010e88       $unwind$__acrt_FlsGetValue 000000018004be88     libucrtd:winapi_thunks.obj
 0002:00010e88       $unwind$?close_os_handle_nolock@@YAKH@Z 000000018004be88     libucrtd:close.obj
 0002:00010e88       $unwind$_close_nolock      000000018004be88     libucrtd:close.obj
 0002:00010e88       $unwind$__acrt_uninitialize_lowio 000000018004be88     libucrtd:ioinit.obj
 0002:00010e88       $unwind$_free_osfhnd       000000018004be88     libucrtd:osfinfo.obj
 0002:00010e88       $unwind$__acrt_errno_map_os_error 000000018004be88     libucrtd:errno.obj
 0002:00010e88       $unwind$?get_global_action_nolock@@YAPEAP6AXH@ZH@Z 000000018004be88     libucrtd:signal.obj
 0002:00010e88       $unwind$?should_copy_another_character@@YA_ND@Z 000000018004be88     libucrtd:argv_parsing.obj
 0002:00010e88       $unwind$??$translate_control_exception_mask@W4__acrt_fenv_machine_sse_control@@W4__acrt_fenv_abstract_control@@@@YA?AW4__acrt_fenv_machine_sse_control@@W4__acrt_fenv_abstract_control@@@Z 000000018004be88     libucrtd:_fenvutils.obj
 0002:00010e88       $unwind$??$translate_control_rounding_control@W4__acrt_fenv_machine_sse_control@@W4__acrt_fenv_abstract_control@@@@YA?AW4__acrt_fenv_machine_sse_control@@W4__acrt_fenv_abstract_control@@@Z 000000018004be88     libucrtd:_fenvutils.obj
 0002:00010e88       $unwind$??$translate_status@W4__acrt_fenv_abstract_status@@W4__acrt_fenv_machine_sse_status@@@@YA?AW4__acrt_fenv_abstract_status@@W4__acrt_fenv_machine_sse_status@@@Z 000000018004be88     libucrtd:_fenvutils.obj
 0002:00010e88       $unwind$??$translate_status@W4__acrt_fenv_machine_sse_status@@W4__acrt_fenv_abstract_status@@@@YA?AW4__acrt_fenv_machine_sse_status@@W4__acrt_fenv_abstract_status@@@Z 000000018004be88     libucrtd:_fenvutils.obj
 0002:00010e88       $unwind$?__acrt_fenv_shift_abstract_sse_control@@YA?AW4__acrt_fenv_abstract_control@@W41@@Z 000000018004be88     libucrtd:_fenvutils.obj
 0002:00010e88       $unwind$?__acrt_fenv_unshift_abstract_sse_control@@YA?AW4__acrt_fenv_abstract_control@@W41@@Z 000000018004be88     libucrtd:_fenvutils.obj
 0002:00010e88       $unwind$?set_machine_sse_status@@YAXW4__acrt_fenv_machine_sse_status@@@Z 000000018004be88     libucrtd:_fenvutils.obj
 0002:00010e88       $unwind$?to_machine_sse_control@@YA?AW4__acrt_fenv_machine_sse_control@@W4__acrt_fenv_abstract_control@@@Z 000000018004be88     libucrtd:_fenvutils.obj
 0002:00010e88       $unwind$?translate_control_denormal_control_to_sse@@YA?AW4__acrt_fenv_machine_sse_control@@W4__acrt_fenv_abstract_control@@@Z 000000018004be88     libucrtd:_fenvutils.obj
 0002:00010e88       $unwind$_set_errno_from_matherr 000000018004be88     libucrtd:fpexcept.obj
 0002:00010e90       $unwind$??$common_configure_argv@D@@YAHW4_crt_argv_mode@@@Z 000000018004be90     libucrtd:argv_parsing.obj
 0002:00010e98       $unwind$_invoke_watson_if_error 000000018004be98     libucrtd:environment_initialization.obj
 0002:00010ea0       $unwind$??$free_environment@D@@YAXQEAPEAD@Z 000000018004bea0     libucrtd:environment_initialization.obj
 0002:00010ea0       $unwind$??$free_environment@_W@@YAXQEAPEA_W@Z 000000018004bea0     libucrtd:environment_initialization.obj
 0002:00010eac       $unwind$??$create_environment@D@@YAQEAPEADQEAD@Z 000000018004beac     libucrtd:environment_initialization.obj
 0002:00010ec8       $unwind$??R<lambda_d121dba8a4adeaf3a9819e48611155df>@@QEBAHXZ 000000018004bec8     libucrtd:onexit.obj
 0002:00010ed8       $stateUnwindMap$??R<lambda_d121dba8a4adeaf3a9819e48611155df>@@QEBAHXZ 000000018004bed8     libucrtd:onexit.obj
 0002:00010ee0       $ip2state$??R<lambda_d121dba8a4adeaf3a9819e48611155df>@@QEBAHXZ 000000018004bee0     libucrtd:onexit.obj
 0002:00010ef8       $unwind$??$?RV<lambda_6a47f4c8fd0152770a780fc1d70204eb>@@AEAV<lambda_d121dba8a4adeaf3a9819e48611155df>@@V<lambda_6aaa2265f5b6a89667e7d7630012e97a>@@@?$__crt_seh_guarded_call@H@@QEAAH$$QEAV<lambda_6a47f4c8fd0152770a780fc1d70204eb>@@AEAV<lambda_d121dba8a4adeaf3a9819e48611155df>@@$$QEAV<lambda_6aaa2265f5b6a89667e7d7630012e97a>@@@Z 000000018004bef8     libucrtd:onexit.obj
 0002:00010f18       $unwind$uninitialize_allocated_memory 000000018004bf18     libucrtd:initialization.obj
 0002:00010f20       $unwind$terminate          000000018004bf20     libucrtd:terminate.obj
 0002:00010f40       $unwind$_CrtCheckMemory    000000018004bf40     libucrtd:debug_heap.obj
 0002:00010f60       $unwind$_CrtDumpMemoryLeaks 000000018004bf60     libucrtd:debug_heap.obj
 0002:00010f70       $unwind$_CrtMemCheckpoint  000000018004bf70     libucrtd:debug_heap.obj
 0002:00010f90       $unwind$_CrtMemDumpAllObjectsSince 000000018004bf90     libucrtd:debug_heap.obj
 0002:00010fb0       $unwind$_CrtSetDbgFlag     000000018004bfb0     libucrtd:debug_heap.obj
 0002:00010fd0       $unwind$_free_dbg          000000018004bfd0     libucrtd:debug_heap.obj
 0002:00010ff0       $unwind$_malloc_dbg        000000018004bff0     libucrtd:debug_heap.obj
 0002:00010ff0       $unwind$__acrt_GetStringTypeW 000000018004bff0     libucrtd:getstringtypew.obj
 0002:00010ff8       $unwind$_msize_dbg         000000018004bff8     libucrtd:debug_heap.obj
 0002:00011018       $unwind$_realloc_dbg       000000018004c018     libucrtd:debug_heap.obj
 0002:00011038       $unwind$_chvalidchk_l      000000018004c038     libucrtd:debug_heap.obj
 0002:00011038       $unwind$_ischartype_l      000000018004c038     libucrtd:debug_heap.obj
 0002:00011038       $unwind$??$__acrt_fenv_shift_bits@W4__acrt_fenv_abstract_control@@@@YA?AW4__acrt_fenv_abstract_control@@W40@0I@Z 000000018004c038     libucrtd:_fenvutils.obj
 0002:00011038       $unwind$??$__acrt_fenv_shift_bits@W4__acrt_fenv_abstract_status@@@@YA?AW4__acrt_fenv_abstract_status@@W40@0I@Z 000000018004c038     libucrtd:_fenvutils.obj
 0002:00011038       $unwind$??$__acrt_fenv_unshift_bits@W4__acrt_fenv_abstract_control@@@@YA?AW4__acrt_fenv_abstract_control@@W40@0I@Z 000000018004c038     libucrtd:_fenvutils.obj
 0002:00011038       $unwind$??$__acrt_fenv_unshift_bits@W4__acrt_fenv_abstract_status@@@@YA?AW4__acrt_fenv_abstract_status@@W40@0I@Z 000000018004c038     libucrtd:_fenvutils.obj
 0002:00011040       $unwind$_invoke_watson_if_oneof 000000018004c040     libucrtd:debug_heap.obj
 0002:00011040       $unwind$??$__acrt_fenv_translate_bit@W4__acrt_fenv_abstract_status@@W4__acrt_fenv_machine_sse_status@@@@YA?AW4__acrt_fenv_abstract_status@@W4__acrt_fenv_machine_sse_status@@0W40@1@Z 000000018004c040     libucrtd:_fenvutils.obj
 0002:00011040       $unwind$??$__acrt_fenv_translate_bit@W4__acrt_fenv_machine_sse_status@@W4__acrt_fenv_abstract_status@@@@YA?AW4__acrt_fenv_machine_sse_status@@W4__acrt_fenv_abstract_status@@0W40@1@Z 000000018004c040     libucrtd:_fenvutils.obj
 0002:00011048       $unwind$??0_LocaleUpdate@@QEAA@QEAU__crt_locale_pointers@@@Z 000000018004c048     libucrtd:debug_heap.obj
 0002:00011054       $unwind$__ascii_iswalpha   000000018004c054     libucrtd:atox.obj
 0002:00011054       $unwind$?bit_scan_reverse@__crt_strtox@@YAII@Z 000000018004c054     libucrtd:cfout.obj
 0002:00011054       $unwind$?count_sequential_high_zeroes@__crt_strtox@@YAII@Z 000000018004c054     libucrtd:cfout.obj
 0002:00011054       $unwind$?is_block_type_valid@@YA_NH@Z 000000018004c054     libucrtd:debug_heap.obj
 0002:00011054       $unwind$?appmodel_policy_to_policy_type@windowing_model_policy_properties@?1??__acrt_get_windowing_model_policy@@YA?AW4windowing_model_policy@@XZ@SA?AW43@J@Z 000000018004c054     libucrtd:win_policies.obj
 0002:00011054       $unwind$?get_std_handle_id@@YAKH@Z 000000018004c054     libucrtd:ioinit.obj
 0002:00011054       $unwind$?CPtoLocaleName@@YAPEB_WH@Z 000000018004c054     libucrtd:mbctype.obj
 0002:00011054       $unwind$__acrt_errno_from_os_error 000000018004c054     libucrtd:errno.obj
 0002:00011054       $unwind$?is_stream_allocated@@YA_NJ@Z 000000018004c054     libucrtd:fflush.obj
 0002:00011054       $unwind$?to_integer_size@__crt_stdio_output@@YA_KW4length_modifier@1@@Z 000000018004c054     libucrtd:output.obj
 0002:00011054       $unwind$_abstract_sw       000000018004c054     libucrtd:ieee.obj
 0002:00011054       $unwind$_handle_nanf       000000018004c054     libucrtd:libm_error.obj
 0002:0001105c       $unwind$?is_bad_read_pointer@@YA_NQEBX_K@Z 000000018004c05c     libucrtd:debug_heap.obj
 0002:0001107c       $unwind$?validate_heap_if_required_nolock@@YAXXZ 000000018004c07c     libucrtd:debug_heap.obj
 0002:0001109c       $unwind$?heap_alloc_dbg_internal@@YAPEAX_KHQEBDH@Z 000000018004c09c     libucrtd:debug_heap.obj
 0002:000110bc       $unwind$_itoa_s            000000018004c0bc     libucrtd:xtoa.obj
 0002:000110bc       $unwind$_itow_s            000000018004c0bc     libucrtd:xtoa.obj
 0002:000110bc       $unwind$?heap_alloc_dbg@@YAPEAX_KHQEBDH@Z 000000018004c0bc     libucrtd:debug_heap.obj
 0002:000110bc       $unwind$??R<lambda_f788ae46380686e8b737efdd8c720d07>@@QEBAHIQEB_WQEAD_K@Z 000000018004c0bc     libucrtd:getmodulefilenamea.obj
 0002:000110bc       $unwind$??R<lambda_d8593a27d1aa8c02be35c86a17d324c4>@@QEBAHIQEB_WQEAD_K@Z 000000018004c0bc     libucrtd:argv_wildcards.obj
 0002:000110bc       $unwind$??$type_case_integer_parse_into_buffer@I@?$output_processor@DV?$string_output_adapter@D@__crt_stdio_output@@V?$format_validation_base@DV?$string_output_adapter@D@__crt_stdio_output@@@2@@__crt_stdio_output@@AEAAXII_N@Z 000000018004c0bc     libucrtd:output.obj
 0002:000110bc       $unwind$??$type_case_integer_parse_into_buffer@I@?$output_processor@_WV?$string_output_adapter@_W@__crt_stdio_output@@V?$format_validation_base@_WV?$string_output_adapter@_W@__crt_stdio_output@@@2@@__crt_stdio_output@@AEAAXII_N@Z 000000018004c0bc     libucrtd:output.obj
 0002:000110c4       $unwind$?free_dbg_nolock@@YAXQEAXH@Z 000000018004c0c4     libucrtd:debug_heap.obj
 0002:000110cc       $unwind$?check_block@@YA_NQEAU_CrtMemBlockHeader@@@Z 000000018004c0cc     libucrtd:debug_heap.obj
 0002:000110cc       $unwind$?expand_if_necessary@?$argument_list@D@?A0x5f5c8891@@AEAAHXZ 000000018004c0cc     libucrtd:argv_wildcards.obj
 0002:000110d4       $unwind$?print_block_data@@YAXQEAU__crt_locale_pointers@@QEAU_CrtMemBlockHeader@@@Z 000000018004c0d4     libucrtd:debug_heap.obj
 0002:000110e4       $unwind$?dump_all_object_since_nolock@@YAXQEBU_CrtMemState@@@Z 000000018004c0e4     libucrtd:debug_heap.obj
 0002:000110ec       $unwind$??$common_tcscpy_s@D@@YAHQEAD_KQEBD@Z 000000018004c0ec     libucrtd:strcpy_s.obj
 0002:000110ec       $unwind$??$common_tcscpy_s@_W@@YAHQEA_W_KQEB_W@Z 000000018004c0ec     libucrtd:wcscpy_s.obj
 0002:000110f8       $xdatasym                  000000018004c0f8     libucrtd:strcmp.obj
 0002:00011100       $xdatasym                  000000018004c100     libucrtd:strlen.obj
 0002:00011104       $unwind$??$common_vsprintf@Vformat_validation_base@__crt_stdio_output@@D@@YAH_KQEAD0QEBDQEAU__crt_locale_pointers@@1@Z 000000018004c104     libucrtd:output.obj
 0002:00011104       $unwind$??$common_vsprintf@Vformat_validation_base@__crt_stdio_output@@_W@@YAH_KQEA_W0QEB_WQEAU__crt_locale_pointers@@QEAD@Z 000000018004c104     libucrtd:output.obj
 0002:00011118       $unwind$??$is_wide_character_specifier@_W@__crt_stdio_output@@YA_N_K_WW4length_modifier@0@@Z 000000018004c118     libucrtd:output.obj
 0002:00011118       $unwind$?swap@@YAXPEAD0_K@Z 000000018004c118     libucrtd:qsort.obj
 0002:00011120       $unwind$__acrt_report_runtime_error 000000018004c120     libucrtd:report_runtime_error.obj
 0002:00011120       $unwind$_fclose_nolock     000000018004c120     libucrtd:fclose.obj
 0002:00011120       $unwind$?process@?$output_processor@DV?$string_output_adapter@D@__crt_stdio_output@@V?$format_validation_base@DV?$string_output_adapter@D@__crt_stdio_output@@@2@@__crt_stdio_output@@QEAAHXZ 000000018004c120     libucrtd:output.obj
 0002:00011120       $unwind$?process@?$output_processor@_WV?$string_output_adapter@_W@__crt_stdio_output@@V?$format_validation_base@_WV?$string_output_adapter@_W@__crt_stdio_output@@@2@@__crt_stdio_output@@QEAAHXZ 000000018004c120     libucrtd:output.obj
 0002:00011120       $unwind$?state_case_size@?$output_processor@DV?$string_output_adapter@D@__crt_stdio_output@@V?$format_validation_base@DV?$string_output_adapter@D@__crt_stdio_output@@@2@@__crt_stdio_output@@AEAA_NXZ 000000018004c120     libucrtd:output.obj
 0002:00011120       $unwind$?state_case_size@?$output_processor@_WV?$string_output_adapter@_W@__crt_stdio_output@@V?$format_validation_base@_WV?$string_output_adapter@_W@__crt_stdio_output@@@2@@__crt_stdio_output@@AEAA_NXZ 000000018004c120     libucrtd:output.obj
 0002:00011120       $unwind$?type_case_n@?$output_processor@DV?$string_output_adapter@D@__crt_stdio_output@@V?$format_validation_base@DV?$string_output_adapter@D@__crt_stdio_output@@@2@@__crt_stdio_output@@AEAA_NXZ 000000018004c120     libucrtd:output.obj
 0002:00011120       $unwind$?type_case_n@?$output_processor@_WV?$string_output_adapter@_W@__crt_stdio_output@@V?$format_validation_base@_WV?$string_output_adapter@_W@__crt_stdio_output@@@2@@__crt_stdio_output@@AEAA_NXZ 000000018004c120     libucrtd:output.obj
 0002:00011128       $unwind$?state_case_type@?$output_processor@DV?$string_output_adapter@D@__crt_stdio_output@@V?$format_validation_base@DV?$string_output_adapter@D@__crt_stdio_output@@@2@@__crt_stdio_output@@AEAA_NXZ 000000018004c128     libucrtd:output.obj
 0002:00011130       $unwind$?type_case_a@?$output_processor@DV?$string_output_adapter@D@__crt_stdio_output@@V?$format_validation_base@DV?$string_output_adapter@D@__crt_stdio_output@@@2@@__crt_stdio_output@@AEAA_NXZ 000000018004c130     libucrtd:output.obj
 0002:00011130       $unwind$?type_case_a@?$output_processor@_WV?$string_output_adapter@_W@__crt_stdio_output@@V?$format_validation_base@_WV?$string_output_adapter@_W@__crt_stdio_output@@@2@@__crt_stdio_output@@AEAA_NXZ 000000018004c130     libucrtd:output.obj
 0002:00011138       $unwind$?type_case_integer@?$output_processor@DV?$string_output_adapter@D@__crt_stdio_output@@V?$format_validation_base@DV?$string_output_adapter@D@__crt_stdio_output@@@2@@__crt_stdio_output@@AEAA_NI_N@Z 000000018004c138     libucrtd:output.obj
 0002:00011138       $unwind$?type_case_integer@?$output_processor@_WV?$string_output_adapter@_W@__crt_stdio_output@@V?$format_validation_base@_WV?$string_output_adapter@_W@__crt_stdio_output@@@2@@__crt_stdio_output@@AEAA_NI_N@Z 000000018004c138     libucrtd:output.obj
 0002:00011140       $unwind$?write_stored_string_tchar@?$output_processor@DV?$string_output_adapter@D@__crt_stdio_output@@V?$format_validation_base@DV?$string_output_adapter@D@__crt_stdio_output@@@2@@__crt_stdio_output@@AEAA_ND@Z 000000018004c140     libucrtd:output.obj
 0002:00011150       $unwind$?filter_mbtowcs_flags@@YAKIK@Z 000000018004c150     libucrtd:multibytetowidechar.obj
 0002:00011150       $unwind$?filter_wcstomb_flags@@YAKIK@Z 000000018004c150     libucrtd:widechartomultibyte.obj
 0002:00011150       $unwind$?adjust_hexit@?$output_processor@DV?$string_output_adapter@D@__crt_stdio_output@@V?$format_validation_base@DV?$string_output_adapter@D@__crt_stdio_output@@@2@@__crt_stdio_output@@CADH_N@Z 000000018004c150     libucrtd:output.obj
 0002:00011150       $unwind$?adjust_hexit@?$output_processor@_WV?$string_output_adapter@_W@__crt_stdio_output@@V?$format_validation_base@_WV?$string_output_adapter@_W@__crt_stdio_output@@@2@@__crt_stdio_output@@CADH_N@Z 000000018004c150     libucrtd:output.obj
 0002:00011158       $unwind$?state_case_type@?$output_processor@_WV?$string_output_adapter@_W@__crt_stdio_output@@V?$format_validation_base@_WV?$string_output_adapter@_W@__crt_stdio_output@@@2@@__crt_stdio_output@@AEAA_NXZ 000000018004c158     libucrtd:output.obj
 0002:00011168       $xdatasym                  000000018004c168     libucrtd:strncmp.obj
 0002:0001116c       $unwind$??$common_message_window@D@@YAHHQEAXQEBD111@Z 000000018004c16c     libucrtd:dbgrpt.obj
 0002:00011180       $unwind$??$common_message_window@_W@@YAHHQEAXQEB_W111@Z 000000018004c180     libucrtd:dbgrpt.obj
 0002:00011194       $unwind$_handle_error      000000018004c194     libucrtd:libm_error.obj
 0002:000111a4       $unwind$?internal_get_ptd_head@@YAPEAU__acrt_ptd@@XZ 000000018004c1a4     libucrtd:per_thread_data.obj
 0002:000111a4       $unwind$?__acrt_get_utf8_acp_compatibility_codepage@@YAIXZ 000000018004c1a4     libucrtd:argv_wildcards.obj
 0002:000111ac       $unwind$??$?RV<lambda_0ae27a3a962d80f24befdcbee591983d>@@AEAV<lambda_8d0ee55de4b1038c4002e0adecdf1839>@@V<lambda_dc504788e8f1664fe9b84e20bfb512f2>@@@?$__crt_seh_guarded_call@X@@QEAAX$$QEAV<lambda_0ae27a3a962d80f24befdcbee591983d>@@AEAV<lambda_8d0ee55de4b1038c4002e0adecdf1839>@@$$QEAV<lambda_dc504788e8f1664fe9b84e20bfb512f2>@@@Z 000000018004c1ac     libucrtd:per_thread_data.obj
 0002:000111cc       $unwind$??$?RV<lambda_aa87e3671a710a21b5dc78c0bdf72e11>@@AEAV<lambda_92619d2358a28f41a33ba319515a20b9>@@V<lambda_6992ecaafeb10aed2b74cb1fae11a551>@@@?$__crt_seh_guarded_call@X@@QEAAX$$QEAV<lambda_aa87e3671a710a21b5dc78c0bdf72e11>@@AEAV<lambda_92619d2358a28f41a33ba319515a20b9>@@$$QEAV<lambda_6992ecaafeb10aed2b74cb1fae11a551>@@@Z 000000018004c1cc     libucrtd:per_thread_data.obj
 0002:000111ec       $unwind$??$?RV<lambda_74a0ef281e44d15e1136f792f539efb3>@@AEAV<lambda_e157831efee4ea0afb0a2ace5dd5fd0d>@@V<lambda_04ddeca75b7c13fd67716e8dfcef87ee>@@@?$__crt_seh_guarded_call@X@@QEAAX$$QEAV<lambda_74a0ef281e44d15e1136f792f539efb3>@@AEAV<lambda_e157831efee4ea0afb0a2ace5dd5fd0d>@@$$QEAV<lambda_04ddeca75b7c13fd67716e8dfcef87ee>@@@Z 000000018004c1ec     libucrtd:per_thread_data.obj
 0002:0001120c       $unwind$??$?RV<lambda_2d41944a1d46af3157314b8a01080d33>@@AEAV<lambda_8f455de75cd7d7f24b4096f044d8b9e6>@@V<lambda_aa500f224e6afead328df44964fe2772>@@@?$__crt_seh_guarded_call@X@@QEAAX$$QEAV<lambda_2d41944a1d46af3157314b8a01080d33>@@AEAV<lambda_8f455de75cd7d7f24b4096f044d8b9e6>@@$$QEAV<lambda_aa500f224e6afead328df44964fe2772>@@@Z 000000018004c20c     libucrtd:per_thread_data.obj
 0002:0001122c       $unwind$__acrt_call_reportfault 000000018004c22c     libucrtd:invalid_parameter.obj
 0002:00011240       $unwind$??1?$__crt_win32_buffer@DU__crt_win32_buffer_internal_dynamic_resizing@@@@QEAA@XZ 000000018004c240     libucrtd:argv_wildcards.obj
 0002:00011240       $unwind$??1?$__crt_win32_buffer@_WU__crt_win32_buffer_internal_dynamic_resizing@@@@QEAA@XZ 000000018004c240     libucrtd:argv_wildcards.obj
 0002:00011250       $ip2state$??1?$__crt_win32_buffer@DU__crt_win32_buffer_internal_dynamic_resizing@@@@QEAA@XZ 000000018004c250     libucrtd:argv_wildcards.obj
 0002:00011250       $ip2state$??1?$__crt_win32_buffer@_WU__crt_win32_buffer_internal_dynamic_resizing@@@@QEAA@XZ 000000018004c250     libucrtd:argv_wildcards.obj
 0002:00011258       $unwind$??$__acrt_wcs_to_mbs_cp@U__crt_win32_buffer_no_resizing@@@@YAHQEB_WAEAV?$__crt_win32_buffer@DU__crt_win32_buffer_no_resizing@@@@I@Z 000000018004c258     libucrtd:getmodulefilenamea.obj
 0002:00011258       $unwind$??$__acrt_mbs_to_wcs_cp@U__crt_win32_buffer_internal_dynamic_resizing@@@@YAHQEBDAEAV?$__crt_win32_buffer@_WU__crt_win32_buffer_internal_dynamic_resizing@@@@I@Z 000000018004c258     libucrtd:argv_wildcards.obj
 0002:00011258       $unwind$??$__acrt_wcs_to_mbs_cp@U__crt_win32_buffer_internal_dynamic_resizing@@@@YAHQEB_WAEAV?$__crt_win32_buffer@DU__crt_win32_buffer_internal_dynamic_resizing@@@@I@Z 000000018004c258     libucrtd:argv_wildcards.obj
 0002:00011260       $unwind$??$common_expand_argv_wildcards@D@@YAHQEAPEADQEAPEAPEAD@Z 000000018004c260     libucrtd:argv_wildcards.obj
 0002:00011268       $unwind$??$expand_argument_wildcards@D@@YAHQEAD0AEAV?$argument_list@D@?A0x5f5c8891@@@Z 000000018004c268     libucrtd:argv_wildcards.obj
 0002:0001127c       $unwind$__acrt_GetModuleFileNameA 000000018004c27c     libucrtd:getmodulefilenamea.obj
 0002:0001128c       $unwind$??1?$__crt_win32_buffer@DU__crt_win32_buffer_no_resizing@@@@QEAA@XZ 000000018004c28c     libucrtd:getmodulefilenamea.obj
 0002:000112a0       $ip2state$??1?$__crt_win32_buffer@DU__crt_win32_buffer_no_resizing@@@@QEAA@XZ 000000018004c2a0     libucrtd:getmodulefilenamea.obj
 0002:000112a8       $unwind$_setmbcp_nolock    000000018004c2a8     libucrtd:mbctype.obj
 0002:000112b8       $unwind$?getSystemCP@@YAHH@Z 000000018004c2b8     libucrtd:mbctype.obj
 0002:000112c0       $unwind$?update_thread_multibyte_data_internal@@YAPEAU__crt_multibyte_data@@QEAU__acrt_ptd@@QEAPEAU1@@Z 000000018004c2c0     libucrtd:mbctype.obj
 0002:000112e0       $unwind$?setmbcp_internal@@YAHH_NQEAU__acrt_ptd@@QEAPEAU__crt_multibyte_data@@@Z 000000018004c2e0     libucrtd:mbctype.obj
 0002:000112ec       $unwind$?setSBUpLow@@YAXPEAU__crt_multibyte_data@@@Z 000000018004c2ec     libucrtd:mbctype.obj
 0002:000112fc       $unwind$??$?RV<lambda_efa02eb69bf647d2f7ff0dd6f1103f72>@@AEAV<lambda_bd5a608237428601b7e45fbdc72b1ae8>@@V<lambda_728235dc0fc2b1f82d1fa5b3e7102d8f>@@@?$__crt_seh_guarded_call@X@@QEAAX$$QEAV<lambda_efa02eb69bf647d2f7ff0dd6f1103f72>@@AEAV<lambda_bd5a608237428601b7e45fbdc72b1ae8>@@$$QEAV<lambda_728235dc0fc2b1f82d1fa5b3e7102d8f>@@@Z 000000018004c2fc     libucrtd:mbctype.obj
 0002:0001131c       $unwind$?x_ismbbtype_l@@YAHPEAU__crt_locale_pointers@@IHH@Z 000000018004c31c     libucrtd:ismbbyte.obj
 0002:0001132c       $unwind$__acrt_MultiByteToWideChar 000000018004c32c     libucrtd:multibytetowidechar.obj
 0002:00011334       $unwind$__acrt_WideCharToMultiByte 000000018004c334     libucrtd:widechartomultibyte.obj
 0002:0001133c       $unwind$__dcrt_get_narrow_environment_from_os 000000018004c33c     libucrtd:get_environment_from_os.obj
 0002:00011354       $unwind$__acrt_get_parent_window 000000018004c354     libucrtd:winapi_thunks.obj
 0002:00011354       $unwind$__acrt_initialize_winapi_thunks 000000018004c354     libucrtd:winapi_thunks.obj
 0002:00011354       $unwind$__acrt_initialize_stdio 000000018004c354     libucrtd:_file.obj
 0002:0001135c       $unwind$__acrt_fltout      000000018004c35c     libucrtd:cfout.obj
 0002:0001135c       $unwind$??$common_xtox@KD@@YAHKQEAD_KI_N@Z 000000018004c35c     libucrtd:xtoa.obj
 0002:0001135c       $unwind$??$common_xtox@K_W@@YAHKQEA_W_KI_N@Z 000000018004c35c     libucrtd:xtoa.obj
 0002:0001135c       $unwind$__acrt_LCMapStringEx 000000018004c35c     libucrtd:winapi_thunks.obj
 0002:00011364       $unwind$__acrt_is_interactive 000000018004c364     libucrtd:winapi_thunks.obj
 0002:00011374       $unwind$__acrt_initialize_lowio 000000018004c374     libucrtd:ioinit.obj
 0002:00011394       $unwind$?initialize_inherited_file_handles_nolock@@YAXXZ 000000018004c394     libucrtd:ioinit.obj
 0002:0001139c       $unwind$_query_new_handler 000000018004c39c     libucrtd:new_handler.obj
 0002:000113bc       $unwind$__acrt_uninitialize_locale 000000018004c3bc     libucrtd:wsetlocale.obj
 0002:000113bc       $unwind$__acrt_get_sigabrt_handler 000000018004c3bc     libucrtd:signal.obj
 0002:000113c4       $unwind$raise              000000018004c3c4     libucrtd:signal.obj
 0002:000113e4       $unwind$??$?RV<lambda_450d765d439847d4c735a33c368b5fc0>@@AEAV<lambda_44731a7d0e6d81c3e6aa82d741081786>@@V<lambda_601a2a7da3b7a96e9554ac7215c4b07c>@@@?$__crt_seh_guarded_call@P6AXH@Z@@QEAAP6AXH@Z$$QEAV<lambda_450d765d439847d4c735a33c368b5fc0>@@AEAV<lambda_44731a7d0e6d81c3e6aa82d741081786>@@$$QEAV<lambda_601a2a7da3b7a96e9554ac7215c4b07c>@@@Z 000000018004c3e4     libucrtd:signal.obj
 0002:00011404       $unwind$_isctype_l         000000018004c404     libucrtd:isctype.obj
 0002:00011418       $unwind$_chvalidator_l     000000018004c418     libucrtd:isctype.obj
 0002:00011420       $unwind$_expand_base       000000018004c420     libucrtd:expand.obj
 0002:00011428       $unwind$?return_illegal_sequence@__crt_mbstring@@YA_KPEAU_Mbstatet@@@Z 000000018004c428     libucrtd:c32rtomb.obj
 0002:00011428       $unwind$??R<lambda_3e16ef9562a7dcce91392c22ab16ea36>@@QEBA@XZ 000000018004c428     libucrtd:wsetlocale.obj
 0002:00011428       $unwind$fesetenv           000000018004c428     libucrtd:fesetenv.obj
 0002:00011430       $unwind$??$?RV<lambda_410d79af7f07d98d83a3f525b3859a53>@@AEAV<lambda_3e16ef9562a7dcce91392c22ab16ea36>@@V<lambda_38119f0e861e05405d8a144b9b982f0a>@@@?$__crt_seh_guarded_call@X@@QEAAX$$QEAV<lambda_410d79af7f07d98d83a3f525b3859a53>@@AEAV<lambda_3e16ef9562a7dcce91392c22ab16ea36>@@$$QEAV<lambda_38119f0e861e05405d8a144b9b982f0a>@@@Z 000000018004c430     libucrtd:wsetlocale.obj
 0002:00011450       $unwind$?write_string_to_console@@YAXQEB_W@Z 000000018004c450     libucrtd:report_runtime_error.obj
 0002:00011460       $unwind$?fp_format_g@@YAHQEBNQEAD_K12H_NIQEAU__crt_locale_pointers@@@Z 000000018004c460     libucrtd:cvt.obj
 0002:00011460       $unwind$_mbtowc_l          000000018004c460     libucrtd:mbtowc.obj
 0002:0001146c       $unwind$wctomb_s           000000018004c46c     libucrtd:wctomb.obj
 0002:00011474       $unwind$_wctomb_s_l        000000018004c474     libucrtd:wctomb.obj
 0002:00011480       $unwind$?get_zero_pack@?$__crt_simd_pack_traits@$00@@SA?AT__m256i@@XZ 000000018004c480     libucrtd:strnlen.obj
 0002:00011488       $unwind$?compare_equals@?$__crt_simd_traits@$00E@@SA?AT__m256i@@T2@0@Z 000000018004c488     libucrtd:strnlen.obj
 0002:00011488       $unwind$?compare_equals@?$__crt_simd_traits@$00G@@SA?AT__m256i@@T2@0@Z 000000018004c488     libucrtd:strnlen.obj
 0002:00011490       $unwind$??$common_strnlen_simd@$00$00G@@YA_KQEBG_K@Z 000000018004c490     libucrtd:strnlen.obj
 0002:00011490       $unwind$??$common_strnlen_simd@$0A@$00E@@YA_KQEBE_K@Z 000000018004c490     libucrtd:strnlen.obj
 0002:00011490       $unwind$??$common_strnlen_simd@$0A@$00G@@YA_KQEBG_K@Z 000000018004c490     libucrtd:strnlen.obj
 0002:0001149c       $unwind$??$common_strnlen_simd@$00$0A@G@@YA_KQEBG_K@Z 000000018004c49c     libucrtd:strnlen.obj
 0002:0001149c       $unwind$??$common_strnlen_simd@$0A@$0A@E@@YA_KQEBE_K@Z 000000018004c49c     libucrtd:strnlen.obj
 0002:0001149c       $unwind$??$common_strnlen_simd@$0A@$0A@G@@YA_KQEBG_K@Z 000000018004c49c     libucrtd:strnlen.obj
 0002:000114a4       $unwind$?fp_format_nan_or_infinity@@YAHW4__acrt_fp_class@@_NPEAD_K1@Z 000000018004c4a4     libucrtd:cvt.obj
 0002:000114ac       $unwind$?fp_format_a@@YAHQEBNPEAD_KQEAD2H_NIQEAU__crt_locale_pointers@@@Z 000000018004c4ac     libucrtd:cvt.obj
 0002:000114bc       $stateUnwindMap$?fp_format_a@@YAHQEBNPEAD_KQEAD2H_NIQEAU__crt_locale_pointers@@@Z 000000018004c4bc     libucrtd:cvt.obj
 0002:000114d0       $ip2state$?fp_format_a@@YAHQEBNPEAD_KQEAD2H_NIQEAU__crt_locale_pointers@@@Z 000000018004c4d0     libucrtd:cvt.obj
 0002:00011518       $unwind$?fp_format_f@@YAHQEBNQEAD_K12HQEAU__crt_locale_pointers@@@Z 000000018004c518     libucrtd:cvt.obj
 0002:00011520       $unwind$_VCrtDbgReportA    000000018004c520     libucrtd:dbgrptt.obj
 0002:00011558       $unwind$_VCrtDbgReportW    000000018004c558     libucrtd:dbgrptt.obj
 0002:00011590       $unwind$_ctrlfp            000000018004c590     libucrtd:fpctrl.obj
 0002:000115b0       $unwind$__acrt_update_thread_locale_data 000000018004c5b0     libucrtd:locale_refcounting.obj
 0002:000115d0       $unwind$qsort              000000018004c5d0     libucrtd:qsort.obj
 0002:000115e0       $unwind$?shortsort@@YAXPEAD0_KP6AHPEBX2@Z@Z 000000018004c5e0     libucrtd:qsort.obj
 0002:000115f0       $stateUnwindMap$?shortsort@@YAXPEAD0_KP6AHPEBX2@Z@Z 000000018004c5f0     libucrtd:qsort.obj
 0002:000115f8       $ip2state$?shortsort@@YAXPEAD0_KP6AHPEBX2@Z@Z 000000018004c5f8     libucrtd:qsort.obj
 0002:00011610       $unwind$??$common_tcsncpy_s@D@@YAHQEAD_KQEBD1@Z 000000018004c610     libucrtd:strncpy_s.obj
 0002:00011610       $unwind$??$common_tcsncpy_s@_W@@YAHQEA_W_KQEB_W1@Z 000000018004c610     libucrtd:wcsncpy_s.obj
 0002:00011618       $unwind$strpbrk            000000018004c618     libucrtd:strpbrk.obj
 0002:00011620       $unwind$fallbackMethod     000000018004c620     libucrtd:strpbrk.obj
 0002:00011630       $unwind$_mbsdec_l          000000018004c630     libucrtd:mbsdec.obj
 0002:0001163c       $unwind$__acrt_GetStringTypeA 000000018004c63c     libucrtd:getstringtypea.obj
 0002:00011644       $unwind$__acrt_LCMapStringA 000000018004c644     libucrtd:lcmapstringa.obj
 0002:0001164c       $unwind$_mbstowcs_s_l      000000018004c64c     libucrtd:mbstowcs.obj
 0002:0001164c       $unwind$?__acrt_LCMapStringA_stat@@YAHPEAU__crt_locale_pointers@@PEB_WKPEBDHPEADHHH@Z 000000018004c64c     libucrtd:lcmapstringa.obj
 0002:00011654       $unwind$__acrt_lowio_create_handle_array 000000018004c654     libucrtd:osfinfo.obj
 0002:0001165c       $unwind$__acrt_lowio_ensure_fh_exists 000000018004c65c     libucrtd:osfinfo.obj
 0002:0001167c       $unwind$??R<lambda_ab61a845afdef5b7c387490eaf3616ee>@@QEBA@XZ 000000018004c67c     libucrtd:fflush.obj
 0002:00011684       $unwind$??$?RV<lambda_842d9ff0dc9ef11c61343bbaebe7f885>@@AEAV<lambda_c5860995281e5c4ce005b3de8f5874ee>@@V<lambda_d90129c13df834fdcbf8d2b88dafcf2d>@@@?$__crt_seh_guarded_call@X@@QEAAX$$QEAV<lambda_842d9ff0dc9ef11c61343bbaebe7f885>@@AEAV<lambda_c5860995281e5c4ce005b3de8f5874ee>@@$$QEAV<lambda_d90129c13df834fdcbf8d2b88dafcf2d>@@@Z 000000018004c684     libucrtd:fflush.obj
 0002:000116a4       $unwind$??$?RV<lambda_886d6c58226a84441f68b9f2b8217b83>@@AEAV<lambda_ab61a845afdef5b7c387490eaf3616ee>@@V<lambda_f7f22ab5edc0698d5f6905b0d3f44752>@@@?$__crt_seh_guarded_call@X@@QEAAX$$QEAV<lambda_886d6c58226a84441f68b9f2b8217b83>@@AEAV<lambda_ab61a845afdef5b7c387490eaf3616ee>@@$$QEAV<lambda_f7f22ab5edc0698d5f6905b0d3f44752>@@@Z 000000018004c6a4     libucrtd:fflush.obj
 0002:000116c4       $unwind$??$common_tcscat_s@D@@YAHQEAD_KQEBD@Z 000000018004c6c4     libucrtd:strcat_s.obj
 0002:000116c4       $unwind$??$common_tcscat_s@_W@@YAHQEA_W_KQEB_W@Z 000000018004c6c4     libucrtd:wcscat_s.obj
 0002:000116cc       $unwind$_isleadbyte_l      000000018004c6cc     libucrtd:_wctype.obj
 0002:000116d4       $unwind$?__mbsrtowcs_utf8@__crt_mbstring@@YA_KPEA_WPEAPEBD_KPEAU_Mbstatet@@@Z 000000018004c6d4     libucrtd:mbrtowc.obj
 0002:000116dc       $unwind$?__c32rtomb_utf8@__crt_mbstring@@YA_KPEAD_UPEAU_Mbstatet@@@Z 000000018004c6dc     libucrtd:c32rtomb.obj
 0002:000116e4       $unwind$?reset_and_return@__crt_mbstring@@YA_K_KPEAU_Mbstatet@@@Z 000000018004c6e4     libucrtd:c32rtomb.obj
 0002:000116ec       $unwind$?make_big_integer@__crt_strtox@@YA?AUbig_integer@1@_K@Z 000000018004c6ec     libucrtd:cfout.obj
 0002:000116fc       $unwind$?make_big_integer_power_of_two@__crt_strtox@@YA?AUbig_integer@1@I@Z 000000018004c6fc     libucrtd:cfout.obj
 0002:0001170c       $unwind$?shift_left@__crt_strtox@@YA_NAEAUbig_integer@1@I@Z 000000018004c70c     libucrtd:cfout.obj
 0002:0001171c       $unwind$?add_multiply_carry@__crt_strtox@@YAIAEAIIII@Z 000000018004c71c     libucrtd:cfout.obj
 0002:00011724       $unwind$?multiply@__crt_strtox@@YA_NAEAUbig_integer@1@I@Z 000000018004c724     libucrtd:cfout.obj
 0002:00011734       $unwind$?multiply@__crt_strtox@@YA_NAEAUbig_integer@1@AEBU21@@Z 000000018004c734     libucrtd:cfout.obj
 0002:00011744       $unwind$?multiply_by_power_of_ten@__crt_strtox@@YA_NAEAUbig_integer@1@I@Z 000000018004c744     libucrtd:cfout.obj
 0002:00011754       $unwind$?divide@__crt_strtox@@YA_KAEAUbig_integer@1@AEBU21@@Z 000000018004c754     libucrtd:cfout.obj
 0002:00011764       $unwind$??$convert_to_fos_high_precision@N@@YAXNIQEAHQEAD_K@Z 000000018004c764     libucrtd:cfout.obj
 0002:00011774       $unwind$_fcloseall         000000018004c774     libucrtd:closeall.obj
 0002:00011794       $unwind$??$common_xtox_s@KD@@YAHKQEAD_KI_N@Z 000000018004c794     libucrtd:xtoa.obj
 0002:00011794       $unwind$??$common_xtox_s@K_W@@YAHKQEA_W_KI_N@Z 000000018004c794     libucrtd:xtoa.obj
 0002:0001179c       $unwind$?_mbstowcs_l_helper@@YA_KPEA_WPEBD_KPEAU__crt_locale_pointers@@@Z 000000018004c79c     libucrtd:mbstowcs.obj
 0002:000117a8       $unwind$?_wcstombs_l_helper@@YA_KPEADPEB_W_KPEAU__crt_locale_pointers@@@Z 000000018004c7a8     libucrtd:wcstombs.obj
 0002:000117c0       $stateUnwindMap$?_wcstombs_l_helper@@YA_KPEADPEB_W_KPEAU__crt_locale_pointers@@@Z 000000018004c7c0     libucrtd:wcstombs.obj
 0002:000117d0       $ip2state$?_wcstombs_l_helper@@YA_KPEADPEB_W_KPEAU__crt_locale_pointers@@@Z 000000018004c7d0     libucrtd:wcstombs.obj
 0002:000118e8       $unwind$__acrt_OutputDebugStringA 000000018004c8e8     libucrtd:outputdebugstringa.obj
 0002:00011900       $xdatasym                  000000018004c900     libucrtd:fpsr.obj
 0002:00011908       $unwind$??$?RV<lambda_4e3dbe6921bc0b5a1a6bc6573fdc859e>@@AEAV<lambda_5533cddd4bda0037814beee657757329>@@V<lambda_47cffbaa968af5c721c38a4a6f8da44d>@@@?$__crt_seh_guarded_call@H@@QEAAH$$QEAV<lambda_4e3dbe6921bc0b5a1a6bc6573fdc859e>@@AEAV<lambda_5533cddd4bda0037814beee657757329>@@$$QEAV<lambda_47cffbaa968af5c721c38a4a6f8da44d>@@@Z 000000018004c908     libucrtd:commit.obj
 0002:00011928       $unwind$_write             000000018004c928     libucrtd:write.obj
 0002:00011948       $unwind$_write_nolock      000000018004c948     libucrtd:write.obj
 0002:0001195c       $unwind$?write_double_translated_ansi_nolock@@YA?AUwrite_result@?A0x17268360@@HQEBDI@Z 000000018004c95c     libucrtd:write.obj
 0002:00011970       $unwind$?write_text_ansi_nolock@@YA?AUwrite_result@?A0x17268360@@HQEBDI@Z 000000018004c970     libucrtd:write.obj
 0002:00011970       $unwind$?write_text_utf16le_nolock@@YA?AUwrite_result@?A0x17268360@@HQEBDI@Z 000000018004c970     libucrtd:write.obj
 0002:00011984       $unwind$?write_text_utf8_nolock@@YA?AUwrite_result@?A0x17268360@@HQEBDI@Z 000000018004c984     libucrtd:write.obj
 0002:00011998       $unwind$?write_binary_nolock@@YA?AUwrite_result@?A0x17268360@@HQEBDI@Z 000000018004c998     libucrtd:write.obj
 0002:000119ac       $unwind$?__mbrtoc32_utf8@__crt_mbstring@@YA_KPEA_UPEBD_KPEAU_Mbstatet@@@Z 000000018004c9ac     libucrtd:mbrtoc32.obj
 0002:000119c0       $xdatasym                  000000018004c9c0     libucrtd:log10.obj
 0002:000119cc       $unwind$ceil               000000018004c9cc     libucrtd:ceil.obj
 0002:000119d4       $unwind$fclose             000000018004c9d4     libucrtd:fclose.obj
 0002:000119f4       $unwind$?__wcsrtombs_utf8@__crt_mbstring@@YA_KPEADPEAPEB_W_KPEAU_Mbstatet@@@Z 000000018004c9f4     libucrtd:wcrtomb.obj
 0002:00011a04       $unwind$__acrt_initialize_fma3 000000018004ca04     libucrtd:fma3_available.obj
 0002:00011a14       $unwind$_log_special_common 000000018004ca14     libucrtd:log_special.obj
 0002:00011a24       $unwind$_log10_special     000000018004ca24     libucrtd:log_special.obj
 0002:00011a2c       $unwind$??$?RV<lambda_53fc7fc888e23d815d7080162c0aeeb2>@@AEAV<lambda_4e7105787b7b0e0227fbf2b2d883fa65>@@V<lambda_8ddc48ad9d26c778cb15812d1d88fc8a>@@@?$__crt_seh_guarded_call@H@@QEAAH$$QEAV<lambda_53fc7fc888e23d815d7080162c0aeeb2>@@AEAV<lambda_4e7105787b7b0e0227fbf2b2d883fa65>@@$$QEAV<lambda_8ddc48ad9d26c778cb15812d1d88fc8a>@@@Z 000000018004ca2c     libucrtd:close.obj
 0002:00011a4c       $unwind$?__c16rtomb_utf8@__crt_mbstring@@YA_KPEAD_SPEAU_Mbstatet@@@Z 000000018004ca4c     libucrtd:c16rtomb.obj
 0002:00011a54       $unwind$__dcrt_lowio_ensure_console_output_initialized 000000018004ca54     libucrtd:initcon.obj
 0002:00011a5c       $unwind$__dcrt_write_console 000000018004ca5c     libucrtd:initcon.obj
 0002:00011a70       $unwind$_IsNonwritableInCurrentImage 000000018004ca70     LIBCMTD:pesect.obj
 0002:00011a90       $xdatasym                  000000018004ca90     LIBCMTD:chkstk.obj
 0002:00011a98       $xdatasym                  000000018004ca98     libvcruntimed:memcmp.obj
 0002:00011a9c       $unwind$strrchr            000000018004ca9c     libvcruntimed:strrchr.obj
 0002:00011b30       .edata                     000000018004cb30     handmade.exp
 0002:00011b58       rgpv                       000000018004cb58     handmade.exp
 0002:00011b60       rgszName                   000000018004cb60     handmade.exp
 0002:00011b68       rgwOrd                     000000018004cb68     handmade.exp
 0002:00011b6c       szName                     000000018004cb6c     handmade.exp
 0002:00011b79       $N00001                    000000018004cb79     handmade.exp
 0002:00011b8d       $N00002                    000000018004cb8d     handmade.exp
 0002:00011f88       .idata$6                   000000018004cf88     kernel32:KERNEL32.dll
 0003:00000030       ?__vcrt_flsindex@@3KA      000000018004e030     libvcruntimed:per_thread_data.obj
 0003:00000040       ?__acrt_current_request_number@@3JA 000000018004e040     libucrtd:debug_heap.obj
 0003:00000060       ?__acrt_flsindex@@3KA      000000018004e060     libucrtd:per_thread_data.obj
 0003:00000064       ?errno_no_memory@@3HA      000000018004e064     libucrtd:errno.obj
 0003:00000068       ?doserrno_no_memory@@3KA   000000018004e068     libucrtd:errno.obj
 0003:000002a0       _mbctypes                  000000018004e2a0     libucrtd:mbctype.obj
 0003:000003b0       _mbcasemaps                000000018004e3b0     libucrtd:mbctype.obj
 0003:000004b0       ?__rgctypeflag@@3PADA      000000018004e4b0     libucrtd:mbctype.obj
 0003:000004c0       ?__rgcode_page_info@@3PAUcode_page_info@@A 000000018004e4c0     libucrtd:mbctype.obj
 0003:00000728       ?__acrt_debug_fill_threshold@@3_KA 000000018004e728     libucrtd:debug_fill_threshold.obj
 0003:00000868       ?dazSupported@?1??_ctrlfp@@9@9 000000018004e868     libucrtd:fpctrl.obj
 0003:00000a20       ?__dcrt_lowio_console_output_handle@@3PEAXEA 000000018004ea20     libucrtd:initcon.obj
 0003:00000aa0       ?__proc_attached@@3HA      000000018004eaa0     LIBCMTD:dll_dllmain.obj
 0003:00000ab0       GS_ExceptionRecord         000000018004eab0     LIBCMTD:gs_report.obj
 0003:00000b50       GS_ContextRecord           000000018004eb50     LIBCMTD:gs_report.obj
 0003:00001050       ?is_initialized_as_dll@@3_NA 000000018004f050     LIBCMTD:utility.obj
 0003:00001051       ?module_local_atexit_table_initialized@@3_NA 000000018004f051     LIBCMTD:utility.obj
 0003:00001058       ?module_local_atexit_table@@3U_onexit_table_t@@A 000000018004f058     LIBCMTD:utility.obj
 0003:00001070       ?module_local_at_quick_exit_table@@3U_onexit_table_t@@A 000000018004f070     LIBCMTD:utility.obj
 0003:000010d8       ?heap@@3V_HeapManager@@A   000000018004f0d8     libvcruntimed:undname.obj
 0003:00001100       ?__vcrt_startup_thread_ptd@@3U__vcrt_ptd@@A 000000018004f100     libvcruntimed:per_thread_data.obj
 0003:00001180       __vcrt_lock_table          000000018004f180     libvcruntimed:locks.obj
 0003:000011a8       __vcrt_locks_initialized   000000018004f1a8     libvcruntimed:locks.obj
 0003:000011b0       ?module_handles@@3PAPEAUHINSTANCE__@@A 000000018004f1b0     libvcruntimed:winapi_downlevel.obj
 0003:000011c8       ?function_pointers@@3PAPEAXA 000000018004f1c8     libvcruntimed:winapi_downlevel.obj
 0003:000011f8       ?c_termination_complete@@3JA 000000018004f1f8     libucrtd:exit.obj
 0003:00001200       ?thread_local_exit_callback_func@@3P6AXPEAXK0@ZEA 000000018004f200     libucrtd:exit.obj
 0003:00001210       ?program_name@?1???$common_configure_argv@D@@YAHW4_crt_argv_mode@@@Z@4PADA 000000018004f210     libucrtd:argv_parsing.obj
 0003:00001368       ?__acrt_first_block@@3PEAU_CrtMemBlockHeader@@EA 000000018004f368     libucrtd:debug_heap.obj
 0003:00001370       ?__acrt_last_block@@3PEAU_CrtMemBlockHeader@@EA 000000018004f370     libucrtd:debug_heap.obj
 0003:00001378       ?__acrt_total_allocations@@3_KA 000000018004f378     libucrtd:debug_heap.obj
 0003:00001380       ?__acrt_current_allocations@@3_KA 000000018004f380     libucrtd:debug_heap.obj
 0003:00001388       ?__acrt_max_allocations@@3_KA 000000018004f388     libucrtd:debug_heap.obj
 0003:00001390       ?__acrt_check_frequency@@3IA 000000018004f390     libucrtd:debug_heap.obj
 0003:00001394       ?__acrt_check_counter@@3IA 000000018004f394     libucrtd:debug_heap.obj
 0003:000013a0       ?heap_validation_pending@@3_NA 000000018004f3a0     libucrtd:debug_heap.obj
 0003:000013b0       ?__acrt_lock_table@@3PAU_RTL_CRITICAL_SECTION@@A 000000018004f3b0     libucrtd:locks.obj
 0003:000015e0       ?__acrt_locks_initialized@@3IA 000000018004f5e0     libucrtd:locks.obj
 0003:000015e4       ?state_cache@?1???$get_cached_win_policy@Udeveloper_information_policy_properties@?1??__acrt_get_developer_information_policy@@YA?AW4developer_information_policy@@XZ@@@YA?AW4developer_information_policy@@W4AppPolicyShowDeveloperDiagnostic@@@Z@4JA 000000018004f5e4     libucrtd:win_policies.obj
 0003:000015e8       ?state_cache@?1???$get_cached_win_policy@Uwindowing_model_policy_properties@?1??__acrt_get_windowing_model_policy@@YA?AW4windowing_model_policy@@XZ@@@YA?AW4windowing_model_policy@@W4AppPolicyWindowingModel@@@Z@4JA 000000018004f5e8     libucrtd:win_policies.obj
 0003:000015f0       ?__acrt_invalid_parameter_handler@@3V?$dual_state_global@P6AXPEB_W00I_K@Z@__crt_state_management@@A 000000018004f5f0     libucrtd:invalid_parameter.obj
 0003:00001610       ?fSystemSet@@3HA           000000018004f610     libucrtd:mbctype.obj
 0003:00001614       ?initialized@?1??__acrt_initialize_multibyte@@9@4_NA 000000018004f614     libucrtd:mbctype.obj
 0003:00001650       ?module_handles@@3PAPEAUHINSTANCE__@@A 000000018004f650     libucrtd:winapi_thunks.obj
 0003:000016f0       ?encoded_function_pointers@@3PAPEAXA 000000018004f6f0     libucrtd:winapi_thunks.obj
 0003:00001c18       ?__acrt_new_handler@@3V?$dual_state_global@P6AH_K@Z@__crt_state_management@@A 000000018004fc18     libucrtd:new_handler.obj
 0003:00001c20       ?ctrlc_action@@3V?$dual_state_global@P6AXH@Z@__crt_state_management@@A 000000018004fc20     libucrtd:signal.obj
 0003:00001c28       ?ctrlbreak_action@@3V?$dual_state_global@P6AXH@Z@__crt_state_management@@A 000000018004fc28     libucrtd:signal.obj
 0003:00001c30       ?abort_action@@3V?$dual_state_global@P6AXH@Z@__crt_state_management@@A 000000018004fc30     libucrtd:signal.obj
 0003:00001c38       ?term_action@@3V?$dual_state_global@P6AXH@Z@__crt_state_management@@A 000000018004fc38     libucrtd:signal.obj
 0003:00001c40       ?user_matherr@@3V?$dual_state_global@P6AHPEAU_exception@@@Z@__crt_state_management@@A 000000018004fc40     libucrtd:matherr.obj
 0003:00001c60       ?__acrt_global_new_mode@@3V?$dual_state_global@J@__crt_state_management@@A 000000018004fc60     libucrtd:new_mode.obj
 0003:00001c68       ?__acrt_app_type@@3W4_crt_app_type@@A 000000018004fc68     libucrtd:report_runtime_error.obj
 0003:00001c70       ?outmsg@?9??__acrt_report_runtime_error@@9@4PA_WA 000000018004fc70     libucrtd:report_runtime_error.obj
 0003:00002298       ?internal_state@?1??_mbtowc_l@@9@4U_Mbstatet@@A 0000000180050298     libucrtd:mbtowc.obj
 0003:000022b0       ?enable_percent_n@@3_KA    00000001800502b0     libucrtd:printf_count_output.obj
 0003:000022d8       __acrt_error_mode          00000001800502d8     libucrtd:set_error_mode.obj
 0003:000022e0       ?internal_pst@?1??__mbrtoc32_utf8@__crt_mbstring@@YA_KPEA_UPEBD_KPEAU_Mbstatet@@@Z@4U3@A 00000001800502e0     libucrtd:mbrtoc32.obj
 0003:000022f0       ?internal_pst@?1??__c16rtomb_utf8@__crt_mbstring@@YA_KPEAD_SPEAU_Mbstatet@@@Z@4U3@A 00000001800502f0     libucrtd:c16rtomb.obj
 0004:00000000       $pdata$?GetController@@YAPEAUgame_controller_input@@PEAUgame_input@@H@Z 0000000180051000     handmade.obj
 0004:0000000c       $pdata$?RoundReal32ToInt32@@YAHM@Z 000000018005100c     handmade.obj
 0004:00000018       $pdata$?RoundReal32ToUInt32@@YAIM@Z 0000000180051018     handmade.obj
 0004:00000024       $pdata$?FloorReal32ToInt32@@YAHM@Z 0000000180051024     handmade.obj
 0004:00000030       $pdata$?GameOutputSound@@YAXPEAUthread_context@@PEAUgame_state@@PEAUgame_sound_output_buffer@@H@Z 0000000180051030     handmade.obj
 0004:0000003c       $pdata$?DrawRectangle@@YAXPEAUgame_offscreen_buffer@@MMMMMMM@Z 000000018005103c     handmade.obj
 0004:00000048       $pdata$?IsWorldPointEmpty@@YAHPEAUworld@@Ucanonical_position@@@Z 0000000180051048     handmade.obj
 0004:00000054       $pdata$GameUpdateAndRender 0000000180051054     handmade.obj
 0004:00000060       $pdata$GameGetSoundSamples 0000000180051060     handmade.obj
 0004:0000006c       $pdata$?GetTileMap@@YAPEAUtile_map@@PEAUworld@@HH@Z 000000018005106c     handmade.obj
 0004:00000078       $pdata$?GetTileValueUnchecked@@YAIPEAUworld@@PEAUtile_map@@HH@Z 0000000180051078     handmade.obj
 0004:00000084       $pdata$?IsTileMapPointEmpty@@YAHPEAUworld@@PEAUtile_map@@HH@Z 0000000180051084     handmade.obj
 0004:00000090       $pdata$?RecanonicalizeCoord@@YAXPEAUworld@@HPEAH1PEAM@Z 0000000180051090     handmade.obj
 0004:0000009c       $pdata$?RecanonicalizePosition@@YA?AUcanonical_position@@PEAUworld@@U1@@Z 000000018005109c     handmade.obj
 0004:000000a8       $pdata$__GSHandlerCheckCommon 00000001800510a8     LIBCMTD:gshandler.obj
 0004:000000b4       $pdata$__GSHandlerCheck    00000001800510b4     LIBCMTD:gshandler.obj
 0004:000000cc       $pdata$?dllmain_crt_process_attach@@YAHQEAUHINSTANCE__@@QEAX@Z 00000001800510cc     LIBCMTD:dll_dllmain.obj
 0004:000000d8       $pdata$?fin$0@?0??dllmain_crt_process_attach@@YAHQEAUHINSTANCE__@@QEAX@Z@4HA 00000001800510d8     LIBCMTD:dll_dllmain.obj
 0004:000000e4       $pdata$?dllmain_crt_process_detach@@YAH_N@Z 00000001800510e4     LIBCMTD:dll_dllmain.obj
 0004:000000f0       $pdata$?fin$0@?0??dllmain_crt_process_detach@@YAH_N@Z@4HA 00000001800510f0     LIBCMTD:dll_dllmain.obj
 0004:000000fc       $pdata$?fin$1@?0??dllmain_crt_process_detach@@YAH_N@Z@4HA 00000001800510fc     LIBCMTD:dll_dllmain.obj
 0004:00000108       $pdata$?dllmain_crt_dispatch@@YAHQEAUHINSTANCE__@@KQEAX@Z 0000000180051108     LIBCMTD:dll_dllmain.obj
 0004:00000114       $pdata$?dllmain_raw@@YAHQEAUHINSTANCE__@@KQEAX@Z 0000000180051114     LIBCMTD:dll_dllmain.obj
 0004:00000120       $pdata$?dllmain_dispatch@@YAHQEAUHINSTANCE__@@KQEAX@Z 0000000180051120     LIBCMTD:dll_dllmain.obj
 0004:0000012c       $pdata$?filt$0@?0??dllmain_dispatch@@YAHQEAUHINSTANCE__@@KQEAX@Z@4HA 000000018005112c     LIBCMTD:dll_dllmain.obj
 0004:00000138       $pdata$_DllMainCRTStartup  0000000180051138     LIBCMTD:dll_dllmain.obj
 0004:00000144       $pdata$__report_securityfailure 0000000180051144     LIBCMTD:gs_report.obj
 0004:00000150       $pdata$__report_rangecheckfailure 0000000180051150     LIBCMTD:gs_report.obj
 0004:0000015c       $pdata$__report_gsfailure  000000018005115c     LIBCMTD:gs_report.obj
 0004:00000168       $pdata$capture_current_context 0000000180051168     LIBCMTD:gs_report.obj
 0004:00000168       $pdata$?capture_current_context@@YAXQEAU_CONTEXT@@@Z 0000000180051168     libucrtd:invalid_parameter.obj
 0004:00000174       $pdata$capture_previous_context 0000000180051174     LIBCMTD:gs_report.obj
 0004:00000180       $pdata$__raise_securityfailure 0000000180051180     LIBCMTD:gs_report.obj
 0004:0000018c       $pdata$__security_init_cookie 000000018005118c     LIBCMTD:gs_support.obj
 0004:00000198       $pdata$__get_entropy       0000000180051198     LIBCMTD:gs_support.obj
 0004:000001a4       $pdata$?__scrt_initialize_type_info@@YAXXZ 00000001800511a4     LIBCMTD:tncleanup.obj
 0004:000001b0       $pdata$?__scrt_uninitialize_type_info@@YAXXZ 00000001800511b0     LIBCMTD:tncleanup.obj
 0004:000001bc       $pdata$__scrt_initialize_default_local_stdio_options 00000001800511bc     LIBCMTD:default_local_stdio_options.obj
 0004:000001c8       $pdata$__scrt_is_nonwritable_in_current_image 00000001800511c8     LIBCMTD:utility.obj
 0004:000001d4       $pdata$__scrt_is_nonwritable_in_current_image$filt$0 00000001800511d4     LIBCMTD:utility.obj
 0004:000001e0       $pdata$__scrt_acquire_startup_lock 00000001800511e0     LIBCMTD:utility.obj
 0004:000001ec       $pdata$__scrt_release_startup_lock 00000001800511ec     LIBCMTD:utility.obj
 0004:000001f8       $pdata$__scrt_initialize_crt 00000001800511f8     LIBCMTD:utility.obj
 0004:00000204       $pdata$__scrt_uninitialize_crt 0000000180051204     LIBCMTD:utility.obj
 0004:00000210       $pdata$__scrt_initialize_onexit_tables 0000000180051210     LIBCMTD:utility.obj
 0004:0000021c       $pdata$__scrt_dllmain_exception_filter 000000018005121c     LIBCMTD:utility.obj
 0004:00000228       $pdata$__scrt_dllmain_before_initialize_c 0000000180051228     LIBCMTD:utility.obj
 0004:00000234       $pdata$__scrt_dllmain_after_initialize_c 0000000180051234     LIBCMTD:utility.obj
 0004:00000240       $pdata$__scrt_dllmain_uninitialize_c 0000000180051240     LIBCMTD:utility.obj
 0004:0000024c       $pdata$__scrt_dllmain_uninitialize_critical 000000018005124c     LIBCMTD:utility.obj
 0004:00000258       $pdata$__scrt_dllmain_crt_thread_attach 0000000180051258     LIBCMTD:utility.obj
 0004:00000264       $pdata$__scrt_dllmain_crt_thread_detach 0000000180051264     LIBCMTD:utility.obj
 0004:00000270       $pdata$?configure_argv@__scrt_narrow_argv_policy@@SAHXZ 0000000180051270     LIBCMTD:utility.obj
 0004:0000027c       $pdata$?initialize_environment@__scrt_narrow_environment_policy@@SAHXZ 000000018005127c     LIBCMTD:utility.obj
 0004:00000288       $pdata$?is_potentially_valid_image_base@@YA_NQEAX@Z 0000000180051288     LIBCMTD:utility.obj
 0004:00000294       $pdata$?find_pe_section@@YAPEAU_IMAGE_SECTION_HEADER@@QEAE_K@Z 0000000180051294     LIBCMTD:utility.obj
 0004:000002a0       $pdata$__scrt_fastfail     00000001800512a0     LIBCMTD:utility_desktop.obj
 0004:000002ac       $pdata$_RTC_Initialize     00000001800512ac     LIBCMTD:initsect.obj
 0004:000002b8       $pdata$_RTC_Terminate      00000001800512b8     LIBCMTD:initsect.obj
 0004:000002c4       $pdata$ReadNoFence64       00000001800512c4     LIBCMTD:guard_support.obj
 0004:000002c4       $pdata$?__crt_interlocked_read_64@@YA_JPED_J@Z 00000001800512c4     libvcruntimed:std_type_info.obj
 0004:000002d0       $pdata$ReadPointerNoFence  00000001800512d0     LIBCMTD:guard_support.obj
 0004:000002d0       $pdata$??$__crt_interlocked_read_pointer@UHINSTANCE__@@@@YAPEAUHINSTANCE__@@PEDSEAU0@@Z 00000001800512d0     libvcruntimed:winapi_downlevel.obj
 0004:000002d0       $pdata$??$__crt_interlocked_read_pointer@X@@YAPEAXPEDSEAX@Z 00000001800512d0     libvcruntimed:winapi_downlevel.obj
 0004:000002dc       $pdata$_guard_icall_checks_enforced 00000001800512dc     LIBCMTD:guard_support.obj
 0004:000002e8       $pdata$__isa_available_init 00000001800512e8     LIBCMTD:cpu_disp.obj
 0004:000002f4       $pdata$__scrt_is_ucrt_dll_in_use 00000001800512f4     LIBCMTD:ucrt_detection.obj
 0004:0000030c       $pdata$__C_specific_handler 000000018005130c     libvcruntimed:riscchandler.obj
 0004:00000318       $pdata$__std_type_info_destroy_list 0000000180051318     libvcruntimed:std_type_info.obj
 0004:00000324       $pdata$__std_type_info_compare 0000000180051324     libvcruntimed:std_type_info.obj
 0004:00000330       $pdata$??1?$__crt_unique_heap_ptr@U__vcrt_ptd@@U__crt_internal_free_policy@@@@QEAA@XZ 0000000180051330     libvcruntimed:per_thread_data.obj
 0004:00000330       $pdata$??1?$__crt_unique_heap_ptr@DU__crt_internal_free_policy@@@@QEAA@XZ 0000000180051330     libvcruntimed:std_type_info.obj
 0004:00000330       $pdata$??1?$__crt_unique_heap_ptr@U__acrt_ptd@@U__crt_internal_free_policy@@@@QEAA@XZ 0000000180051330     libucrtd:per_thread_data.obj
 0004:00000330       $pdata$??1?$__crt_unique_heap_ptr@U__crt_lowio_handle_data@@U__crt_internal_free_policy@@@@QEAA@XZ 0000000180051330     libucrtd:osfinfo.obj
 0004:00000330       $pdata$??1?$__crt_unique_heap_ptr@U__crt_multibyte_data@@U__crt_internal_free_policy@@@@QEAA@XZ 0000000180051330     libucrtd:mbctype.obj
 0004:00000330       $pdata$??1?$__crt_unique_heap_ptr@EU__crt_internal_free_policy@@@@QEAA@XZ 0000000180051330     libucrtd:argv_parsing.obj
 0004:00000330       $pdata$??1?$__crt_unique_heap_ptr@PEADU__crt_internal_free_policy@@@@QEAA@XZ 0000000180051330     libucrtd:argv_parsing.obj
 0004:00000330       $pdata$??1?$__crt_unique_heap_ptr@PEAU__crt_stdio_stream_data@@U__crt_internal_free_policy@@@@QEAA@XZ 0000000180051330     libucrtd:_file.obj
 0004:0000033c       $pdata$?release@?$__crt_unique_heap_ptr@U__vcrt_ptd@@U__crt_internal_free_policy@@@@QEAAXXZ 000000018005133c     libvcruntimed:per_thread_data.obj
 0004:0000033c       $pdata$?release@?$__crt_unique_heap_ptr@DU__crt_internal_free_policy@@@@QEAAXXZ 000000018005133c     libvcruntimed:std_type_info.obj
 0004:0000033c       $pdata$?release@?$__crt_unique_heap_ptr@U__acrt_ptd@@U__crt_internal_free_policy@@@@QEAAXXZ 000000018005133c     libucrtd:per_thread_data.obj
 0004:0000033c       $pdata$?release@?$__crt_unique_heap_ptr@U__crt_lowio_handle_data@@U__crt_internal_free_policy@@@@QEAAXXZ 000000018005133c     libucrtd:osfinfo.obj
 0004:0000033c       $pdata$?release@?$__crt_unique_heap_ptr@U__crt_multibyte_data@@U__crt_internal_free_policy@@@@QEAAXXZ 000000018005133c     libucrtd:mbctype.obj
 0004:0000033c       $pdata$?release@?$__crt_unique_heap_ptr@EU__crt_internal_free_policy@@@@QEAAXXZ 000000018005133c     libucrtd:argv_parsing.obj
 0004:0000033c       $pdata$?release@?$__crt_unique_heap_ptr@PEADU__crt_internal_free_policy@@@@QEAAXXZ 000000018005133c     libucrtd:argv_parsing.obj
 0004:0000033c       $pdata$?release@?$__crt_unique_heap_ptr@PEAU__crt_stdio_stream_data@@U__crt_internal_free_policy@@@@QEAAXXZ 000000018005133c     libucrtd:_file.obj
 0004:00000348       $pdata$?is_valid@?$__crt_unique_heap_ptr@U__vcrt_ptd@@U__crt_internal_free_policy@@@@QEBA_NXZ 0000000180051348     libvcruntimed:per_thread_data.obj
 0004:00000348       $pdata$?is_valid@?$__crt_unique_heap_ptr@DU__crt_public_free_policy@@@@QEBA_NXZ 0000000180051348     libvcruntimed:std_exception.obj
 0004:00000348       $pdata$?is_valid@?$__crt_unique_heap_ptr@DU__crt_internal_free_policy@@@@QEBA_NXZ 0000000180051348     libvcruntimed:std_type_info.obj
 0004:00000348       $pdata$?is_valid@?$__crt_unique_heap_ptr@U__acrt_ptd@@U__crt_internal_free_policy@@@@QEBA_NXZ 0000000180051348     libucrtd:per_thread_data.obj
 0004:00000348       $pdata$??B?$__crt_scoped_stack_ptr@_W@@QEBA_NXZ 0000000180051348     libucrtd:lcmapstringa.obj
 0004:00000348       $pdata$?is_valid@?$__crt_unique_heap_ptr@U__crt_lowio_handle_data@@U__crt_internal_free_policy@@@@QEBA_NXZ 0000000180051348     libucrtd:osfinfo.obj
 0004:00000348       $pdata$?is_valid@?$__crt_unique_heap_ptr@U__crt_multibyte_data@@U__crt_internal_free_policy@@@@QEBA_NXZ 0000000180051348     libucrtd:mbctype.obj
 0004:00000348       $pdata$?is_valid@?$__crt_unique_heap_ptr@EU__crt_internal_free_policy@@@@QEBA_NXZ 0000000180051348     libucrtd:argv_parsing.obj
 0004:00000348       $pdata$?valid@__crt_stdio_stream@@QEBA_NXZ 0000000180051348     libucrtd:output.obj
 0004:00000354       $pdata$??B?$__crt_unique_heap_ptr@U__vcrt_ptd@@U__crt_internal_free_policy@@@@QEBA_NXZ 0000000180051354     libvcruntimed:per_thread_data.obj
 0004:00000354       $pdata$??B?$__crt_unique_heap_ptr@DU__crt_public_free_policy@@@@QEBA_NXZ 0000000180051354     libvcruntimed:std_exception.obj
 0004:00000354       $pdata$??B?$__crt_unique_heap_ptr@DU__crt_internal_free_policy@@@@QEBA_NXZ 0000000180051354     libvcruntimed:std_type_info.obj
 0004:00000354       $pdata$??B?$__crt_unique_heap_ptr@U__acrt_ptd@@U__crt_internal_free_policy@@@@QEBA_NXZ 0000000180051354     libucrtd:per_thread_data.obj
 0004:00000354       $pdata$??B?$__crt_unique_heap_ptr@U__crt_lowio_handle_data@@U__crt_internal_free_policy@@@@QEBA_NXZ 0000000180051354     libucrtd:osfinfo.obj
 0004:00000354       $pdata$??B?$__crt_unique_heap_ptr@U__crt_multibyte_data@@U__crt_internal_free_policy@@@@QEBA_NXZ 0000000180051354     libucrtd:mbctype.obj
 0004:00000354       $pdata$??B?$__crt_unique_heap_ptr@EU__crt_internal_free_policy@@@@QEBA_NXZ 0000000180051354     libucrtd:argv_parsing.obj
 0004:00000360       $pdata$??$?RU__vcrt_ptd@@@__crt_internal_free_policy@@QEBAXQEBU__vcrt_ptd@@@Z 0000000180051360     libvcruntimed:per_thread_data.obj
 0004:00000360       $pdata$??$?RD@__crt_internal_free_policy@@QEBAXQEBD@Z 0000000180051360     libvcruntimed:std_type_info.obj
 0004:00000360       $pdata$??$?RU__acrt_ptd@@@__crt_internal_free_policy@@QEBAXQEBU__acrt_ptd@@@Z 0000000180051360     libucrtd:per_thread_data.obj
 0004:00000360       $pdata$??$?RU__crt_lowio_handle_data@@@__crt_internal_free_policy@@QEBAXQEBU__crt_lowio_handle_data@@@Z 0000000180051360     libucrtd:osfinfo.obj
 0004:00000360       $pdata$??$?RU__crt_multibyte_data@@@__crt_internal_free_policy@@QEBAXQEBU__crt_multibyte_data@@@Z 0000000180051360     libucrtd:mbctype.obj
 0004:00000360       $pdata$??$?RE@__crt_internal_free_policy@@QEBAXQEBE@Z 0000000180051360     libucrtd:argv_parsing.obj
 0004:00000360       $pdata$??$?RPEAD@__crt_internal_free_policy@@QEBAXQEBQEAD@Z 0000000180051360     libucrtd:argv_parsing.obj
 0004:00000360       $pdata$??$?RPEAU__crt_stdio_stream_data@@@__crt_internal_free_policy@@QEBAXQEBQEAU__crt_stdio_stream_data@@@Z 0000000180051360     libucrtd:_file.obj
 0004:0000036c       $pdata$__vcrt_initialize   000000018005136c     libvcruntimed:initialization.obj
 0004:00000378       $pdata$__vcrt_uninitialize 0000000180051378     libvcruntimed:initialization.obj
 0004:00000384       $pdata$__vcrt_uninitialize_critical 0000000180051384     libvcruntimed:initialization.obj
 0004:00000390       $pdata$__vcrt_thread_attach 0000000180051390     libvcruntimed:initialization.obj
 0004:0000039c       $pdata$__vcrt_thread_detach 000000018005139c     libvcruntimed:initialization.obj
 0004:000003a8       $pdata$?_CallMemberFunction0@@YAXQEAX0@Z 00000001800513a8     libvcruntimed:ehhelpers.obj
 0004:000003b4       $pdata$_IsExceptionObjectToBeDestroyed 00000001800513b4     libvcruntimed:ehhelpers.obj
 0004:000003c0       $pdata$__AdjustPointer     00000001800513c0     libvcruntimed:ehhelpers.obj
 0004:000003cc       $pdata$__FrameUnwindFilter 00000001800513cc     libvcruntimed:ehhelpers.obj
 0004:000003d8       $pdata$__DestructExceptionObject 00000001800513d8     libvcruntimed:ehhelpers.obj
 0004:000003e4       $pdata$__DestructExceptionObject$filt$0 00000001800513e4     libvcruntimed:ehhelpers.obj
 0004:000003f0       $pdata$?_FilterSetCurrentException@@YAKPEAU_EXCEPTION_POINTERS@@E@Z 00000001800513f0     libvcruntimed:ehhelpers.obj
 0004:00000420       $pdata$__except_validate_context_record 0000000180051420     libvcruntimed:jbcxrval.obj
 0004:0000042c       $pdata$_vsprintf_s_l       000000018005142c     libvcruntimed:undname.obj
 0004:00000438       $pdata$sprintf_s           0000000180051438     libvcruntimed:undname.obj
 0004:00000444       $pdata$__vcrt_initialize_ptd 0000000180051444     libvcruntimed:per_thread_data.obj
 0004:00000450       $pdata$__vcrt_uninitialize_ptd 0000000180051450     libvcruntimed:per_thread_data.obj
 0004:0000045c       $pdata$__vcrt_getptd       000000018005145c     libvcruntimed:per_thread_data.obj
 0004:00000468       $pdata$__vcrt_getptd_noexit 0000000180051468     libvcruntimed:per_thread_data.obj
 0004:00000474       $pdata$__vcrt_freeptd      0000000180051474     libvcruntimed:per_thread_data.obj
 0004:00000480       $pdata$__vcrt_freefls      0000000180051480     libvcruntimed:per_thread_data.obj
 0004:0000048c       $pdata$??0scoped_get_last_error_reset@?A0x8fdcb2b3@@QEAA@XZ 000000018005148c     libvcruntimed:per_thread_data.obj
 0004:00000498       $pdata$??1scoped_get_last_error_reset@?A0x8fdcb2b3@@QEAA@XZ 0000000180051498     libvcruntimed:per_thread_data.obj
 0004:000004a4       $pdata$?store_and_initialize_ptd@@YA_NQEAU__vcrt_ptd@@@Z 00000001800514a4     libvcruntimed:per_thread_data.obj
 0004:000004b0       $pdata$?detach@?$__crt_unique_heap_ptr@U__vcrt_ptd@@U__crt_internal_free_policy@@@@QEAAPEAU__vcrt_ptd@@XZ 00000001800514b0     libvcruntimed:per_thread_data.obj
 0004:000004b0       $pdata$?detach@?$__crt_unique_heap_ptr@DU__crt_public_free_policy@@@@QEAAPEADXZ 00000001800514b0     libvcruntimed:std_exception.obj
 0004:000004b0       $pdata$?detach@?$__crt_unique_heap_ptr@U__acrt_ptd@@U__crt_internal_free_policy@@@@QEAAPEAU__acrt_ptd@@XZ 00000001800514b0     libucrtd:per_thread_data.obj
 0004:000004b0       $pdata$?detach@?$__crt_unique_heap_ptr@U__crt_lowio_handle_data@@U__crt_internal_free_policy@@@@QEAAPEAU__crt_lowio_handle_data@@XZ 00000001800514b0     libucrtd:osfinfo.obj
 0004:000004b0       $pdata$?detach@?$__crt_unique_heap_ptr@U__crt_multibyte_data@@U__crt_internal_free_policy@@@@QEAAPEAU__crt_multibyte_data@@XZ 00000001800514b0     libucrtd:mbctype.obj
 0004:000004b0       $pdata$?detach@?$__crt_unique_heap_ptr@EU__crt_internal_free_policy@@@@QEAAPEAEXZ 00000001800514b0     libucrtd:argv_parsing.obj
 0004:000004b0       $pdata$?detach@?$__crt_unique_heap_ptr@PEADU__crt_internal_free_policy@@@@QEAAPEAPEADXZ 00000001800514b0     libucrtd:argv_parsing.obj
 0004:000004b0       $pdata$?detach@?$__crt_unique_heap_ptr@PEAU__crt_stdio_stream_data@@U__crt_internal_free_policy@@@@QEAAPEAPEAU__crt_stdio_stream_data@@XZ 00000001800514b0     libucrtd:_file.obj
 0004:000004bc       $pdata$__vcrt_initialize_locks 00000001800514bc     libvcruntimed:locks.obj
 0004:000004c8       $pdata$__vcrt_uninitialize_locks 00000001800514c8     libvcruntimed:locks.obj
 0004:000004ec       $pdata$?CatchTryBlock@__FrameHandler3@@SAPEBU_s_TryBlockMapEntry@@PEBU_s_FuncInfo@@H@Z 00000001800514ec     libvcruntimed:risctrnsctrl.obj
 0004:000004f8       $pdata$?ExecutionInCatch@__FrameHandler3@@SA_NPEAU_xDISPATCHER_CONTEXT@@PEBU_s_FuncInfo@@@Z 00000001800514f8     libvcruntimed:risctrnsctrl.obj
 0004:00000504       $pdata$?FrameUnwindToEmptyState@__FrameHandler3@@SAXPEA_KPEAU_xDISPATCHER_CONTEXT@@PEBU_s_FuncInfo@@@Z 0000000180051504     libvcruntimed:risctrnsctrl.obj
 0004:00000510       $pdata$?GetEstablisherFrame@__FrameHandler3@@SAPEA_KPEA_KPEAU_xDISPATCHER_CONTEXT@@PEBU_s_FuncInfo@@0@Z 0000000180051510     libvcruntimed:risctrnsctrl.obj
 0004:0000051c       $pdata$?UnwindNestedFrames@__FrameHandler3@@SAXPEA_KPEAUEHExceptionRecord@@PEAU_CONTEXT@@0PEAXPEBU_s_FuncInfo@@HHPEBU_s_HandlerType@@PEAU_xDISPATCHER_CONTEXT@@E@Z 000000018005151c     libvcruntimed:risctrnsctrl.obj
 0004:00000528       $pdata$?GetRangeOfTrysToCheck@__FrameHandler3@@SA?AU?$pair@Viterator@TryBlockMap@__FrameHandler3@@V123@@std@@AEAVTryBlockMap@1@HPEAU_xDISPATCHER_CONTEXT@@PEBU_s_FuncInfo@@H@Z 0000000180051528     libvcruntimed:risctrnsctrl.obj
 0004:00000534       $pdata$_GetImageBase       0000000180051534     libvcruntimed:risctrnsctrl.obj
 0004:00000540       $pdata$_SetImageBase       0000000180051540     libvcruntimed:risctrnsctrl.obj
 0004:0000054c       $pdata$_GetThrowImageBase  000000018005154c     libvcruntimed:risctrnsctrl.obj
 0004:00000558       $pdata$_SetThrowImageBase  0000000180051558     libvcruntimed:risctrnsctrl.obj
 0004:00000564       $pdata$_CreateFrameInfo    0000000180051564     libvcruntimed:risctrnsctrl.obj
 0004:00000570       $pdata$_FindAndUnlinkFrame 0000000180051570     libvcruntimed:risctrnsctrl.obj
 0004:0000057c       $pdata$__CxxFrameHandler3  000000018005157c     libvcruntimed:risctrnsctrl.obj
 0004:00000588       $pdata$??$_CallSETranslator@V__FrameHandler3@@@@YAHPEAUEHExceptionRecord@@PEA_KPEAU_CONTEXT@@PEAU_xDISPATCHER_CONTEXT@@PEBU_s_FuncInfo@@K1@Z 0000000180051588     libvcruntimed:risctrnsctrl.obj
 0004:00000594       $pdata$?filt$0@?0???$_CallSETranslator@V__FrameHandler3@@@@YAHPEAUEHExceptionRecord@@PEA_KPEAU_CONTEXT@@PEAU_xDISPATCHER_CONTEXT@@PEBU_s_FuncInfo@@K1@Z@4HA 0000000180051594     libvcruntimed:risctrnsctrl.obj
 0004:000005a0       $pdata$??$?0AEAViterator@TryBlockMap@__FrameHandler3@@AEAV012@$0A@@?$pair@Viterator@TryBlockMap@__FrameHandler3@@V123@@std@@QEAA@AEAViterator@TryBlockMap@__FrameHandler3@@0@Z 00000001800515a0     libvcruntimed:risctrnsctrl.obj
 0004:000005ac       $pdata$??$SehTransFilter@V__FrameHandler3@@@@YAHPEAU_EXCEPTION_POINTERS@@PEAUEHExceptionRecord@@PEA_KPEAU_CONTEXT@@PEAU_xDISPATCHER_CONTEXT@@PEBU_s_FuncInfo@@PEAH@Z 00000001800515ac     libvcruntimed:risctrnsctrl.obj
 0004:000005b8       $pdata$__vcrt_FlsAlloc     00000001800515b8     libvcruntimed:winapi_downlevel.obj
 0004:000005c4       $pdata$__vcrt_FlsFree      00000001800515c4     libvcruntimed:winapi_downlevel.obj
 0004:000005d0       $pdata$__vcrt_FlsGetValue  00000001800515d0     libvcruntimed:winapi_downlevel.obj
 0004:000005dc       $pdata$__vcrt_FlsSetValue  00000001800515dc     libvcruntimed:winapi_downlevel.obj
 0004:000005e8       $pdata$__vcrt_InitializeCriticalSectionEx 00000001800515e8     libvcruntimed:winapi_downlevel.obj
 0004:000005f4       $pdata$?try_load_library_from_system_directory@@YAPEAUHINSTANCE__@@QEB_W@Z 00000001800515f4     libvcruntimed:winapi_downlevel.obj
 0004:00000600       $pdata$?try_get_module@@YAPEAUHINSTANCE__@@W4module_id@?A0x5a6460af@@@Z 0000000180051600     libvcruntimed:winapi_downlevel.obj
 0004:0000060c       $pdata$?try_get_first_available_module@@YAPEAUHINSTANCE__@@QEBW4module_id@?A0x5a6460af@@0@Z 000000018005160c     libvcruntimed:winapi_downlevel.obj
 0004:00000618       $pdata$?try_get_proc_address_from_first_available_module@@YAPEAXQEBDQEBW4module_id@?A0x5a6460af@@1@Z 0000000180051618     libvcruntimed:winapi_downlevel.obj
 0004:00000624       $pdata$?try_get_function@@YAPEAXW4function_id@?A0x5a6460af@@QEBDQEBW4module_id@2@2@Z 0000000180051624     libvcruntimed:winapi_downlevel.obj
 0004:00000630       $pdata$?try_get_FlsAlloc@@YAP6AKP6AXPEAX@Z@ZXZ 0000000180051630     libvcruntimed:winapi_downlevel.obj
 0004:0000063c       $pdata$?try_get_FlsFree@@YAP6AHK@ZXZ 000000018005163c     libvcruntimed:winapi_downlevel.obj
 0004:00000648       $pdata$?try_get_FlsGetValue@@YAP6APEAXK@ZXZ 0000000180051648     libvcruntimed:winapi_downlevel.obj
 0004:00000654       $pdata$?try_get_FlsSetValue@@YAP6AHKPEAX@ZXZ 0000000180051654     libvcruntimed:winapi_downlevel.obj
 0004:00000660       $pdata$?try_get_InitializeCriticalSectionEx@@YAP6AHPEAU_RTL_CRITICAL_SECTION@@KK@ZXZ 0000000180051660     libvcruntimed:winapi_downlevel.obj
 0004:0000066c       $pdata$?StateFromControlPc@__FrameHandler3@@SAHPEBU_s_FuncInfo@@PEAU_xDISPATCHER_CONTEXT@@@Z 000000018005166c     libvcruntimed:ehstate.obj
 0004:00000678       $pdata$?StateFromIp@__FrameHandler3@@SAHPEBU_s_FuncInfo@@PEAU_xDISPATCHER_CONTEXT@@_K@Z 0000000180051678     libvcruntimed:ehstate.obj
 0004:00000684       $pdata$?GetCurrentState@__FrameHandler3@@SAHPEA_KPEAU_xDISPATCHER_CONTEXT@@PEBU_s_FuncInfo@@@Z 0000000180051684     libvcruntimed:ehstate.obj
 0004:00000690       $pdata$?SetUnwindTryBlock@__FrameHandler3@@SAXPEA_KPEAU_xDISPATCHER_CONTEXT@@PEBU_s_FuncInfo@@H@Z 0000000180051690     libvcruntimed:ehstate.obj
 0004:0000069c       $pdata$?GetUnwindTryBlock@__FrameHandler3@@SAHPEA_KPEAU_xDISPATCHER_CONTEXT@@PEBU_s_FuncInfo@@@Z 000000018005169c     libvcruntimed:ehstate.obj
 0004:000006a8       $pdata$__vcrt_EncodePointer 00000001800516a8     libvcruntimed:frame.obj
 0004:000006b4       $pdata$?FrameUnwindToState@__FrameHandler3@@SAXPEA_KPEAU_xDISPATCHER_CONTEXT@@PEBU_s_FuncInfo@@H@Z 00000001800516b4     libvcruntimed:frame.obj
 0004:000006c0       $pdata$?filt$0@?0??FrameUnwindToState@__FrameHandler3@@SAXPEA_KPEAU_xDISPATCHER_CONTEXT@@PEBU_s_FuncInfo@@H@Z@4HA 00000001800516c0     libvcruntimed:frame.obj
 0004:000006cc       $pdata$?fin$1@?0??FrameUnwindToState@__FrameHandler3@@SAXPEA_KPEAU_xDISPATCHER_CONTEXT@@PEBU_s_FuncInfo@@H@Z@4HA 00000001800516cc     libvcruntimed:frame.obj
 0004:000006d8       $pdata$?GetHandlerSearchState@__FrameHandler3@@SAHPEA_KPEAU_xDISPATCHER_CONTEXT@@PEBU_s_FuncInfo@@@Z 00000001800516d8     libvcruntimed:frame.obj
 0004:000006e4       $pdata$?TypeMatch@__FrameHandler3@@SAHPEBU_s_HandlerType@@PEBU_s_CatchableType@@PEBU_s_ThrowInfo@@@Z 00000001800516e4     libvcruntimed:frame.obj
 0004:000006e4       $pdata$__TypeMatch         00000001800516e4     libvcruntimed:frame.obj
 0004:000006f0       $pdata$?BuildCatchObject@__FrameHandler3@@SAXPEAUEHExceptionRecord@@PEAXPEBU_s_HandlerType@@PEBU_s_CatchableType@@@Z 00000001800516f0     libvcruntimed:frame.obj
 0004:000006fc       $pdata$?isEHs@__FrameHandler3@@SA_NPEBU_s_FuncInfo@@@Z 00000001800516fc     libvcruntimed:frame.obj
 0004:00000708       $pdata$?isNoExcept@__FrameHandler3@@SA_NPEBU_s_FuncInfo@@@Z 0000000180051708     libvcruntimed:frame.obj
 0004:00000714       $pdata$?getESTypes@__FrameHandler3@@SAPEBU_s_ESTypeList@@PEBU_s_FuncInfo@@@Z 0000000180051714     libvcruntimed:frame.obj
 0004:00000720       $pdata$?CxxCallCatchBlock@__FrameHandler3@@SAPEAXPEAU_EXCEPTION_RECORD@@@Z 0000000180051720     libvcruntimed:frame.obj
 0004:0000072c       $pdata$?filt$0@?0??CxxCallCatchBlock@__FrameHandler3@@SAPEAXPEAU_EXCEPTION_RECORD@@@Z@4HA 000000018005172c     libvcruntimed:frame.obj
 0004:00000738       $pdata$?fin$1@?0??CxxCallCatchBlock@__FrameHandler3@@SAPEAXPEAU_EXCEPTION_RECORD@@@Z@4HA 0000000180051738     libvcruntimed:frame.obj
 0004:00000744       $pdata$??Diterator@TryBlockMap@__FrameHandler3@@QEAA?BU_s_TryBlockMapEntry@@XZ 0000000180051744     libvcruntimed:frame.obj
 0004:00000750       $pdata$??Miterator@TryBlockMap@__FrameHandler3@@QEBA_NAEBV012@@Z 0000000180051750     libvcruntimed:frame.obj
 0004:0000075c       $pdata$??Diterator@HandlerMap@__FrameHandler3@@QEAA?BU_s_HandlerType@@XZ 000000018005175c     libvcruntimed:frame.obj
 0004:00000768       $pdata$??8iterator@HandlerMap@__FrameHandler3@@QEBA_NAEBV012@@Z 0000000180051768     libvcruntimed:frame.obj
 0004:00000774       $pdata$??9iterator@HandlerMap@__FrameHandler3@@QEBA_NAEBV012@@Z 0000000180051774     libvcruntimed:frame.obj
 0004:00000780       $pdata$?begin@HandlerMap@__FrameHandler3@@QEAA?AViterator@12@XZ 0000000180051780     libvcruntimed:frame.obj
 0004:0000078c       $pdata$?end@HandlerMap@__FrameHandler3@@QEAA?AViterator@12@XZ 000000018005178c     libvcruntimed:frame.obj
 0004:00000798       $pdata$?_CallMemberFunction1@@YAXQEAX00@Z 0000000180051798     libvcruntimed:frame.obj
 0004:000007a4       $pdata$?_CallMemberFunction2@@YAXQEAX00H@Z 00000001800517a4     libvcruntimed:frame.obj
 0004:000007b0       $pdata$??0exception@std@@QEAA@QEBDH@Z 00000001800517b0     libvcruntimed:frame.obj
 0004:000007bc       $pdata$??0exception@std@@QEAA@AEBV01@@Z 00000001800517bc     libvcruntimed:frame.obj
 0004:000007c8       $pdata$??1exception@std@@UEAA@XZ 00000001800517c8     libvcruntimed:frame.obj
 0004:000007d4       $pdata$?what@exception@std@@UEBAPEBDXZ 00000001800517d4     libvcruntimed:frame.obj
 0004:000007e0       $pdata$??_Gexception@std@@UEAAPEAXI@Z 00000001800517e0     libvcruntimed:frame.obj
 0004:000007ec       $pdata$??0bad_exception@std@@QEAA@XZ 00000001800517ec     libvcruntimed:frame.obj
 0004:000007f8       $pdata$??1bad_exception@std@@UEAA@XZ 00000001800517f8     libvcruntimed:frame.obj
 0004:00000804       $pdata$??0bad_exception@std@@QEAA@AEBV01@@Z 0000000180051804     libvcruntimed:frame.obj
 0004:00000810       $pdata$??_Gbad_exception@std@@UEAAPEAXI@Z 0000000180051810     libvcruntimed:frame.obj
 0004:0000081c       $pdata$??8type_info@@QEBA_NAEBV0@@Z 000000018005181c     libvcruntimed:frame.obj
 0004:00000828       $pdata$?ExFilterRethrow@@YAHPEAU_EXCEPTION_POINTERS@@PEAUEHExceptionRecord@@PEAH@Z 0000000180051828     libvcruntimed:frame.obj
 0004:00000834       $pdata$?IsInExceptionSpec@@YAEPEAUEHExceptionRecord@@PEBU_s_ESTypeList@@@Z 0000000180051834     libvcruntimed:frame.obj
 0004:00000840       $pdata$?Is_bad_exception_allowed@@YAEPEBU_s_ESTypeList@@@Z 0000000180051840     libvcruntimed:frame.obj
 0004:0000084c       $pdata$??$__InternalCxxFrameHandler@V__FrameHandler3@@@@YA?AW4_EXCEPTION_DISPOSITION@@PEAUEHExceptionRecord@@PEA_KPEAU_CONTEXT@@PEAU_xDISPATCHER_CONTEXT@@PEBU_s_FuncInfo@@H1E@Z 000000018005184c     libvcruntimed:frame.obj
 0004:00000858       $pdata$??$TypeMatchHelper@V__FrameHandler3@@@@YAHPEBU_s_HandlerType@@PEBU_s_CatchableType@@PEBU_s_ThrowInfo@@@Z 0000000180051858     libvcruntimed:frame.obj
 0004:00000864       $pdata$?__RethrowException@@YAXPEAUEHExceptionRecord@@@Z 0000000180051864     libvcruntimed:frame.obj
 0004:00000870       $pdata$??$BuildCatchObjectHelperInternal@V__FrameHandler3@@@@YAHPEAUEHExceptionRecord@@PEAXPEBU_s_HandlerType@@PEBU_s_CatchableType@@@Z 0000000180051870     libvcruntimed:frame.obj
 0004:0000087c       $pdata$?filt$0@?0???$BuildCatchObjectHelperInternal@V__FrameHandler3@@@@YAHPEAUEHExceptionRecord@@PEAXPEBU_s_HandlerType@@PEBU_s_CatchableType@@@Z@4HA 000000018005187c     libvcruntimed:frame.obj
 0004:0000087c       $pdata$?filt$0@?0???$BuildCatchObjectInternal@V__FrameHandler3@@@@YAXPEAUEHExceptionRecord@@PEAXPEBU_s_HandlerType@@PEBU_s_CatchableType@@@Z@4HA 000000018005187c     libvcruntimed:frame.obj
 0004:0000087c       $pdata$?filt$0@?0??is_bad_read_pointer@@YA_NQEBX_K@Z@4HA 000000018005187c     libucrtd:debug_heap.obj
 0004:0000087c       $pdata$terminate$filt$0    000000018005187c     libucrtd:terminate.obj
 0004:00000888       $pdata$??$BuildCatchObjectInternal@V__FrameHandler3@@@@YAXPEAUEHExceptionRecord@@PEAXPEBU_s_HandlerType@@PEBU_s_CatchableType@@@Z 0000000180051888     libvcruntimed:frame.obj
 0004:00000894       $pdata$??$FindHandler@V__FrameHandler3@@@@YAXPEAUEHExceptionRecord@@PEA_KPEAU_CONTEXT@@PEAU_xDISPATCHER_CONTEXT@@PEBU_s_FuncInfo@@EH1@Z 0000000180051894     libvcruntimed:frame.obj
 0004:000008a0       $pdata$??$CatchIt@V__FrameHandler3@@@@YAXPEAUEHExceptionRecord@@PEA_KPEAU_CONTEXT@@PEAU_xDISPATCHER_CONTEXT@@PEBU_s_FuncInfo@@PEBU_s_HandlerType@@PEBU_s_CatchableType@@PEBU_s_TryBlockMapEntry@@H1EE@Z 00000001800518a0     libvcruntimed:frame.obj
 0004:000008ac       $pdata$??$FindHandlerForForeignException@V__FrameHandler3@@@@YAXPEAUEHExceptionRecord@@PEA_KPEAU_CONTEXT@@PEAU_xDISPATCHER_CONTEXT@@PEBU_s_FuncInfo@@HH1@Z 00000001800518ac     libvcruntimed:frame.obj
 0004:00000900       $pdata$__std_exception_copy 0000000180051900     libvcruntimed:std_exception.obj
 0004:0000090c       $pdata$__std_exception_destroy 000000018005190c     libvcruntimed:std_exception.obj
 0004:00000918       $pdata$??1?$__crt_unique_heap_ptr@DU__crt_public_free_policy@@@@QEAA@XZ 0000000180051918     libvcruntimed:std_exception.obj
 0004:00000924       $pdata$?release@?$__crt_unique_heap_ptr@DU__crt_public_free_policy@@@@QEAAXXZ 0000000180051924     libvcruntimed:std_exception.obj
 0004:00000930       $pdata$??$?RD@__crt_public_free_policy@@QEBAXQEBD@Z 0000000180051930     libvcruntimed:std_exception.obj
 0004:0000093c       $pdata$_CxxThrowException  000000018005193c     libvcruntimed:throw.obj
 0004:00000948       $pdata$floorf              0000000180051948     libucrtd:floorf.obj
 0004:00000954       $pdata$_initterm           0000000180051954     libucrtd:initterm.obj
 0004:00000960       $pdata$_initterm_e         0000000180051960     libucrtd:initterm.obj
 0004:0000096c       $pdata$_seh_filter_dll     000000018005196c     libucrtd:exception_filter.obj
 0004:00000978       $pdata$_seh_filter_exe     0000000180051978     libucrtd:exception_filter.obj
 0004:00000984       $pdata$?xcptlookup@@YAPEAU__crt_signal_action_t@@KQEAU1@@Z 0000000180051984     libucrtd:exception_filter.obj
 0004:00000990       $pdata$_is_c_termination_complete 0000000180051990     libucrtd:exit.obj
 0004:0000099c       $pdata$_exit               000000018005199c     libucrtd:exit.obj
 0004:000009a8       $pdata$?__crt_fast_encode_pointer@@YA?AU__crt_fast_encoded_nullptr_t@@$$T@Z 00000001800519a8     libucrtd:exit.obj
 0004:000009b4       $pdata$?__crt_interlocked_read_32@@YAHPEDH@Z 00000001800519b4     libucrtd:exit.obj
 0004:000009c0       $pdata$_cexit              00000001800519c0     libucrtd:exit.obj
 0004:000009cc       $pdata$?close@__crt_hmodule_traits@@SA_NPEAUHINSTANCE__@@@Z 00000001800519cc     libucrtd:exit.obj
 0004:000009d8       $pdata$?is_managed_app@@YA_NXZ 00000001800519d8     libucrtd:exit.obj
 0004:000009e4       $pdata$?try_cor_exit_process@@YAXI@Z 00000001800519e4     libucrtd:exit.obj
 0004:000009f0       $pdata$??1?$__crt_unique_handle_t@U__crt_hmodule_traits@@@@QEAA@XZ 00000001800519f0     libucrtd:exit.obj
 0004:000009fc       $pdata$?close@?$__crt_unique_handle_t@U__crt_hmodule_traits@@@@QEAAXXZ 00000001800519fc     libucrtd:exit.obj
 0004:00000a08       $pdata$??$__crt_get_proc_address@P6AXI@Z@@YAP6AXI@ZQEAUHINSTANCE__@@QEBD@Z 0000000180051a08     libucrtd:exit.obj
 0004:00000a14       $pdata$?should_call_terminate_process@@YA_NXZ 0000000180051a14     libucrtd:exit.obj
 0004:00000a20       $pdata$?exit_or_terminate_process@@YAXI@Z 0000000180051a20     libucrtd:exit.obj
 0004:00000a2c       $pdata$??$?BX@__crt_fast_encoded_nullptr_t@@QEBAPEAXXZ 0000000180051a2c     libucrtd:initialization.obj
 0004:00000a2c       $pdata$??$?B$$A6AXH@Z@__crt_fast_encoded_nullptr_t@@QEBAP6AXH@ZXZ 0000000180051a2c     libucrtd:signal.obj
 0004:00000a2c       $pdata$??$?B$$A6AXPEAXK0@Z@__crt_fast_encoded_nullptr_t@@QEBAP6AXPEAXK0@ZXZ 0000000180051a2c     libucrtd:exit.obj
 0004:00000a2c       $pdata$??$?B$$A6AXXZ@__crt_fast_encoded_nullptr_t@@QEBAP6AXXZXZ 0000000180051a2c     libucrtd:onexit.obj
 0004:00000a2c       $pdata$??$?BP6AXXZ@__crt_fast_encoded_nullptr_t@@QEBAPEAP6AXXZXZ 0000000180051a2c     libucrtd:onexit.obj
 0004:00000a38       $pdata$??$__crt_fast_encode_pointer@PEAX@@YAPEAXQEAX@Z 0000000180051a38     libucrtd:initialization.obj
 0004:00000a38       $pdata$??$__crt_fast_encode_pointer@P6AXH@Z@@YAP6AXH@ZQ6AXH@Z@Z 0000000180051a38     libucrtd:signal.obj
 0004:00000a38       $pdata$??$__crt_fast_encode_pointer@P6AXPEAXK0@Z@@YAP6AXPEAXK0@ZQ6AX0K0@Z@Z 0000000180051a38     libucrtd:exit.obj
 0004:00000a38       $pdata$??$__crt_fast_encode_pointer@P6AXXZ@@YAP6AXXZQ6AXXZ@Z 0000000180051a38     libucrtd:onexit.obj
 0004:00000a38       $pdata$??$__crt_fast_encode_pointer@PEAP6AXXZ@@YAPEAP6AXXZQEAP6AXXZ@Z 0000000180051a38     libucrtd:onexit.obj
 0004:00000a44       $pdata$?common_exit@@YAXHW4_crt_exit_cleanup_mode@@W4_crt_exit_return_mode@@@Z 0000000180051a44     libucrtd:exit.obj
 0004:00000a50       $pdata$??R<lambda_6e4b09c48022b2350581041d5f6b0c4c>@@QEBA@XZ 0000000180051a50     libucrtd:exit.obj
 0004:00000a5c       $pdata$?filt$0@?0???R<lambda_6e4b09c48022b2350581041d5f6b0c4c>@@QEBA@XZ@4HA 0000000180051a5c     libucrtd:exit.obj
 0004:00000a68       $pdata$??$__crt_fast_decode_pointer@P6AH_K@Z@@YAP6AH_K@ZQ6AH0@Z@Z 0000000180051a68     libucrtd:new_handler.obj
 0004:00000a68       $pdata$??$__crt_fast_decode_pointer@PEAX@@YAPEAXQEAX@Z 0000000180051a68     libucrtd:winapi_thunks.obj
 0004:00000a68       $pdata$??$__crt_fast_decode_pointer@P6AXPEB_W00I_K@Z@@YAP6AXPEB_W00I_K@ZQ6AX000I1@Z@Z 0000000180051a68     libucrtd:invalid_parameter.obj
 0004:00000a68       $pdata$??$__crt_fast_decode_pointer@P6AXH@Z@@YAP6AXH@ZQ6AXH@Z@Z 0000000180051a68     libucrtd:signal.obj
 0004:00000a68       $pdata$??$__crt_fast_decode_pointer@P6AXPEAXK0@Z@@YAP6AXPEAXK0@ZQ6AX0K0@Z@Z 0000000180051a68     libucrtd:exit.obj
 0004:00000a68       $pdata$??$__crt_fast_decode_pointer@P6AXXZ@@YAP6AXXZQ6AXXZ@Z 0000000180051a68     libucrtd:onexit.obj
 0004:00000a68       $pdata$??$__crt_fast_decode_pointer@PEAP6AXXZ@@YAPEAP6AXXZQEAP6AXXZ@Z 0000000180051a68     libucrtd:onexit.obj
 0004:00000a68       $pdata$??$__crt_fast_decode_pointer@P6AHPEAU_exception@@@Z@@YAP6AHPEAU_exception@@@ZQ6AH0@Z@Z 0000000180051a68     libucrtd:matherr.obj
 0004:00000a74       $pdata$??$__acrt_lock_and_call@V<lambda_6e4b09c48022b2350581041d5f6b0c4c>@@@@YAXW4__acrt_lock_id@@$$QEAV<lambda_6e4b09c48022b2350581041d5f6b0c4c>@@@Z 0000000180051a74     libucrtd:exit.obj
 0004:00000a80       $pdata$??$__crt_interlocked_read@J@@YAJPEDJ@Z 0000000180051a80     libucrtd:exit.obj
 0004:00000a8c       $pdata$??R<lambda_0ae27a3a962d80f24befdcbee591983d>@@QEBAXXZ 0000000180051a8c     libucrtd:per_thread_data.obj
 0004:00000a8c       $pdata$??R<lambda_2d41944a1d46af3157314b8a01080d33>@@QEBAXXZ 0000000180051a8c     libucrtd:per_thread_data.obj
 0004:00000a8c       $pdata$??R<lambda_74a0ef281e44d15e1136f792f539efb3>@@QEBAXXZ 0000000180051a8c     libucrtd:per_thread_data.obj
 0004:00000a8c       $pdata$??R<lambda_aa87e3671a710a21b5dc78c0bdf72e11>@@QEBAXXZ 0000000180051a8c     libucrtd:per_thread_data.obj
 0004:00000a8c       $pdata$??R<lambda_410d79af7f07d98d83a3f525b3859a53>@@QEBAXXZ 0000000180051a8c     libucrtd:wsetlocale.obj
 0004:00000a8c       $pdata$??R<lambda_efa02eb69bf647d2f7ff0dd6f1103f72>@@QEBAXXZ 0000000180051a8c     libucrtd:mbctype.obj
 0004:00000a8c       $pdata$??R<lambda_450d765d439847d4c735a33c368b5fc0>@@QEBAXXZ 0000000180051a8c     libucrtd:signal.obj
 0004:00000a8c       $pdata$??R<lambda_d80eeec6fff315bfe5c115232f3240e3>@@QEBAXXZ 0000000180051a8c     libucrtd:exit.obj
 0004:00000a8c       $pdata$??R<lambda_6a47f4c8fd0152770a780fc1d70204eb>@@QEBAXXZ 0000000180051a8c     libucrtd:onexit.obj
 0004:00000a8c       $pdata$??R<lambda_886d6c58226a84441f68b9f2b8217b83>@@QEBAXXZ 0000000180051a8c     libucrtd:fflush.obj
 0004:00000a98       $pdata$??R<lambda_04ddeca75b7c13fd67716e8dfcef87ee>@@QEBAXXZ 0000000180051a98     libucrtd:per_thread_data.obj
 0004:00000a98       $pdata$??R<lambda_6992ecaafeb10aed2b74cb1fae11a551>@@QEBAXXZ 0000000180051a98     libucrtd:per_thread_data.obj
 0004:00000a98       $pdata$??R<lambda_aa500f224e6afead328df44964fe2772>@@QEBAXXZ 0000000180051a98     libucrtd:per_thread_data.obj
 0004:00000a98       $pdata$??R<lambda_dc504788e8f1664fe9b84e20bfb512f2>@@QEBAXXZ 0000000180051a98     libucrtd:per_thread_data.obj
 0004:00000a98       $pdata$??R<lambda_38119f0e861e05405d8a144b9b982f0a>@@QEBAXXZ 0000000180051a98     libucrtd:wsetlocale.obj
 0004:00000a98       $pdata$??R<lambda_728235dc0fc2b1f82d1fa5b3e7102d8f>@@QEBAXXZ 0000000180051a98     libucrtd:mbctype.obj
 0004:00000a98       $pdata$??R<lambda_601a2a7da3b7a96e9554ac7215c4b07c>@@QEBAXXZ 0000000180051a98     libucrtd:signal.obj
 0004:00000a98       $pdata$??R<lambda_2358e3775559c9db80273638284d5e45>@@QEBAXXZ 0000000180051a98     libucrtd:exit.obj
 0004:00000a98       $pdata$??R<lambda_6aaa2265f5b6a89667e7d7630012e97a>@@QEBAXXZ 0000000180051a98     libucrtd:onexit.obj
 0004:00000a98       $pdata$??R<lambda_f7f22ab5edc0698d5f6905b0d3f44752>@@QEBAXXZ 0000000180051a98     libucrtd:fflush.obj
 0004:00000aa4       $pdata$??$?RV<lambda_d80eeec6fff315bfe5c115232f3240e3>@@AEAV<lambda_6e4b09c48022b2350581041d5f6b0c4c>@@V<lambda_2358e3775559c9db80273638284d5e45>@@@?$__crt_seh_guarded_call@X@@QEAAX$$QEAV<lambda_d80eeec6fff315bfe5c115232f3240e3>@@AEAV<lambda_6e4b09c48022b2350581041d5f6b0c4c>@@$$QEAV<lambda_2358e3775559c9db80273638284d5e45>@@@Z 0000000180051aa4     libucrtd:exit.obj
 0004:00000ab0       $pdata$?fin$0@?0???$?RV<lambda_0ae27a3a962d80f24befdcbee591983d>@@AEAV<lambda_8d0ee55de4b1038c4002e0adecdf1839>@@V<lambda_dc504788e8f1664fe9b84e20bfb512f2>@@@?$__crt_seh_guarded_call@X@@QEAAX$$QEAV<lambda_0ae27a3a962d80f24befdcbee591983d>@@AEAV<lambda_8d0ee55de4b1038c4002e0adecdf1839>@@$$QEAV<lambda_dc504788e8f1664fe9b84e20bfb512f2>@@@Z@4HA 0000000180051ab0     libucrtd:per_thread_data.obj
 0004:00000ab0       $pdata$?fin$0@?0???$?RV<lambda_2d41944a1d46af3157314b8a01080d33>@@AEAV<lambda_8f455de75cd7d7f24b4096f044d8b9e6>@@V<lambda_aa500f224e6afead328df44964fe2772>@@@?$__crt_seh_guarded_call@X@@QEAAX$$QEAV<lambda_2d41944a1d46af3157314b8a01080d33>@@AEAV<lambda_8f455de75cd7d7f24b4096f044d8b9e6>@@$$QEAV<lambda_aa500f224e6afead328df44964fe2772>@@@Z@4HA 0000000180051ab0     libucrtd:per_thread_data.obj
 0004:00000ab0       $pdata$?fin$0@?0???$?RV<lambda_74a0ef281e44d15e1136f792f539efb3>@@AEAV<lambda_e157831efee4ea0afb0a2ace5dd5fd0d>@@V<lambda_04ddeca75b7c13fd67716e8dfcef87ee>@@@?$__crt_seh_guarded_call@X@@QEAAX$$QEAV<lambda_74a0ef281e44d15e1136f792f539efb3>@@AEAV<lambda_e157831efee4ea0afb0a2ace5dd5fd0d>@@$$QEAV<lambda_04ddeca75b7c13fd67716e8dfcef87ee>@@@Z@4HA 0000000180051ab0     libucrtd:per_thread_data.obj
 0004:00000ab0       $pdata$?fin$0@?0???$?RV<lambda_aa87e3671a710a21b5dc78c0bdf72e11>@@AEAV<lambda_92619d2358a28f41a33ba319515a20b9>@@V<lambda_6992ecaafeb10aed2b74cb1fae11a551>@@@?$__crt_seh_guarded_call@X@@QEAAX$$QEAV<lambda_aa87e3671a710a21b5dc78c0bdf72e11>@@AEAV<lambda_92619d2358a28f41a33ba319515a20b9>@@$$QEAV<lambda_6992ecaafeb10aed2b74cb1fae11a551>@@@Z@4HA 0000000180051ab0     libucrtd:per_thread_data.obj
 0004:00000ab0       $pdata$?fin$0@?0???$?RV<lambda_410d79af7f07d98d83a3f525b3859a53>@@AEAV<lambda_3e16ef9562a7dcce91392c22ab16ea36>@@V<lambda_38119f0e861e05405d8a144b9b982f0a>@@@?$__crt_seh_guarded_call@X@@QEAAX$$QEAV<lambda_410d79af7f07d98d83a3f525b3859a53>@@AEAV<lambda_3e16ef9562a7dcce91392c22ab16ea36>@@$$QEAV<lambda_38119f0e861e05405d8a144b9b982f0a>@@@Z@4HA 0000000180051ab0     libucrtd:wsetlocale.obj
 0004:00000ab0       $pdata$?fin$0@?0???$?RV<lambda_efa02eb69bf647d2f7ff0dd6f1103f72>@@AEAV<lambda_bd5a608237428601b7e45fbdc72b1ae8>@@V<lambda_728235dc0fc2b1f82d1fa5b3e7102d8f>@@@?$__crt_seh_guarded_call@X@@QEAAX$$QEAV<lambda_efa02eb69bf647d2f7ff0dd6f1103f72>@@AEAV<lambda_bd5a608237428601b7e45fbdc72b1ae8>@@$$QEAV<lambda_728235dc0fc2b1f82d1fa5b3e7102d8f>@@@Z@4HA 0000000180051ab0     libucrtd:mbctype.obj
 0004:00000ab0       $pdata$?fin$0@?0???$?RV<lambda_d80eeec6fff315bfe5c115232f3240e3>@@AEAV<lambda_6e4b09c48022b2350581041d5f6b0c4c>@@V<lambda_2358e3775559c9db80273638284d5e45>@@@?$__crt_seh_guarded_call@X@@QEAAX$$QEAV<lambda_d80eeec6fff315bfe5c115232f3240e3>@@AEAV<lambda_6e4b09c48022b2350581041d5f6b0c4c>@@$$QEAV<lambda_2358e3775559c9db80273638284d5e45>@@@Z@4HA 0000000180051ab0     libucrtd:exit.obj
 0004:00000ab0       $pdata$?fin$0@?0???$?RV<lambda_886d6c58226a84441f68b9f2b8217b83>@@AEAV<lambda_ab61a845afdef5b7c387490eaf3616ee>@@V<lambda_f7f22ab5edc0698d5f6905b0d3f44752>@@@?$__crt_seh_guarded_call@X@@QEAAX$$QEAV<lambda_886d6c58226a84441f68b9f2b8217b83>@@AEAV<lambda_ab61a845afdef5b7c387490eaf3616ee>@@$$QEAV<lambda_f7f22ab5edc0698d5f6905b0d3f44752>@@@Z@4HA 0000000180051ab0     libucrtd:fflush.obj
 0004:00000abc       $pdata$_configure_narrow_argv 0000000180051abc     libucrtd:argv_parsing.obj
 0004:00000ac8       $pdata$__acrt_allocate_buffer_for_argv 0000000180051ac8     libucrtd:argv_parsing.obj
 0004:00000ad4       $pdata$?do_locale_initialization@@YAXD@Z 0000000180051ad4     libucrtd:argv_parsing.obj
 0004:00000ae0       $pdata$?expand_argv_wildcards@@YAHQEAPEADQEAPEAPEAD@Z 0000000180051ae0     libucrtd:argv_parsing.obj
 0004:00000aec       $pdata$?should_copy_another_character@@YA_ND@Z 0000000180051aec     libucrtd:argv_parsing.obj
 0004:00000af8       $pdata$??$common_configure_argv@D@@YAHW4_crt_argv_mode@@@Z 0000000180051af8     libucrtd:argv_parsing.obj
 0004:00000b04       $pdata$??$get_module_file_name@AEAPEAUHINSTANCE__@@AEAY0BAF@DK@?$__crt_char_traits@D@@SAKAEAPEAUHINSTANCE__@@AEAY0BAF@D$$QEAK@Z 0000000180051b04     libucrtd:dbgrpt.obj
 0004:00000b04       $pdata$??$get_module_file_name@$$TAEAY0BAF@DH@?$__crt_char_traits@D@@SAK$$QEA$$TAEAY0BAF@D$$QEAH@Z 0000000180051b04     libucrtd:argv_parsing.obj
 0004:00000b10       $pdata$??$set_program_name@PEAD@?$__crt_char_traits@D@@SAX$$QEAPEAD@Z 0000000180051b10     libucrtd:argv_parsing.obj
 0004:00000b1c       $pdata$??$parse_command_line@D@@YAXPEADPEAPEAD0PEA_K2@Z 0000000180051b1c     libucrtd:argv_parsing.obj
 0004:00000b28       $pdata$??R<lambda_df1553121bfa390f1154bd84936f2730>@@QEBAHXZ 0000000180051b28     libucrtd:argv_parsing.obj
 0004:00000b34       $pdata$__dcrt_uninitialize_environments_nolock 0000000180051b34     libucrtd:environment_initialization.obj
 0004:00000b40       $pdata$_invoke_watson_if_error 0000000180051b40     libucrtd:environment_initialization.obj
 0004:00000b4c       $pdata$??$common_initialize_environment_nolock@D@@YAHXZ 0000000180051b4c     libucrtd:environment_initialization.obj
 0004:00000b58       $pdata$??$uninitialize_environment_internal@D@@YAXAEAPEAPEAD@Z 0000000180051b58     libucrtd:environment_initialization.obj
 0004:00000b64       $pdata$??$uninitialize_environment_internal@_W@@YAXAEAPEAPEA_W@Z 0000000180051b64     libucrtd:environment_initialization.obj
 0004:00000b70       $pdata$??$free_environment@D@@YAXQEAPEAD@Z 0000000180051b70     libucrtd:environment_initialization.obj
 0004:00000b70       $pdata$??$free_environment@_W@@YAXQEAPEA_W@Z 0000000180051b70     libucrtd:environment_initialization.obj
 0004:00000b7c       $pdata$??$create_environment@D@@YAQEAPEADQEAD@Z 0000000180051b7c     libucrtd:environment_initialization.obj
 0004:00000b88       $pdata$_initialize_onexit_table 0000000180051b88     libucrtd:onexit.obj
 0004:00000b94       $pdata$_execute_onexit_table 0000000180051b94     libucrtd:onexit.obj
 0004:00000ba0       $pdata$??R<lambda_d121dba8a4adeaf3a9819e48611155df>@@QEBAHXZ 0000000180051ba0     libucrtd:onexit.obj
 0004:00000bac       $pdata$?dtor$0@?0???R<lambda_d121dba8a4adeaf3a9819e48611155df>@@QEBAHXZ@4HA 0000000180051bac     libucrtd:onexit.obj
 0004:00000bb8       $pdata$??$__acrt_lock_and_call@V<lambda_d121dba8a4adeaf3a9819e48611155df>@@@@YAHW4__acrt_lock_id@@$$QEAV<lambda_d121dba8a4adeaf3a9819e48611155df>@@@Z 0000000180051bb8     libucrtd:onexit.obj
 0004:00000bc4       $pdata$??$?RV<lambda_6a47f4c8fd0152770a780fc1d70204eb>@@AEAV<lambda_d121dba8a4adeaf3a9819e48611155df>@@V<lambda_6aaa2265f5b6a89667e7d7630012e97a>@@@?$__crt_seh_guarded_call@H@@QEAAH$$QEAV<lambda_6a47f4c8fd0152770a780fc1d70204eb>@@AEAV<lambda_d121dba8a4adeaf3a9819e48611155df>@@$$QEAV<lambda_6aaa2265f5b6a89667e7d7630012e97a>@@@Z 0000000180051bc4     libucrtd:onexit.obj
 0004:00000bd0       $pdata$?fin$0@?0???$?RV<lambda_450d765d439847d4c735a33c368b5fc0>@@AEAV<lambda_44731a7d0e6d81c3e6aa82d741081786>@@V<lambda_601a2a7da3b7a96e9554ac7215c4b07c>@@@?$__crt_seh_guarded_call@P6AXH@Z@@QEAAP6AXH@Z$$QEAV<lambda_450d765d439847d4c735a33c368b5fc0>@@AEAV<lambda_44731a7d0e6d81c3e6aa82d741081786>@@$$QEAV<lambda_601a2a7da3b7a96e9554ac7215c4b07c>@@@Z@4HA 0000000180051bd0     libucrtd:signal.obj
 0004:00000bd0       $pdata$?fin$0@?0???$?RV<lambda_6a47f4c8fd0152770a780fc1d70204eb>@@AEAV<lambda_d121dba8a4adeaf3a9819e48611155df>@@V<lambda_6aaa2265f5b6a89667e7d7630012e97a>@@@?$__crt_seh_guarded_call@H@@QEAAH$$QEAV<lambda_6a47f4c8fd0152770a780fc1d70204eb>@@AEAV<lambda_d121dba8a4adeaf3a9819e48611155df>@@$$QEAV<lambda_6aaa2265f5b6a89667e7d7630012e97a>@@@Z@4HA 0000000180051bd0     libucrtd:onexit.obj
 0004:00000bdc       $pdata$__acrt_initialize   0000000180051bdc     libucrtd:initialization.obj
 0004:00000be8       $pdata$__acrt_uninitialize 0000000180051be8     libucrtd:initialization.obj
 0004:00000bf4       $pdata$__acrt_uninitialize_critical 0000000180051bf4     libucrtd:initialization.obj
 0004:00000c00       $pdata$__acrt_thread_attach 0000000180051c00     libucrtd:initialization.obj
 0004:00000c0c       $pdata$__acrt_thread_detach 0000000180051c0c     libucrtd:initialization.obj
 0004:00000c18       $pdata$initialize_global_variables 0000000180051c18     libucrtd:initialization.obj
 0004:00000c24       $pdata$?initialize@?$dual_state_global@P6AH_K@Z@__crt_state_management@@QEAAXQ6AH_K@Z@Z 0000000180051c24     libucrtd:new_handler.obj
 0004:00000c24       $pdata$?initialize@?$dual_state_global@PEAU__crt_locale_data@@@__crt_state_management@@QEAAXQEAU__crt_locale_data@@@Z 0000000180051c24     libucrtd:initialization.obj
 0004:00000c24       $pdata$?initialize@?$dual_state_global@PEAU__crt_multibyte_data@@@__crt_state_management@@QEAAXQEAU__crt_multibyte_data@@@Z 0000000180051c24     libucrtd:mbctype.obj
 0004:00000c24       $pdata$?initialize@?$dual_state_global@P6AXH@Z@__crt_state_management@@QEAAXQ6AXH@Z@Z 0000000180051c24     libucrtd:signal.obj
 0004:00000c24       $pdata$?initialize@?$dual_state_global@P6AHPEAU_exception@@@Z@__crt_state_management@@QEAAXQ6AHPEAU_exception@@@Z@Z 0000000180051c24     libucrtd:matherr.obj
 0004:00000c30       $pdata$initialize_c        0000000180051c30     libucrtd:initialization.obj
 0004:00000c3c       $pdata$uninitialize_environment 0000000180051c3c     libucrtd:initialization.obj
 0004:00000c48       $pdata$initialize_pointers 0000000180051c48     libucrtd:initialization.obj
 0004:00000c54       $pdata$uninitialize_vcruntime 0000000180051c54     libucrtd:initialization.obj
 0004:00000c60       $pdata$uninitialize_allocated_memory 0000000180051c60     libucrtd:initialization.obj
 0004:00000c6c       $pdata$??R<lambda_af27fe6ede5d83bbdbd622796c194e9c>@@QEBAXAEAPEAU__crt_multibyte_data@@@Z 0000000180051c6c     libucrtd:initialization.obj
 0004:00000c78       $pdata$??$uninitialize@V<lambda_af27fe6ede5d83bbdbd622796c194e9c>@@@?$dual_state_global@PEAU__crt_multibyte_data@@@__crt_state_management@@QEAAX$$QEAV<lambda_af27fe6ede5d83bbdbd622796c194e9c>@@@Z 0000000180051c78     libucrtd:initialization.obj
 0004:00000c84       $pdata$uninitialize_allocated_io_buffers 0000000180051c84     libucrtd:initialization.obj
 0004:00000c90       $pdata$report_memory_leaks 0000000180051c90     libucrtd:initialization.obj
 0004:00000c9c       $pdata$terminate           0000000180051c9c     libucrtd:terminate.obj
 0004:00000ca8       $pdata$_CrtSetDumpClient   0000000180051ca8     libucrtd:debug_heap.obj
 0004:00000cb4       $pdata$_CrtCheckMemory     0000000180051cb4     libucrtd:debug_heap.obj
 0004:00000cc0       $pdata$_CrtCheckMemory$fin$0 0000000180051cc0     libucrtd:debug_heap.obj
 0004:00000cc0       $pdata$_CrtMemDumpAllObjectsSince$fin$0 0000000180051cc0     libucrtd:debug_heap.obj
 0004:00000cc0       $pdata$_CrtSetDbgFlag$fin$0 0000000180051cc0     libucrtd:debug_heap.obj
 0004:00000cc0       $pdata$_msize_dbg$fin$0    0000000180051cc0     libucrtd:debug_heap.obj
 0004:00000cc0       $pdata$_realloc_dbg$fin$0  0000000180051cc0     libucrtd:debug_heap.obj
 0004:00000ccc       $pdata$_CrtDumpMemoryLeaks 0000000180051ccc     libucrtd:debug_heap.obj
 0004:00000cd8       $pdata$_CrtIsValidHeapPointer 0000000180051cd8     libucrtd:debug_heap.obj
 0004:00000ce4       $pdata$_CrtIsValidPointer  0000000180051ce4     libucrtd:debug_heap.obj
 0004:00000cf0       $pdata$_CrtMemCheckpoint   0000000180051cf0     libucrtd:debug_heap.obj
 0004:00000cfc       $pdata$?fin$0@?0??heap_alloc_dbg_internal@@YAPEAX_KHQEBDH@Z@4HA 0000000180051cfc     libucrtd:debug_heap.obj
 0004:00000cfc       $pdata$_CrtMemCheckpoint$fin$0 0000000180051cfc     libucrtd:debug_heap.obj
 0004:00000d08       $pdata$_CrtMemDumpAllObjectsSince 0000000180051d08     libucrtd:debug_heap.obj
 0004:00000d14       $pdata$_CrtSetDbgFlag      0000000180051d14     libucrtd:debug_heap.obj
 0004:00000d20       $pdata$_calloc_dbg         0000000180051d20     libucrtd:debug_heap.obj
 0004:00000d2c       $pdata$_free_dbg           0000000180051d2c     libucrtd:debug_heap.obj
 0004:00000d38       $pdata$_free_dbg$fin$0     0000000180051d38     libucrtd:debug_heap.obj
 0004:00000d38       $pdata$_query_new_handler$fin$0 0000000180051d38     libucrtd:new_handler.obj
 0004:00000d44       $pdata$_malloc_dbg         0000000180051d44     libucrtd:debug_heap.obj
 0004:00000d50       $pdata$_msize_dbg          0000000180051d50     libucrtd:debug_heap.obj
 0004:00000d5c       $pdata$_realloc_dbg        0000000180051d5c     libucrtd:debug_heap.obj
 0004:00000d68       $pdata$_recalloc_dbg       0000000180051d68     libucrtd:debug_heap.obj
 0004:00000d74       $pdata$__acrt_get_locale_data_prefix 0000000180051d74     libucrtd:debug_heap.obj
 0004:00000d80       $pdata$_chvalidchk_l       0000000180051d80     libucrtd:debug_heap.obj
 0004:00000d8c       $pdata$_ischartype_l       0000000180051d8c     libucrtd:debug_heap.obj
 0004:00000d98       $pdata$__acrt_locale_changed 0000000180051d98     libucrtd:debug_heap.obj
 0004:00000da4       $pdata$_invoke_watson_if_oneof 0000000180051da4     libucrtd:debug_heap.obj
 0004:00000db0       $pdata$??0_LocaleUpdate@@QEAA@QEAU__crt_locale_pointers@@@Z 0000000180051db0     libucrtd:debug_heap.obj
 0004:00000dbc       $pdata$?is_block_type_valid@@YA_NH@Z 0000000180051dbc     libucrtd:debug_heap.obj
 0004:00000dc8       $pdata$?check_bytes@@YA_NQEBEE_K@Z 0000000180051dc8     libucrtd:debug_heap.obj
 0004:00000dd4       $pdata$?is_bad_read_pointer@@YA_NQEBX_K@Z 0000000180051dd4     libucrtd:debug_heap.obj
 0004:00000de0       $pdata$?is_block_an_aligned_allocation@@YA_NQEBX@Z 0000000180051de0     libucrtd:debug_heap.obj
 0004:00000dec       $pdata$?validate_heap_if_required_nolock@@YAXXZ 0000000180051dec     libucrtd:debug_heap.obj
 0004:00000df8       $pdata$?fin$0@?0??validate_heap_if_required_nolock@@YAXXZ@4HA 0000000180051df8     libucrtd:debug_heap.obj
 0004:00000e04       $pdata$?heap_alloc_dbg_internal@@YAPEAX_KHQEBDH@Z 0000000180051e04     libucrtd:debug_heap.obj
 0004:00000e10       $pdata$?heap_alloc_dbg@@YAPEAX_KHQEBDH@Z 0000000180051e10     libucrtd:debug_heap.obj
 0004:00000e1c       $pdata$?realloc_dbg_nolock@@YAPEAXQEAXQEA_KHQEBDH_N@Z 0000000180051e1c     libucrtd:debug_heap.obj
 0004:00000e28       $pdata$?free_dbg_nolock@@YAXQEAXH@Z 0000000180051e28     libucrtd:debug_heap.obj
 0004:00000e34       $pdata$?check_block@@YA_NQEAU_CrtMemBlockHeader@@@Z 0000000180051e34     libucrtd:debug_heap.obj
 0004:00000e40       $pdata$?print_block_data@@YAXQEAU__crt_locale_pointers@@QEAU_CrtMemBlockHeader@@@Z 0000000180051e40     libucrtd:debug_heap.obj
 0004:00000e4c       $pdata$?dump_all_object_since_nolock@@YAXQEBU_CrtMemState@@@Z 0000000180051e4c     libucrtd:debug_heap.obj
 0004:00000e58       $pdata$strcpy_s            0000000180051e58     libucrtd:strcpy_s.obj
 0004:00000e64       $pdata$??$common_tcscpy_s@D@@YAHQEAD_KQEBD@Z 0000000180051e64     libucrtd:strcpy_s.obj
 0004:00000e88       $pdata$abort               0000000180051e88     libucrtd:abort.obj
 0004:00000e94       $pdata$__acrt_isleadbyte_l_noupdate 0000000180051e94     libucrtd:output.obj
 0004:00000ea0       $pdata$_isdigit_fast_internal 0000000180051ea0     libucrtd:output.obj
 0004:00000eac       $pdata$?get@__crt_deferred_errno_cache@@QEAAAEAHXZ 0000000180051eac     libucrtd:output.obj
 0004:00000eb8       $pdata$__stdio_common_vsnwprintf_s 0000000180051eb8     libucrtd:output.obj
 0004:00000ec4       $pdata$__stdio_common_vsprintf_s 0000000180051ec4     libucrtd:output.obj
 0004:00000ed0       $pdata$__stdio_common_vsnprintf_s 0000000180051ed0     libucrtd:output.obj
 0004:00000edc       $pdata$?is_string_backed@__crt_stdio_stream@@QEBA_NXZ 0000000180051edc     libucrtd:output.obj
 0004:00000ee8       $pdata$?get_flags@__crt_stdio_stream@@QEBAJXZ 0000000180051ee8     libucrtd:output.obj
 0004:00000ef4       $pdata$??0formatting_buffer@__crt_stdio_output@@QEAA@XZ 0000000180051ef4     libucrtd:output.obj
 0004:00000f00       $pdata$??4?$__crt_unique_heap_ptr@DU__crt_internal_free_policy@@@@QEAAAEAV0@$$QEAV0@@Z 0000000180051f00     libucrtd:output.obj
 0004:00000f0c       $pdata$??1formatting_buffer@__crt_stdio_output@@QEAA@XZ 0000000180051f0c     libucrtd:output.obj
 0004:00000f18       $pdata$?force_decimal_point@__crt_stdio_output@@YAXPEADQEAU__crt_locale_pointers@@@Z 0000000180051f18     libucrtd:output.obj
 0004:00000f24       $pdata$?crop_zeroes@__crt_stdio_output@@YAXPEADQEAU__crt_locale_pointers@@@Z 0000000180051f24     libucrtd:output.obj
 0004:00000f30       $pdata$?to_integer_size@__crt_stdio_output@@YA_KW4length_modifier@1@@Z 0000000180051f30     libucrtd:output.obj
 0004:00000f3c       $pdata$??$common_vsprintf_s@D@@YAH_KQEAD0QEBDQEAU__crt_locale_pointers@@1@Z 0000000180051f3c     libucrtd:output.obj
 0004:00000f48       $pdata$??$common_vsnprintf_s@D@@YAH_KQEAD00QEBDQEAU__crt_locale_pointers@@1@Z 0000000180051f48     libucrtd:output.obj
 0004:00000f54       $pdata$??$common_vsnprintf_s@_W@@YAH_KQEA_W00QEB_WQEAU__crt_locale_pointers@@QEAD@Z 0000000180051f54     libucrtd:output.obj
 0004:00000f60       $pdata$??0?$common_data@D@__crt_stdio_output@@IEAA@XZ 0000000180051f60     libucrtd:output.obj
 0004:00000f6c       $pdata$?tchar_string@?$common_data@D@__crt_stdio_output@@IEAAAEAPEADXZ 0000000180051f6c     libucrtd:output.obj
 0004:00000f78       $pdata$??1?$common_data@D@__crt_stdio_output@@QEAA@XZ 0000000180051f78     libucrtd:output.obj
 0004:00000f78       $pdata$??1?$common_data@_W@__crt_stdio_output@@QEAA@XZ 0000000180051f78     libucrtd:output.obj
 0004:00000f84       $pdata$??0?$common_data@_W@__crt_stdio_output@@IEAA@XZ 0000000180051f84     libucrtd:output.obj
 0004:00000f90       $pdata$?tchar_string@?$common_data@_W@__crt_stdio_output@@IEAAAEAPEA_WXZ 0000000180051f90     libucrtd:output.obj
 0004:00000f9c       $pdata$?validate@?$string_output_adapter@D@__crt_stdio_output@@QEBA_NXZ 0000000180051f9c     libucrtd:output.obj
 0004:00000fa8       $pdata$?write_string@?$string_output_adapter@D@__crt_stdio_output@@QEBAXQEBDHQEAHAEAV__crt_deferred_errno_cache@@@Z 0000000180051fa8     libucrtd:output.obj
 0004:00000fb4       $pdata$??0?$output_adapter_data@DV?$string_output_adapter@D@__crt_stdio_output@@@__crt_stdio_output@@IEAA@AEBV?$string_output_adapter@D@1@_KQEBDQEAU__crt_locale_pointers@@QEAD@Z 0000000180051fb4     libucrtd:output.obj
 0004:00000fc0       $pdata$??1?$output_adapter_data@DV?$string_output_adapter@D@__crt_stdio_output@@@__crt_stdio_output@@QEAA@XZ 0000000180051fc0     libucrtd:output.obj
 0004:00000fc0       $pdata$??1?$output_adapter_data@_WV?$string_output_adapter@_W@__crt_stdio_output@@@__crt_stdio_output@@QEAA@XZ 0000000180051fc0     libucrtd:output.obj
 0004:00000fcc       $pdata$?advance_to_next_pass@?$standard_base@DV?$string_output_adapter@D@__crt_stdio_output@@@__crt_stdio_output@@IEAA_NXZ 0000000180051fcc     libucrtd:output.obj
 0004:00000fcc       $pdata$?advance_to_next_pass@?$standard_base@_WV?$string_output_adapter@_W@__crt_stdio_output@@@__crt_stdio_output@@IEAA_NXZ 0000000180051fcc     libucrtd:output.obj
 0004:00000fd8       $pdata$?update_field_width@?$standard_base@DV?$string_output_adapter@D@__crt_stdio_output@@@__crt_stdio_output@@IEAA_NXZ 0000000180051fd8     libucrtd:output.obj
 0004:00000fd8       $pdata$?update_field_width@?$standard_base@_WV?$string_output_adapter@_W@__crt_stdio_output@@@__crt_stdio_output@@IEAA_NXZ 0000000180051fd8     libucrtd:output.obj
 0004:00000fe4       $pdata$?update_precision@?$standard_base@DV?$string_output_adapter@D@__crt_stdio_output@@@__crt_stdio_output@@IEAA_NXZ 0000000180051fe4     libucrtd:output.obj
 0004:00000fe4       $pdata$?update_precision@?$standard_base@_WV?$string_output_adapter@_W@__crt_stdio_output@@@__crt_stdio_output@@IEAA_NXZ 0000000180051fe4     libucrtd:output.obj
 0004:00000ff0       $pdata$??1?$standard_base@DV?$string_output_adapter@D@__crt_stdio_output@@@__crt_stdio_output@@QEAA@XZ 0000000180051ff0     libucrtd:output.obj
 0004:00000ff0       $pdata$??1?$standard_base@_WV?$string_output_adapter@_W@__crt_stdio_output@@@__crt_stdio_output@@QEAA@XZ 0000000180051ff0     libucrtd:output.obj
 0004:00000ffc       $pdata$?validate@?$string_output_adapter@_W@__crt_stdio_output@@QEBA_NXZ 0000000180051ffc     libucrtd:output.obj
 0004:00001008       $pdata$?write_string@?$string_output_adapter@_W@__crt_stdio_output@@QEBAXQEB_WHQEAHAEAV__crt_deferred_errno_cache@@@Z 0000000180052008     libucrtd:output.obj
 0004:00001014       $pdata$??0?$output_adapter_data@_WV?$string_output_adapter@_W@__crt_stdio_output@@@__crt_stdio_output@@IEAA@AEBV?$string_output_adapter@_W@1@_KQEB_WQEAU__crt_locale_pointers@@QEAD@Z 0000000180052014     libucrtd:output.obj
 0004:00001020       $pdata$??$common_vsprintf@Vformat_validation_base@__crt_stdio_output@@D@@YAH_KQEAD0QEBDQEAU__crt_locale_pointers@@1@Z 0000000180052020     libucrtd:output.obj
 0004:0000102c       $pdata$??$common_vsprintf@Vformat_validation_base@__crt_stdio_output@@_W@@YAH_KQEA_W0QEB_WQEAU__crt_locale_pointers@@QEAD@Z 000000018005202c     libucrtd:output.obj
 0004:00001038       $pdata$?validate_and_update_state_at_end_of_format_string@?$format_validation_base@DV?$string_output_adapter@D@__crt_stdio_output@@@__crt_stdio_output@@IEBA_NXZ 0000000180052038     libucrtd:output.obj
 0004:00001044       $pdata$??1?$format_validation_base@DV?$string_output_adapter@D@__crt_stdio_output@@@__crt_stdio_output@@QEAA@XZ 0000000180052044     libucrtd:output.obj
 0004:00001044       $pdata$??1?$format_validation_base@_WV?$string_output_adapter@_W@__crt_stdio_output@@@__crt_stdio_output@@QEAA@XZ 0000000180052044     libucrtd:output.obj
 0004:00001050       $pdata$?validate_and_update_state_at_end_of_format_string@?$format_validation_base@_WV?$string_output_adapter@_W@__crt_stdio_output@@@__crt_stdio_output@@IEBA_NXZ 0000000180052050     libucrtd:output.obj
 0004:0000105c       $pdata$??$?0AEBV?$string_output_adapter@_W@__crt_stdio_output@@AEB_KAEBQEB_WAEBQEAU__crt_locale_pointers@@AEBQEAD@?$standard_base@_WV?$string_output_adapter@_W@__crt_stdio_output@@@__crt_stdio_output@@IEAA@AEBV?$string_output_adapter@_W@1@AEB_KAEBQEB_WAEBQEAU__crt_locale_pointers@@AEBQEAD@Z 000000018005205c     libucrtd:output.obj
 0004:00001068       $pdata$??$?0AEBV?$string_output_adapter@D@__crt_stdio_output@@AEB_KAEBQEBDAEBQEAU__crt_locale_pointers@@AEBQEAD@?$standard_base@DV?$string_output_adapter@D@__crt_stdio_output@@@__crt_stdio_output@@IEAA@AEBV?$string_output_adapter@D@1@AEB_KAEBQEBDAEBQEAU__crt_locale_pointers@@AEBQEAD@Z 0000000180052068     libucrtd:output.obj
 0004:00001074       $pdata$??$write_multiple_characters@V?$string_output_adapter@_W@__crt_stdio_output@@D@__crt_stdio_output@@YAXAEBV?$string_output_adapter@_W@0@DHQEAH@Z 0000000180052074     libucrtd:output.obj
 0004:00001080       $pdata$??$read_va_arg@H@__crt_stdio_output@@YAHAEAPEAD@Z 0000000180052080     libucrtd:output.obj
 0004:00001080       $pdata$??$read_va_arg@I@__crt_stdio_output@@YAIAEAPEAD@Z 0000000180052080     libucrtd:output.obj
 0004:0000108c       $pdata$??$read_va_arg@PEAD@__crt_stdio_output@@YAPEADAEAPEAD@Z 000000018005208c     libucrtd:output.obj
 0004:0000108c       $pdata$??$read_va_arg@PEAX@__crt_stdio_output@@YAPEAXAEAPEAD@Z 000000018005208c     libucrtd:output.obj
 0004:0000108c       $pdata$??$read_va_arg@U_CRT_DOUBLE@@@__crt_stdio_output@@YA?AU_CRT_DOUBLE@@AEAPEAD@Z 000000018005208c     libucrtd:output.obj
 0004:0000108c       $pdata$??$read_va_arg@_J@__crt_stdio_output@@YA_JAEAPEAD@Z 000000018005208c     libucrtd:output.obj
 0004:0000108c       $pdata$??$read_va_arg@_K@__crt_stdio_output@@YA_KAEAPEAD@Z 000000018005208c     libucrtd:output.obj
 0004:00001098       $pdata$??$write_multiple_characters@V?$string_output_adapter@D@__crt_stdio_output@@D@__crt_stdio_output@@YAXAEBV?$string_output_adapter@D@0@DHQEAH@Z 0000000180052098     libucrtd:output.obj
 0004:000010a4       $pdata$??$ensure_buffer_is_big_enough@D@formatting_buffer@__crt_stdio_output@@QEAA_N_K@Z 00000001800520a4     libucrtd:output.obj
 0004:000010b0       $pdata$??$count@D@formatting_buffer@__crt_stdio_output@@QEBA_KXZ 00000001800520b0     libucrtd:output.obj
 0004:000010bc       $pdata$??$data@D@formatting_buffer@__crt_stdio_output@@QEAAPEADXZ 00000001800520bc     libucrtd:output.obj
 0004:000010bc       $pdata$??$data@_W@formatting_buffer@__crt_stdio_output@@QEAAPEA_WXZ 00000001800520bc     libucrtd:output.obj
 0004:000010c8       $pdata$??$scratch_data@D@formatting_buffer@__crt_stdio_output@@QEAAPEADXZ 00000001800520c8     libucrtd:output.obj
 0004:000010d4       $pdata$??$scratch_count@D@formatting_buffer@__crt_stdio_output@@QEBA_KXZ 00000001800520d4     libucrtd:output.obj
 0004:000010e0       $pdata$??$is_wide_character_specifier@_W@__crt_stdio_output@@YA_N_K_WW4length_modifier@0@@Z 00000001800520e0     libucrtd:output.obj
 0004:000010ec       $pdata$??$tcstol@PEB_WPEAPEA_WH@?$__crt_char_traits@_W@@SAJ$$QEAPEB_W$$QEAPEAPEA_W$$QEAH@Z 00000001800520ec     libucrtd:output.obj
 0004:000010f8       $pdata$??$is_wide_character_specifier@D@__crt_stdio_output@@YA_N_KDW4length_modifier@0@@Z 00000001800520f8     libucrtd:output.obj
 0004:00001104       $pdata$??$tcstol@PEBDPEAPEADH@?$__crt_char_traits@D@@SAJ$$QEAPEBD$$QEAPEAPEAD$$QEAH@Z 0000000180052104     libucrtd:output.obj
 0004:00001110       $pdata$??$extract_argument_from_va_list@PEADPEAD@?$standard_base@DV?$string_output_adapter@D@__crt_stdio_output@@@__crt_stdio_output@@IEAA_NAEAPEAD@Z 0000000180052110     libucrtd:output.obj
 0004:00001110       $pdata$??$extract_argument_from_va_list@PEADPEAD@?$standard_base@_WV?$string_output_adapter@_W@__crt_stdio_output@@@__crt_stdio_output@@IEAA_NAEAPEAD@Z 0000000180052110     libucrtd:output.obj
 0004:00001110       $pdata$??$extract_argument_from_va_list@PEAXPEAX@?$standard_base@DV?$string_output_adapter@D@__crt_stdio_output@@@__crt_stdio_output@@IEAA_NAEAPEAX@Z 0000000180052110     libucrtd:output.obj
 0004:00001110       $pdata$??$extract_argument_from_va_list@PEAXPEAX@?$standard_base@_WV?$string_output_adapter@_W@__crt_stdio_output@@@__crt_stdio_output@@IEAA_NAEAPEAX@Z 0000000180052110     libucrtd:output.obj
 0004:00001110       $pdata$??$extract_argument_from_va_list@_J_J@?$standard_base@DV?$string_output_adapter@D@__crt_stdio_output@@@__crt_stdio_output@@IEAA_NAEA_J@Z 0000000180052110     libucrtd:output.obj
 0004:00001110       $pdata$??$extract_argument_from_va_list@_J_J@?$standard_base@_WV?$string_output_adapter@_W@__crt_stdio_output@@@__crt_stdio_output@@IEAA_NAEA_J@Z 0000000180052110     libucrtd:output.obj
 0004:00001110       $pdata$??$extract_argument_from_va_list@_K_J@?$standard_base@DV?$string_output_adapter@D@__crt_stdio_output@@@__crt_stdio_output@@IEAA_NAEA_J@Z 0000000180052110     libucrtd:output.obj
 0004:00001110       $pdata$??$extract_argument_from_va_list@_K_J@?$standard_base@_WV?$string_output_adapter@_W@__crt_stdio_output@@@__crt_stdio_output@@IEAA_NAEA_J@Z 0000000180052110     libucrtd:output.obj
 0004:0000111c       $pdata$??$extract_argument_from_va_list@U_CRT_DOUBLE@@U1@@?$standard_base@DV?$string_output_adapter@D@__crt_stdio_output@@@__crt_stdio_output@@IEAA_NAEAU_CRT_DOUBLE@@@Z 000000018005211c     libucrtd:output.obj
 0004:0000111c       $pdata$??$extract_argument_from_va_list@U_CRT_DOUBLE@@U1@@?$standard_base@_WV?$string_output_adapter@_W@__crt_stdio_output@@@__crt_stdio_output@@IEAA_NAEAU_CRT_DOUBLE@@@Z 000000018005211c     libucrtd:output.obj
 0004:00001128       $pdata$??$ensure_buffer_is_big_enough@_W@formatting_buffer@__crt_stdio_output@@QEAA_N_K@Z 0000000180052128     libucrtd:output.obj
 0004:00001134       $pdata$??$extract_argument_from_va_list@C_J@?$standard_base@DV?$string_output_adapter@D@__crt_stdio_output@@@__crt_stdio_output@@IEAA_NAEA_J@Z 0000000180052134     libucrtd:output.obj
 0004:00001134       $pdata$??$extract_argument_from_va_list@C_J@?$standard_base@_WV?$string_output_adapter@_W@__crt_stdio_output@@@__crt_stdio_output@@IEAA_NAEA_J@Z 0000000180052134     libucrtd:output.obj
 0004:00001140       $pdata$??$extract_argument_from_va_list@E_J@?$standard_base@DV?$string_output_adapter@D@__crt_stdio_output@@@__crt_stdio_output@@IEAA_NAEA_J@Z 0000000180052140     libucrtd:output.obj
 0004:00001140       $pdata$??$extract_argument_from_va_list@E_J@?$standard_base@_WV?$string_output_adapter@_W@__crt_stdio_output@@@__crt_stdio_output@@IEAA_NAEA_J@Z 0000000180052140     libucrtd:output.obj
 0004:0000114c       $pdata$??$extract_argument_from_va_list@F_J@?$standard_base@DV?$string_output_adapter@D@__crt_stdio_output@@@__crt_stdio_output@@IEAA_NAEA_J@Z 000000018005214c     libucrtd:output.obj
 0004:0000114c       $pdata$??$extract_argument_from_va_list@F_J@?$standard_base@_WV?$string_output_adapter@_W@__crt_stdio_output@@@__crt_stdio_output@@IEAA_NAEA_J@Z 000000018005214c     libucrtd:output.obj
 0004:00001158       $pdata$??$extract_argument_from_va_list@G_J@?$standard_base@DV?$string_output_adapter@D@__crt_stdio_output@@@__crt_stdio_output@@IEAA_NAEA_J@Z 0000000180052158     libucrtd:output.obj
 0004:00001158       $pdata$??$extract_argument_from_va_list@G_J@?$standard_base@_WV?$string_output_adapter@_W@__crt_stdio_output@@@__crt_stdio_output@@IEAA_NAEA_J@Z 0000000180052158     libucrtd:output.obj
 0004:00001164       $pdata$??$extract_argument_from_va_list@H_J@?$standard_base@DV?$string_output_adapter@D@__crt_stdio_output@@@__crt_stdio_output@@IEAA_NAEA_J@Z 0000000180052164     libucrtd:output.obj
 0004:00001164       $pdata$??$extract_argument_from_va_list@H_J@?$standard_base@_WV?$string_output_adapter@_W@__crt_stdio_output@@@__crt_stdio_output@@IEAA_NAEA_J@Z 0000000180052164     libucrtd:output.obj
 0004:00001170       $pdata$??$extract_argument_from_va_list@I_J@?$standard_base@DV?$string_output_adapter@D@__crt_stdio_output@@@__crt_stdio_output@@IEAA_NAEA_J@Z 0000000180052170     libucrtd:output.obj
 0004:00001170       $pdata$??$extract_argument_from_va_list@I_J@?$standard_base@_WV?$string_output_adapter@_W@__crt_stdio_output@@@__crt_stdio_output@@IEAA_NAEA_J@Z 0000000180052170     libucrtd:output.obj
 0004:0000117c       $pdata$??$extract_argument_from_va_list@_W_W@?$standard_base@DV?$string_output_adapter@D@__crt_stdio_output@@@__crt_stdio_output@@IEAA_NAEA_W@Z 000000018005217c     libucrtd:output.obj
 0004:0000117c       $pdata$??$extract_argument_from_va_list@_W_W@?$standard_base@_WV?$string_output_adapter@_W@__crt_stdio_output@@@__crt_stdio_output@@IEAA_NAEA_W@Z 000000018005217c     libucrtd:output.obj
 0004:00001188       $pdata$??$extract_argument_from_va_list@GD@?$standard_base@DV?$string_output_adapter@D@__crt_stdio_output@@@__crt_stdio_output@@IEAA_NAEAD@Z 0000000180052188     libucrtd:output.obj
 0004:00001194       $pdata$??0?$output_processor@DV?$string_output_adapter@D@__crt_stdio_output@@V?$format_validation_base@DV?$string_output_adapter@D@__crt_stdio_output@@@2@@__crt_stdio_output@@QEAA@AEBV?$string_output_adapter@D@1@_KQEBDQEAU__crt_locale_pointers@@QEAD@Z 0000000180052194     libucrtd:output.obj
 0004:000011a0       $pdata$?process@?$output_processor@DV?$string_output_adapter@D@__crt_stdio_output@@V?$format_validation_base@DV?$string_output_adapter@D@__crt_stdio_output@@@2@@__crt_stdio_output@@QEAAHXZ 00000001800521a0     libucrtd:output.obj
 0004:000011ac       $pdata$?state_case_normal@?$output_processor@DV?$string_output_adapter@D@__crt_stdio_output@@V?$format_validation_base@DV?$string_output_adapter@D@__crt_stdio_output@@@2@@__crt_stdio_output@@AEAA_NXZ 00000001800521ac     libucrtd:output.obj
 0004:000011b8       $pdata$?state_case_normal_common@?$output_processor@DV?$string_output_adapter@D@__crt_stdio_output@@V?$format_validation_base@DV?$string_output_adapter@D@__crt_stdio_output@@@2@@__crt_stdio_output@@AEAA_NXZ 00000001800521b8     libucrtd:output.obj
 0004:000011c4       $pdata$?state_case_normal_tchar@?$output_processor@DV?$string_output_adapter@D@__crt_stdio_output@@V?$format_validation_base@DV?$string_output_adapter@D@__crt_stdio_output@@@2@@__crt_stdio_output@@AEAA_ND@Z 00000001800521c4     libucrtd:output.obj
 0004:000011d0       $pdata$?state_case_flag@?$output_processor@DV?$string_output_adapter@D@__crt_stdio_output@@V?$format_validation_base@DV?$string_output_adapter@D@__crt_stdio_output@@@2@@__crt_stdio_output@@AEAA_NXZ 00000001800521d0     libucrtd:output.obj
 0004:000011dc       $pdata$?parse_int_from_format_string@?$output_processor@DV?$string_output_adapter@D@__crt_stdio_output@@V?$format_validation_base@DV?$string_output_adapter@D@__crt_stdio_output@@@2@@__crt_stdio_output@@AEAA_NQEAH@Z 00000001800521dc     libucrtd:output.obj
 0004:000011e8       $pdata$?state_case_width@?$output_processor@DV?$string_output_adapter@D@__crt_stdio_output@@V?$format_validation_base@DV?$string_output_adapter@D@__crt_stdio_output@@@2@@__crt_stdio_output@@AEAA_NXZ 00000001800521e8     libucrtd:output.obj
 0004:000011f4       $pdata$?state_case_precision@?$output_processor@DV?$string_output_adapter@D@__crt_stdio_output@@V?$format_validation_base@DV?$string_output_adapter@D@__crt_stdio_output@@@2@@__crt_stdio_output@@AEAA_NXZ 00000001800521f4     libucrtd:output.obj
 0004:00001200       $pdata$?state_case_size@?$output_processor@DV?$string_output_adapter@D@__crt_stdio_output@@V?$format_validation_base@DV?$string_output_adapter@D@__crt_stdio_output@@@2@@__crt_stdio_output@@AEAA_NXZ 0000000180052200     libucrtd:output.obj
 0004:0000120c       $pdata$?state_case_type@?$output_processor@DV?$string_output_adapter@D@__crt_stdio_output@@V?$format_validation_base@DV?$string_output_adapter@D@__crt_stdio_output@@@2@@__crt_stdio_output@@AEAA_NXZ 000000018005220c     libucrtd:output.obj
 0004:00001218       $pdata$?type_case_c@?$output_processor@DV?$string_output_adapter@D@__crt_stdio_output@@V?$format_validation_base@DV?$string_output_adapter@D@__crt_stdio_output@@@2@@__crt_stdio_output@@AEAA_NXZ 0000000180052218     libucrtd:output.obj
 0004:00001224       $pdata$?type_case_c_tchar@?$output_processor@DV?$string_output_adapter@D@__crt_stdio_output@@V?$format_validation_base@DV?$string_output_adapter@D@__crt_stdio_output@@@2@@__crt_stdio_output@@AEAA_ND@Z 0000000180052224     libucrtd:output.obj
 0004:00001230       $pdata$?type_case_Z@?$output_processor@DV?$string_output_adapter@D@__crt_stdio_output@@V?$format_validation_base@DV?$string_output_adapter@D@__crt_stdio_output@@@2@@__crt_stdio_output@@AEAA_NXZ 0000000180052230     libucrtd:output.obj
 0004:0000123c       $pdata$?type_case_s@?$output_processor@DV?$string_output_adapter@D@__crt_stdio_output@@V?$format_validation_base@DV?$string_output_adapter@D@__crt_stdio_output@@@2@@__crt_stdio_output@@AEAA_NXZ 000000018005223c     libucrtd:output.obj
 0004:00001248       $pdata$?type_case_s_compute_narrow_string_length@?$output_processor@DV?$string_output_adapter@D@__crt_stdio_output@@V?$format_validation_base@DV?$string_output_adapter@D@__crt_stdio_output@@@2@@__crt_stdio_output@@AEBAHHD@Z 0000000180052248     libucrtd:output.obj
 0004:00001254       $pdata$?type_case_a@?$output_processor@DV?$string_output_adapter@D@__crt_stdio_output@@V?$format_validation_base@DV?$string_output_adapter@D@__crt_stdio_output@@@2@@__crt_stdio_output@@AEAA_NXZ 0000000180052254     libucrtd:output.obj
 0004:00001260       $pdata$?type_case_d@?$output_processor@DV?$string_output_adapter@D@__crt_stdio_output@@V?$format_validation_base@DV?$string_output_adapter@D@__crt_stdio_output@@@2@@__crt_stdio_output@@AEAA_NXZ 0000000180052260     libucrtd:output.obj
 0004:0000126c       $pdata$?type_case_u@?$output_processor@DV?$string_output_adapter@D@__crt_stdio_output@@V?$format_validation_base@DV?$string_output_adapter@D@__crt_stdio_output@@@2@@__crt_stdio_output@@AEAA_NXZ 000000018005226c     libucrtd:output.obj
 0004:00001278       $pdata$?type_case_o@?$output_processor@DV?$string_output_adapter@D@__crt_stdio_output@@V?$format_validation_base@DV?$string_output_adapter@D@__crt_stdio_output@@@2@@__crt_stdio_output@@AEAA_NXZ 0000000180052278     libucrtd:output.obj
 0004:00001284       $pdata$?type_case_X@?$output_processor@DV?$string_output_adapter@D@__crt_stdio_output@@V?$format_validation_base@DV?$string_output_adapter@D@__crt_stdio_output@@@2@@__crt_stdio_output@@AEAA_NXZ 0000000180052284     libucrtd:output.obj
 0004:00001290       $pdata$?type_case_x@?$output_processor@DV?$string_output_adapter@D@__crt_stdio_output@@V?$format_validation_base@DV?$string_output_adapter@D@__crt_stdio_output@@@2@@__crt_stdio_output@@AEAA_NXZ 0000000180052290     libucrtd:output.obj
 0004:0000129c       $pdata$?type_case_p@?$output_processor@DV?$string_output_adapter@D@__crt_stdio_output@@V?$format_validation_base@DV?$string_output_adapter@D@__crt_stdio_output@@@2@@__crt_stdio_output@@AEAA_NXZ 000000018005229c     libucrtd:output.obj
 0004:000012a8       $pdata$?type_case_integer@?$output_processor@DV?$string_output_adapter@D@__crt_stdio_output@@V?$format_validation_base@DV?$string_output_adapter@D@__crt_stdio_output@@@2@@__crt_stdio_output@@AEAA_NI_N@Z 00000001800522a8     libucrtd:output.obj
 0004:000012b4       $pdata$?type_case_n@?$output_processor@DV?$string_output_adapter@D@__crt_stdio_output@@V?$format_validation_base@DV?$string_output_adapter@D@__crt_stdio_output@@@2@@__crt_stdio_output@@AEAA_NXZ 00000001800522b4     libucrtd:output.obj
 0004:000012c0       $pdata$?write_stored_string_tchar@?$output_processor@DV?$string_output_adapter@D@__crt_stdio_output@@V?$format_validation_base@DV?$string_output_adapter@D@__crt_stdio_output@@@2@@__crt_stdio_output@@AEAA_ND@Z 00000001800522c0     libucrtd:output.obj
 0004:000012cc       $pdata$?has_flag@?$output_processor@DV?$string_output_adapter@D@__crt_stdio_output@@V?$format_validation_base@DV?$string_output_adapter@D@__crt_stdio_output@@@2@@__crt_stdio_output@@AEBA_NI@Z 00000001800522cc     libucrtd:output.obj
 0004:000012cc       $pdata$?has_flag@?$output_processor@_WV?$string_output_adapter@_W@__crt_stdio_output@@V?$format_validation_base@_WV?$string_output_adapter@_W@__crt_stdio_output@@@2@@__crt_stdio_output@@AEBA_NI@Z 00000001800522cc     libucrtd:output.obj
 0004:000012d8       $pdata$?find_next_state@?$output_processor@DV?$string_output_adapter@D@__crt_stdio_output@@V?$format_validation_base@DV?$string_output_adapter@D@__crt_stdio_output@@@2@@__crt_stdio_output@@AEBA?AW4state@2@DW432@@Z 00000001800522d8     libucrtd:output.obj
 0004:000012e4       $pdata$?adjust_hexit@?$output_processor@DV?$string_output_adapter@D@__crt_stdio_output@@V?$format_validation_base@DV?$string_output_adapter@D@__crt_stdio_output@@@2@@__crt_stdio_output@@CADH_N@Z 00000001800522e4     libucrtd:output.obj
 0004:000012e4       $pdata$?adjust_hexit@?$output_processor@_WV?$string_output_adapter@_W@__crt_stdio_output@@V?$format_validation_base@_WV?$string_output_adapter@_W@__crt_stdio_output@@@2@@__crt_stdio_output@@CADH_N@Z 00000001800522e4     libucrtd:output.obj
 0004:000012f0       $pdata$??1?$output_processor@DV?$string_output_adapter@D@__crt_stdio_output@@V?$format_validation_base@DV?$string_output_adapter@D@__crt_stdio_output@@@2@@__crt_stdio_output@@QEAA@XZ 00000001800522f0     libucrtd:output.obj
 0004:000012f0       $pdata$??1?$output_processor@_WV?$string_output_adapter@_W@__crt_stdio_output@@V?$format_validation_base@_WV?$string_output_adapter@_W@__crt_stdio_output@@@2@@__crt_stdio_output@@QEAA@XZ 00000001800522f0     libucrtd:output.obj
 0004:000012fc       $pdata$??0?$output_processor@_WV?$string_output_adapter@_W@__crt_stdio_output@@V?$format_validation_base@_WV?$string_output_adapter@_W@__crt_stdio_output@@@2@@__crt_stdio_output@@QEAA@AEBV?$string_output_adapter@_W@1@_KQEB_WQEAU__crt_locale_pointers@@QEAD@Z 00000001800522fc     libucrtd:output.obj
 0004:00001308       $pdata$?process@?$output_processor@_WV?$string_output_adapter@_W@__crt_stdio_output@@V?$format_validation_base@_WV?$string_output_adapter@_W@__crt_stdio_output@@@2@@__crt_stdio_output@@QEAAHXZ 0000000180052308     libucrtd:output.obj
 0004:00001314       $pdata$?state_case_normal@?$output_processor@_WV?$string_output_adapter@_W@__crt_stdio_output@@V?$format_validation_base@_WV?$string_output_adapter@_W@__crt_stdio_output@@@2@@__crt_stdio_output@@AEAA_NXZ 0000000180052314     libucrtd:output.obj
 0004:00001320       $pdata$?state_case_normal_common@?$output_processor@_WV?$string_output_adapter@_W@__crt_stdio_output@@V?$format_validation_base@_WV?$string_output_adapter@_W@__crt_stdio_output@@@2@@__crt_stdio_output@@AEAA_NXZ 0000000180052320     libucrtd:output.obj
 0004:0000132c       $pdata$?state_case_flag@?$output_processor@_WV?$string_output_adapter@_W@__crt_stdio_output@@V?$format_validation_base@_WV?$string_output_adapter@_W@__crt_stdio_output@@@2@@__crt_stdio_output@@AEAA_NXZ 000000018005232c     libucrtd:output.obj
 0004:00001338       $pdata$?parse_int_from_format_string@?$output_processor@_WV?$string_output_adapter@_W@__crt_stdio_output@@V?$format_validation_base@_WV?$string_output_adapter@_W@__crt_stdio_output@@@2@@__crt_stdio_output@@AEAA_NQEAH@Z 0000000180052338     libucrtd:output.obj
 0004:00001344       $pdata$?state_case_width@?$output_processor@_WV?$string_output_adapter@_W@__crt_stdio_output@@V?$format_validation_base@_WV?$string_output_adapter@_W@__crt_stdio_output@@@2@@__crt_stdio_output@@AEAA_NXZ 0000000180052344     libucrtd:output.obj
 0004:00001350       $pdata$?state_case_precision@?$output_processor@_WV?$string_output_adapter@_W@__crt_stdio_output@@V?$format_validation_base@_WV?$string_output_adapter@_W@__crt_stdio_output@@@2@@__crt_stdio_output@@AEAA_NXZ 0000000180052350     libucrtd:output.obj
 0004:0000135c       $pdata$?state_case_size@?$output_processor@_WV?$string_output_adapter@_W@__crt_stdio_output@@V?$format_validation_base@_WV?$string_output_adapter@_W@__crt_stdio_output@@@2@@__crt_stdio_output@@AEAA_NXZ 000000018005235c     libucrtd:output.obj
 0004:00001368       $pdata$?state_case_type@?$output_processor@_WV?$string_output_adapter@_W@__crt_stdio_output@@V?$format_validation_base@_WV?$string_output_adapter@_W@__crt_stdio_output@@@2@@__crt_stdio_output@@AEAA_NXZ 0000000180052368     libucrtd:output.obj
 0004:00001374       $pdata$?type_case_c@?$output_processor@_WV?$string_output_adapter@_W@__crt_stdio_output@@V?$format_validation_base@_WV?$string_output_adapter@_W@__crt_stdio_output@@@2@@__crt_stdio_output@@AEAA_NXZ 0000000180052374     libucrtd:output.obj
 0004:00001380       $pdata$?type_case_c_tchar@?$output_processor@_WV?$string_output_adapter@_W@__crt_stdio_output@@V?$format_validation_base@_WV?$string_output_adapter@_W@__crt_stdio_output@@@2@@__crt_stdio_output@@AEAA_N_W@Z 0000000180052380     libucrtd:output.obj
 0004:0000138c       $pdata$?type_case_Z@?$output_processor@_WV?$string_output_adapter@_W@__crt_stdio_output@@V?$format_validation_base@_WV?$string_output_adapter@_W@__crt_stdio_output@@@2@@__crt_stdio_output@@AEAA_NXZ 000000018005238c     libucrtd:output.obj
 0004:00001398       $pdata$?type_case_s@?$output_processor@_WV?$string_output_adapter@_W@__crt_stdio_output@@V?$format_validation_base@_WV?$string_output_adapter@_W@__crt_stdio_output@@@2@@__crt_stdio_output@@AEAA_NXZ 0000000180052398     libucrtd:output.obj
 0004:000013a4       $pdata$?type_case_s_compute_narrow_string_length@?$output_processor@_WV?$string_output_adapter@_W@__crt_stdio_output@@V?$format_validation_base@_WV?$string_output_adapter@_W@__crt_stdio_output@@@2@@__crt_stdio_output@@AEBAHH_W@Z 00000001800523a4     libucrtd:output.obj
 0004:000013b0       $pdata$?type_case_a@?$output_processor@_WV?$string_output_adapter@_W@__crt_stdio_output@@V?$format_validation_base@_WV?$string_output_adapter@_W@__crt_stdio_output@@@2@@__crt_stdio_output@@AEAA_NXZ 00000001800523b0     libucrtd:output.obj
 0004:000013bc       $pdata$?type_case_d@?$output_processor@_WV?$string_output_adapter@_W@__crt_stdio_output@@V?$format_validation_base@_WV?$string_output_adapter@_W@__crt_stdio_output@@@2@@__crt_stdio_output@@AEAA_NXZ 00000001800523bc     libucrtd:output.obj
 0004:000013c8       $pdata$?type_case_u@?$output_processor@_WV?$string_output_adapter@_W@__crt_stdio_output@@V?$format_validation_base@_WV?$string_output_adapter@_W@__crt_stdio_output@@@2@@__crt_stdio_output@@AEAA_NXZ 00000001800523c8     libucrtd:output.obj
 0004:000013d4       $pdata$?type_case_o@?$output_processor@_WV?$string_output_adapter@_W@__crt_stdio_output@@V?$format_validation_base@_WV?$string_output_adapter@_W@__crt_stdio_output@@@2@@__crt_stdio_output@@AEAA_NXZ 00000001800523d4     libucrtd:output.obj
 0004:000013e0       $pdata$?type_case_X@?$output_processor@_WV?$string_output_adapter@_W@__crt_stdio_output@@V?$format_validation_base@_WV?$string_output_adapter@_W@__crt_stdio_output@@@2@@__crt_stdio_output@@AEAA_NXZ 00000001800523e0     libucrtd:output.obj
 0004:000013ec       $pdata$?type_case_x@?$output_processor@_WV?$string_output_adapter@_W@__crt_stdio_output@@V?$format_validation_base@_WV?$string_output_adapter@_W@__crt_stdio_output@@@2@@__crt_stdio_output@@AEAA_NXZ 00000001800523ec     libucrtd:output.obj
 0004:000013f8       $pdata$?type_case_p@?$output_processor@_WV?$string_output_adapter@_W@__crt_stdio_output@@V?$format_validation_base@_WV?$string_output_adapter@_W@__crt_stdio_output@@@2@@__crt_stdio_output@@AEAA_NXZ 00000001800523f8     libucrtd:output.obj
 0004:00001404       $pdata$?type_case_integer@?$output_processor@_WV?$string_output_adapter@_W@__crt_stdio_output@@V?$format_validation_base@_WV?$string_output_adapter@_W@__crt_stdio_output@@@2@@__crt_stdio_output@@AEAA_NI_N@Z 0000000180052404     libucrtd:output.obj
 0004:00001410       $pdata$?type_case_n@?$output_processor@_WV?$string_output_adapter@_W@__crt_stdio_output@@V?$format_validation_base@_WV?$string_output_adapter@_W@__crt_stdio_output@@@2@@__crt_stdio_output@@AEAA_NXZ 0000000180052410     libucrtd:output.obj
 0004:0000141c       $pdata$?write_stored_string_tchar@?$output_processor@_WV?$string_output_adapter@_W@__crt_stdio_output@@V?$format_validation_base@_WV?$string_output_adapter@_W@__crt_stdio_output@@@2@@__crt_stdio_output@@AEAA_N_W@Z 000000018005241c     libucrtd:output.obj
 0004:00001428       $pdata$?find_next_state@?$output_processor@_WV?$string_output_adapter@_W@__crt_stdio_output@@V?$format_validation_base@_WV?$string_output_adapter@_W@__crt_stdio_output@@@2@@__crt_stdio_output@@AEBA?AW4state@2@_WW432@@Z 0000000180052428     libucrtd:output.obj
 0004:00001434       $pdata$??$?0AEBV?$string_output_adapter@_W@__crt_stdio_output@@AEB_KAEBQEB_WAEBQEAU__crt_locale_pointers@@AEBQEAD@?$format_validation_base@_WV?$string_output_adapter@_W@__crt_stdio_output@@@__crt_stdio_output@@IEAA@AEBV?$string_output_adapter@_W@1@AEB_KAEBQEB_WAEBQEAU__crt_locale_pointers@@AEBQEAD@Z 0000000180052434     libucrtd:output.obj
 0004:00001440       $pdata$??$?0AEBV?$string_output_adapter@D@__crt_stdio_output@@AEB_KAEBQEBDAEBQEAU__crt_locale_pointers@@AEBQEAD@?$format_validation_base@DV?$string_output_adapter@D@__crt_stdio_output@@@__crt_stdio_output@@IEAA@AEBV?$string_output_adapter@D@1@AEB_KAEBQEBDAEBQEAU__crt_locale_pointers@@AEBQEAD@Z 0000000180052440     libucrtd:output.obj
 0004:0000144c       $pdata$??$count@_W@formatting_buffer@__crt_stdio_output@@QEBA_KXZ 000000018005244c     libucrtd:output.obj
 0004:00001458       $pdata$??$read_va_arg@C@__crt_stdio_output@@YACAEAPEAD@Z 0000000180052458     libucrtd:output.obj
 0004:00001458       $pdata$??$read_va_arg@E@__crt_stdio_output@@YAEAEAPEAD@Z 0000000180052458     libucrtd:output.obj
 0004:00001464       $pdata$??$read_va_arg@F@__crt_stdio_output@@YAFAEAPEAD@Z 0000000180052464     libucrtd:output.obj
 0004:00001464       $pdata$??$read_va_arg@G@__crt_stdio_output@@YAGAEAPEAD@Z 0000000180052464     libucrtd:output.obj
 0004:00001464       $pdata$??$read_va_arg@_W@__crt_stdio_output@@YA_WAEAPEAD@Z 0000000180052464     libucrtd:output.obj
 0004:00001470       $pdata$??$extract_argument_from_va_list@PEAUansi_string@?1??type_case_Z@?$output_processor@DV?$string_output_adapter@D@__crt_stdio_output@@V?$format_validation_base@DV?$string_output_adapter@D@__crt_stdio_output@@@2@@__crt_stdio_output@@AEAA_NXZ@PEAU1?1??234@AEAA_NXZ@@?$standard_base@DV?$string_output_adapter@D@__crt_stdio_output@@@__crt_stdio_output@@IEAA_NAEAPEAUansi_string@?1??type_case_Z@?$output_processor@DV?$string_output_adapter@D@__crt_stdio_output@@V?$format_validation_base@DV?$string_output_adapter@D@__crt_stdio_output@@@2@@1@AEAA_NXZ@@Z 0000000180052470     libucrtd:output.obj
 0004:00001470       $pdata$??$extract_argument_from_va_list@PEAUansi_string@?1??type_case_Z@?$output_processor@_WV?$string_output_adapter@_W@__crt_stdio_output@@V?$format_validation_base@_WV?$string_output_adapter@_W@__crt_stdio_output@@@2@@__crt_stdio_output@@AEAA_NXZ@PEAU1?1??234@AEAA_NXZ@@?$standard_base@_WV?$string_output_adapter@_W@__crt_stdio_output@@@__crt_stdio_output@@IEAA_NAEAPEAUansi_string@?1??type_case_Z@?$output_processor@_WV?$string_output_adapter@_W@__crt_stdio_output@@V?$format_validation_base@_WV?$string_output_adapter@_W@__crt_stdio_output@@@2@@1@AEAA_NXZ@@Z 0000000180052470     libucrtd:output.obj
 0004:0000147c       $pdata$??$type_case_integer_parse_into_buffer@_K@?$output_processor@_WV?$string_output_adapter@_W@__crt_stdio_output@@V?$format_validation_base@_WV?$string_output_adapter@_W@__crt_stdio_output@@@2@@__crt_stdio_output@@AEAAX_KI_N@Z 000000018005247c     libucrtd:output.obj
 0004:00001488       $pdata$??$type_case_integer_parse_into_buffer@I@?$output_processor@_WV?$string_output_adapter@_W@__crt_stdio_output@@V?$format_validation_base@_WV?$string_output_adapter@_W@__crt_stdio_output@@@2@@__crt_stdio_output@@AEAAXII_N@Z 0000000180052488     libucrtd:output.obj
 0004:00001494       $pdata$??$type_case_integer_parse_into_buffer@_K@?$output_processor@DV?$string_output_adapter@D@__crt_stdio_output@@V?$format_validation_base@DV?$string_output_adapter@D@__crt_stdio_output@@@2@@__crt_stdio_output@@AEAAX_KI_N@Z 0000000180052494     libucrtd:output.obj
 0004:000014a0       $pdata$??$type_case_integer_parse_into_buffer@I@?$output_processor@DV?$string_output_adapter@D@__crt_stdio_output@@V?$format_validation_base@DV?$string_output_adapter@D@__crt_stdio_output@@@2@@__crt_stdio_output@@AEAAXII_N@Z 00000001800524a0     libucrtd:output.obj
 0004:000014ac       $pdata$??$read_va_arg@PEAUansi_string@?1??type_case_Z@?$output_processor@DV?$string_output_adapter@D@__crt_stdio_output@@V?$format_validation_base@DV?$string_output_adapter@D@__crt_stdio_output@@@2@@__crt_stdio_output@@AEAA_NXZ@@__crt_stdio_output@@YAPEAUansi_string@?1??type_case_Z@?$output_processor@DV?$string_output_adapter@D@__crt_stdio_output@@V?$format_validation_base@DV?$string_output_adapter@D@__crt_stdio_output@@@2@@0@AEAA_NXZ@AEAPEAD@Z 00000001800524ac     libucrtd:output.obj
 0004:000014ac       $pdata$??$read_va_arg@PEAUansi_string@?1??type_case_Z@?$output_processor@_WV?$string_output_adapter@_W@__crt_stdio_output@@V?$format_validation_base@_WV?$string_output_adapter@_W@__crt_stdio_output@@@2@@__crt_stdio_output@@AEAA_NXZ@@__crt_stdio_output@@YAPEAUansi_string@?1??type_case_Z@?$output_processor@_WV?$string_output_adapter@_W@__crt_stdio_output@@V?$format_validation_base@_WV?$string_output_adapter@_W@__crt_stdio_output@@@2@@0@AEAA_NXZ@AEAPEAD@Z 00000001800524ac     libucrtd:output.obj
 0004:000014b8       $pdata$__ascii_iswalpha    00000001800524b8     libucrtd:atox.obj
 0004:000014c4       $pdata$__ascii_towupper    00000001800524c4     libucrtd:atox.obj
 0004:000014d0       $pdata$?parse_digit@__crt_strtox@@YAI_W@Z 00000001800524d0     libucrtd:atox.obj
 0004:000014dc       $pdata$?is_space@__crt_strtox@@YA_NDQEAU__crt_locale_pointers@@@Z 00000001800524dc     libucrtd:atox.obj
 0004:000014e8       $pdata$?is_space@__crt_strtox@@YA_N_WPEAU__crt_locale_pointers@@@Z 00000001800524e8     libucrtd:atox.obj
 0004:000014f4       $pdata$?validate@?$c_string_character_source@D@__crt_strtox@@QEBA_NXZ 00000001800524f4     libucrtd:atox.obj
 0004:00001500       $pdata$?get@?$c_string_character_source@D@__crt_strtox@@QEAADXZ 0000000180052500     libucrtd:atox.obj
 0004:0000150c       $pdata$?unget@?$c_string_character_source@D@__crt_strtox@@QEAAXD@Z 000000018005250c     libucrtd:atox.obj
 0004:00001518       $pdata$??$parse_integer@KV?$c_string_character_source@D@__crt_strtox@@@__crt_strtox@@YAKQEAU__crt_locale_pointers@@V?$c_string_character_source@D@0@H_N@Z 0000000180052518     libucrtd:atox.obj
 0004:00001524       $pdata$?validate@?$c_string_character_source@_W@__crt_strtox@@QEBA_NXZ 0000000180052524     libucrtd:atox.obj
 0004:00001530       $pdata$?get@?$c_string_character_source@_W@__crt_strtox@@QEAA_WXZ 0000000180052530     libucrtd:atox.obj
 0004:0000153c       $pdata$?unget@?$c_string_character_source@_W@__crt_strtox@@QEAAX_W@Z 000000018005253c     libucrtd:atox.obj
 0004:00001548       $pdata$??$parse_integer@KV?$c_string_character_source@_W@__crt_strtox@@@__crt_strtox@@YAKQEAU__crt_locale_pointers@@V?$c_string_character_source@_W@0@H_N@Z 0000000180052548     libucrtd:atox.obj
 0004:00001554       $pdata$??$is_overflow_condition@K@__crt_strtox@@YA_NIK@Z 0000000180052554     libucrtd:atox.obj
 0004:0000156c       $pdata$_CrtDbgReport       000000018005256c     libucrtd:dbgrpt.obj
 0004:00001578       $pdata$_CrtDbgReportW      0000000180052578     libucrtd:dbgrpt.obj
 0004:00001584       $pdata$_vsnwprintf_s_l     0000000180052584     libucrtd:dbgrpt.obj
 0004:00001590       $pdata$_snwprintf_s        0000000180052590     libucrtd:dbgrpt.obj
 0004:0000159c       $pdata$__acrt_MessageWindowA 000000018005259c     libucrtd:dbgrpt.obj
 0004:000015a8       $pdata$??$common_message_window@D@@YAHHQEAXQEBD111@Z 00000001800525a8     libucrtd:dbgrpt.obj
 0004:000015b4       $pdata$__acrt_MessageWindowW 00000001800525b4     libucrtd:dbgrpt.obj
 0004:000015c0       $pdata$??$common_message_window@_W@@YAHHQEAXQEB_W111@Z 00000001800525c0     libucrtd:dbgrpt.obj
 0004:000015cc       $pdata$??$tcscpy_s@AEAY0BAF@D_KPEBD@?$__crt_char_traits@D@@SAHAEAY0BAF@D$$QEA_K$$QEAPEBD@Z 00000001800525cc     libucrtd:dbgrpt.obj
 0004:000015d8       $pdata$??$tcslen@AEAY0BAF@D@?$__crt_char_traits@D@@SA_KAEAY0BAF@D@Z 00000001800525d8     libucrtd:dbgrpt.obj
 0004:000015e4       $pdata$??$tcslen@AEBQEBD@?$__crt_char_traits@D@@SA_KAEBQEBD@Z 00000001800525e4     libucrtd:dbgrpt.obj
 0004:000015f0       $pdata$??$get_module_file_name@AEAPEAUHINSTANCE__@@AEAY0BAF@_WK@?$__crt_char_traits@_W@@SAKAEAPEAUHINSTANCE__@@AEAY0BAF@_W$$QEAK@Z 00000001800525f0     libucrtd:dbgrpt.obj
 0004:000015fc       $pdata$??$tcscpy_s@AEAY0BAF@_W_KPEB_W@?$__crt_char_traits@_W@@SAHAEAY0BAF@_W$$QEA_K$$QEAPEB_W@Z 00000001800525fc     libucrtd:dbgrpt.obj
 0004:00001608       $pdata$??$tcslen@AEAY0BAF@_W@?$__crt_char_traits@_W@@SA_KAEAY0BAF@_W@Z 0000000180052608     libucrtd:dbgrpt.obj
 0004:00001614       $pdata$??$tcslen@AEBQEB_W@?$__crt_char_traits@_W@@SA_KAEBQEB_W@Z 0000000180052614     libucrtd:dbgrpt.obj
 0004:00001620       $pdata$free                0000000180052620     libucrtd:free.obj
 0004:0000162c       $pdata$malloc              000000018005262c     libucrtd:malloc.obj
 0004:00001638       $pdata$_call_matherr       0000000180052638     libucrtd:libm_error.obj
 0004:00001644       $pdata$_exception_enabled  0000000180052644     libucrtd:libm_error.obj
 0004:00001650       $pdata$_handle_nanf        0000000180052650     libucrtd:libm_error.obj
 0004:0000165c       $pdata$_handle_nan         000000018005265c     libucrtd:libm_error.obj
 0004:00001668       $pdata$_handle_error       0000000180052668     libucrtd:libm_error.obj
 0004:00001674       $pdata$__acrt_initialize_ptd 0000000180052674     libucrtd:per_thread_data.obj
 0004:00001680       $pdata$__acrt_uninitialize_ptd 0000000180052680     libucrtd:per_thread_data.obj
 0004:0000168c       $pdata$__acrt_getptd       000000018005268c     libucrtd:per_thread_data.obj
 0004:00001698       $pdata$__acrt_getptd_head  0000000180052698     libucrtd:per_thread_data.obj
 0004:000016a4       $pdata$__acrt_getptd_noexit 00000001800526a4     libucrtd:per_thread_data.obj
 0004:000016b0       $pdata$__acrt_freeptd      00000001800526b0     libucrtd:per_thread_data.obj
 0004:000016bc       $pdata$??0__crt_scoped_get_last_error_reset@@QEAA@XZ 00000001800526bc     libucrtd:per_thread_data.obj
 0004:000016c8       $pdata$??1__crt_scoped_get_last_error_reset@@QEAA@XZ 00000001800526c8     libucrtd:per_thread_data.obj
 0004:000016d4       $pdata$?destroy_fls@@YAXPEAX@Z 00000001800526d4     libucrtd:per_thread_data.obj
 0004:000016e0       $pdata$?replace_current_thread_locale_nolock@@YAXQEAU__acrt_ptd@@QEAU__crt_locale_data@@@Z 00000001800526e0     libucrtd:per_thread_data.obj
 0004:000016ec       $pdata$?value@?$dual_state_global@P6AH_K@Z@__crt_state_management@@QEAAAEAP6AH_K@ZXZ 00000001800526ec     libucrtd:new_handler.obj
 0004:000016ec       $pdata$?value@?$dual_state_global@PEAU__crt_locale_data@@@__crt_state_management@@QEAAAEAPEAU__crt_locale_data@@XZ 00000001800526ec     libucrtd:per_thread_data.obj
 0004:000016ec       $pdata$?value@?$dual_state_global@PEAE@__crt_state_management@@QEAAAEAPEAEXZ 00000001800526ec     libucrtd:mbctype.obj
 0004:000016ec       $pdata$?value@?$dual_state_global@PEAU__crt_multibyte_data@@@__crt_state_management@@QEAAAEAPEAU__crt_multibyte_data@@XZ 00000001800526ec     libucrtd:mbctype.obj
 0004:000016ec       $pdata$?value@?$dual_state_global@P6AXPEB_W00I_K@Z@__crt_state_management@@QEAAAEAP6AXPEB_W00I_K@ZXZ 00000001800526ec     libucrtd:invalid_parameter.obj
 0004:000016ec       $pdata$?value@?$dual_state_global@P6AXH@Z@__crt_state_management@@QEAAAEAP6AXH@ZXZ 00000001800526ec     libucrtd:signal.obj
 0004:000016ec       $pdata$?value@?$dual_state_global@P6AHPEAU_exception@@@Z@__crt_state_management@@QEAAAEAP6AHPEAU_exception@@@ZXZ 00000001800526ec     libucrtd:matherr.obj
 0004:000016f8       $pdata$?construct_ptd@@YAXQEAU__acrt_ptd@@QEAPEAU__crt_locale_data@@@Z 00000001800526f8     libucrtd:per_thread_data.obj
 0004:00001704       $pdata$??$__acrt_lock_and_call@V<lambda_8d0ee55de4b1038c4002e0adecdf1839>@@@@YAXW4__acrt_lock_id@@$$QEAV<lambda_8d0ee55de4b1038c4002e0adecdf1839>@@@Z 0000000180052704     libucrtd:per_thread_data.obj
 0004:00001710       $pdata$??R<lambda_92619d2358a28f41a33ba319515a20b9>@@QEBAXXZ 0000000180052710     libucrtd:per_thread_data.obj
 0004:0000171c       $pdata$??$__acrt_lock_and_call@V<lambda_92619d2358a28f41a33ba319515a20b9>@@@@YAXW4__acrt_lock_id@@$$QEAV<lambda_92619d2358a28f41a33ba319515a20b9>@@@Z 000000018005271c     libucrtd:per_thread_data.obj
 0004:00001728       $pdata$?construct_ptd_array@@YAXQEAU__acrt_ptd@@@Z 0000000180052728     libucrtd:per_thread_data.obj
 0004:00001734       $pdata$?destroy_ptd@@YAXQEAU__acrt_ptd@@@Z 0000000180052734     libucrtd:per_thread_data.obj
 0004:00001740       $pdata$??R<lambda_e157831efee4ea0afb0a2ace5dd5fd0d>@@QEBAXXZ 0000000180052740     libucrtd:per_thread_data.obj
 0004:0000174c       $pdata$??$__acrt_lock_and_call@V<lambda_e157831efee4ea0afb0a2ace5dd5fd0d>@@@@YAXW4__acrt_lock_id@@$$QEAV<lambda_e157831efee4ea0afb0a2ace5dd5fd0d>@@@Z 000000018005274c     libucrtd:per_thread_data.obj
 0004:00001758       $pdata$??R<lambda_8f455de75cd7d7f24b4096f044d8b9e6>@@QEBAXXZ 0000000180052758     libucrtd:per_thread_data.obj
 0004:00001764       $pdata$??$__acrt_lock_and_call@V<lambda_8f455de75cd7d7f24b4096f044d8b9e6>@@@@YAXW4__acrt_lock_id@@$$QEAV<lambda_8f455de75cd7d7f24b4096f044d8b9e6>@@@Z 0000000180052764     libucrtd:per_thread_data.obj
 0004:00001770       $pdata$?destroy_ptd_array@@YAXQEAU__acrt_ptd@@@Z 0000000180052770     libucrtd:per_thread_data.obj
 0004:0000177c       $pdata$?try_get_ptd_head@@YAPEAU__acrt_ptd@@XZ 000000018005277c     libucrtd:per_thread_data.obj
 0004:00001788       $pdata$?internal_get_ptd_head@@YAPEAU__acrt_ptd@@XZ 0000000180052788     libucrtd:per_thread_data.obj
 0004:00001794       $pdata$?internal_getptd_noexit@@YAPEAU__acrt_ptd@@XZ 0000000180052794     libucrtd:per_thread_data.obj
 0004:000017a0       $pdata$??$?RV<lambda_0ae27a3a962d80f24befdcbee591983d>@@AEAV<lambda_8d0ee55de4b1038c4002e0adecdf1839>@@V<lambda_dc504788e8f1664fe9b84e20bfb512f2>@@@?$__crt_seh_guarded_call@X@@QEAAX$$QEAV<lambda_0ae27a3a962d80f24befdcbee591983d>@@AEAV<lambda_8d0ee55de4b1038c4002e0adecdf1839>@@$$QEAV<lambda_dc504788e8f1664fe9b84e20bfb512f2>@@@Z 00000001800527a0     libucrtd:per_thread_data.obj
 0004:000017ac       $pdata$??$?RV<lambda_aa87e3671a710a21b5dc78c0bdf72e11>@@AEAV<lambda_92619d2358a28f41a33ba319515a20b9>@@V<lambda_6992ecaafeb10aed2b74cb1fae11a551>@@@?$__crt_seh_guarded_call@X@@QEAAX$$QEAV<lambda_aa87e3671a710a21b5dc78c0bdf72e11>@@AEAV<lambda_92619d2358a28f41a33ba319515a20b9>@@$$QEAV<lambda_6992ecaafeb10aed2b74cb1fae11a551>@@@Z 00000001800527ac     libucrtd:per_thread_data.obj
 0004:000017b8       $pdata$??$?RV<lambda_74a0ef281e44d15e1136f792f539efb3>@@AEAV<lambda_e157831efee4ea0afb0a2ace5dd5fd0d>@@V<lambda_04ddeca75b7c13fd67716e8dfcef87ee>@@@?$__crt_seh_guarded_call@X@@QEAAX$$QEAV<lambda_74a0ef281e44d15e1136f792f539efb3>@@AEAV<lambda_e157831efee4ea0afb0a2ace5dd5fd0d>@@$$QEAV<lambda_04ddeca75b7c13fd67716e8dfcef87ee>@@@Z 00000001800527b8     libucrtd:per_thread_data.obj
 0004:000017c4       $pdata$??$?RV<lambda_2d41944a1d46af3157314b8a01080d33>@@AEAV<lambda_8f455de75cd7d7f24b4096f044d8b9e6>@@V<lambda_aa500f224e6afead328df44964fe2772>@@@?$__crt_seh_guarded_call@X@@QEAAX$$QEAV<lambda_2d41944a1d46af3157314b8a01080d33>@@AEAV<lambda_8f455de75cd7d7f24b4096f044d8b9e6>@@$$QEAV<lambda_aa500f224e6afead328df44964fe2772>@@@Z 00000001800527c4     libucrtd:per_thread_data.obj
 0004:000017d0       $pdata$__acrt_initialize_locks 00000001800527d0     libucrtd:locks.obj
 0004:000017dc       $pdata$__acrt_uninitialize_locks 00000001800527dc     libucrtd:locks.obj
 0004:000017e8       $pdata$__acrt_lock         00000001800527e8     libucrtd:locks.obj
 0004:000017f4       $pdata$__acrt_unlock       00000001800527f4     libucrtd:locks.obj
 0004:00001800       $pdata$__acrt_get_process_end_policy 0000000180052800     libucrtd:win_policies.obj
 0004:0000180c       $pdata$__acrt_get_developer_information_policy 000000018005280c     libucrtd:win_policies.obj
 0004:00001818       $pdata$__acrt_get_windowing_model_policy 0000000180052818     libucrtd:win_policies.obj
 0004:00001824       $pdata$?appmodel_get_policy@process_end_policy_properties@?1??__acrt_get_process_end_policy@@YA?AW4process_end_policy@@XZ@SAJPEAW4AppPolicyProcessTerminationMethod@@@Z 0000000180052824     libucrtd:win_policies.obj
 0004:00001830       $pdata$??$get_win_policy@Uprocess_end_policy_properties@?1??__acrt_get_process_end_policy@@YA?AW4process_end_policy@@XZ@@@YA?AW4process_end_policy@@W4AppPolicyProcessTerminationMethod@@@Z 0000000180052830     libucrtd:win_policies.obj
 0004:0000183c       $pdata$?appmodel_get_policy@developer_information_policy_properties@?1??__acrt_get_developer_information_policy@@YA?AW4developer_information_policy@@XZ@SAJPEAW4AppPolicyShowDeveloperDiagnostic@@@Z 000000018005283c     libucrtd:win_policies.obj
 0004:00001848       $pdata$??$get_cached_win_policy@Udeveloper_information_policy_properties@?1??__acrt_get_developer_information_policy@@YA?AW4developer_information_policy@@XZ@@@YA?AW4developer_information_policy@@W4AppPolicyShowDeveloperDiagnostic@@@Z 0000000180052848     libucrtd:win_policies.obj
 0004:00001854       $pdata$?appmodel_policy_to_policy_type@windowing_model_policy_properties@?1??__acrt_get_windowing_model_policy@@YA?AW4windowing_model_policy@@XZ@SA?AW43@J@Z 0000000180052854     libucrtd:win_policies.obj
 0004:00001860       $pdata$?appmodel_get_policy@windowing_model_policy_properties@?1??__acrt_get_windowing_model_policy@@YA?AW4windowing_model_policy@@XZ@SAJPEAW4AppPolicyWindowingModel@@@Z 0000000180052860     libucrtd:win_policies.obj
 0004:0000186c       $pdata$??$get_cached_win_policy@Uwindowing_model_policy_properties@?1??__acrt_get_windowing_model_policy@@YA?AW4windowing_model_policy@@XZ@@@YA?AW4windowing_model_policy@@W4AppPolicyWindowingModel@@@Z 000000018005286c     libucrtd:win_policies.obj
 0004:00001878       $pdata$_invalid_parameter  0000000180052878     libucrtd:invalid_parameter.obj
 0004:00001884       $pdata$_invalid_parameter_noinfo 0000000180052884     libucrtd:invalid_parameter.obj
 0004:00001890       $pdata$_invoke_watson      0000000180052890     libucrtd:invalid_parameter.obj
 0004:0000189c       $pdata$__acrt_call_reportfault 000000018005289c     libucrtd:invalid_parameter.obj
 0004:000018a8       $pdata$__acrt_initialize_invalid_parameter_handler 00000001800528a8     libucrtd:invalid_parameter.obj
 0004:000018b4       $pdata$??$initialize_from_array@$$BY00Q6AXPEB_W00I_K@Z@?$dual_state_global@P6AXPEB_W00I_K@Z@__crt_state_management@@QEAAXAEAY00Q6AXPEB_W00I_K@Z@Z 00000001800528b4     libucrtd:invalid_parameter.obj
 0004:000018c0       $pdata$_errno              00000001800528c0     libucrtd:errno.obj
 0004:000018cc       $pdata$__doserrno          00000001800528cc     libucrtd:errno.obj
 0004:000018d8       $pdata$__acrt_errno_map_os_error 00000001800528d8     libucrtd:errno.obj
 0004:000018e4       $pdata$__acrt_errno_from_os_error 00000001800528e4     libucrtd:errno.obj
 0004:000018f0       $pdata$?strpbrk@@YAPEADQEADQEBD@Z 00000001800528f0     libucrtd:argv_wildcards.obj
 0004:000018fc       $pdata$__acrt_expand_narrow_argv_wildcards 00000001800528fc     libucrtd:argv_wildcards.obj
 0004:00001908       $pdata$?close@__crt_findfile_traits@@SA_NPEAX@Z 0000000180052908     libucrtd:argv_wildcards.obj
 0004:00001914       $pdata$?allocate@__crt_win32_buffer_internal_dynamic_resizing@@SAHQEAPEAX_KAEBV__crt_win32_buffer_empty_debug_info@@@Z 0000000180052914     libucrtd:argv_wildcards.obj
 0004:00001920       $pdata$?deallocate@__crt_win32_buffer_internal_dynamic_resizing@@SAXQEAXAEBV__crt_win32_buffer_empty_debug_info@@@Z 0000000180052920     libucrtd:argv_wildcards.obj
 0004:0000192c       $pdata$?__acrt_get_utf8_acp_compatibility_codepage@@YAIXZ 000000018005292c     libucrtd:argv_wildcards.obj
 0004:00001938       $pdata$?previous_character@@YAPEADQEAD0@Z 0000000180052938     libucrtd:argv_wildcards.obj
 0004:00001944       $pdata$?get_wide@@YAPEA_WQEAV?$__crt_win32_buffer@_WU__crt_win32_buffer_internal_dynamic_resizing@@@@QEAD@Z 0000000180052944     libucrtd:argv_wildcards.obj
 0004:00001950       $pdata$??1?$__crt_win32_buffer@DU__crt_win32_buffer_internal_dynamic_resizing@@@@QEAA@XZ 0000000180052950     libucrtd:argv_wildcards.obj
 0004:00001950       $pdata$??1?$__crt_win32_buffer@_WU__crt_win32_buffer_internal_dynamic_resizing@@@@QEAA@XZ 0000000180052950     libucrtd:argv_wildcards.obj
 0004:0000195c       $pdata$?allocate@?$__crt_win32_buffer@_WU__crt_win32_buffer_internal_dynamic_resizing@@@@QEAAH_K@Z 000000018005295c     libucrtd:argv_wildcards.obj
 0004:00001968       $pdata$?set_to_nullptr@?$__crt_win32_buffer@DU__crt_win32_buffer_internal_dynamic_resizing@@@@QEAAXXZ 0000000180052968     libucrtd:argv_wildcards.obj
 0004:00001968       $pdata$?set_to_nullptr@?$__crt_win32_buffer@_WU__crt_win32_buffer_internal_dynamic_resizing@@@@QEAAXXZ 0000000180052968     libucrtd:argv_wildcards.obj
 0004:00001974       $pdata$?_deallocate@?$__crt_win32_buffer@DU__crt_win32_buffer_internal_dynamic_resizing@@@@AEAAXXZ 0000000180052974     libucrtd:argv_wildcards.obj
 0004:00001974       $pdata$?_deallocate@?$__crt_win32_buffer@_WU__crt_win32_buffer_internal_dynamic_resizing@@@@AEAAXXZ 0000000180052974     libucrtd:argv_wildcards.obj
 0004:00001980       $pdata$??$__acrt_mbs_to_wcs_cp@U__crt_win32_buffer_internal_dynamic_resizing@@@@YAHQEBDAEAV?$__crt_win32_buffer@_WU__crt_win32_buffer_internal_dynamic_resizing@@@@I@Z 0000000180052980     libucrtd:argv_wildcards.obj
 0004:0000198c       $pdata$?get_file_name@@YAPEADQEAV?$__crt_win32_buffer@DU__crt_win32_buffer_internal_dynamic_resizing@@@@QEA_W@Z 000000018005298c     libucrtd:argv_wildcards.obj
 0004:00001998       $pdata$?allocate@?$__crt_win32_buffer@DU__crt_win32_buffer_internal_dynamic_resizing@@@@QEAAH_K@Z 0000000180052998     libucrtd:argv_wildcards.obj
 0004:000019a4       $pdata$??$__acrt_wcs_to_mbs_cp@U__crt_win32_buffer_internal_dynamic_resizing@@@@YAHQEB_WAEAV?$__crt_win32_buffer@DU__crt_win32_buffer_internal_dynamic_resizing@@@@I@Z 00000001800529a4     libucrtd:argv_wildcards.obj
 0004:000019b0       $pdata$??$common_expand_argv_wildcards@D@@YAHQEAPEADQEAPEAPEAD@Z 00000001800529b0     libucrtd:argv_wildcards.obj
 0004:000019bc       $pdata$??R<lambda_7c9dea7b4ca7285d2cdb541a38da6275>@@QEBAHIQEBDQEA_W_K@Z 00000001800529bc     libucrtd:argv_wildcards.obj
 0004:000019c8       $pdata$??$__acrt_convert_wcs_mbs_cp@D_WV<lambda_7c9dea7b4ca7285d2cdb541a38da6275>@@U__crt_win32_buffer_internal_dynamic_resizing@@@@YAHQEBDAEAV?$__crt_win32_buffer@_WU__crt_win32_buffer_internal_dynamic_resizing@@@@AEBV<lambda_7c9dea7b4ca7285d2cdb541a38da6275>@@I@Z 00000001800529c8     libucrtd:argv_wildcards.obj
 0004:000019d4       $pdata$??R<lambda_f788ae46380686e8b737efdd8c720d07>@@QEBAHIQEB_WQEAD_K@Z 00000001800529d4     libucrtd:getmodulefilenamea.obj
 0004:000019d4       $pdata$??R<lambda_d8593a27d1aa8c02be35c86a17d324c4>@@QEBAHIQEB_WQEAD_K@Z 00000001800529d4     libucrtd:argv_wildcards.obj
 0004:000019e0       $pdata$??$__acrt_convert_wcs_mbs_cp@_WDV<lambda_d8593a27d1aa8c02be35c86a17d324c4>@@U__crt_win32_buffer_internal_dynamic_resizing@@@@YAHQEB_WAEAV?$__crt_win32_buffer@DU__crt_win32_buffer_internal_dynamic_resizing@@@@AEBV<lambda_d8593a27d1aa8c02be35c86a17d324c4>@@I@Z 00000001800529e0     libucrtd:argv_wildcards.obj
 0004:000019ec       $pdata$?append@?$argument_list@D@?A0x5f5c8891@@QEAAHQEAD@Z 00000001800529ec     libucrtd:argv_wildcards.obj
 0004:000019f8       $pdata$??1?$argument_list@D@?A0x5f5c8891@@QEAA@XZ 00000001800529f8     libucrtd:argv_wildcards.obj
 0004:00001a04       $pdata$?expand_if_necessary@?$argument_list@D@?A0x5f5c8891@@AEAAHXZ 0000000180052a04     libucrtd:argv_wildcards.obj
 0004:00001a10       $pdata$??$tcspbrk@AEAPEADAEAY02$$CBD@?$__crt_char_traits@D@@SAPEADAEAPEADAEAY02$$CBD@Z 0000000180052a10     libucrtd:argv_wildcards.obj
 0004:00001a1c       $pdata$??$copy_and_add_argument_to_buffer@D@@YAHQEBD0_KAEAV?$argument_list@D@?A0x5f5c8891@@@Z 0000000180052a1c     libucrtd:argv_wildcards.obj
 0004:00001a28       $pdata$??$expand_argument_wildcards@D@@YAHQEAD0AEAV?$argument_list@D@?A0x5f5c8891@@@Z 0000000180052a28     libucrtd:argv_wildcards.obj
 0004:00001a34       $pdata$??$tcsncpy_s@AEAPEAD_KAEAPEADAEB_K@?$__crt_char_traits@D@@SAHAEAPEAD$$QEA_K0AEB_K@Z 0000000180052a34     libucrtd:argv_wildcards.obj
 0004:00001a34       $pdata$??$tcsncpy_s@PEADAEB_KAEBQEBDAEB_K@?$__crt_char_traits@D@@SAH$$QEAPEADAEB_KAEBQEBD1@Z 0000000180052a34     libucrtd:argv_wildcards.obj
 0004:00001a34       $pdata$??$tcsncpy_s@PEAD_KAEBQEBDAEB_K@?$__crt_char_traits@D@@SAH$$QEAPEAD$$QEA_KAEBQEBDAEB_K@Z 0000000180052a34     libucrtd:argv_wildcards.obj
 0004:00001a40       $pdata$??R<lambda_cfae5a0e6efa98e0d1aa03c4cec8f74e>@@QEBA_ND@Z 0000000180052a40     libucrtd:argv_wildcards.obj
 0004:00001a4c       $pdata$??1?$__crt_unique_handle_t@U__crt_findfile_traits@@@@QEAA@XZ 0000000180052a4c     libucrtd:argv_wildcards.obj
 0004:00001a58       $pdata$?close@?$__crt_unique_handle_t@U__crt_findfile_traits@@@@QEAAXXZ 0000000180052a58     libucrtd:argv_wildcards.obj
 0004:00001a64       $pdata$?<lambda_invoker_cdecl>@<lambda_a1ce4c8ae42411fd470c77163914f50e>@@CAHPEBX0@Z 0000000180052a64     libucrtd:argv_wildcards.obj
 0004:00001a70       $pdata$__acrt_GetModuleFileNameA 0000000180052a70     libucrtd:getmodulefilenamea.obj
 0004:00001a7c       $pdata$?allocate@__crt_win32_buffer_no_resizing@@SAHQEAPEAX_KAEBV__crt_win32_buffer_empty_debug_info@@@Z 0000000180052a7c     libucrtd:getmodulefilenamea.obj
 0004:00001a88       $pdata$??1?$__crt_win32_buffer@DU__crt_win32_buffer_no_resizing@@@@QEAA@XZ 0000000180052a88     libucrtd:getmodulefilenamea.obj
 0004:00001a94       $pdata$?allocate@?$__crt_win32_buffer@DU__crt_win32_buffer_no_resizing@@@@QEAAH_K@Z 0000000180052a94     libucrtd:getmodulefilenamea.obj
 0004:00001aa0       $pdata$?set_to_nullptr@?$__crt_win32_buffer@DU__crt_win32_buffer_no_resizing@@@@QEAAXXZ 0000000180052aa0     libucrtd:getmodulefilenamea.obj
 0004:00001aac       $pdata$?_deallocate@?$__crt_win32_buffer@DU__crt_win32_buffer_no_resizing@@@@AEAAXXZ 0000000180052aac     libucrtd:getmodulefilenamea.obj
 0004:00001ab8       $pdata$??$__acrt_wcs_to_mbs_cp@U__crt_win32_buffer_no_resizing@@@@YAHQEB_WAEAV?$__crt_win32_buffer@DU__crt_win32_buffer_no_resizing@@@@I@Z 0000000180052ab8     libucrtd:getmodulefilenamea.obj
 0004:00001ac4       $pdata$??$__acrt_convert_wcs_mbs_cp@_WDV<lambda_f788ae46380686e8b737efdd8c720d07>@@U__crt_win32_buffer_no_resizing@@@@YAHQEB_WAEAV?$__crt_win32_buffer@DU__crt_win32_buffer_no_resizing@@@@AEBV<lambda_f788ae46380686e8b737efdd8c720d07>@@I@Z 0000000180052ac4     libucrtd:getmodulefilenamea.obj
 0004:00001ad0       $pdata$memcpy_s            0000000180052ad0     libucrtd:cfout.obj
 0004:00001ad0       $pdata$memcpy_s            0000000180052ad0     libucrtd:mbctype.obj
 0004:00001adc       $pdata$__acrt_update_thread_multibyte_data 0000000180052adc     libucrtd:mbctype.obj
 0004:00001ae8       $pdata$__acrt_initialize_multibyte 0000000180052ae8     libucrtd:mbctype.obj
 0004:00001af4       $pdata$_setmbcp_nolock     0000000180052af4     libucrtd:mbctype.obj
 0004:00001b00       $pdata$?getSystemCP@@YAHH@Z 0000000180052b00     libucrtd:mbctype.obj
 0004:00001b0c       $pdata$?setSBCS@@YAXPEAU__crt_multibyte_data@@@Z 0000000180052b0c     libucrtd:mbctype.obj
 0004:00001b18       $pdata$?update_thread_multibyte_data_internal@@YAPEAU__crt_multibyte_data@@QEAU__acrt_ptd@@QEAPEAU1@@Z 0000000180052b18     libucrtd:mbctype.obj
 0004:00001b24       $pdata$?fin$0@?0??update_thread_multibyte_data_internal@@YAPEAU__crt_multibyte_data@@QEAU__acrt_ptd@@QEAPEAU1@@Z@4HA 0000000180052b24     libucrtd:mbctype.obj
 0004:00001b30       $pdata$?setmbcp_internal@@YAHH_NQEAU__acrt_ptd@@QEAPEAU__crt_multibyte_data@@@Z 0000000180052b30     libucrtd:mbctype.obj
 0004:00001b3c       $pdata$??R<lambda_bd5a608237428601b7e45fbdc72b1ae8>@@QEBAXXZ 0000000180052b3c     libucrtd:mbctype.obj
 0004:00001b48       $pdata$??$__acrt_lock_and_call@V<lambda_bd5a608237428601b7e45fbdc72b1ae8>@@@@YAXW4__acrt_lock_id@@$$QEAV<lambda_bd5a608237428601b7e45fbdc72b1ae8>@@@Z 0000000180052b48     libucrtd:mbctype.obj
 0004:00001b54       $pdata$?CPtoLocaleName@@YAPEB_WH@Z 0000000180052b54     libucrtd:mbctype.obj
 0004:00001b60       $pdata$?setSBUpLow@@YAXPEAU__crt_multibyte_data@@@Z 0000000180052b60     libucrtd:mbctype.obj
 0004:00001b6c       $pdata$??$initialize_from_array@$$BY10BAA@E@?$dual_state_global@PEAE@__crt_state_management@@QEAAXAEAY10BAA@E@Z 0000000180052b6c     libucrtd:mbctype.obj
 0004:00001b78       $pdata$??$initialize_from_array@$$BY10BAB@E@?$dual_state_global@PEAE@__crt_state_management@@QEAAXAEAY10BAB@E@Z 0000000180052b78     libucrtd:mbctype.obj
 0004:00001b84       $pdata$??$?RV<lambda_efa02eb69bf647d2f7ff0dd6f1103f72>@@AEAV<lambda_bd5a608237428601b7e45fbdc72b1ae8>@@V<lambda_728235dc0fc2b1f82d1fa5b3e7102d8f>@@@?$__crt_seh_guarded_call@X@@QEAAX$$QEAV<lambda_efa02eb69bf647d2f7ff0dd6f1103f72>@@AEAV<lambda_bd5a608237428601b7e45fbdc72b1ae8>@@$$QEAV<lambda_728235dc0fc2b1f82d1fa5b3e7102d8f>@@@Z 0000000180052b84     libucrtd:mbctype.obj
 0004:00001b90       $pdata$?x_ismbbtype_l@@YAHPEAU__crt_locale_pointers@@IHH@Z 0000000180052b90     libucrtd:ismbbyte.obj
 0004:00001b9c       $pdata$__acrt_initialize_command_line 0000000180052b9c     libucrtd:argv_data.obj
 0004:00001ba8       $pdata$wcscpy_s            0000000180052ba8     libucrtd:wcscpy_s.obj
 0004:00001bb4       $pdata$??$common_tcscpy_s@_W@@YAHQEA_W_KQEB_W@Z 0000000180052bb4     libucrtd:wcscpy_s.obj
 0004:00001bc0       $pdata$__acrt_MultiByteToWideChar 0000000180052bc0     libucrtd:multibytetowidechar.obj
 0004:00001bcc       $pdata$?filter_mbtowcs_flags@@YAKIK@Z 0000000180052bcc     libucrtd:multibytetowidechar.obj
 0004:00001bd8       $pdata$__acrt_WideCharToMultiByte 0000000180052bd8     libucrtd:widechartomultibyte.obj
 0004:00001be4       $pdata$?filter_wcstomb_flags@@YAKIK@Z 0000000180052be4     libucrtd:widechartomultibyte.obj
 0004:00001bf0       $pdata$__dcrt_get_narrow_environment_from_os 0000000180052bf0     libucrtd:get_environment_from_os.obj
 0004:00001bfc       $pdata$__acrt_initialize_winapi_thunks 0000000180052bfc     libucrtd:winapi_thunks.obj
 0004:00001c08       $pdata$__acrt_uninitialize_winapi_thunks 0000000180052c08     libucrtd:winapi_thunks.obj
 0004:00001c14       $pdata$__acrt_AreFileApisANSI 0000000180052c14     libucrtd:winapi_thunks.obj
 0004:00001c20       $pdata$__acrt_FlsAlloc     0000000180052c20     libucrtd:winapi_thunks.obj
 0004:00001c2c       $pdata$__acrt_FlsFree      0000000180052c2c     libucrtd:winapi_thunks.obj
 0004:00001c38       $pdata$__acrt_FlsGetValue  0000000180052c38     libucrtd:winapi_thunks.obj
 0004:00001c44       $pdata$__acrt_FlsSetValue  0000000180052c44     libucrtd:winapi_thunks.obj
 0004:00001c50       $pdata$__acrt_InitializeCriticalSectionEx 0000000180052c50     libucrtd:winapi_thunks.obj
 0004:00001c5c       $pdata$__acrt_LCMapStringEx 0000000180052c5c     libucrtd:winapi_thunks.obj
 0004:00001c68       $pdata$__acrt_LocaleNameToLCID 0000000180052c68     libucrtd:winapi_thunks.obj
 0004:00001c74       $pdata$__acrt_MessageBoxW  0000000180052c74     libucrtd:winapi_thunks.obj
 0004:00001c80       $pdata$__acrt_AppPolicyGetProcessTerminationMethodInternal 0000000180052c80     libucrtd:winapi_thunks.obj
 0004:00001c8c       $pdata$__acrt_AppPolicyGetShowDeveloperDiagnosticInternal 0000000180052c8c     libucrtd:winapi_thunks.obj
 0004:00001c98       $pdata$__acrt_AppPolicyGetWindowingModelInternal 0000000180052c98     libucrtd:winapi_thunks.obj
 0004:00001ca4       $pdata$__acrt_can_show_message_box 0000000180052ca4     libucrtd:winapi_thunks.obj
 0004:00001cb0       $pdata$__acrt_get_parent_window 0000000180052cb0     libucrtd:winapi_thunks.obj
 0004:00001cbc       $pdata$__acrt_is_interactive 0000000180052cbc     libucrtd:winapi_thunks.obj
 0004:00001cc8       $pdata$?try_load_library_from_system_directory@@YAPEAUHINSTANCE__@@QEB_W@Z 0000000180052cc8     libucrtd:winapi_thunks.obj
 0004:00001cd4       $pdata$?try_get_module@@YAPEAUHINSTANCE__@@W4module_id@?A0x391cf84c@@@Z 0000000180052cd4     libucrtd:winapi_thunks.obj
 0004:00001ce0       $pdata$?try_get_first_available_module@@YAPEAUHINSTANCE__@@QEBW4module_id@?A0x391cf84c@@0@Z 0000000180052ce0     libucrtd:winapi_thunks.obj
 0004:00001cec       $pdata$?try_get_proc_address_from_first_available_module@@YAPEAXQEBDQEBW4module_id@?A0x391cf84c@@1@Z 0000000180052cec     libucrtd:winapi_thunks.obj
 0004:00001cf8       $pdata$?try_get_function@@YAPEAXW4function_id@?A0x391cf84c@@QEBDQEBW4module_id@2@2@Z 0000000180052cf8     libucrtd:winapi_thunks.obj
 0004:00001d04       $pdata$?try_get_AreFileApisANSI@@YAP6AHXZXZ 0000000180052d04     libucrtd:winapi_thunks.obj
 0004:00001d10       $pdata$?try_get_FlsAlloc@@YAP6AKP6AXPEAX@Z@ZXZ 0000000180052d10     libucrtd:winapi_thunks.obj
 0004:00001d1c       $pdata$?try_get_FlsFree@@YAP6AHK@ZXZ 0000000180052d1c     libucrtd:winapi_thunks.obj
 0004:00001d28       $pdata$?try_get_FlsGetValue@@YAP6APEAXK@ZXZ 0000000180052d28     libucrtd:winapi_thunks.obj
 0004:00001d34       $pdata$?try_get_FlsSetValue@@YAP6AHKPEAX@ZXZ 0000000180052d34     libucrtd:winapi_thunks.obj
 0004:00001d40       $pdata$?try_get_GetActiveWindow@@YAP6APEAUHWND__@@XZXZ 0000000180052d40     libucrtd:winapi_thunks.obj
 0004:00001d4c       $pdata$?try_get_GetLastActivePopup@@YAP6APEAUHWND__@@PEAU1@@ZXZ 0000000180052d4c     libucrtd:winapi_thunks.obj
 0004:00001d58       $pdata$?try_get_GetProcessWindowStation@@YAP6APEAUHWINSTA__@@XZXZ 0000000180052d58     libucrtd:winapi_thunks.obj
 0004:00001d64       $pdata$?try_get_GetUserObjectInformationW@@YAP6AHPEAXH0KPEAK@ZXZ 0000000180052d64     libucrtd:winapi_thunks.obj
 0004:00001d70       $pdata$?try_get_InitializeCriticalSectionEx@@YAP6AHPEAU_RTL_CRITICAL_SECTION@@KK@ZXZ 0000000180052d70     libucrtd:winapi_thunks.obj
 0004:00001d7c       $pdata$?try_get_LCMapStringEx@@YAP6AHPEB_WK0HPEA_WHPEAU_nlsversioninfo@@PEAX_J@ZXZ 0000000180052d7c     libucrtd:winapi_thunks.obj
 0004:00001d88       $pdata$?try_get_LocaleNameToLCID@@YAP6AKPEB_WK@ZXZ 0000000180052d88     libucrtd:winapi_thunks.obj
 0004:00001d94       $pdata$?try_get_MessageBoxA@@YAP6AHPEAUHWND__@@PEBD1I@ZXZ 0000000180052d94     libucrtd:winapi_thunks.obj
 0004:00001da0       $pdata$?try_get_MessageBoxW@@YAP6AHPEAUHWND__@@PEB_W1I@ZXZ 0000000180052da0     libucrtd:winapi_thunks.obj
 0004:00001dac       $pdata$?try_get_AppPolicyGetProcessTerminationMethod@@YAP6AJPEAXPEAW4AppPolicyProcessTerminationMethod@@@ZXZ 0000000180052dac     libucrtd:winapi_thunks.obj
 0004:00001db8       $pdata$?try_get_AppPolicyGetShowDeveloperDiagnostic@@YAP6AJPEAXPEAW4AppPolicyShowDeveloperDiagnostic@@@ZXZ 0000000180052db8     libucrtd:winapi_thunks.obj
 0004:00001dc4       $pdata$?try_get_AppPolicyGetWindowingModel@@YAP6AJPEAXPEAW4AppPolicyWindowingModel@@@ZXZ 0000000180052dc4     libucrtd:winapi_thunks.obj
 0004:00001dd0       $pdata$__acrt_initialize_heap 0000000180052dd0     libucrtd:heap_handle.obj
 0004:00001ddc       $pdata$__acrt_initialize_lowio 0000000180052ddc     libucrtd:ioinit.obj
 0004:00001de8       $pdata$__acrt_initialize_lowio$fin$0 0000000180052de8     libucrtd:ioinit.obj
 0004:00001df4       $pdata$__acrt_uninitialize_lowio 0000000180052df4     libucrtd:ioinit.obj
 0004:00001e00       $pdata$?get_std_handle_id@@YAKH@Z 0000000180052e00     libucrtd:ioinit.obj
 0004:00001e0c       $pdata$?initialize_inherited_file_handles_nolock@@YAXXZ 0000000180052e0c     libucrtd:ioinit.obj
 0004:00001e18       $pdata$?initialize_stdio_handles_nolock@@YAXXZ 0000000180052e18     libucrtd:ioinit.obj
 0004:00001e24       $pdata$__acrt_execute_initializers 0000000180052e24     libucrtd:shared_initialization.obj
 0004:00001e30       $pdata$__acrt_execute_uninitializers 0000000180052e30     libucrtd:shared_initialization.obj
 0004:00001e3c       $pdata$_callnewh           0000000180052e3c     libucrtd:new_handler.obj
 0004:00001e48       $pdata$__acrt_initialize_new_handler 0000000180052e48     libucrtd:new_handler.obj
 0004:00001e54       $pdata$_query_new_handler  0000000180052e54     libucrtd:new_handler.obj
 0004:00001e60       $pdata$__acrt_initialize_signal_handlers 0000000180052e60     libucrtd:signal.obj
 0004:00001e6c       $pdata$__acrt_get_sigabrt_handler 0000000180052e6c     libucrtd:signal.obj
 0004:00001e78       $pdata$__fpecode           0000000180052e78     libucrtd:signal.obj
 0004:00001e84       $pdata$raise               0000000180052e84     libucrtd:signal.obj
 0004:00001e90       $pdata$raise$fin$0         0000000180052e90     libucrtd:signal.obj
 0004:00001e9c       $pdata$?get_global_action_nolock@@YAPEAP6AXH@ZH@Z 0000000180052e9c     libucrtd:signal.obj
 0004:00001ea8       $pdata$?siglookup@@YAPEAU__crt_signal_action_t@@HQEAU1@@Z 0000000180052ea8     libucrtd:signal.obj
 0004:00001eb4       $pdata$??R<lambda_44731a7d0e6d81c3e6aa82d741081786>@@QEBAP6AXH@ZXZ 0000000180052eb4     libucrtd:signal.obj
 0004:00001ec0       $pdata$??$__acrt_lock_and_call@V<lambda_44731a7d0e6d81c3e6aa82d741081786>@@@@YAP6AXH@ZW4__acrt_lock_id@@$$QEAV<lambda_44731a7d0e6d81c3e6aa82d741081786>@@@Z 0000000180052ec0     libucrtd:signal.obj
 0004:00001ecc       $pdata$??$?RV<lambda_450d765d439847d4c735a33c368b5fc0>@@AEAV<lambda_44731a7d0e6d81c3e6aa82d741081786>@@V<lambda_601a2a7da3b7a96e9554ac7215c4b07c>@@@?$__crt_seh_guarded_call@P6AXH@Z@@QEAAP6AXH@Z$$QEAV<lambda_450d765d439847d4c735a33c368b5fc0>@@AEAV<lambda_44731a7d0e6d81c3e6aa82d741081786>@@$$QEAV<lambda_601a2a7da3b7a96e9554ac7215c4b07c>@@@Z 0000000180052ecc     libucrtd:signal.obj
 0004:00001ed8       $pdata$__acrt_initialize_user_matherr 0000000180052ed8     libucrtd:matherr.obj
 0004:00001ee4       $pdata$__acrt_has_user_matherr 0000000180052ee4     libucrtd:matherr.obj
 0004:00001ef0       $pdata$__acrt_invoke_user_matherr 0000000180052ef0     libucrtd:matherr.obj
 0004:00001efc       $pdata$?has_any_of@__crt_stdio_stream@@QEBA_NJ@Z 0000000180052efc     libucrtd:_sftbuf.obj
 0004:00001f08       $pdata$?set_flags@__crt_stdio_stream@@QEBA_NJ@Z 0000000180052f08     libucrtd:_sftbuf.obj
 0004:00001f14       $pdata$?unset_flags@__crt_stdio_stream@@QEBA_NJ@Z 0000000180052f14     libucrtd:_sftbuf.obj
 0004:00001f20       $pdata$_isctype_l          0000000180052f20     libucrtd:isctype.obj
 0004:00001f2c       $pdata$_chvalidator_l      0000000180052f2c     libucrtd:isctype.obj
 0004:00001f38       $pdata$_isleadbyte_fast_internal 0000000180052f38     libucrtd:isctype.obj
 0004:00001f44       $pdata$_free_base          0000000180052f44     libucrtd:free_base.obj
 0004:00001f50       $pdata$_realloc_base       0000000180052f50     libucrtd:realloc_base.obj
 0004:00001f5c       $pdata$_expand_base        0000000180052f5c     libucrtd:expand.obj
 0004:00001f68       $pdata$?is_contraction_possible@@YA_N_K@Z 0000000180052f68     libucrtd:expand.obj
 0004:00001f74       $pdata$__acrt_update_locale_info 0000000180052f74     libucrtd:locale_update.obj
 0004:00001f80       $pdata$__acrt_update_multibyte_info 0000000180052f80     libucrtd:locale_update.obj
 0004:00001f8c       $pdata$_query_new_mode     0000000180052f8c     libucrtd:new_mode.obj
 0004:00001f98       $pdata$?value@?$dual_state_global@J@__crt_state_management@@QEAAAEAJXZ 0000000180052f98     libucrtd:new_mode.obj
 0004:00001fa4       $pdata$__ascii_towlower    0000000180052fa4     libucrtd:wsetlocale.obj
 0004:00001fb0       $pdata$__acrt_uninitialize_locale 0000000180052fb0     libucrtd:wsetlocale.obj
 0004:00001fbc       $pdata$??R<lambda_3e16ef9562a7dcce91392c22ab16ea36>@@QEBA@XZ 0000000180052fbc     libucrtd:wsetlocale.obj
 0004:00001fc8       $pdata$??R<lambda_363eea9039da1e8169e2d060c7fe5cbc>@@QEBAXAEAPEAU__crt_locale_data@@@Z 0000000180052fc8     libucrtd:wsetlocale.obj
 0004:00001fd4       $pdata$??$uninitialize@V<lambda_363eea9039da1e8169e2d060c7fe5cbc>@@@?$dual_state_global@PEAU__crt_locale_data@@@__crt_state_management@@QEAAX$$QEAV<lambda_363eea9039da1e8169e2d060c7fe5cbc>@@@Z 0000000180052fd4     libucrtd:wsetlocale.obj
 0004:00001fe0       $pdata$??$__acrt_lock_and_call@V<lambda_3e16ef9562a7dcce91392c22ab16ea36>@@@@YAXW4__acrt_lock_id@@$$QEAV<lambda_3e16ef9562a7dcce91392c22ab16ea36>@@@Z 0000000180052fe0     libucrtd:wsetlocale.obj
 0004:00001fec       $pdata$??$?RV<lambda_410d79af7f07d98d83a3f525b3859a53>@@AEAV<lambda_3e16ef9562a7dcce91392c22ab16ea36>@@V<lambda_38119f0e861e05405d8a144b9b982f0a>@@@?$__crt_seh_guarded_call@X@@QEAAX$$QEAV<lambda_410d79af7f07d98d83a3f525b3859a53>@@AEAV<lambda_3e16ef9562a7dcce91392c22ab16ea36>@@$$QEAV<lambda_38119f0e861e05405d8a144b9b982f0a>@@@Z 0000000180052fec     libucrtd:wsetlocale.obj
 0004:00001ff8       $pdata$__acrt_report_runtime_error 0000000180052ff8     libucrtd:report_runtime_error.obj
 0004:00002004       $pdata$?issue_debug_notification@@YA_NQEB_W@Z 0000000180053004     libucrtd:report_runtime_error.obj
 0004:00002010       $pdata$?should_write_error_to_console@@YA_NXZ 0000000180053010     libucrtd:report_runtime_error.obj
 0004:0000201c       $pdata$?write_string_to_console@@YAXQEB_W@Z 000000018005301c     libucrtd:report_runtime_error.obj
 0004:00002028       $pdata$wcstol              0000000180053028     libucrtd:strtox.obj
 0004:00002034       $pdata$strtol              0000000180053034     libucrtd:strtox.obj
 0004:00002040       $pdata$??$parse_integer_from_string@JDPEAPEAD@__crt_strtox@@YAJQEBDQEAPEADHQEAU__crt_locale_pointers@@@Z 0000000180053040     libucrtd:strtox.obj
 0004:0000204c       $pdata$??$parse_integer_from_string@J_WPEAPEA_W@__crt_strtox@@YAJQEB_WQEAPEA_WHQEAU__crt_locale_pointers@@@Z 000000018005304c     libucrtd:strtox.obj
 0004:00002058       $pdata$??$make_c_string_character_source@DPEAPEAD@__crt_strtox@@YA?AV?$c_string_character_source@D@0@QEBDQEAPEAD@Z 0000000180053058     libucrtd:strtox.obj
 0004:00002058       $pdata$??$make_c_string_character_source@_WPEAPEA_W@__crt_strtox@@YA?AV?$c_string_character_source@_W@0@QEB_WQEAPEA_W@Z 0000000180053058     libucrtd:strtox.obj
 0004:00002064       $pdata$mbtowc              0000000180053064     libucrtd:mbtowc.obj
 0004:00002070       $pdata$_mbtowc_l           0000000180053070     libucrtd:mbtowc.obj
 0004:0000207c       $pdata$wctomb_s            000000018005307c     libucrtd:wctomb.obj
 0004:00002088       $pdata$_wctomb_s_l         0000000180053088     libucrtd:wctomb.obj
 0004:00002094       $pdata$wcslen              0000000180053094     libucrtd:strnlen.obj
 0004:000020a0       $pdata$wcsnlen             00000001800530a0     libucrtd:strnlen.obj
 0004:000020ac       $pdata$strnlen             00000001800530ac     libucrtd:strnlen.obj
 0004:000020b8       $pdata$?get_zero_pack@?$__crt_simd_pack_traits@$0A@@@SA?AT__m128i@@XZ 00000001800530b8     libucrtd:strnlen.obj
 0004:000020c4       $pdata$?compare_equals@?$__crt_simd_traits@$0A@E@@SA?AT__m128i@@T2@0@Z 00000001800530c4     libucrtd:strnlen.obj
 0004:000020d0       $pdata$?compare_equals@?$__crt_simd_traits@$0A@G@@SA?AT__m128i@@T2@0@Z 00000001800530d0     libucrtd:strnlen.obj
 0004:000020dc       $pdata$?get_zero_pack@?$__crt_simd_pack_traits@$00@@SA?AT__m256i@@XZ 00000001800530dc     libucrtd:strnlen.obj
 0004:000020e8       $pdata$?compare_equals@?$__crt_simd_traits@$00E@@SA?AT__m256i@@T2@0@Z 00000001800530e8     libucrtd:strnlen.obj
 0004:000020f4       $pdata$?compare_equals@?$__crt_simd_traits@$00G@@SA?AT__m256i@@T2@0@Z 00000001800530f4     libucrtd:strnlen.obj
 0004:00002100       $pdata$??$common_strnlen@$0A@E@@YA_KQEBE_K@Z 0000000180053100     libucrtd:strnlen.obj
 0004:0000210c       $pdata$??$common_strnlen@$0A@G@@YA_KQEBG_K@Z 000000018005310c     libucrtd:strnlen.obj
 0004:00002118       $pdata$??$common_strnlen@$00G@@YA_KQEBG_K@Z 0000000180053118     libucrtd:strnlen.obj
 0004:00002124       $pdata$??$common_strnlen_simd@$0A@$00E@@YA_KQEBE_K@Z 0000000180053124     libucrtd:strnlen.obj
 0004:00002130       $pdata$??$common_strnlen_simd@$0A@$0A@E@@YA_KQEBE_K@Z 0000000180053130     libucrtd:strnlen.obj
 0004:0000213c       $pdata$??$common_strnlen_c@$0A@E@@YA_KQEBE_K@Z 000000018005313c     libucrtd:strnlen.obj
 0004:00002148       $pdata$??$common_strnlen_simd@$0A@$00G@@YA_KQEBG_K@Z 0000000180053148     libucrtd:strnlen.obj
 0004:00002154       $pdata$??$common_strnlen_simd@$0A@$0A@G@@YA_KQEBG_K@Z 0000000180053154     libucrtd:strnlen.obj
 0004:00002160       $pdata$??$common_strnlen_c@$0A@G@@YA_KQEBG_K@Z 0000000180053160     libucrtd:strnlen.obj
 0004:0000216c       $pdata$??$common_strnlen_simd@$00$00G@@YA_KQEBG_K@Z 000000018005316c     libucrtd:strnlen.obj
 0004:00002178       $pdata$??$common_strnlen_simd@$00$0A@G@@YA_KQEBG_K@Z 0000000180053178     libucrtd:strnlen.obj
 0004:00002184       $pdata$??$common_strnlen_c@$00G@@YA_KQEBG_K@Z 0000000180053184     libucrtd:strnlen.obj
 0004:00002190       $pdata$??$last_reached@$0A@@@YA_NQEBX0@Z 0000000180053190     libucrtd:strnlen.obj
 0004:0000219c       $pdata$?strrchr@@YAPEADQEADH@Z 000000018005319c     libucrtd:cvt.obj
 0004:000021a8       $pdata$?__acrt_fp_classify@@YA?AW4__acrt_fp_class@@AEBN@Z 00000001800531a8     libucrtd:cvt.obj
 0004:000021b4       $pdata$?__acrt_fp_is_negative@@YA_NAEBN@Z 00000001800531b4     libucrtd:cvt.obj
 0004:000021c0       $pdata$__acrt_fp_format    00000001800531c0     libucrtd:cvt.obj
 0004:000021cc       $pdata$?shift_bytes@@YAXQEAD_K0H@Z 00000001800531cc     libucrtd:cvt.obj
 0004:000021d8       $pdata$?fp_format_nan_or_infinity@@YAHW4__acrt_fp_class@@_NPEAD_K1@Z 00000001800531d8     libucrtd:cvt.obj
 0004:000021e4       $pdata$?fp_format_e_internal@@YAHQEAD_KH_NIQEAU_strflt@@2QEAU__crt_locale_pointers@@@Z 00000001800531e4     libucrtd:cvt.obj
 0004:000021f0       $pdata$?fp_format_e@@YAHQEBNQEAD_K12H_NIQEAU__crt_locale_pointers@@@Z 00000001800531f0     libucrtd:cvt.obj
 0004:000021fc       $pdata$?fp_format_a@@YAHQEBNPEAD_KQEAD2H_NIQEAU__crt_locale_pointers@@@Z 00000001800531fc     libucrtd:cvt.obj
 0004:00002208       $pdata$?dtor$0@?0??fp_format_a@@YAHQEBNPEAD_KQEAD2H_NIQEAU__crt_locale_pointers@@@Z@4HA 0000000180053208     libucrtd:cvt.obj
 0004:00002214       $pdata$?fp_format_f_internal@@YAHQEAD_KHQEAU_strflt@@_NQEAU__crt_locale_pointers@@@Z 0000000180053214     libucrtd:cvt.obj
 0004:00002220       $pdata$?fp_format_f@@YAHQEBNQEAD_K12HQEAU__crt_locale_pointers@@@Z 0000000180053220     libucrtd:cvt.obj
 0004:0000222c       $pdata$?fp_format_g@@YAHQEBNQEAD_K12H_NIQEAU__crt_locale_pointers@@@Z 000000018005322c     libucrtd:cvt.obj
 0004:00002238       $pdata$_fileno             0000000180053238     libucrtd:fileno.obj
 0004:00002244       $pdata$?lowio_handle@__crt_stdio_stream@@QEBAHXZ 0000000180053244     libucrtd:fileno.obj
 0004:00002250       $pdata$_lock_file          0000000180053250     libucrtd:_file.obj
 0004:0000225c       $pdata$_unlock_file        000000018005325c     libucrtd:_file.obj
 0004:00002268       $pdata$__acrt_initialize_stdio 0000000180053268     libucrtd:_file.obj
 0004:00002274       $pdata$__acrt_uninitialize_stdio 0000000180053274     libucrtd:_file.obj
 0004:00002280       $pdata$_get_printf_count_output 0000000180053280     libucrtd:printf_count_output.obj
 0004:0000228c       $pdata$iswctype            000000018005328c     libucrtd:iswctype.obj
 0004:00002298       $pdata$_VCrtDbgReportA     0000000180053298     libucrtd:dbgrptt.obj
 0004:000022a4       $pdata$_VCrtDbgReportA$fin$0 00000001800532a4     libucrtd:dbgrptt.obj
 0004:000022b0       $pdata$_VCrtDbgReportA$fin$1 00000001800532b0     libucrtd:dbgrptt.obj
 0004:000022bc       $pdata$_VCrtDbgReportW     00000001800532bc     libucrtd:dbgrptt.obj
 0004:000022c8       $pdata$_VCrtDbgReportW$fin$0 00000001800532c8     libucrtd:dbgrptt.obj
 0004:000022d4       $pdata$_VCrtDbgReportW$fin$1 00000001800532d4     libucrtd:dbgrptt.obj
 0004:000022e0       $pdata$_vsnprintf_s_l      00000001800532e0     libucrtd:dbgrptt.obj
 0004:000022ec       $pdata$_vsnprintf_s        00000001800532ec     libucrtd:dbgrptt.obj
 0004:000022f8       $pdata$_snprintf_s         00000001800532f8     libucrtd:dbgrptt.obj
 0004:00002304       $pdata$__acrt_show_wide_message_box 0000000180053304     libucrtd:crtmbox.obj
 0004:00002310       $pdata$??$common_show_message_box@_W@@YAHQEB_W0I@Z 0000000180053310     libucrtd:crtmbox.obj
 0004:0000231c       $pdata$??$output_debug_string@AEBQEB_W@?$__crt_char_traits@_W@@SAXAEBQEB_W@Z 000000018005331c     libucrtd:crtmbox.obj
 0004:00002328       $pdata$??$message_box@$$TAEBQEB_WAEBQEB_WK@?$__crt_char_traits@_W@@SAH$$QEA$$TAEBQEB_W1$$QEAK@Z 0000000180053328     libucrtd:crtmbox.obj
 0004:00002328       $pdata$??$message_box@PEAUHWND__@@AEBQEB_WAEBQEB_WAEBI@?$__crt_char_traits@_W@@SAH$$QEAPEAUHWND__@@AEBQEB_W1AEBI@Z 0000000180053328     libucrtd:crtmbox.obj
 0004:00002334       $pdata$_set_errno_from_matherr 0000000180053334     libucrtd:fpexcept.obj
 0004:00002340       $pdata$_raise_exc          0000000180053340     libucrtd:fpexcept.obj
 0004:0000234c       $pdata$_raise_exc_ex       000000018005334c     libucrtd:fpexcept.obj
 0004:00002358       $pdata$_clrfp              0000000180053358     libucrtd:fpctrl.obj
 0004:00002364       $pdata$_ctrlfp             0000000180053364     libucrtd:fpctrl.obj
 0004:00002370       $pdata$_ctrlfp$filt$0      0000000180053370     libucrtd:fpctrl.obj
 0004:0000237c       $pdata$_statfp             000000018005337c     libucrtd:fpctrl.obj
 0004:00002388       $pdata$_set_statfp         0000000180053388     libucrtd:fpctrl.obj
 0004:00002394       $pdata$__acrt_add_locale_ref 0000000180053394     libucrtd:locale_refcounting.obj
 0004:000023a0       $pdata$__acrt_release_locale_ref 00000001800533a0     libucrtd:locale_refcounting.obj
 0004:000023ac       $pdata$__acrt_free_locale  00000001800533ac     libucrtd:locale_refcounting.obj
 0004:000023b8       $pdata$__acrt_locale_free_lc_time_if_unreferenced 00000001800533b8     libucrtd:locale_refcounting.obj
 0004:000023c4       $pdata$__acrt_update_thread_locale_data 00000001800533c4     libucrtd:locale_refcounting.obj
 0004:000023d0       $pdata$__acrt_update_thread_locale_data$fin$0 00000001800533d0     libucrtd:locale_refcounting.obj
 0004:000023dc       $pdata$_updatetlocinfoEx_nolock 00000001800533dc     libucrtd:locale_refcounting.obj
 0004:000023e8       $pdata$qsort               00000001800533e8     libucrtd:qsort.obj
 0004:000023f4       $pdata$?swap@@YAXPEAD0_K@Z 00000001800533f4     libucrtd:qsort.obj
 0004:00002400       $pdata$?shortsort@@YAXPEAD0_KP6AHPEBX2@Z@Z 0000000180053400     libucrtd:qsort.obj
 0004:0000240c       $pdata$?dtor$0@?0??shortsort@@YAXPEAD0_KP6AHPEBX2@Z@Z@4HA 000000018005340c     libucrtd:qsort.obj
 0004:00002418       $pdata$wcsncpy_s           0000000180053418     libucrtd:wcsncpy_s.obj
 0004:00002424       $pdata$??$common_tcsncpy_s@_W@@YAHQEA_W_KQEB_W1@Z 0000000180053424     libucrtd:wcsncpy_s.obj
 0004:00002430       $pdata$strncpy_s           0000000180053430     libucrtd:strncpy_s.obj
 0004:0000243c       $pdata$??$common_tcsncpy_s@D@@YAHQEAD_KQEBD1@Z 000000018005343c     libucrtd:strncpy_s.obj
 0004:00002448       $pdata$strpbrk             0000000180053448     libucrtd:strpbrk.obj
 0004:00002454       $pdata$fallbackMethod      0000000180053454     libucrtd:strpbrk.obj
 0004:00002460       $pdata$_mbsdec_l           0000000180053460     libucrtd:mbsdec.obj
 0004:0000246c       $pdata$_MallocaComputeSize 000000018005346c     libucrtd:getstringtypea.obj
 0004:00002478       $pdata$_freea_crt          0000000180053478     libucrtd:getstringtypea.obj
 0004:00002484       $pdata$__acrt_GetStringTypeA 0000000180053484     libucrtd:getstringtypea.obj
 0004:00002490       $pdata$??1?$__crt_scoped_stack_ptr@_W@@QEAA@XZ 0000000180053490     libucrtd:getstringtypea.obj
 0004:0000249c       $pdata$__acrt_LCMapStringA 000000018005349c     libucrtd:lcmapstringa.obj
 0004:000024a8       $pdata$?__acrt_LCMapStringA_stat@@YAHPEAU__crt_locale_pointers@@PEB_WKPEBDHPEADHHH@Z 00000001800534a8     libucrtd:lcmapstringa.obj
 0004:000024b4       $pdata$?initialize_multibyte@@YAHXZ 00000001800534b4     libucrtd:multibyte_initializer.obj
 0004:000024c0       $pdata$__acrt_DownlevelLocaleNameToLCID 00000001800534c0     libucrtd:lcidtoname_downlevel.obj
 0004:000024cc       $pdata$?GetTableIndexFromLocaleName@@YAHPEB_W@Z 00000001800534cc     libucrtd:lcidtoname_downlevel.obj
 0004:000024d8       $pdata$_get_osfhandle      00000001800534d8     libucrtd:osfinfo.obj
 0004:000024e4       $pdata$_free_osfhnd        00000001800534e4     libucrtd:osfinfo.obj
 0004:000024f0       $pdata$__acrt_lowio_create_handle_array 00000001800534f0     libucrtd:osfinfo.obj
 0004:000024fc       $pdata$__acrt_lowio_destroy_handle_array 00000001800534fc     libucrtd:osfinfo.obj
 0004:00002508       $pdata$__acrt_lowio_ensure_fh_exists 0000000180053508     libucrtd:osfinfo.obj
 0004:00002514       $pdata$__acrt_lowio_ensure_fh_exists$fin$0 0000000180053514     libucrtd:osfinfo.obj
 0004:00002520       $pdata$__acrt_lowio_lock_fh 0000000180053520     libucrtd:osfinfo.obj
 0004:0000252c       $pdata$__acrt_lowio_unlock_fh 000000018005352c     libucrtd:osfinfo.obj
 0004:00002538       $pdata$__pctype_func       0000000180053538     libucrtd:ctype.obj
 0004:00002544       $pdata$_isatty             0000000180053544     libucrtd:isatty.obj
 0004:00002550       $pdata$_flushall           0000000180053550     libucrtd:fflush.obj
 0004:0000255c       $pdata$_fflush_nolock      000000018005355c     libucrtd:fflush.obj
 0004:00002568       $pdata$?has_all_of@__crt_stdio_stream@@QEBA_NJ@Z 0000000180053568     libucrtd:fflush.obj
 0004:00002574       $pdata$__acrt_stdio_flush_nolock 0000000180053574     libucrtd:fflush.obj
 0004:00002580       $pdata$?__acrt_stdio_reset_buffer@@YAXV__crt_stdio_stream@@@Z 0000000180053580     libucrtd:fflush.obj
 0004:0000258c       $pdata$?is_stream_allocated@@YA_NJ@Z 000000018005358c     libucrtd:fflush.obj
 0004:00002598       $pdata$?is_stream_flushable_or_commitable@@YA_NJ@Z 0000000180053598     libucrtd:fflush.obj
 0004:000025a4       $pdata$?common_flush_all_should_try_to_flush_stream@@YA_NV__crt_stdio_stream@@QEAH@Z 00000001800535a4     libucrtd:fflush.obj
 0004:000025b0       $pdata$?common_flush_all@@YAH_N@Z 00000001800535b0     libucrtd:fflush.obj
 0004:000025bc       $pdata$??R<lambda_ab61a845afdef5b7c387490eaf3616ee>@@QEBA@XZ 00000001800535bc     libucrtd:fflush.obj
 0004:000025c8       $pdata$??R<lambda_c5860995281e5c4ce005b3de8f5874ee>@@QEBAXXZ 00000001800535c8     libucrtd:fflush.obj
 0004:000025d4       $pdata$??$__acrt_lock_stream_and_call@V<lambda_c5860995281e5c4ce005b3de8f5874ee>@@@@YAXQEAU_iobuf@@$$QEAV<lambda_c5860995281e5c4ce005b3de8f5874ee>@@@Z 00000001800535d4     libucrtd:fflush.obj
 0004:000025e0       $pdata$??$__acrt_lock_and_call@V<lambda_ab61a845afdef5b7c387490eaf3616ee>@@@@YAXW4__acrt_lock_id@@$$QEAV<lambda_ab61a845afdef5b7c387490eaf3616ee>@@@Z 00000001800535e0     libucrtd:fflush.obj
 0004:000025ec       $pdata$??R<lambda_842d9ff0dc9ef11c61343bbaebe7f885>@@QEBAXXZ 00000001800535ec     libucrtd:fflush.obj
 0004:000025f8       $pdata$??R<lambda_d90129c13df834fdcbf8d2b88dafcf2d>@@QEBAXXZ 00000001800535f8     libucrtd:fflush.obj
 0004:00002604       $pdata$??$?RV<lambda_842d9ff0dc9ef11c61343bbaebe7f885>@@AEAV<lambda_c5860995281e5c4ce005b3de8f5874ee>@@V<lambda_d90129c13df834fdcbf8d2b88dafcf2d>@@@?$__crt_seh_guarded_call@X@@QEAAX$$QEAV<lambda_842d9ff0dc9ef11c61343bbaebe7f885>@@AEAV<lambda_c5860995281e5c4ce005b3de8f5874ee>@@$$QEAV<lambda_d90129c13df834fdcbf8d2b88dafcf2d>@@@Z 0000000180053604     libucrtd:fflush.obj
 0004:00002610       $pdata$?fin$0@?0???$?RV<lambda_842d9ff0dc9ef11c61343bbaebe7f885>@@AEAV<lambda_c5860995281e5c4ce005b3de8f5874ee>@@V<lambda_d90129c13df834fdcbf8d2b88dafcf2d>@@@?$__crt_seh_guarded_call@X@@QEAAX$$QEAV<lambda_842d9ff0dc9ef11c61343bbaebe7f885>@@AEAV<lambda_c5860995281e5c4ce005b3de8f5874ee>@@$$QEAV<lambda_d90129c13df834fdcbf8d2b88dafcf2d>@@@Z@4HA 0000000180053610     libucrtd:fflush.obj
 0004:0000261c       $pdata$??$?RV<lambda_886d6c58226a84441f68b9f2b8217b83>@@AEAV<lambda_ab61a845afdef5b7c387490eaf3616ee>@@V<lambda_f7f22ab5edc0698d5f6905b0d3f44752>@@@?$__crt_seh_guarded_call@X@@QEAAX$$QEAV<lambda_886d6c58226a84441f68b9f2b8217b83>@@AEAV<lambda_ab61a845afdef5b7c387490eaf3616ee>@@$$QEAV<lambda_f7f22ab5edc0698d5f6905b0d3f44752>@@@Z 000000018005361c     libucrtd:fflush.obj
 0004:00002628       $pdata$_malloc_base        0000000180053628     libucrtd:malloc_base.obj
 0004:00002634       $pdata$__acrt_locale_free_monetary 0000000180053634     libucrtd:initmon.obj
 0004:00002640       $pdata$__acrt_locale_free_numeric 0000000180053640     libucrtd:initnum.obj
 0004:0000264c       $pdata$__acrt_locale_free_time 000000018005364c     libucrtd:inittime.obj
 0004:00002658       $pdata$?free_crt_array_internal@@YAXQEAPEBX_K@Z 0000000180053658     libucrtd:inittime.obj
 0004:00002664       $pdata$??$free_crt_array@D$06@@YAXAEAY06PEAD@Z 0000000180053664     libucrtd:inittime.obj
 0004:00002664       $pdata$??$free_crt_array@_W$06@@YAXAEAY06PEA_W@Z 0000000180053664     libucrtd:inittime.obj
 0004:00002670       $pdata$??$free_crt_array@D$0M@@@YAXAEAY0M@PEAD@Z 0000000180053670     libucrtd:inittime.obj
 0004:00002670       $pdata$??$free_crt_array@_W$0M@@@YAXAEAY0M@PEA_W@Z 0000000180053670     libucrtd:inittime.obj
 0004:0000267c       $pdata$??$free_crt_array@D$01@@YAXAEAY01PEAD@Z 000000018005367c     libucrtd:inittime.obj
 0004:0000267c       $pdata$??$free_crt_array@_W$01@@YAXAEAY01PEA_W@Z 000000018005367c     libucrtd:inittime.obj
 0004:00002688       $pdata$wcscat_s            0000000180053688     libucrtd:wcscat_s.obj
 0004:00002694       $pdata$??$common_tcscat_s@_W@@YAHQEA_W_KQEB_W@Z 0000000180053694     libucrtd:wcscat_s.obj
 0004:000026a0       $pdata$_set_error_mode     00000001800536a0     libucrtd:set_error_mode.obj
 0004:000026ac       $pdata$_isleadbyte_l       00000001800536ac     libucrtd:_wctype.obj
 0004:000026b8       $pdata$?__mbrtowc_utf8@__crt_mbstring@@YA_KPEA_WPEBD_KPEAU_Mbstatet@@@Z 00000001800536b8     libucrtd:mbrtowc.obj
 0004:000026c4       $pdata$?__mbsrtowcs_utf8@__crt_mbstring@@YA_KPEA_WPEAPEBD_KPEAU_Mbstatet@@@Z 00000001800536c4     libucrtd:mbrtowc.obj
 0004:000026d0       $pdata$c32rtomb            00000001800536d0     libucrtd:c32rtomb.obj
 0004:000026dc       $pdata$?__c32rtomb_utf8@__crt_mbstring@@YA_KPEAD_UPEAU_Mbstatet@@@Z 00000001800536dc     libucrtd:c32rtomb.obj
 0004:000026e8       $pdata$?return_illegal_sequence@__crt_mbstring@@YA_KPEAU_Mbstatet@@@Z 00000001800536e8     libucrtd:c32rtomb.obj
 0004:000026f4       $pdata$?reset_and_return@__crt_mbstring@@YA_K_KPEAU_Mbstatet@@@Z 00000001800536f4     libucrtd:c32rtomb.obj
 0004:00002700       $pdata$__acrt_fp_strflt_to_string 0000000180053700     libucrtd:_fptostr.obj
 0004:0000270c       $pdata$__acrt_fltout       000000018005370c     libucrtd:cfout.obj
 0004:00002718       $pdata$??0big_integer@__crt_strtox@@QEAA@XZ 0000000180053718     libucrtd:cfout.obj
 0004:00002724       $pdata$??0big_integer@__crt_strtox@@QEAA@AEBU01@@Z 0000000180053724     libucrtd:cfout.obj
 0004:00002724       $pdata$??4big_integer@__crt_strtox@@QEAAAEAU01@AEBU01@@Z 0000000180053724     libucrtd:cfout.obj
 0004:00002730       $pdata$??8__crt_strtox@@YA_NAEBUbig_integer@0@0@Z 0000000180053730     libucrtd:cfout.obj
 0004:0000273c       $pdata$??9__crt_strtox@@YA_NAEBUbig_integer@0@0@Z 000000018005373c     libucrtd:cfout.obj
 0004:00002748       $pdata$?make_big_integer@__crt_strtox@@YA?AUbig_integer@1@_K@Z 0000000180053748     libucrtd:cfout.obj
 0004:00002754       $pdata$?make_big_integer_power_of_two@__crt_strtox@@YA?AUbig_integer@1@I@Z 0000000180053754     libucrtd:cfout.obj
 0004:00002760       $pdata$?is_zero@__crt_strtox@@YA_NAEBUbig_integer@1@@Z 0000000180053760     libucrtd:cfout.obj
 0004:0000276c       $pdata$?bit_scan_reverse@__crt_strtox@@YAII@Z 000000018005376c     libucrtd:cfout.obj
 0004:00002778       $pdata$?shift_left@__crt_strtox@@YA_NAEAUbig_integer@1@I@Z 0000000180053778     libucrtd:cfout.obj
 0004:00002784       $pdata$?add_carry@__crt_strtox@@YAIAEAIII@Z 0000000180053784     libucrtd:cfout.obj
 0004:00002790       $pdata$?add_multiply_carry@__crt_strtox@@YAIAEAIIII@Z 0000000180053790     libucrtd:cfout.obj
 0004:0000279c       $pdata$?multiply_core@__crt_strtox@@YAIQEAIII@Z 000000018005379c     libucrtd:cfout.obj
 0004:000027a8       $pdata$?multiply@__crt_strtox@@YA_NAEAUbig_integer@1@I@Z 00000001800537a8     libucrtd:cfout.obj
 0004:000027b4       $pdata$?multiply@__crt_strtox@@YA_NAEAUbig_integer@1@AEBU21@@Z 00000001800537b4     libucrtd:cfout.obj
 0004:000027c0       $pdata$?multiply_by_power_of_ten@__crt_strtox@@YA_NAEAUbig_integer@1@I@Z 00000001800537c0     libucrtd:cfout.obj
 0004:000027cc       $pdata$?count_sequential_high_zeroes@__crt_strtox@@YAII@Z 00000001800537cc     libucrtd:cfout.obj
 0004:000027d8       $pdata$?divide@__crt_strtox@@YA_KAEAUbig_integer@1@AEBU21@@Z 00000001800537d8     libucrtd:cfout.obj
 0004:000027e4       $pdata$??0scoped_fp_state_reset@?A0x71ca7cfb@@QEAA@XZ 00000001800537e4     libucrtd:cfout.obj
 0004:000027f0       $pdata$??1scoped_fp_state_reset@?A0x71ca7cfb@@QEAA@XZ 00000001800537f0     libucrtd:cfout.obj
 0004:000027fc       $pdata$??$convert_to_fos_high_precision@N@@YAXNIQEAHQEAD_K@Z 00000001800537fc     libucrtd:cfout.obj
 0004:00002808       $pdata$_fcloseall          0000000180053808     libucrtd:closeall.obj
 0004:00002814       $pdata$_fcloseall$fin$0    0000000180053814     libucrtd:closeall.obj
 0004:00002820       $pdata$?is_in_use@__crt_stdio_stream@@QEBA_NXZ 0000000180053820     libucrtd:closeall.obj
 0004:0000282c       $pdata$?has_crt_buffer@__crt_stdio_stream@@QEBA_NXZ 000000018005382c     libucrtd:_freebuf.obj
 0004:00002838       $pdata$__acrt_stdio_free_buffer_nolock 0000000180053838     libucrtd:_freebuf.obj
 0004:00002844       $pdata$__acrt_GetStringTypeW 0000000180053844     libucrtd:getstringtypew.obj
 0004:00002850       $pdata$_itow_s             0000000180053850     libucrtd:xtoa.obj
 0004:0000285c       $pdata$_itoa_s             000000018005385c     libucrtd:xtoa.obj
 0004:00002868       $pdata$??$common_xtox_s@KD@@YAHKQEAD_KI_N@Z 0000000180053868     libucrtd:xtoa.obj
 0004:00002874       $pdata$??$common_xtox@KD@@YAHKQEAD_KI_N@Z 0000000180053874     libucrtd:xtoa.obj
 0004:00002880       $pdata$??$common_xtox_s@K_W@@YAHKQEA_W_KI_N@Z 0000000180053880     libucrtd:xtoa.obj
 0004:0000288c       $pdata$??$common_xtox@K_W@@YAHKQEA_W_KI_N@Z 000000018005388c     libucrtd:xtoa.obj
 0004:00002898       $pdata$mbstowcs_s          0000000180053898     libucrtd:mbstowcs.obj
 0004:000028a4       $pdata$_mbstowcs_s_l       00000001800538a4     libucrtd:mbstowcs.obj
 0004:000028b0       $pdata$?_mbstowcs_l_helper@@YA_KPEA_WPEBD_KPEAU__crt_locale_pointers@@@Z 00000001800538b0     libucrtd:mbstowcs.obj
 0004:000028bc       $pdata$wcstombs_s          00000001800538bc     libucrtd:wcstombs.obj
 0004:000028c8       $pdata$_wcstombs_s_l       00000001800538c8     libucrtd:wcstombs.obj
 0004:000028d4       $pdata$?wcsncnt@@YA_KPEB_W_K@Z 00000001800538d4     libucrtd:wcstombs.obj
 0004:000028e0       $pdata$?_wcstombs_l_helper@@YA_KPEADPEB_W_KPEAU__crt_locale_pointers@@@Z 00000001800538e0     libucrtd:wcstombs.obj
 0004:000028ec       $pdata$?dtor$0@?0??_wcstombs_l_helper@@YA_KPEADPEB_W_KPEAU__crt_locale_pointers@@@Z@4HA 00000001800538ec     libucrtd:wcstombs.obj
 0004:000028f8       $pdata$strcat_s            00000001800538f8     libucrtd:strcat_s.obj
 0004:00002904       $pdata$??$common_tcscat_s@D@@YAHQEAD_KQEBD@Z 0000000180053904     libucrtd:strcat_s.obj
 0004:00002910       $pdata$__acrt_OutputDebugStringA 0000000180053910     libucrtd:outputdebugstringa.obj
 0004:00002928       $pdata$__strncnt           0000000180053928     libucrtd:strncnt.obj
 0004:00002934       $pdata$__ascii_wcsnicmp    0000000180053934     libucrtd:wcsnicmp.obj
 0004:00002940       $pdata$_commit             0000000180053940     libucrtd:commit.obj
 0004:0000294c       $pdata$??R<lambda_5533cddd4bda0037814beee657757329>@@QEBAHXZ 000000018005394c     libucrtd:commit.obj
 0004:00002958       $pdata$??$__acrt_lowio_lock_fh_and_call@V<lambda_5533cddd4bda0037814beee657757329>@@@@YAHH$$QEAV<lambda_5533cddd4bda0037814beee657757329>@@@Z 0000000180053958     libucrtd:commit.obj
 0004:00002964       $pdata$??R<lambda_53fc7fc888e23d815d7080162c0aeeb2>@@QEBAXXZ 0000000180053964     libucrtd:close.obj
 0004:00002964       $pdata$??R<lambda_4e3dbe6921bc0b5a1a6bc6573fdc859e>@@QEBAXXZ 0000000180053964     libucrtd:commit.obj
 0004:00002970       $pdata$??R<lambda_8ddc48ad9d26c778cb15812d1d88fc8a>@@QEBAXXZ 0000000180053970     libucrtd:close.obj
 0004:00002970       $pdata$??R<lambda_47cffbaa968af5c721c38a4a6f8da44d>@@QEBAXXZ 0000000180053970     libucrtd:commit.obj
 0004:0000297c       $pdata$??$?RV<lambda_4e3dbe6921bc0b5a1a6bc6573fdc859e>@@AEAV<lambda_5533cddd4bda0037814beee657757329>@@V<lambda_47cffbaa968af5c721c38a4a6f8da44d>@@@?$__crt_seh_guarded_call@H@@QEAAH$$QEAV<lambda_4e3dbe6921bc0b5a1a6bc6573fdc859e>@@AEAV<lambda_5533cddd4bda0037814beee657757329>@@$$QEAV<lambda_47cffbaa968af5c721c38a4a6f8da44d>@@@Z 000000018005397c     libucrtd:commit.obj
 0004:00002988       $pdata$?fin$0@?0???$?RV<lambda_53fc7fc888e23d815d7080162c0aeeb2>@@AEAV<lambda_4e7105787b7b0e0227fbf2b2d883fa65>@@V<lambda_8ddc48ad9d26c778cb15812d1d88fc8a>@@@?$__crt_seh_guarded_call@H@@QEAAH$$QEAV<lambda_53fc7fc888e23d815d7080162c0aeeb2>@@AEAV<lambda_4e7105787b7b0e0227fbf2b2d883fa65>@@$$QEAV<lambda_8ddc48ad9d26c778cb15812d1d88fc8a>@@@Z@4HA 0000000180053988     libucrtd:close.obj
 0004:00002988       $pdata$?fin$0@?0???$?RV<lambda_4e3dbe6921bc0b5a1a6bc6573fdc859e>@@AEAV<lambda_5533cddd4bda0037814beee657757329>@@V<lambda_47cffbaa968af5c721c38a4a6f8da44d>@@@?$__crt_seh_guarded_call@H@@QEAAH$$QEAV<lambda_4e3dbe6921bc0b5a1a6bc6573fdc859e>@@AEAV<lambda_5533cddd4bda0037814beee657757329>@@$$QEAV<lambda_47cffbaa968af5c721c38a4a6f8da44d>@@@Z@4HA 0000000180053988     libucrtd:commit.obj
 0004:00002994       $pdata$_write              0000000180053994     libucrtd:write.obj
 0004:000029a0       $pdata$_write$fin$0        00000001800539a0     libucrtd:write.obj
 0004:000029ac       $pdata$_write_nolock       00000001800539ac     libucrtd:write.obj
 0004:000029b8       $pdata$?write_requires_double_translation_nolock@@YA_NH@Z 00000001800539b8     libucrtd:write.obj
 0004:000029c4       $pdata$?write_double_translated_ansi_nolock@@YA?AUwrite_result@?A0x17268360@@HQEBDI@Z 00000001800539c4     libucrtd:write.obj
 0004:000029d0       $pdata$?write_double_translated_unicode_nolock@@YA?AUwrite_result@?A0x17268360@@QEBDI@Z 00000001800539d0     libucrtd:write.obj
 0004:000029dc       $pdata$?write_text_ansi_nolock@@YA?AUwrite_result@?A0x17268360@@HQEBDI@Z 00000001800539dc     libucrtd:write.obj
 0004:000029e8       $pdata$?write_text_utf16le_nolock@@YA?AUwrite_result@?A0x17268360@@HQEBDI@Z 00000001800539e8     libucrtd:write.obj
 0004:000029f4       $pdata$?write_text_utf8_nolock@@YA?AUwrite_result@?A0x17268360@@HQEBDI@Z 00000001800539f4     libucrtd:write.obj
 0004:00002a00       $pdata$?write_binary_nolock@@YA?AUwrite_result@?A0x17268360@@HQEBDI@Z 0000000180053a00     libucrtd:write.obj
 0004:00002a0c       $pdata$?__mbrtoc32_utf8@__crt_mbstring@@YA_KPEA_UPEBD_KPEAU_Mbstatet@@@Z 0000000180053a0c     libucrtd:mbrtoc32.obj
 0004:00002a24       $pdata$ceil                0000000180053a24     libucrtd:ceil.obj
 0004:00002a30       $pdata$fegetenv            0000000180053a30     libucrtd:fegetenv.obj
 0004:00002a3c       $pdata$fesetenv            0000000180053a3c     libucrtd:fesetenv.obj
 0004:00002a48       $pdata$feholdexcept        0000000180053a48     libucrtd:feholdexcept.obj
 0004:00002a54       $pdata$_lseeki64_nolock    0000000180053a54     libucrtd:lseek.obj
 0004:00002a60       $pdata$?common_lseek_do_seek_nolock@@YA_JQEAX_JH@Z 0000000180053a60     libucrtd:lseek.obj
 0004:00002a6c       $pdata$??$common_lseek_nolock@_J@@YA_JH_JH@Z 0000000180053a6c     libucrtd:lseek.obj
 0004:00002a78       $pdata$fclose              0000000180053a78     libucrtd:fclose.obj
 0004:00002a84       $pdata$fclose$fin$0        0000000180053a84     libucrtd:fclose.obj
 0004:00002a90       $pdata$_fclose_nolock      0000000180053a90     libucrtd:fclose.obj
 0004:00002a9c       $pdata$?__wcsrtombs_utf8@__crt_mbstring@@YA_KPEADPEAPEB_W_KPEAU_Mbstatet@@@Z 0000000180053a9c     libucrtd:wcrtomb.obj
 0004:00002aa8       $pdata$_putwch_nolock      0000000180053aa8     libucrtd:putwch.obj
 0004:00002ab4       $pdata$__acrt_initialize_fma3 0000000180053ab4     libucrtd:fma3_available.obj
 0004:00002ac0       $pdata$_log_special_common 0000000180053ac0     libucrtd:log_special.obj
 0004:00002acc       $pdata$_log10_special      0000000180053acc     libucrtd:log_special.obj
 0004:00002ad8       $pdata$??$__acrt_fenv_shift_bits@W4__acrt_fenv_abstract_control@@@@YA?AW4__acrt_fenv_abstract_control@@W40@0I@Z 0000000180053ad8     libucrtd:_fenvutils.obj
 0004:00002ad8       $pdata$??$__acrt_fenv_shift_bits@W4__acrt_fenv_abstract_status@@@@YA?AW4__acrt_fenv_abstract_status@@W40@0I@Z 0000000180053ad8     libucrtd:_fenvutils.obj
 0004:00002ae4       $pdata$??$__acrt_fenv_unshift_bits@W4__acrt_fenv_abstract_control@@@@YA?AW4__acrt_fenv_abstract_control@@W40@0I@Z 0000000180053ae4     libucrtd:_fenvutils.obj
 0004:00002ae4       $pdata$??$__acrt_fenv_unshift_bits@W4__acrt_fenv_abstract_status@@@@YA?AW4__acrt_fenv_abstract_status@@W40@0I@Z 0000000180053ae4     libucrtd:_fenvutils.obj
 0004:00002af0       $pdata$?__acrt_fenv_shift_abstract_sse_status@@YA?AW4__acrt_fenv_abstract_status@@W41@@Z 0000000180053af0     libucrtd:_fenvutils.obj
 0004:00002afc       $pdata$?__acrt_fenv_unshift_abstract_sse_status@@YA?AW4__acrt_fenv_abstract_status@@W41@@Z 0000000180053afc     libucrtd:_fenvutils.obj
 0004:00002b08       $pdata$?__acrt_fenv_shift_abstract_sse_control@@YA?AW4__acrt_fenv_abstract_control@@W41@@Z 0000000180053b08     libucrtd:_fenvutils.obj
 0004:00002b14       $pdata$?__acrt_fenv_unshift_abstract_sse_control@@YA?AW4__acrt_fenv_abstract_control@@W41@@Z 0000000180053b14     libucrtd:_fenvutils.obj
 0004:00002b20       $pdata$__acrt_fenv_get_status 0000000180053b20     libucrtd:_fenvutils.obj
 0004:00002b2c       $pdata$__acrt_fenv_set_status 0000000180053b2c     libucrtd:_fenvutils.obj
 0004:00002b38       $pdata$__acrt_fenv_get_control 0000000180053b38     libucrtd:_fenvutils.obj
 0004:00002b44       $pdata$__acrt_fenv_set_control 0000000180053b44     libucrtd:_fenvutils.obj
 0004:00002b50       $pdata$?to_machine_sse_status@@YA?AW4__acrt_fenv_machine_sse_status@@W4__acrt_fenv_abstract_status@@@Z 0000000180053b50     libucrtd:_fenvutils.obj
 0004:00002b5c       $pdata$??$translate_status@W4__acrt_fenv_machine_sse_status@@W4__acrt_fenv_abstract_status@@@@YA?AW4__acrt_fenv_machine_sse_status@@W4__acrt_fenv_abstract_status@@@Z 0000000180053b5c     libucrtd:_fenvutils.obj
 0004:00002b68       $pdata$?translate_control_denormal_control_to_sse@@YA?AW4__acrt_fenv_machine_sse_control@@W4__acrt_fenv_abstract_control@@@Z 0000000180053b68     libucrtd:_fenvutils.obj
 0004:00002b74       $pdata$?translate_control_denormal_control_from_sse@@YA?AW4__acrt_fenv_abstract_control@@W4__acrt_fenv_machine_sse_control@@@Z 0000000180053b74     libucrtd:_fenvutils.obj
 0004:00002b80       $pdata$?to_abstract_control@@YA?AW4__acrt_fenv_abstract_control@@W4__acrt_fenv_machine_sse_control@@@Z 0000000180053b80     libucrtd:_fenvutils.obj
 0004:00002b8c       $pdata$??$translate_control_exception_mask@W4__acrt_fenv_abstract_control@@W4__acrt_fenv_machine_sse_control@@@@YA?AW4__acrt_fenv_abstract_control@@W4__acrt_fenv_machine_sse_control@@@Z 0000000180053b8c     libucrtd:_fenvutils.obj
 0004:00002b98       $pdata$??$translate_control_rounding_control@W4__acrt_fenv_abstract_control@@W4__acrt_fenv_machine_sse_control@@@@YA?AW4__acrt_fenv_abstract_control@@W4__acrt_fenv_machine_sse_control@@@Z 0000000180053b98     libucrtd:_fenvutils.obj
 0004:00002ba4       $pdata$?to_machine_sse_control@@YA?AW4__acrt_fenv_machine_sse_control@@W4__acrt_fenv_abstract_control@@@Z 0000000180053ba4     libucrtd:_fenvutils.obj
 0004:00002bb0       $pdata$??$translate_control_exception_mask@W4__acrt_fenv_machine_sse_control@@W4__acrt_fenv_abstract_control@@@@YA?AW4__acrt_fenv_machine_sse_control@@W4__acrt_fenv_abstract_control@@@Z 0000000180053bb0     libucrtd:_fenvutils.obj
 0004:00002bbc       $pdata$??$translate_control_rounding_control@W4__acrt_fenv_machine_sse_control@@W4__acrt_fenv_abstract_control@@@@YA?AW4__acrt_fenv_machine_sse_control@@W4__acrt_fenv_abstract_control@@@Z 0000000180053bbc     libucrtd:_fenvutils.obj
 0004:00002bc8       $pdata$?get_machine_sse_status@@YA?AW4__acrt_fenv_machine_sse_status@@XZ 0000000180053bc8     libucrtd:_fenvutils.obj
 0004:00002bd4       $pdata$?set_machine_sse_status@@YAXW4__acrt_fenv_machine_sse_status@@@Z 0000000180053bd4     libucrtd:_fenvutils.obj
 0004:00002be0       $pdata$?get_machine_sse_control@@YA?AW4__acrt_fenv_machine_sse_control@@XZ 0000000180053be0     libucrtd:_fenvutils.obj
 0004:00002bec       $pdata$?set_machine_sse_control@@YAXW4__acrt_fenv_machine_sse_control@@@Z 0000000180053bec     libucrtd:_fenvutils.obj
 0004:00002bf8       $pdata$??$to_abstract_status@W4__acrt_fenv_machine_sse_status@@@@YA?AW4__acrt_fenv_abstract_status@@W4__acrt_fenv_machine_sse_status@@@Z 0000000180053bf8     libucrtd:_fenvutils.obj
 0004:00002c04       $pdata$??$__acrt_fenv_translate_bit@W4__acrt_fenv_abstract_status@@W4__acrt_fenv_machine_sse_status@@@@YA?AW4__acrt_fenv_abstract_status@@W4__acrt_fenv_machine_sse_status@@0W40@1@Z 0000000180053c04     libucrtd:_fenvutils.obj
 0004:00002c04       $pdata$??$__acrt_fenv_translate_bit@W4__acrt_fenv_machine_sse_status@@W4__acrt_fenv_abstract_status@@@@YA?AW4__acrt_fenv_machine_sse_status@@W4__acrt_fenv_abstract_status@@0W40@1@Z 0000000180053c04     libucrtd:_fenvutils.obj
 0004:00002c10       $pdata$??$__acrt_fenv_translate_bit@W4__acrt_fenv_abstract_control@@W4__acrt_fenv_machine_sse_control@@@@YA?AW4__acrt_fenv_abstract_control@@W4__acrt_fenv_machine_sse_control@@0W40@1@Z 0000000180053c10     libucrtd:_fenvutils.obj
 0004:00002c1c       $pdata$??$__acrt_fenv_translate_bit@W4__acrt_fenv_machine_sse_control@@W4__acrt_fenv_abstract_control@@@@YA?AW4__acrt_fenv_machine_sse_control@@W4__acrt_fenv_abstract_control@@0W40@1@Z 0000000180053c1c     libucrtd:_fenvutils.obj
 0004:00002c28       $pdata$??$translate_status@W4__acrt_fenv_abstract_status@@W4__acrt_fenv_machine_sse_status@@@@YA?AW4__acrt_fenv_abstract_status@@W4__acrt_fenv_machine_sse_status@@@Z 0000000180053c28     libucrtd:_fenvutils.obj
 0004:00002c34       $pdata$_clearfp            0000000180053c34     libucrtd:ieee.obj
 0004:00002c40       $pdata$_abstract_sw        0000000180053c40     libucrtd:ieee.obj
 0004:00002c4c       $pdata$_close              0000000180053c4c     libucrtd:close.obj
 0004:00002c58       $pdata$_close_nolock       0000000180053c58     libucrtd:close.obj
 0004:00002c64       $pdata$?close_os_handle_nolock@@YAKH@Z 0000000180053c64     libucrtd:close.obj
 0004:00002c70       $pdata$??R<lambda_4e7105787b7b0e0227fbf2b2d883fa65>@@QEBAHXZ 0000000180053c70     libucrtd:close.obj
 0004:00002c7c       $pdata$??$__acrt_lowio_lock_fh_and_call@V<lambda_4e7105787b7b0e0227fbf2b2d883fa65>@@@@YAHH$$QEAV<lambda_4e7105787b7b0e0227fbf2b2d883fa65>@@@Z 0000000180053c7c     libucrtd:close.obj
 0004:00002c88       $pdata$??$?RV<lambda_53fc7fc888e23d815d7080162c0aeeb2>@@AEAV<lambda_4e7105787b7b0e0227fbf2b2d883fa65>@@V<lambda_8ddc48ad9d26c778cb15812d1d88fc8a>@@@?$__crt_seh_guarded_call@H@@QEAAH$$QEAV<lambda_53fc7fc888e23d815d7080162c0aeeb2>@@AEAV<lambda_4e7105787b7b0e0227fbf2b2d883fa65>@@$$QEAV<lambda_8ddc48ad9d26c778cb15812d1d88fc8a>@@@Z 0000000180053c88     libucrtd:close.obj
 0004:00002c94       $pdata$?__acrt_stdio_free_stream@@YAXV__crt_stdio_stream@@@Z 0000000180053c94     libucrtd:stream.obj
 0004:00002ca0       $pdata$?__c16rtomb_utf8@__crt_mbstring@@YA_KPEAD_SPEAU_Mbstatet@@@Z 0000000180053ca0     libucrtd:c16rtomb.obj
 0004:00002cac       $pdata$?store_first_surrogate@?A0xc60ee810@@YAX_SPEAU_Mbstatet@@@Z 0000000180053cac     libucrtd:c16rtomb.obj
 0004:00002cb8       $pdata$?has_surrogate@?A0xc60ee810@@YA_NPEAU_Mbstatet@@@Z 0000000180053cb8     libucrtd:c16rtomb.obj
 0004:00002cc4       $pdata$?is_first_surrogate@?A0xc60ee810@@YA_N_S@Z 0000000180053cc4     libucrtd:c16rtomb.obj
 0004:00002cd0       $pdata$?is_second_surrogate@?A0xc60ee810@@YA_N_S@Z 0000000180053cd0     libucrtd:c16rtomb.obj
 0004:00002cdc       $pdata$__dcrt_lowio_ensure_console_output_initialized 0000000180053cdc     libucrtd:initcon.obj
 0004:00002ce8       $pdata$__dcrt_write_console 0000000180053ce8     libucrtd:initcon.obj
 0004:00002cf4       $pdata$__dcrt_terminate_console_output 0000000180053cf4     libucrtd:initcon.obj
 0004:00002d00       $pdata$_ValidateImageBase  0000000180053d00     LIBCMTD:pesect.obj
 0004:00002d0c       $pdata$_FindPESection      0000000180053d0c     LIBCMTD:pesect.obj
 0004:00002d18       $pdata$_IsNonwritableInCurrentImage 0000000180053d18     LIBCMTD:pesect.obj
 0004:00002d24       $pdata$_IsNonwritableInCurrentImage$filt$0 0000000180053d24     LIBCMTD:pesect.obj
 0004:00002d30       $pdata$??_Gtype_info@@UEAAPEAXI@Z 0000000180053d30     LIBCMTD:std_type_info_static.obj
 0004:00002d3c       $pdata$??3@YAXPEAX_K@Z     0000000180053d3c     LIBCMTD:delete_scalar_size.obj
 0004:00002d48       $pdata$__GSHandlerCheck_SEH 0000000180053d48     LIBCMTD:gshandlerseh.obj
 0004:00002d60       $pdata$__GSHandlerCheck_EH 0000000180053d60     LIBCMTD:gshandlereh.obj
 0004:00002d6c       $pdata$??3@YAXPEAX@Z       0000000180053d6c     LIBCMTD:delete_scalar.obj
 0004:00002d84       $pdata$strrchr             0000000180053d84     libvcruntimed:strrchr.obj
 0005:00000000       MoveSmall                  0000000180054000     libvcruntimed:memcpy.obj
 0005:00000050       MsetTab                    0000000180054050     libvcruntimed:memset.obj
