 win32_handmade

 Timestamp is 5ff017dd (Fri Jan  1 23:51:09 2021)

 Preferred load address is 0000000140000000

 Start         Length     Name                   Class
 0001:00000000 0003aad0H .text$mn                CODE
 0001:0003aad0 00000040H .text$mn$00             CODE
 0001:0003ab10 0000067dH .text$x                 CODE
 0002:00000000 000003b0H .idata$5                DATA
 0002:000003b0 00000028H .00cfg                  DATA
 0002:000003d8 00000008H .CRT$XCA                DATA
 0002:000003e0 00000008H .CRT$XCAA               DATA
 0002:000003e8 00000008H .CRT$XCZ                DATA
 0002:000003f0 00000008H .CRT$XIA                DATA
 0002:000003f8 00000008H .CRT$XIAA               DATA
 0002:00000400 00000008H .CRT$XIAC               DATA
 0002:00000408 00000020H .CRT$XIC                DATA
 0002:00000428 00000008H .CRT$XIZ                DATA
 0002:00000430 00000008H .CRT$XPA                DATA
 0002:00000438 00000010H .CRT$XPX                DATA
 0002:00000448 00000008H .CRT$XPXA               DATA
 0002:00000450 00000008H .CRT$XPZ                DATA
 0002:00000458 00000008H .CRT$XTA                DATA
 0002:00000460 00000010H .CRT$XTZ                DATA
 0002:00000468 00000000H .gehcont$y              DATA
 0002:00000468 00000000H .gfids$y                DATA
 0002:00000470 00010c90H .rdata                  DATA
 0002:00011100 00000000H .rdata$CastGuardVftablesA DATA
 0002:00011100 00000000H .rdata$CastGuardVftablesC DATA
 0002:00011100 0000016cH .rdata$r                DATA
 0002:0001126c 00000324H .rdata$zzzdbg           DATA
 0002:00011590 00000008H .rtc$IAA                DATA
 0002:00011598 00000008H .rtc$IZZ                DATA
 0002:000115a0 00000008H .rtc$TAA                DATA
 0002:000115a8 00000008H .rtc$TZZ                DATA
 0002:000115b0 000011c8H .xdata                  DATA
 0002:00012778 00000084H .xdata$x                DATA
 0002:000127fc 00000000H .edata                  DATA
 0002:000127fc 00000050H .idata$2                DATA
 0002:0001284c 00000014H .idata$3                DATA
 0002:00012860 000003b0H .idata$4                DATA
 0002:00012c10 0000082aH .idata$6                DATA
 0003:00000000 00000aa0H .data                   DATA
 0003:00000aa0 00000070H .data$r                 DATA
 0003:00000b10 000018e0H .bss                    DATA
 0004:00000000 00002f64H .pdata                  DATA
 0005:00000000 00000094H _RDATA                  DATA

  Address         Publics by Value              Rva+Base               Lib:Object

 0000:00000000       __arm64x_extra_rfe_table_size 0000000000000000     <absolute>
 0000:00000000       __guard_iat_table          0000000000000000     <absolute>
 0000:00000000       __guard_longjmp_table      0000000000000000     <absolute>
 0000:00000000       __x64_code_ranges_to_entry_points 0000000000000000     <absolute>
 0000:00000000       __x64_code_ranges_to_entry_points_count 0000000000000000     <absolute>
 0000:00000000       __guard_fids_count         0000000000000000     <absolute>
 0000:00000000       __guard_iat_count          0000000000000000     <absolute>
 0000:00000000       __guard_longjmp_count      0000000000000000     <absolute>
 0000:00000000       __dynamic_value_reloc_table 0000000000000000     <absolute>
 0000:00000000       __arm64x_extra_rfe_table   0000000000000000     <absolute>
 0000:00000000       __hybrid_auxiliary_iat     0000000000000000     <absolute>
 0000:00000000       __hybrid_code_map          0000000000000000     <absolute>
 0000:00000000       __volatile_metadata        0000000000000000     <absolute>
 0000:00000000       __arm64x_redirection_metadata 0000000000000000     <absolute>
 0000:00000000       ___safe_se_handler_count   0000000000000000     <absolute>
 0000:00000000       __AbsoluteZero             0000000000000000     <absolute>
 0000:00000000       __guard_fids_table         0000000000000000     <absolute>
 0000:00000000       __guard_eh_cont_count      0000000000000000     <absolute>
 0000:00000000       ___safe_se_handler_table   0000000000000000     <absolute>
 0000:00000000       __arm64x_redirection_metadata_count 0000000000000000     <absolute>
 0000:00000000       __enclave_config           0000000000000000     <absolute>
 0000:00000000       __guard_eh_cont_table      0000000000000000     <absolute>
 0000:00000000       __arm64x_native_entrypoint 0000000000000000     <absolute>
 0000:00000000       __hybrid_code_map_count    0000000000000000     <absolute>
 0000:00000100       __guard_flags              0000000000000100     <absolute>
 0000:00000000       __ImageBase                0000000140000000     <linker-defined>
 0001:00000000       ?PushSize_@@YAPEAXPEAUmemory_arena@@_K@Z 0000000140001000 f   win32_handmade.obj
 0001:00000070       WinMain                    0000000140001070 f   win32_handmade.obj
 0001:000019d0       ?XInputGetStateStub@@YAKKPEAU_XINPUT_STATE@@@Z 00000001400029d0 f   win32_handmade.obj
 0001:000019f0       ?XInputSetStateStub@@YAKKPEAU_XINPUT_VIBRATION@@@Z 00000001400029f0 f   win32_handmade.obj
 0001:00001c70       ?DEBUGPlatformFreeFileMemory@@YAXPEAUthread_context@@PEAX@Z 0000000140002c70 f   win32_handmade.obj
 0001:00001cb0       ?DEBUGPlatformReadEntireFile@@YA?AUdebug_read_file_result@@PEAUthread_context@@PEAD@Z 0000000140002cb0 f   win32_handmade.obj
 0001:00001e00       ?DEBUGPlatformWriteEntireFile@@YAHPEAUthread_context@@PEADIPEAX@Z 0000000140002e00 f   win32_handmade.obj
 0001:00002740       ?MainWindowCallback@@YA_JPEAUHWND__@@I_K_J@Z 0000000140003740 f   win32_handmade.obj
 0001:00003730       ?GetController@@YAPEAUgame_controller_input@@PEAUgame_input@@H@Z 0000000140004730 f i win32_handmade.obj
 0001:00003780       ?SafeTruncateUInt64@@YAI_K@Z 0000000140004780 f i win32_handmade.obj
 0001:000037b0       ?Win32GetLastWriteTime@@YA?AU_FILETIME@@PEAD@Z 00000001400047b0 f i win32_handmade.obj
 0001:00003820       ?Win32GetSecondsElapsed@@YAMT_LARGE_INTEGER@@0@Z 0000000140004820 f i win32_handmade.obj
 0001:00003890       ?Win32GetWallClock@@YA?AT_LARGE_INTEGER@@XZ 0000000140004890 f i win32_handmade.obj
 0001:000038b0       __GSHandlerCheck           00000001400048b0 f   LIBCMTD:gshandler.obj
 0001:000038f0       __GSHandlerCheckCommon     00000001400048f0 f   LIBCMTD:gshandler.obj
 0001:00003a00       _alloca_probe              0000000140004a00 f   LIBCMTD:chkstk.obj
 0001:00003a00       __chkstk                   0000000140004a00 f   LIBCMTD:chkstk.obj
 0001:00003a70       __security_check_cookie    0000000140004a70 f   LIBCMTD:amdsecgs.obj
 0001:00003d50       ?configure_argv@__scrt_narrow_argv_policy@@SAHXZ 0000000140004d50 f i LIBCMTD:exe_winmain.obj
 0001:00003d70       ?initialize_environment@__scrt_narrow_environment_policy@@SAHXZ 0000000140004d70 f i LIBCMTD:exe_winmain.obj
 0001:00003dc0       ?set_app_type@__scrt_winmain_policy@@SAXXZ 0000000140004dc0 f i LIBCMTD:exe_winmain.obj
 0001:00003de0       ?set_commode@__scrt_file_policy@@SAXXZ 0000000140004de0 f i LIBCMTD:exe_winmain.obj
 0001:00003e00       ?set_fmode@__scrt_file_policy@@SAXXZ 0000000140004e00 f i LIBCMTD:exe_winmain.obj
 0001:00003e20       WinMainCRTStartup          0000000140004e20 f   LIBCMTD:exe_winmain.obj
 0001:00003e30       __raise_securityfailure    0000000140004e30 f   LIBCMTD:gs_report.obj
 0001:00003e70       __report_gsfailure         0000000140004e70 f   LIBCMTD:gs_report.obj
 0001:00003f50       __report_rangecheckfailure 0000000140004f50 f   LIBCMTD:gs_report.obj
 0001:00003f70       __report_securityfailure   0000000140004f70 f   LIBCMTD:gs_report.obj
 0001:000042d0       NtCurrentTeb               00000001400052d0 f i LIBCMTD:utility.obj
 0001:000042e0       __scrt_acquire_startup_lock 00000001400052e0 f   LIBCMTD:utility.obj
 0001:00004350       __scrt_initialize_crt      0000000140005350 f   LIBCMTD:utility.obj
 0001:000043a0       __scrt_initialize_onexit_tables 00000001400053a0 f   LIBCMTD:utility.obj
 0001:000044b0       __scrt_is_nonwritable_in_current_image 00000001400054b0 f   LIBCMTD:utility.obj
 0001:00004540       __scrt_release_startup_lock 0000000140005540 f   LIBCMTD:utility.obj
 0001:00004570       __scrt_uninitialize_crt    0000000140005570 f   LIBCMTD:utility.obj
 0001:000045b0       _onexit                    00000001400055b0 f   LIBCMTD:utility.obj
 0001:00004630       atexit                     0000000140005630 f   LIBCMTD:utility.obj
 0001:00004730       __security_init_cookie     0000000140005730 f   LIBCMTD:gs_support.obj
 0001:000047b0       ?get_current_state_index@__crt_state_management@@YA_KAEBV__crt_scoped_get_last_error_reset@@@Z 00000001400057b0 f   libucrtd:per_thread_data.obj
 0001:000047b0       _matherr                   00000001400057b0 f   LIBCMTD:matherr.obj
 0001:000047c0       _get_startup_argv_mode     00000001400057c0 f   LIBCMTD:argv_mode.obj
 0001:000047d0       __scrt_stub_for_initialize_mta 00000001400057d0 f   LIBCMTD:utility_desktop.obj
 0001:000047d0       __scrt_exe_initialize_mta  00000001400057d0 f   LIBCMTD:utility_desktop.obj
 0001:000047d0       ?get_invalid_value@__crt_hmodule_traits@@SAPEAUHINSTANCE__@@XZ 00000001400057d0 f   libucrtd:exit.obj
 0001:000047d0       _get_startup_commit_mode   00000001400057d0 f   LIBCMTD:commit_mode.obj
 0001:000047d0       _get_startup_thread_locale_mode 00000001400057d0 f   LIBCMTD:thread_locale.obj
 0001:000047d0       _get_startup_new_mode      00000001400057d0 f   LIBCMTD:new_mode.obj
 0001:000047d0       ?get_current_state_index@__crt_state_management@@YA_KXZ 00000001400057d0 f   libucrtd:matherr.obj
 0001:000047d0       __scrt_initialize_winrt    00000001400057d0 f   LIBCMTD:utility_desktop.obj
 0001:000047e0       _get_startup_file_mode     00000001400057e0 f   LIBCMTD:file_mode.obj
 0001:000047f0       ?__scrt_initialize_type_info@@YAXXZ 00000001400057f0 f   LIBCMTD:tncleanup.obj
 0001:00004810       _should_initialize_environment 0000000140005810 f   LIBCMTD:env_mode.obj
 0001:00004820       _initialize_denormal_control 0000000140005820 f   LIBCMTD:denormal_control.obj
 0001:00004820       _initialize_invalid_parameter_handler 0000000140005820 f   LIBCMTD:invalid_parameter_handler.obj
 0001:00004830       __local_stdio_printf_options 0000000140005830 f i LIBCMTD:default_local_stdio_options.obj
 0001:00004840       __local_stdio_scanf_options 0000000140005840 f i LIBCMTD:default_local_stdio_options.obj
 0001:00004850       __scrt_initialize_default_local_stdio_options 0000000140005850 f   LIBCMTD:default_local_stdio_options.obj
 0001:000048a0       __scrt_is_user_matherr_present 00000001400058a0 f   LIBCMTD:matherr_detection.obj
 0001:000048d0       __scrt_get_dyn_tls_init_callback 00000001400058d0 f   LIBCMTD:dyn_tls_init.obj
 0001:000048e0       __scrt_get_dyn_tls_dtor_callback 00000001400058e0 f   LIBCMTD:dyn_tls_dtor.obj
 0001:000048f0       __crt_debugger_hook        00000001400058f0 f   LIBCMTD:utility_desktop.obj
 0001:00004900       __scrt_fastfail            0000000140005900 f   LIBCMTD:utility_desktop.obj
 0001:00004aa0       __scrt_get_show_window_mode 0000000140005aa0 f   LIBCMTD:utility_desktop.obj
 0001:00004b00       __scrt_initialize_mta      0000000140005b00 f   LIBCMTD:utility_desktop.obj
 0001:00004b10       __scrt_is_managed_app      0000000140005b10 f   LIBCMTD:utility_desktop.obj
 0001:00004bc0       __scrt_set_unhandled_exception_filter 0000000140005bc0 f   LIBCMTD:utility_desktop.obj
 0001:00004be0       __scrt_unhandled_exception_filter 0000000140005be0 f   LIBCMTD:utility_desktop.obj
 0001:00004c80       _RTC_Initialize            0000000140005c80 f   LIBCMTD:initsect.obj
 0001:00004cd0       _RTC_Terminate             0000000140005cd0 f   LIBCMTD:initsect.obj
 0001:00004d20       ??1?$__crt_simd_cleanup_guard@$0A@@@QEAA@XZ 0000000140005d20 f i libucrtd:strnlen.obj
 0001:00004d20       ??1scoped_global_state_reset@__crt_state_management@@QEAA@XZ 0000000140005d20 f i libucrtd:onexit.obj
 0001:00004d20       _guard_check_icall_nop     0000000140005d20 f i LIBCMTD:guard_support.obj
 0001:00004d30       ?__crt_interlocked_read_64@@YA_JPED_J@Z 0000000140005d30 f i libvcruntimed:std_type_info.obj
 0001:00004d30       ReadNoFence64              0000000140005d30 f i LIBCMTD:guard_support.obj
 0001:00004d50       ??$__crt_interlocked_read_pointer@X@@YAPEAXPEDSEAX@Z 0000000140005d50 f i libvcruntimed:winapi_downlevel.obj
 0001:00004d50       ??$__crt_interlocked_read_pointer@UHINSTANCE__@@@@YAPEAUHINSTANCE__@@PEDSEAU0@@Z 0000000140005d50 f i libvcruntimed:winapi_downlevel.obj
 0001:00004d50       ReadPointerNoFence         0000000140005d50 f i LIBCMTD:guard_support.obj
 0001:00004d70       _guard_icall_checks_enforced 0000000140005d70 f i LIBCMTD:guard_support.obj
 0001:00004db0       __isa_available_init       0000000140005db0 f   LIBCMTD:cpu_disp.obj
 0001:00005150       __scrt_is_ucrt_dll_in_use  0000000140006150 f   LIBCMTD:ucrt_detection.obj
 0001:00005180       IsProcessorFeaturePresent  0000000140006180 f   kernel32:KERNEL32.dll
 0001:00005190       __C_specific_handler       0000000140006190 f   libvcruntimed:riscchandler.obj
 0001:00005600       __vcrt_initialize          0000000140006600 f   libvcruntimed:initialization.obj
 0001:00005640       __vcrt_uninitialize        0000000140006640 f   libvcruntimed:initialization.obj
 0001:00005660       ??$?RE@__crt_internal_free_policy@@QEBAXQEBE@Z 0000000140006660 f i libucrtd:argv_parsing.obj
 0001:00005660       ??$?RP6AXXZ@__crt_internal_free_policy@@QEBAXQEBQ6AXXZ@Z 0000000140006660 f i libucrtd:onexit.obj
 0001:00005660       ??$?RU__vcrt_ptd@@@__crt_internal_free_policy@@QEBAXQEBU__vcrt_ptd@@@Z 0000000140006660 f i libvcruntimed:per_thread_data.obj
 0001:00005660       ??$?RU__crt_multibyte_data@@@__crt_internal_free_policy@@QEBAXQEBU__crt_multibyte_data@@@Z 0000000140006660 f i libucrtd:wsetlocale.obj
 0001:00005660       ??$?RD@__crt_internal_free_policy@@QEBAXQEBD@Z 0000000140006660 f i libvcruntimed:std_type_info.obj
 0001:00005660       ??$?RU__crt_lowio_handle_data@@@__crt_internal_free_policy@@QEBAXQEBU__crt_lowio_handle_data@@@Z 0000000140006660 f i libucrtd:osfinfo.obj
 0001:00005660       ??$?RPEAU__crt_stdio_stream_data@@@__crt_internal_free_policy@@QEBAXQEBQEAU__crt_stdio_stream_data@@@Z 0000000140006660 f i libucrtd:_file.obj
 0001:00005660       ??$?RU__acrt_ptd@@@__crt_internal_free_policy@@QEBAXQEBU__acrt_ptd@@@Z 0000000140006660 f i libucrtd:per_thread_data.obj
 0001:00005660       ??$?RPEAD@__crt_internal_free_policy@@QEBAXQEBQEAD@Z 0000000140006660 f i libucrtd:argv_parsing.obj
 0001:00005690       ??0?$__crt_unique_handle_t@U__crt_findfile_traits@@@@QEAA@QEAX@Z 0000000140006690 f i libucrtd:argv_wildcards.obj
 0001:00005690       ??0?$__crt_unique_heap_ptr@PEAU__crt_stdio_stream_data@@U__crt_internal_free_policy@@@@QEAA@QEAPEAU__crt_stdio_stream_data@@@Z 0000000140006690 f i libucrtd:_file.obj
 0001:00005690       ??0?$string_output_adapter@D@__crt_stdio_output@@QEAA@QEAU?$string_output_adapter_context@D@1@@Z 0000000140006690 f i libucrtd:output.obj
 0001:00005690       ??0?$__crt_unique_heap_ptr@P6AXXZU__crt_internal_free_policy@@@@QEAA@QEAP6AXXZ@Z 0000000140006690 f i libucrtd:onexit.obj
 0001:00005690       ??0?$__crt_scoped_stack_ptr@_W@@QEAA@U?$__crt_scoped_stack_ptr_tag@_W@@@Z 0000000140006690 f i libucrtd:getstringtypea.obj
 0001:00005690       ??0?$__crt_unique_heap_ptr@U__vcrt_ptd@@U__crt_internal_free_policy@@@@QEAA@QEAU__vcrt_ptd@@@Z 0000000140006690 f i libvcruntimed:per_thread_data.obj
 0001:00005690       ??0?$__crt_scoped_stack_ptr_tag@_W@@QEAA@QEA_W@Z 0000000140006690 f i libucrtd:getstringtypea.obj
 0001:00005690       ??0?$__crt_unique_handle_t@U__crt_hmodule_traits@@@@QEAA@QEAUHINSTANCE__@@@Z 0000000140006690 f i libucrtd:exit.obj
 0001:00005690       ??0__crt_stdio_stream@@QEAA@QEAU__crt_stdio_stream_data@@@Z 0000000140006690 f i libucrtd:fflush.obj
 0001:00005690       ??0?$__crt_unique_heap_ptr@DU__crt_internal_free_policy@@@@QEAA@QEAD@Z 0000000140006690 f i libvcruntimed:std_type_info.obj
 0001:00005690       ??0?$__crt_unique_heap_ptr@U__crt_multibyte_data@@U__crt_internal_free_policy@@@@QEAA@QEAU__crt_multibyte_data@@@Z 0000000140006690 f i libucrtd:wsetlocale.obj
 0001:00005690       ??0?$__crt_unique_heap_ptr@DU__crt_public_free_policy@@@@QEAA@QEAD@Z 0000000140006690 f i libvcruntimed:std_exception.obj
 0001:00005690       ??0?$__crt_unique_heap_ptr@U__crt_lowio_handle_data@@U__crt_internal_free_policy@@@@QEAA@QEAU__crt_lowio_handle_data@@@Z 0000000140006690 f i libucrtd:osfinfo.obj
 0001:00005690       ??0?$__crt_unique_heap_ptr@U__acrt_ptd@@U__crt_internal_free_policy@@@@QEAA@QEAU__acrt_ptd@@@Z 0000000140006690 f i libucrtd:per_thread_data.obj
 0001:00005690       ??0?$string_output_adapter@_W@__crt_stdio_output@@QEAA@QEAU?$string_output_adapter_context@_W@1@@Z 0000000140006690 f i libucrtd:output.obj
 0001:00005690       ??0?$__crt_unique_heap_ptr@EU__crt_internal_free_policy@@@@QEAA@QEAE@Z 0000000140006690 f i libucrtd:argv_parsing.obj
 0001:00005690       ??0?$__crt_unique_heap_ptr@PEADU__crt_internal_free_policy@@@@QEAA@QEAPEAD@Z 0000000140006690 f i libucrtd:argv_parsing.obj
 0001:00005690       ??0__crt_stdio_stream@@QEAA@QEAU_iobuf@@@Z 0000000140006690 f i libucrtd:output.obj
 0001:000056b0       ??1?$__crt_unique_heap_ptr@U__acrt_ptd@@U__crt_internal_free_policy@@@@QEAA@XZ 00000001400066b0 f i libucrtd:per_thread_data.obj
 0001:000056b0       ??1?$__crt_unique_heap_ptr@U__crt_multibyte_data@@U__crt_internal_free_policy@@@@QEAA@XZ 00000001400066b0 f i libucrtd:wsetlocale.obj
 0001:000056b0       ??1?$__crt_unique_heap_ptr@PEADU__crt_internal_free_policy@@@@QEAA@XZ 00000001400066b0 f i libucrtd:argv_parsing.obj
 0001:000056b0       ??1?$__crt_unique_heap_ptr@EU__crt_internal_free_policy@@@@QEAA@XZ 00000001400066b0 f i libucrtd:argv_parsing.obj
 0001:000056b0       ??1?$__crt_unique_heap_ptr@U__vcrt_ptd@@U__crt_internal_free_policy@@@@QEAA@XZ 00000001400066b0 f i libvcruntimed:per_thread_data.obj
 0001:000056b0       ??1?$__crt_unique_heap_ptr@PEAU__crt_stdio_stream_data@@U__crt_internal_free_policy@@@@QEAA@XZ 00000001400066b0 f i libucrtd:_file.obj
 0001:000056b0       ??1?$__crt_unique_heap_ptr@DU__crt_internal_free_policy@@@@QEAA@XZ 00000001400066b0 f i libvcruntimed:std_type_info.obj
 0001:000056b0       ??1?$__crt_unique_heap_ptr@U__crt_lowio_handle_data@@U__crt_internal_free_policy@@@@QEAA@XZ 00000001400066b0 f i libucrtd:osfinfo.obj
 0001:000056b0       ??1?$__crt_unique_heap_ptr@P6AXXZU__crt_internal_free_policy@@@@QEAA@XZ 00000001400066b0 f i libucrtd:onexit.obj
 0001:000056d0       ??B?$__crt_unique_heap_ptr@U__crt_multibyte_data@@U__crt_internal_free_policy@@@@QEBA_NXZ 00000001400066d0 f i libucrtd:wsetlocale.obj
 0001:000056d0       ??B?$__crt_unique_heap_ptr@EU__crt_internal_free_policy@@@@QEBA_NXZ 00000001400066d0 f i libucrtd:argv_parsing.obj
 0001:000056d0       ??B?$__crt_unique_heap_ptr@U__acrt_ptd@@U__crt_internal_free_policy@@@@QEBA_NXZ 00000001400066d0 f i libucrtd:per_thread_data.obj
 0001:000056d0       ??B?$__crt_unique_heap_ptr@U__vcrt_ptd@@U__crt_internal_free_policy@@@@QEBA_NXZ 00000001400066d0 f i libvcruntimed:per_thread_data.obj
 0001:000056d0       ??B?$__crt_unique_heap_ptr@U__crt_lowio_handle_data@@U__crt_internal_free_policy@@@@QEBA_NXZ 00000001400066d0 f i libucrtd:osfinfo.obj
 0001:000056d0       ??B?$__crt_unique_heap_ptr@DU__crt_public_free_policy@@@@QEBA_NXZ 00000001400066d0 f i libvcruntimed:std_exception.obj
 0001:000056d0       ??B?$__crt_unique_heap_ptr@DU__crt_internal_free_policy@@@@QEBA_NXZ 00000001400066d0 f i libvcruntimed:std_type_info.obj
 0001:000056f0       ?get@?$__crt_scoped_stack_ptr@_W@@QEBAPEA_WXZ 00000001400066f0 f i libucrtd:getstringtypea.obj
 0001:000056f0       ?get@?$__crt_unique_heap_ptr@DU__crt_public_free_policy@@@@QEBAPEADXZ 00000001400066f0 f i libvcruntimed:std_exception.obj
 0001:000056f0       ?get@?$__crt_unique_handle_t@U__crt_findfile_traits@@@@QEBAPEAXXZ 00000001400066f0 f i libucrtd:argv_wildcards.obj
 0001:000056f0       ?get@?$__crt_unique_heap_ptr@PEADU__crt_internal_free_policy@@@@QEBAPEAPEADXZ 00000001400066f0 f i libucrtd:argv_parsing.obj
 0001:000056f0       ?get@?$__crt_unique_heap_ptr@U__crt_lowio_handle_data@@U__crt_internal_free_policy@@@@QEBAPEAU__crt_lowio_handle_data@@XZ 00000001400066f0 f i libucrtd:osfinfo.obj
 0001:000056f0       ?get@?$__crt_unique_heap_ptr@U__vcrt_ptd@@U__crt_internal_free_policy@@@@QEBAPEAU__vcrt_ptd@@XZ 00000001400066f0 f i libvcruntimed:per_thread_data.obj
 0001:000056f0       ?save_state@?$c_string_character_source@D@__crt_strtox@@QEBAPEBDXZ 00000001400066f0 f i libucrtd:atox.obj
 0001:000056f0       ?public_stream@__crt_stdio_stream@@QEBAPEAU_iobuf@@XZ 00000001400066f0 f i libucrtd:output.obj
 0001:000056f0       ?get@?$__crt_unique_heap_ptr@EU__crt_internal_free_policy@@@@QEBAPEAEXZ 00000001400066f0 f i libucrtd:argv_parsing.obj
 0001:000056f0       ??C__crt_stdio_stream@@QEBAPEAU__crt_stdio_stream_data@@XZ 00000001400066f0 f i libucrtd:output.obj
 0001:000056f0       ?get@?$__crt_unique_heap_ptr@DU__crt_internal_free_policy@@@@QEBAPEADXZ 00000001400066f0 f i libvcruntimed:std_type_info.obj
 0001:000056f0       ?get@?$__crt_unique_heap_ptr@U__acrt_ptd@@U__crt_internal_free_policy@@@@QEBAPEAU__acrt_ptd@@XZ 00000001400066f0 f i libucrtd:per_thread_data.obj
 0001:000056f0       ?save_state@?$c_string_character_source@_W@__crt_strtox@@QEBAPEB_WXZ 00000001400066f0 f i libucrtd:atox.obj
 0001:000056f0       ?get@?$__crt_unique_heap_ptr@U__crt_multibyte_data@@U__crt_internal_free_policy@@@@QEBAPEAU__crt_multibyte_data@@XZ 00000001400066f0 f i libucrtd:wsetlocale.obj
 0001:000056f0       ?get@?$__crt_unique_handle_t@U__crt_hmodule_traits@@@@QEBAPEAUHINSTANCE__@@XZ 00000001400066f0 f i libucrtd:exit.obj
 0001:00005700       ?is_valid@?$__crt_unique_heap_ptr@U__acrt_ptd@@U__crt_internal_free_policy@@@@QEBA_NXZ 0000000140006700 f i libucrtd:per_thread_data.obj
 0001:00005700       ?is_valid@?$__crt_unique_heap_ptr@U__crt_lowio_handle_data@@U__crt_internal_free_policy@@@@QEBA_NXZ 0000000140006700 f i libucrtd:osfinfo.obj
 0001:00005700       ?valid@__crt_stdio_stream@@QEBA_NXZ 0000000140006700 f i libucrtd:output.obj
 0001:00005700       ?is_valid@?$__crt_unique_heap_ptr@DU__crt_public_free_policy@@@@QEBA_NXZ 0000000140006700 f i libvcruntimed:std_exception.obj
 0001:00005700       ?is_valid@?$__crt_unique_heap_ptr@DU__crt_internal_free_policy@@@@QEBA_NXZ 0000000140006700 f i libvcruntimed:std_type_info.obj
 0001:00005700       ?is_valid@?$__crt_unique_heap_ptr@EU__crt_internal_free_policy@@@@QEBA_NXZ 0000000140006700 f i libucrtd:argv_parsing.obj
 0001:00005700       ??B?$__crt_scoped_stack_ptr@_W@@QEBA_NXZ 0000000140006700 f i libucrtd:lcmapstringa.obj
 0001:00005700       ?is_valid@?$__crt_unique_heap_ptr@U__vcrt_ptd@@U__crt_internal_free_policy@@@@QEBA_NXZ 0000000140006700 f i libvcruntimed:per_thread_data.obj
 0001:00005700       ?is_valid@?$__crt_unique_heap_ptr@U__crt_multibyte_data@@U__crt_internal_free_policy@@@@QEBA_NXZ 0000000140006700 f i libucrtd:wsetlocale.obj
 0001:00005730       ?release@?$__crt_unique_heap_ptr@DU__crt_internal_free_policy@@@@QEAAXXZ 0000000140006730 f i libvcruntimed:std_type_info.obj
 0001:00005730       ?release@?$__crt_unique_heap_ptr@PEAU__crt_stdio_stream_data@@U__crt_internal_free_policy@@@@QEAAXXZ 0000000140006730 f i libucrtd:_file.obj
 0001:00005730       ?release@?$__crt_unique_heap_ptr@U__crt_lowio_handle_data@@U__crt_internal_free_policy@@@@QEAAXXZ 0000000140006730 f i libucrtd:osfinfo.obj
 0001:00005730       ?release@?$__crt_unique_heap_ptr@U__vcrt_ptd@@U__crt_internal_free_policy@@@@QEAAXXZ 0000000140006730 f i libvcruntimed:per_thread_data.obj
 0001:00005730       ?release@?$__crt_unique_heap_ptr@EU__crt_internal_free_policy@@@@QEAAXXZ 0000000140006730 f i libucrtd:argv_parsing.obj
 0001:00005730       ?release@?$__crt_unique_heap_ptr@P6AXXZU__crt_internal_free_policy@@@@QEAAXXZ 0000000140006730 f i libucrtd:onexit.obj
 0001:00005730       ?release@?$__crt_unique_heap_ptr@U__acrt_ptd@@U__crt_internal_free_policy@@@@QEAAXXZ 0000000140006730 f i libucrtd:per_thread_data.obj
 0001:00005730       ?release@?$__crt_unique_heap_ptr@PEADU__crt_internal_free_policy@@@@QEAAXXZ 0000000140006730 f i libucrtd:argv_parsing.obj
 0001:00005730       ?release@?$__crt_unique_heap_ptr@U__crt_multibyte_data@@U__crt_internal_free_policy@@@@QEAAXXZ 0000000140006730 f i libucrtd:wsetlocale.obj
 0001:00005760       __std_type_info_compare    0000000140006760 f   libvcruntimed:std_type_info.obj
 0001:000057a0       __DestructExceptionObject  00000001400067a0 f   libvcruntimed:ehhelpers.obj
 0001:000058a0       ?_CallMemberFunction0@@YAXQEAX0@Z 00000001400068a0 f i libvcruntimed:ehhelpers.obj
 0001:00005970       _IsExceptionObjectToBeDestroyed 0000000140006970 f   libvcruntimed:ehhelpers.obj
 0001:000059c0       __AdjustPointer            00000001400069c0 f   libvcruntimed:ehhelpers.obj
 0001:00005a40       __FrameUnwindFilter        0000000140006a40 f   libvcruntimed:ehhelpers.obj
 0001:00005af0       __current_exception        0000000140006af0 f   libvcruntimed:ehhelpers.obj
 0001:00005b10       __current_exception_context 0000000140006b10 f   libvcruntimed:ehhelpers.obj
 0001:00005b40       _NLG_Notify                0000000140006b40 f   libvcruntimed:notify.obj
 0001:00005b60       __NLG_Dispatch2            0000000140006b60 f   libvcruntimed:notify.obj
 0001:00005b70       __NLG_Return2              0000000140006b70 f   libvcruntimed:notify.obj
 0001:00005b80       __except_validate_context_record 0000000140006b80 f   libvcruntimed:jbcxrval.obj
 0001:00005c20       ?detach@?$__crt_unique_heap_ptr@PEADU__crt_internal_free_policy@@@@QEAAPEAPEADXZ 0000000140006c20 f i libucrtd:argv_parsing.obj
 0001:00005c20       ?detach@?$__crt_unique_heap_ptr@PEAU__crt_stdio_stream_data@@U__crt_internal_free_policy@@@@QEAAPEAPEAU__crt_stdio_stream_data@@XZ 0000000140006c20 f i libucrtd:_file.obj
 0001:00005c20       ?detach@?$__crt_unique_heap_ptr@U__crt_multibyte_data@@U__crt_internal_free_policy@@@@QEAAPEAU__crt_multibyte_data@@XZ 0000000140006c20 f i libucrtd:wsetlocale.obj
 0001:00005c20       ?detach@?$__crt_unique_heap_ptr@U__crt_lowio_handle_data@@U__crt_internal_free_policy@@@@QEAAPEAU__crt_lowio_handle_data@@XZ 0000000140006c20 f i libucrtd:osfinfo.obj
 0001:00005c20       ?detach@?$__crt_unique_heap_ptr@P6AXXZU__crt_internal_free_policy@@@@QEAAPEAP6AXXZXZ 0000000140006c20 f i libucrtd:onexit.obj
 0001:00005c20       ?detach@?$__crt_unique_heap_ptr@EU__crt_internal_free_policy@@@@QEAAPEAEXZ 0000000140006c20 f i libucrtd:argv_parsing.obj
 0001:00005c20       ?detach@?$__crt_unique_heap_ptr@U__vcrt_ptd@@U__crt_internal_free_policy@@@@QEAAPEAU__vcrt_ptd@@XZ 0000000140006c20 f i libvcruntimed:per_thread_data.obj
 0001:00005c20       ?detach@?$__crt_unique_heap_ptr@U__acrt_ptd@@U__crt_internal_free_policy@@@@QEAAPEAU__acrt_ptd@@XZ 0000000140006c20 f i libucrtd:per_thread_data.obj
 0001:00005c20       ?detach@?$__crt_unique_heap_ptr@DU__crt_public_free_policy@@@@QEAAPEADXZ 0000000140006c20 f i libvcruntimed:std_exception.obj
 0001:00005c90       __vcrt_freefls             0000000140006c90 f   libvcruntimed:per_thread_data.obj
 0001:00005cd0       __vcrt_getptd              0000000140006cd0 f   libvcruntimed:per_thread_data.obj
 0001:00005d00       __vcrt_getptd_noexit       0000000140006d00 f   libvcruntimed:per_thread_data.obj
 0001:00005ea0       __vcrt_initialize_ptd      0000000140006ea0 f   libvcruntimed:per_thread_data.obj
 0001:00005ef0       __vcrt_uninitialize_ptd    0000000140006ef0 f   libvcruntimed:per_thread_data.obj
 0001:00005f20       __vcrt_initialize_locks    0000000140006f20 f   libvcruntimed:locks.obj
 0001:00005f90       __vcrt_uninitialize_locks  0000000140006f90 f   libvcruntimed:locks.obj
 0001:00005ff0       _vsprintf_s_l              0000000140006ff0 f i libvcruntimed:undname.obj
 0001:00006060       sprintf_s                  0000000140007060 f i libvcruntimed:undname.obj
 0001:000060c0       ??$__crt_interlocked_exchange_pointer@XPEAX@@YAPEAXPEDSEAXQEAX@Z 00000001400070c0 f i libvcruntimed:winapi_downlevel.obj
 0001:000060c0       ??$__crt_interlocked_exchange_pointer@UHINSTANCE__@@PEAX@@YAPEAUHINSTANCE__@@PEDSEAU0@QEAX@Z 00000001400070c0 f i libvcruntimed:winapi_downlevel.obj
 0001:000060c0       ??$__crt_interlocked_exchange_pointer@UHINSTANCE__@@PEAU1@@@YAPEAUHINSTANCE__@@PEDSEAU0@QEAU0@@Z 00000001400070c0 f i libvcruntimed:winapi_downlevel.obj
 0001:000060e0       ?get_invalid_value@__crt_findfile_traits@@SAPEAXXZ 00000001400070e0 f   libucrtd:argv_wildcards.obj
 0001:000065d0       __vcrt_FlsAlloc            00000001400075d0 f   libvcruntimed:winapi_downlevel.obj
 0001:00006620       __vcrt_FlsFree             0000000140007620 f   libvcruntimed:winapi_downlevel.obj
 0001:00006670       __vcrt_FlsGetValue         0000000140007670 f   libvcruntimed:winapi_downlevel.obj
 0001:000066c0       __vcrt_FlsSetValue         00000001400076c0 f   libvcruntimed:winapi_downlevel.obj
 0001:00006720       __vcrt_InitializeCriticalSectionEx 0000000140007720 f   libvcruntimed:winapi_downlevel.obj
 0001:000067a0       memcpy_repmovs             00000001400077a0 f   libvcruntimed:memcpy.obj
 0001:000067c0       memcpy                     00000001400077c0 f   libvcruntimed:memcpy.obj
 0001:000067c0       memmove                    00000001400077c0 f   libvcruntimed:memcpy.obj
 0001:00006ba0       ??$?0AEAViterator@TryBlockMap@__FrameHandler3@@AEAV012@$0A@@?$pair@Viterator@TryBlockMap@__FrameHandler3@@V123@@std@@QEAA@AEAViterator@TryBlockMap@__FrameHandler3@@0@Z 0000000140007ba0 f i libvcruntimed:risctrnsctrl.obj
 0001:00006cb0       ??$_CallSETranslator@V__FrameHandler3@@@@YAHPEAUEHExceptionRecord@@PEA_KPEAU_CONTEXT@@PEAU_xDISPATCHER_CONTEXT@@PEBU_s_FuncInfo@@K1H@Z 0000000140007cb0 f i libvcruntimed:risctrnsctrl.obj
 0001:00006d40       ?debug_info@?$__crt_win32_buffer@_WU__crt_win32_buffer_internal_dynamic_resizing@@@@QEBAAEBV__crt_win32_buffer_empty_debug_info@@XZ 0000000140007d40 f i libucrtd:argv_wildcards.obj
 0001:00006d40       ??$forward@AEAViterator@TryBlockMap@__FrameHandler3@@@std@@YAAEAViterator@TryBlockMap@__FrameHandler3@@AEAV123@@Z 0000000140007d40 f i libvcruntimed:risctrnsctrl.obj
 0001:00006d40       ?dangerous_get_state_array@?$dual_state_global@H@__crt_state_management@@QEAAPEAHXZ 0000000140007d40 f i libucrtd:txtmode.obj
 0001:00006d40       ?debug_info@?$__crt_win32_buffer@DU__crt_win32_buffer_no_resizing@@@@QEBAAEBV__crt_win32_buffer_empty_debug_info@@XZ 0000000140007d40 f i libucrtd:getmodulefilenamea.obj
 0001:00006d40       ?get_address_of@?$__crt_unique_heap_ptr@PEADU__crt_internal_free_policy@@@@QEAAPEAPEAPEADXZ 0000000140007d40 f i libucrtd:argv_parsing.obj
 0001:00006d40       ?dangerous_get_state_array@?$dual_state_global@PEAU__crt_multibyte_data@@@__crt_state_management@@QEAAPEAPEAU__crt_multibyte_data@@XZ 0000000140007d40 f i libucrtd:mbctype.obj
 0001:00006d40       ?dangerous_get_state_array@?$dual_state_global@PEAU__crt_locale_data@@@__crt_state_management@@QEAAPEAPEAU__crt_locale_data@@XZ 0000000140007d40 f i libucrtd:per_thread_data.obj
 0001:00006d40       ?debug_info@?$__crt_win32_buffer@DU__crt_win32_buffer_internal_dynamic_resizing@@@@QEBAAEBV__crt_win32_buffer_empty_debug_info@@XZ 0000000140007d40 f i libucrtd:argv_wildcards.obj
 0001:00006d40       ?dangerous_get_state_array@?$dual_state_global@PEAE@__crt_state_management@@QEAAPEAPEAEXZ 0000000140007d40 f i libucrtd:mbctype.obj
 0001:00006d40       ?dangerous_get_state_array@?$dual_state_global@P6AXPEB_W00I_K@Z@__crt_state_management@@QEAAPEAP6AXPEB_W00I_K@ZXZ 0000000140007d40 f i libucrtd:invalid_parameter.obj
 0001:00006d40       ?get_address_of@?$__crt_unique_handle_t@U__crt_hmodule_traits@@@@QEAAPEAPEAUHINSTANCE__@@XZ 0000000140007d40 f i libucrtd:exit.obj
 0001:00006d50       ??0iterator@TryBlockMap@__FrameHandler3@@QEAA@AEAV12@I@Z 0000000140007d50 f i libvcruntimed:risctrnsctrl.obj
 0001:00006d50       ??0iterator@HandlerMap@__FrameHandler3@@QEAA@AEAV12@I@Z 0000000140007d50 f i libvcruntimed:frame.obj
 0001:00006d80       ?CatchTryBlock@__FrameHandler3@@SAPEBU_s_TryBlockMapEntry@@PEBU_s_FuncInfo@@H@Z 0000000140007d80 f   libvcruntimed:risctrnsctrl.obj
 0001:00006e10       ?ExecutionInCatch@__FrameHandler3@@SA_NPEAU_xDISPATCHER_CONTEXT@@PEBU_s_FuncInfo@@@Z 0000000140007e10 f   libvcruntimed:risctrnsctrl.obj
 0001:00006e60       ?FrameUnwindToEmptyState@__FrameHandler3@@SAXPEA_KPEAU_xDISPATCHER_CONTEXT@@PEBU_s_FuncInfo@@@Z 0000000140007e60 f   libvcruntimed:risctrnsctrl.obj
 0001:00006f00       ?GetEstablisherFrame@__FrameHandler3@@SAPEA_KPEA_KPEAU_xDISPATCHER_CONTEXT@@PEBU_s_FuncInfo@@0@Z 0000000140007f00 f   libvcruntimed:risctrnsctrl.obj
 0001:00007070       ?GetRangeOfTrysToCheck@__FrameHandler3@@SA?AU?$pair@Viterator@TryBlockMap@__FrameHandler3@@V123@@std@@AEAVTryBlockMap@1@HPEAU_xDISPATCHER_CONTEXT@@PEBU_s_FuncInfo@@H@Z 0000000140008070 f   libvcruntimed:risctrnsctrl.obj
 0001:000072b0       ?UnwindNestedFrames@__FrameHandler3@@SAXPEA_KPEAUEHExceptionRecord@@PEAU_CONTEXT@@0PEAXPEBU_s_FuncInfo@@HHPEBU_s_HandlerType@@PEAU_xDISPATCHER_CONTEXT@@E@Z 00000001400082b0 f   libvcruntimed:risctrnsctrl.obj
 0001:00007420       _CreateFrameInfo           0000000140008420 f   libvcruntimed:risctrnsctrl.obj
 0001:00007490       _FindAndUnlinkFrame        0000000140008490 f   libvcruntimed:risctrnsctrl.obj
 0001:00007510       _GetImageBase              0000000140008510 f   libvcruntimed:risctrnsctrl.obj
 0001:00007530       _GetThrowImageBase         0000000140008530 f   libvcruntimed:risctrnsctrl.obj
 0001:00007550       _SetImageBase              0000000140008550 f   libvcruntimed:risctrnsctrl.obj
 0001:00007570       _SetThrowImageBase         0000000140008570 f   libvcruntimed:risctrnsctrl.obj
 0001:00007590       __CxxFrameHandler3         0000000140008590 f   libvcruntimed:risctrnsctrl.obj
 0001:00007670       ?GetCurrentState@__FrameHandler3@@SAHPEA_KPEAU_xDISPATCHER_CONTEXT@@PEBU_s_FuncInfo@@@Z 0000000140008670 f   libvcruntimed:ehstate.obj
 0001:000076d0       ?GetUnwindTryBlock@__FrameHandler3@@SAHPEA_KPEAU_xDISPATCHER_CONTEXT@@PEBU_s_FuncInfo@@@Z 00000001400086d0 f   libvcruntimed:ehstate.obj
 0001:00007720       ?SetState@__FrameHandler3@@SAXPEA_KPEBU_s_FuncInfo@@H@Z 0000000140008720 f   libvcruntimed:ehstate.obj
 0001:00007750       ?SetUnwindTryBlock@__FrameHandler3@@SAXPEA_KPEAU_xDISPATCHER_CONTEXT@@PEBU_s_FuncInfo@@H@Z 0000000140008750 f   libvcruntimed:ehstate.obj
 0001:000077c0       ?StateFromControlPc@__FrameHandler3@@SAHPEBU_s_FuncInfo@@PEAU_xDISPATCHER_CONTEXT@@@Z 00000001400087c0 f   libvcruntimed:ehstate.obj
 0001:00007800       ?StateFromIp@__FrameHandler3@@SAHPEBU_s_FuncInfo@@PEAU_xDISPATCHER_CONTEXT@@_K@Z 0000000140008800 f   libvcruntimed:ehstate.obj
 0001:000078f0       ?__RVAtoRealOffset@@YA_KPEAU_xDISPATCHER_CONTEXT@@H@Z 00000001400088f0 f i libvcruntimed:ehstate.obj
 0001:00008ad0       ??$TypeMatchHelper@V__FrameHandler3@@@@YAHPEBU_s_HandlerType@@PEBU_s_CatchableType@@PEBU_s_ThrowInfo@@@Z 0000000140009ad0 f i libvcruntimed:frame.obj
 0001:00008cd0       ??$__InternalCxxFrameHandler@V__FrameHandler3@@@@YA?AW4_EXCEPTION_DISPOSITION@@PEAUEHExceptionRecord@@PEA_KPEAU_CONTEXT@@PEAU_xDISPATCHER_CONTEXT@@PEBU_s_FuncInfo@@H1E@Z 0000000140009cd0 f i libvcruntimed:frame.obj
 0001:00009140       ??0HandlerMap@__FrameHandler3@@QEAA@PEBU_s_TryBlockMapEntry@@_KI@Z 000000014000a140 f i libvcruntimed:frame.obj
 0001:00009190       ??0TryBlockMap@__FrameHandler3@@QEAA@PEBU_s_FuncInfo@@_K@Z 000000014000a190 f i libvcruntimed:frame.obj
 0001:000091c0       ??0bad_exception@std@@QEAA@AEBV01@@Z 000000014000a1c0 f i libvcruntimed:frame.obj
 0001:00009200       ??0bad_exception@std@@QEAA@XZ 000000014000a200 f i libvcruntimed:frame.obj
 0001:00009240       ??0exception@std@@QEAA@AEBV01@@Z 000000014000a240 f i libvcruntimed:frame.obj
 0001:000092a0       ??0exception@std@@QEAA@QEBDH@Z 000000014000a2a0 f i libvcruntimed:frame.obj
 0001:000092f0       ??1bad_exception@std@@UEAA@XZ 000000014000a2f0 f i libvcruntimed:frame.obj
 0001:00009310       ??1exception@std@@UEAA@XZ  000000014000a310 f i libvcruntimed:frame.obj
 0001:00009340       ??8iterator@HandlerMap@__FrameHandler3@@QEBA_NAEBV012@@Z 000000014000a340 f i libvcruntimed:frame.obj
 0001:00009380       ??8type_info@@QEBA_NAEBV0@@Z 000000014000a380 f i libvcruntimed:frame.obj
 0001:000093d0       ??9iterator@HandlerMap@__FrameHandler3@@QEBA_NAEBV012@@Z 000000014000a3d0 f i libvcruntimed:frame.obj
 0001:00009410       ??Diterator@HandlerMap@__FrameHandler3@@QEAA?BU_s_HandlerType@@XZ 000000014000a410 f i libvcruntimed:frame.obj
 0001:00009450       ??Diterator@TryBlockMap@__FrameHandler3@@QEAA?BU_s_TryBlockMapEntry@@XZ 000000014000a450 f i libvcruntimed:frame.obj
 0001:000094a0       ??Eiterator@HandlerMap@__FrameHandler3@@QEAAAEAV012@XZ 000000014000a4a0 f i libvcruntimed:frame.obj
 0001:000094a0       ??Eiterator@TryBlockMap@__FrameHandler3@@QEAAAEAV012@XZ 000000014000a4a0 f i libvcruntimed:frame.obj
 0001:000094c0       ??Miterator@TryBlockMap@__FrameHandler3@@QEBA_NAEBV012@@Z 000000014000a4c0 f i libvcruntimed:frame.obj
 0001:00009500       ??_Ebad_exception@std@@UEAAPEAXI@Z 000000014000a500 f i libvcruntimed:frame.obj
 0001:00009500       ??_Gbad_exception@std@@UEAAPEAXI@Z 000000014000a500 f i libvcruntimed:frame.obj
 0001:00009540       ??_Eexception@std@@UEAAPEAXI@Z 000000014000a540 f i libvcruntimed:frame.obj
 0001:00009540       ??_Gexception@std@@UEAAPEAXI@Z 000000014000a540 f i libvcruntimed:frame.obj
 0001:00009580       ?BuildCatchObject@__FrameHandler3@@SAXPEAUEHExceptionRecord@@PEAXPEBU_s_HandlerType@@PEBU_s_CatchableType@@@Z 000000014000a580 f   libvcruntimed:frame.obj
 0001:000095c0       ?CxxCallCatchBlock@__FrameHandler3@@SAPEAXPEAU_EXCEPTION_RECORD@@@Z 000000014000a5c0 f   libvcruntimed:frame.obj
 0001:00009920       ?FrameUnwindToState@__FrameHandler3@@SAXPEA_KPEAU_xDISPATCHER_CONTEXT@@PEBU_s_FuncInfo@@H@Z 000000014000a920 f   libvcruntimed:frame.obj
 0001:00009b70       ?GetHandlerSearchState@__FrameHandler3@@SAHPEA_KPEAU_xDISPATCHER_CONTEXT@@PEBU_s_FuncInfo@@@Z 000000014000ab70 f i libvcruntimed:frame.obj
 0001:00009c20       ?GetMaxState@__FrameHandler3@@SAHPEAU_xDISPATCHER_CONTEXT@@PEBU_s_FuncInfo@@@Z 000000014000ac20 f i libvcruntimed:frame.obj
 0001:00009e20       ?TypeMatch@__FrameHandler3@@SAHPEBU_s_HandlerType@@PEBU_s_CatchableType@@PEBU_s_ThrowInfo@@@Z 000000014000ae20 f   libvcruntimed:frame.obj
 0001:00009e20       __TypeMatch                000000014000ae20 f   libvcruntimed:frame.obj
 0001:00009e50       ?_CallMemberFunction1@@YAXQEAX00@Z 000000014000ae50 f i libvcruntimed:frame.obj
 0001:00009e90       ?_CallMemberFunction2@@YAXQEAX00H@Z 000000014000ae90 f i libvcruntimed:frame.obj
 0001:00009f20       ?begin@HandlerMap@__FrameHandler3@@QEAA?AViterator@12@XZ 000000014000af20 f i libvcruntimed:frame.obj
 0001:00009f50       ?end@HandlerMap@__FrameHandler3@@QEAA?AViterator@12@XZ 000000014000af50 f i libvcruntimed:frame.obj
 0001:00009f80       ?getESTypes@__FrameHandler3@@SAPEBU_s_ESTypeList@@PEBU_s_FuncInfo@@@Z 000000014000af80 f i libvcruntimed:frame.obj
 0001:00009fc0       ?getLastEntry@HandlerMap@__FrameHandler3@@QEAAPEBU_s_HandlerType@@XZ 000000014000afc0 f i libvcruntimed:frame.obj
 0001:00009fe0       ?getMagicNum@__FrameHandler3@@SAIPEBU_s_FuncInfo@@@Z 000000014000afe0 f i libvcruntimed:frame.obj
 0001:0000a000       ?getNumTryBlocks@TryBlockMap@__FrameHandler3@@QEAAIXZ 000000014000b000 f i libvcruntimed:frame.obj
 0001:0000a020       ?isEHs@__FrameHandler3@@SA_NPEBU_s_FuncInfo@@@Z 000000014000b020 f i libvcruntimed:frame.obj
 0001:0000a060       ?isNoExcept@__FrameHandler3@@SA_NPEBU_s_FuncInfo@@@Z 000000014000b060 f i libvcruntimed:frame.obj
 0001:0000a0a0       ?what@exception@std@@UEBAPEBDXZ 000000014000b0a0 f i libvcruntimed:frame.obj
 0001:0000a0e0       __vcrt_EncodePointer       000000014000b0e0 f i libvcruntimed:frame.obj
 0001:0000a110       memset_repmovs             000000014000b110 f   libvcruntimed:memset.obj
 0001:0000a130       memset                     000000014000b130 f   libvcruntimed:memset.obj
 0001:0000a2d0       _CallSettingFrame          000000014000b2d0 f   libvcruntimed:handlers.obj
 0001:0000a320       _CallSettingFrame_LookupContinuationIndex 000000014000b320 f   libvcruntimed:handlers.obj
 0001:0000a350       _CallSettingFrame_NotifyContinuationAddr 000000014000b350 f   libvcruntimed:handlers.obj
 0001:0000a380       _CallSettingFrameEncoded   000000014000b380 f   libvcruntimed:handlers.obj
 0001:0000a3d0       ??$?RD@__crt_public_free_policy@@QEBAXQEBD@Z 000000014000b3d0 f i libvcruntimed:std_exception.obj
 0001:0000a3f0       ??1?$__crt_unique_heap_ptr@DU__crt_public_free_policy@@@@QEAA@XZ 000000014000b3f0 f i libvcruntimed:std_exception.obj
 0001:0000a410       ?release@?$__crt_unique_heap_ptr@DU__crt_public_free_policy@@@@QEAAXXZ 000000014000b410 f i libvcruntimed:std_exception.obj
 0001:0000a440       __std_exception_copy       000000014000b440 f   libvcruntimed:std_exception.obj
 0001:0000a580       __std_exception_destroy    000000014000b580 f   libvcruntimed:std_exception.obj
 0001:0000a5c0       _CxxThrowException         000000014000b5c0 f   libvcruntimed:throw.obj
 0001:0000a760       _seh_filter_exe            000000014000b760 f   libucrtd:exception_filter.obj
 0001:0000abd0       __acrt_report_runtime_error 000000014000bbd0 f   libucrtd:report_runtime_error.obj
 0001:0000ae50       _invoke_watson_if_error    000000014000be50 f i libucrtd:report_runtime_error.obj
 0001:0000aea0       _query_app_type            000000014000bea0 f   libucrtd:report_runtime_error.obj
 0001:0000aeb0       _set_app_type              000000014000beb0 f   libucrtd:report_runtime_error.obj
 0001:0000aec0       ??$__crt_fast_decode_pointer@P6AXPEB_W00I_K@Z@@YAP6AXPEB_W00I_K@ZQ6AX000I1@Z@Z 000000014000bec0 f i libucrtd:invalid_parameter.obj
 0001:0000aec0       ??$__crt_fast_decode_pointer@PEAX@@YAPEAXQEAX@Z 000000014000bec0 f i libucrtd:winapi_thunks.obj
 0001:0000aec0       ??$__crt_fast_decode_pointer@P6AXXZ@@YAP6AXXZQ6AXXZ@Z 000000014000bec0 f i libucrtd:onexit.obj
 0001:0000aec0       ??$__crt_fast_decode_pointer@P6AXH@Z@@YAP6AXH@ZQ6AXH@Z@Z 000000014000bec0 f i libucrtd:signal.obj
 0001:0000aec0       ??$__crt_fast_decode_pointer@P6AH_K@Z@@YAP6AH_K@ZQ6AH0@Z@Z 000000014000bec0 f i libucrtd:new_handler.obj
 0001:0000aec0       ??$__crt_fast_decode_pointer@PEAP6AXXZ@@YAPEAP6AXXZQEAP6AXXZ@Z 000000014000bec0 f i libucrtd:onexit.obj
 0001:0000aec0       ??$__crt_fast_decode_pointer@P6AXPEAXK0@Z@@YAP6AXPEAXK0@ZQ6AX0K0@Z@Z 000000014000bec0 f i libucrtd:exit.obj
 0001:0000aec0       ??$__crt_fast_decode_pointer@P6AHPEAU_exception@@@Z@@YAP6AHPEAU_exception@@@ZQ6AH0@Z@Z 000000014000bec0 f i libucrtd:matherr.obj
 0001:0000af00       ??$__crt_fast_encode_pointer@P6AHPEAU_exception@@@Z@@YAP6AHPEAU_exception@@@ZQ6AH0@Z@Z 000000014000bf00 f i libucrtd:matherr.obj
 0001:0000af00       ??$__crt_fast_encode_pointer@PEAX@@YAPEAXQEAX@Z 000000014000bf00 f i libucrtd:initialization.obj
 0001:0000af00       ??$__crt_fast_encode_pointer@PEAP6AXXZ@@YAPEAP6AXXZQEAP6AXXZ@Z 000000014000bf00 f i libucrtd:onexit.obj
 0001:0000af00       ??$__crt_fast_encode_pointer@P6AHXZ@@YAP6AHXZQ6AHXZ@Z 000000014000bf00 f i libucrtd:onexit.obj
 0001:0000af00       ??$__crt_fast_encode_pointer@P6AXH@Z@@YAP6AXH@ZQ6AXH@Z@Z 000000014000bf00 f i libucrtd:signal.obj
 0001:0000af00       ??$__crt_fast_encode_pointer@P6AXXZ@@YAP6AXXZQ6AXXZ@Z 000000014000bf00 f i libucrtd:onexit.obj
 0001:0000af00       ??$__crt_fast_encode_pointer@P6AXPEAXK0@Z@@YAP6AXPEAXK0@ZQ6AX0K0@Z@Z 000000014000bf00 f i libucrtd:exit.obj
 0001:0000af40       ?__crt_rotate_pointer_value@@YA_K_KH@Z 000000014000bf40 f i libucrtd:matherr.obj
 0001:0000af60       ?initialize@?$dual_state_global@P6AXH@Z@__crt_state_management@@QEAAXQ6AXH@Z@Z 000000014000bf60 f i libucrtd:signal.obj
 0001:0000af60       ?initialize@?$dual_state_global@PEAU__crt_multibyte_data@@@__crt_state_management@@QEAAXQEAU__crt_multibyte_data@@@Z 000000014000bf60 f i libucrtd:mbctype.obj
 0001:0000af60       ?initialize@?$dual_state_global@P6AHPEAU_exception@@@Z@__crt_state_management@@QEAAXQ6AHPEAU_exception@@@Z@Z 000000014000bf60 f i libucrtd:matherr.obj
 0001:0000af60       ?initialize@?$dual_state_global@PEAU__crt_locale_data@@@__crt_state_management@@QEAAXQEAU__crt_locale_data@@@Z 000000014000bf60 f i libucrtd:initialization.obj
 0001:0000af60       ?initialize@?$dual_state_global@P6AH_K@Z@__crt_state_management@@QEAAXQ6AH_K@Z@Z 000000014000bf60 f i libucrtd:new_handler.obj
 0001:0000afb0       ?value@?$dual_state_global@P6AH_K@Z@__crt_state_management@@QEAAAEAP6AH_K@ZXZ 000000014000bfb0 f i libucrtd:new_handler.obj
 0001:0000afb0       ?value@?$dual_state_global@PEAU__crt_multibyte_data@@@__crt_state_management@@QEAAAEAPEAU__crt_multibyte_data@@XZ 000000014000bfb0 f i libucrtd:mbctype.obj
 0001:0000afb0       ?value@?$dual_state_global@PEAE@__crt_state_management@@QEAAAEAPEAEXZ 000000014000bfb0 f i libucrtd:mbctype.obj
 0001:0000afb0       ?value@?$dual_state_global@P6AHPEAU_exception@@@Z@__crt_state_management@@QEAAAEAP6AHPEAU_exception@@@ZXZ 000000014000bfb0 f i libucrtd:matherr.obj
 0001:0000afb0       ?value@?$dual_state_global@P6AXPEB_W00I_K@Z@__crt_state_management@@QEAAAEAP6AXPEB_W00I_K@ZXZ 000000014000bfb0 f i libucrtd:invalid_parameter.obj
 0001:0000afb0       ?value@?$dual_state_global@PEAU__crt_locale_data@@@__crt_state_management@@QEAAAEAPEAU__crt_locale_data@@XZ 000000014000bfb0 f i libucrtd:wsetlocale.obj
 0001:0000afb0       ?value@?$dual_state_global@P6AXH@Z@__crt_state_management@@QEAAAEAP6AXH@ZXZ 000000014000bfb0 f i libucrtd:signal.obj
 0001:0000afd0       __acrt_has_user_matherr    000000014000bfd0 f   libucrtd:matherr.obj
 0001:0000b010       __acrt_initialize_user_matherr 000000014000c010 f   libucrtd:matherr.obj
 0001:0000b030       __acrt_invoke_user_matherr 000000014000c030 f   libucrtd:matherr.obj
 0001:0000b080       __setusermatherr           000000014000c080 f   libucrtd:matherr.obj
 0001:0000b450       ??$get_module_file_name@$$TAEAY0BAF@DH@?$__crt_char_traits@D@@SAK$$QEA$$TAEAY0BAF@D$$QEAH@Z 000000014000c450 f i libucrtd:argv_parsing.obj
 0001:0000b450       ??$get_module_file_name@AEAPEAUHINSTANCE__@@AEAY0BAF@DK@?$__crt_char_traits@D@@SAKAEAPEAUHINSTANCE__@@AEAY0BAF@D$$QEAK@Z 000000014000c450 f i libucrtd:dbgrpt.obj
 0001:0000b920       ??$set_program_name@PEAD@?$__crt_char_traits@D@@SAX$$QEAPEAD@Z 000000014000c920 f i libucrtd:argv_parsing.obj
 0001:0000ba50       __acrt_allocate_buffer_for_argv 000000014000ca50 f   libucrtd:argv_parsing.obj
 0001:0000bb70       _configure_narrow_argv     000000014000cb70 f   libucrtd:argv_parsing.obj
 0001:0000bb90       _set_pgmptr                000000014000cb90 f i libucrtd:argv_parsing.obj
 0001:0000bdc0       ??$tcslen@AEAPEAD@?$__crt_char_traits@D@@SA_KAEAPEAD@Z 000000014000cdc0 f i libucrtd:environment_initialization.obj
 0001:0000be0c       ??B?$__crt_unique_heap_ptr@PEADU__crt_internal_free_policy@@@@QEBA_NXZ 000000014000ce0c f i libucrtd:environment_initialization.obj
 0001:0000be14       ?detach@?$__crt_unique_heap_ptr@DU__crt_internal_free_policy@@@@QEAAPEADXZ 000000014000ce14 f i libucrtd:environment_initialization.obj
 0001:0000be1c       __dcrt_uninitialize_environments_nolock 000000014000ce1c f   libucrtd:environment_initialization.obj
 0001:0000be54       _initialize_narrow_environment 000000014000ce54 f   libucrtd:environment_initialization.obj
 0001:0000bfa0       _get_narrow_winmain_command_line 000000014000cfa0 f   libucrtd:argv_winmain.obj
 0001:0000bfb0       _initterm                  000000014000cfb0 f   libucrtd:initterm.obj
 0001:0000c010       _initterm_e                000000014000d010 f   libucrtd:initterm.obj
 0001:0000c090       ??$?B$$A6AXPEAXK0@Z@__crt_fast_encoded_nullptr_t@@QEBAP6AXPEAXK0@ZXZ 000000014000d090 f i libucrtd:exit.obj
 0001:0000c090       ??$?B$$A6AXXZ@__crt_fast_encoded_nullptr_t@@QEBAP6AXXZXZ 000000014000d090 f i libucrtd:onexit.obj
 0001:0000c090       ??$?B$$A6AXH@Z@__crt_fast_encoded_nullptr_t@@QEBAP6AXH@ZXZ 000000014000d090 f i libucrtd:signal.obj
 0001:0000c090       ??$?BP6AXXZ@__crt_fast_encoded_nullptr_t@@QEBAPEAP6AXXZXZ 000000014000d090 f i libucrtd:onexit.obj
 0001:0000c090       ??$?BX@__crt_fast_encoded_nullptr_t@@QEBAPEAXXZ 000000014000d090 f i libucrtd:initialization.obj
 0001:0000c140       ??$__crt_get_proc_address@P6AXI@Z@@YAP6AXI@ZQEAUHINSTANCE__@@QEBD@Z 000000014000d140 f i libucrtd:exit.obj
 0001:0000c170       ??$__crt_interlocked_read@J@@YAJPEDJ@Z 000000014000d170 f i libucrtd:exit.obj
 0001:0000c200       ??1?$__crt_unique_handle_t@U__crt_hmodule_traits@@@@QEAA@XZ 000000014000d200 f i libucrtd:exit.obj
 0001:0000c360       ?__acrt_select_exit_lock@@YA?AW4__acrt_lock_id@@XZ 000000014000d360 f i libucrtd:exit.obj
 0001:0000c370       ?__crt_fast_encode_pointer@@YA?AU__crt_fast_encoded_nullptr_t@@$$T@Z 000000014000d370 f i libucrtd:exit.obj
 0001:0000c390       ?__crt_interlocked_read_32@@YAHPEDH@Z 000000014000d390 f i libucrtd:exit.obj
 0001:0000c3d0       ?close@?$__crt_unique_handle_t@U__crt_hmodule_traits@@@@QEAAXXZ 000000014000d3d0 f i libucrtd:exit.obj
 0001:0000c410       ?close@__crt_hmodule_traits@@SA_NPEAUHINSTANCE__@@@Z 000000014000d410 f i libucrtd:exit.obj
 0001:0000c6d0       __acrt_initialize_thread_local_exit_callback 000000014000d6d0 f   libucrtd:exit.obj
 0001:0000c6f0       _c_exit                    000000014000d6f0 f   libucrtd:exit.obj
 0001:0000c710       _cexit                     000000014000d710 f   libucrtd:exit.obj
 0001:0000c730       _exit                      000000014000d730 f   libucrtd:exit.obj
 0001:0000c750       _register_thread_local_exe_atexit_callback 000000014000d750 f   libucrtd:exit.obj
 0001:0000c7a0       exit                       000000014000d7a0 f   libucrtd:exit.obj
 0001:0000c7c0       ?value@?$dual_state_global@H@__crt_state_management@@QEAAAEAHXZ 000000014000d7c0 f i libucrtd:setmode.obj
 0001:0000c7c0       ?value@?$dual_state_global@J@__crt_state_management@@QEAAAEAJXZ 000000014000d7c0 f i libucrtd:new_mode.obj
 0001:0000c7e0       _set_fmode                 000000014000d7e0 f   libucrtd:setmode.obj
 0001:0000ca20       __acrt_disable_global_locale_sync 000000014000da20 f i libucrtd:wsetlocale.obj
 0001:0000ca50       __acrt_enable_global_locale_sync 000000014000da50 f i libucrtd:wsetlocale.obj
 0001:0000ca80       __acrt_set_locale_changed  000000014000da80 f   libucrtd:wsetlocale.obj
 0001:0000ca90       __acrt_uninitialize_locale 000000014000da90 f   libucrtd:wsetlocale.obj
 0001:0000cac0       __ascii_tolower            000000014000dac0 f i libucrtd:wsetlocale.obj
 0001:0000cae0       __ascii_towlower           000000014000dae0 f i libucrtd:wsetlocale.obj
 0001:0000cb00       _configthreadlocale        000000014000db00 f   libucrtd:wsetlocale.obj
 0001:0000cc60       _query_new_mode            000000014000dc60 f   libucrtd:new_mode.obj
 0001:0000cc80       _set_new_mode              000000014000dc80 f   libucrtd:new_mode.obj
 0001:0000cd50       __p__commode               000000014000dd50 f   libucrtd:ncommode.obj
 0001:0000d3e0       _crt_atexit                000000014000e3e0 f   libucrtd:onexit.obj
 0001:0000d400       _execute_onexit_table      000000014000e400 f   libucrtd:onexit.obj
 0001:0000d440       _initialize_onexit_table   000000014000e440 f   libucrtd:onexit.obj
 0001:0000d4c0       _register_onexit_function  000000014000e4c0 f   libucrtd:onexit.obj
 0001:0000d550       __acrt_uninitialize_command_line 000000014000e550 f   libucrtd:argv_data.obj
 0001:0000d7b0       __acrt_initialize          000000014000e7b0 f   libucrtd:initialization.obj
 0001:0000d7e0       __acrt_uninitialize        000000014000e7e0 f   libucrtd:initialization.obj
 0001:0000d810       terminate                  000000014000e810 f   libucrtd:terminate.obj
 0001:0000d850       ??0_LocaleUpdate@@QEAA@QEAU__crt_locale_pointers@@@Z 000000014000e850 f i libucrtd:debug_heap.obj
 0001:0000d970       ??1_LocaleUpdate@@QEAA@XZ  000000014000e970 f i libucrtd:debug_heap.obj
 0001:0000d9a0       ?GetLocaleT@_LocaleUpdate@@QEAAPEAU__crt_locale_pointers@@XZ 000000014000e9a0 f i libucrtd:debug_heap.obj
 0001:0000f980       _CrtCheckMemory            0000000140010980 f   libucrtd:debug_heap.obj
 0001:0000fb10       _CrtDumpMemoryLeaks        0000000140010b10 f   libucrtd:debug_heap.obj
 0001:0000fbd0       _CrtIsValidHeapPointer     0000000140010bd0 f   libucrtd:debug_heap.obj
 0001:0000fc10       _CrtIsValidPointer         0000000140010c10 f   libucrtd:debug_heap.obj
 0001:0000fc50       _CrtMemCheckpoint          0000000140010c50 f   libucrtd:debug_heap.obj
 0001:0000fed0       _CrtMemDumpAllObjectsSince 0000000140010ed0 f   libucrtd:debug_heap.obj
 0001:0000ff30       _CrtSetDbgFlag             0000000140010f30 f   libucrtd:debug_heap.obj
 0001:00010090       _CrtSetDumpClient          0000000140011090 f   libucrtd:debug_heap.obj
 0001:000100c0       __acrt_get_locale_data_prefix 00000001400110c0 f i libucrtd:debug_heap.obj
 0001:000100e0       __acrt_locale_changed      00000001400110e0 f i libucrtd:debug_heap.obj
 0001:00010110       _calloc_dbg                0000000140011110 f   libucrtd:debug_heap.obj
 0001:000101b0       _chvalidchk_l              00000001400111b0 f i libucrtd:debug_heap.obj
 0001:000101e0       _free_dbg                  00000001400111e0 f   libucrtd:debug_heap.obj
 0001:00010250       _invoke_watson_if_oneof    0000000140011250 f i libucrtd:debug_heap.obj
 0001:000102b0       _ischartype_l              00000001400112b0 f i libucrtd:debug_heap.obj
 0001:00010340       _malloc_dbg                0000000140011340 f   libucrtd:debug_heap.obj
 0001:00010380       _msize_dbg                 0000000140011380 f   libucrtd:debug_heap.obj
 0001:00010520       _realloc_dbg               0000000140011520 f   libucrtd:debug_heap.obj
 0001:00010590       _recalloc_dbg              0000000140011590 f   libucrtd:debug_heap.obj
 0001:00010b60       strcpy_s                   0000000140011b60 f   libucrtd:strcpy_s.obj
 0001:00010ba0       strcmp                     0000000140011ba0 f   libucrtd:strcmp.obj
 0001:00010c20       strlen                     0000000140011c20 f   libucrtd:strlen.obj
 0001:00010cd0       abort                      0000000140011cd0 f   libucrtd:abort.obj
 0001:00010d50       ??$?0AEBV?$string_output_adapter@D@__crt_stdio_output@@AEB_KAEBQEBDAEBQEAU__crt_locale_pointers@@AEBQEAD@?$format_validation_base@DV?$string_output_adapter@D@__crt_stdio_output@@@__crt_stdio_output@@IEAA@AEBV?$string_output_adapter@D@1@AEB_KAEBQEBDAEBQEAU__crt_locale_pointers@@AEBQEAD@Z 0000000140011d50 f i libucrtd:output.obj
 0001:00010da0       ??$?0AEBV?$string_output_adapter@D@__crt_stdio_output@@AEB_KAEBQEBDAEBQEAU__crt_locale_pointers@@AEBQEAD@?$standard_base@DV?$string_output_adapter@D@__crt_stdio_output@@@__crt_stdio_output@@IEAA@AEBV?$string_output_adapter@D@1@AEB_KAEBQEBDAEBQEAU__crt_locale_pointers@@AEBQEAD@Z 0000000140011da0 f i libucrtd:output.obj
 0001:00010e10       ??$?0AEBV?$string_output_adapter@_W@__crt_stdio_output@@AEB_KAEBQEB_WAEBQEAU__crt_locale_pointers@@AEBQEAD@?$format_validation_base@_WV?$string_output_adapter@_W@__crt_stdio_output@@@__crt_stdio_output@@IEAA@AEBV?$string_output_adapter@_W@1@AEB_KAEBQEB_WAEBQEAU__crt_locale_pointers@@AEBQEAD@Z 0000000140011e10 f i libucrtd:output.obj
 0001:00010e60       ??$?0AEBV?$string_output_adapter@_W@__crt_stdio_output@@AEB_KAEBQEB_WAEBQEAU__crt_locale_pointers@@AEBQEAD@?$standard_base@_WV?$string_output_adapter@_W@__crt_stdio_output@@@__crt_stdio_output@@IEAA@AEBV?$string_output_adapter@_W@1@AEB_KAEBQEB_WAEBQEAU__crt_locale_pointers@@AEBQEAD@Z 0000000140011e60 f i libucrtd:output.obj
 0001:000127e0       ??$count@D@formatting_buffer@__crt_stdio_output@@QEBA_KXZ 00000001400137e0 f i libucrtd:output.obj
 0001:00012830       ??$count@_W@formatting_buffer@__crt_stdio_output@@QEBA_KXZ 0000000140013830 f i libucrtd:output.obj
 0001:00012880       ??$data@D@formatting_buffer@__crt_stdio_output@@QEAAPEADXZ 0000000140013880 f i libucrtd:output.obj
 0001:00012880       ??$data@_W@formatting_buffer@__crt_stdio_output@@QEAAPEA_WXZ 0000000140013880 f i libucrtd:output.obj
 0001:000128d0       ??$ensure_buffer_is_big_enough@D@formatting_buffer@__crt_stdio_output@@QEAA_N_K@Z 00000001400138d0 f i libucrtd:output.obj
 0001:00012a00       ??$ensure_buffer_is_big_enough@_W@formatting_buffer@__crt_stdio_output@@QEAA_N_K@Z 0000000140013a00 f i libucrtd:output.obj
 0001:00012b30       ??$extract_argument_from_va_list@C_J@?$standard_base@DV?$string_output_adapter@D@__crt_stdio_output@@@__crt_stdio_output@@IEAA_NAEA_J@Z 0000000140013b30 f i libucrtd:output.obj
 0001:00012b30       ??$extract_argument_from_va_list@C_J@?$standard_base@_WV?$string_output_adapter@_W@__crt_stdio_output@@@__crt_stdio_output@@IEAA_NAEA_J@Z 0000000140013b30 f i libucrtd:output.obj
 0001:00012b70       ??$extract_argument_from_va_list@E_J@?$standard_base@_WV?$string_output_adapter@_W@__crt_stdio_output@@@__crt_stdio_output@@IEAA_NAEA_J@Z 0000000140013b70 f i libucrtd:output.obj
 0001:00012b70       ??$extract_argument_from_va_list@E_J@?$standard_base@DV?$string_output_adapter@D@__crt_stdio_output@@@__crt_stdio_output@@IEAA_NAEA_J@Z 0000000140013b70 f i libucrtd:output.obj
 0001:00012bb0       ??$extract_argument_from_va_list@F_J@?$standard_base@_WV?$string_output_adapter@_W@__crt_stdio_output@@@__crt_stdio_output@@IEAA_NAEA_J@Z 0000000140013bb0 f i libucrtd:output.obj
 0001:00012bb0       ??$extract_argument_from_va_list@F_J@?$standard_base@DV?$string_output_adapter@D@__crt_stdio_output@@@__crt_stdio_output@@IEAA_NAEA_J@Z 0000000140013bb0 f i libucrtd:output.obj
 0001:00012bf0       ??$extract_argument_from_va_list@GD@?$standard_base@DV?$string_output_adapter@D@__crt_stdio_output@@@__crt_stdio_output@@IEAA_NAEAD@Z 0000000140013bf0 f i libucrtd:output.obj
 0001:00012c20       ??$extract_argument_from_va_list@G_J@?$standard_base@DV?$string_output_adapter@D@__crt_stdio_output@@@__crt_stdio_output@@IEAA_NAEA_J@Z 0000000140013c20 f i libucrtd:output.obj
 0001:00012c20       ??$extract_argument_from_va_list@G_J@?$standard_base@_WV?$string_output_adapter@_W@__crt_stdio_output@@@__crt_stdio_output@@IEAA_NAEA_J@Z 0000000140013c20 f i libucrtd:output.obj
 0001:00012c60       ??$extract_argument_from_va_list@H_J@?$standard_base@DV?$string_output_adapter@D@__crt_stdio_output@@@__crt_stdio_output@@IEAA_NAEA_J@Z 0000000140013c60 f i libucrtd:output.obj
 0001:00012c60       ??$extract_argument_from_va_list@H_J@?$standard_base@_WV?$string_output_adapter@_W@__crt_stdio_output@@@__crt_stdio_output@@IEAA_NAEA_J@Z 0000000140013c60 f i libucrtd:output.obj
 0001:00012c90       ??$extract_argument_from_va_list@I_J@?$standard_base@DV?$string_output_adapter@D@__crt_stdio_output@@@__crt_stdio_output@@IEAA_NAEA_J@Z 0000000140013c90 f i libucrtd:output.obj
 0001:00012c90       ??$extract_argument_from_va_list@I_J@?$standard_base@_WV?$string_output_adapter@_W@__crt_stdio_output@@@__crt_stdio_output@@IEAA_NAEA_J@Z 0000000140013c90 f i libucrtd:output.obj
 0001:00012cc0       ??$extract_argument_from_va_list@_K_J@?$standard_base@DV?$string_output_adapter@D@__crt_stdio_output@@@__crt_stdio_output@@IEAA_NAEA_J@Z 0000000140013cc0 f i libucrtd:output.obj
 0001:00012cc0       ??$extract_argument_from_va_list@PEAXPEAX@?$standard_base@_WV?$string_output_adapter@_W@__crt_stdio_output@@@__crt_stdio_output@@IEAA_NAEAPEAX@Z 0000000140013cc0 f i libucrtd:output.obj
 0001:00012cc0       ??$extract_argument_from_va_list@_K_J@?$standard_base@_WV?$string_output_adapter@_W@__crt_stdio_output@@@__crt_stdio_output@@IEAA_NAEA_J@Z 0000000140013cc0 f i libucrtd:output.obj
 0001:00012cc0       ??$extract_argument_from_va_list@PEAUansi_string@?1??type_case_Z@?$output_processor@_WV?$string_output_adapter@_W@__crt_stdio_output@@V?$format_validation_base@_WV?$string_output_adapter@_W@__crt_stdio_output@@@2@@__crt_stdio_output@@AEAA_NXZ@PEAU1?1??234@AEAA_NXZ@@?$standard_base@_WV?$string_output_adapter@_W@__crt_stdio_output@@@__crt_stdio_output@@IEAA_NAEAPEAUansi_string@?1??type_case_Z@?$output_processor@_WV?$string_output_adapter@_W@__crt_stdio_output@@V?$format_validation_base@_WV?$string_output_adapter@_W@__crt_stdio_output@@@2@@1@AEAA_NXZ@@Z 0000000140013cc0 f i libucrtd:output.obj
 0001:00012cc0       ??$extract_argument_from_va_list@PEADPEAD@?$standard_base@_WV?$string_output_adapter@_W@__crt_stdio_output@@@__crt_stdio_output@@IEAA_NAEAPEAD@Z 0000000140013cc0 f i libucrtd:output.obj
 0001:00012cc0       ??$extract_argument_from_va_list@PEAXPEAX@?$standard_base@DV?$string_output_adapter@D@__crt_stdio_output@@@__crt_stdio_output@@IEAA_NAEAPEAX@Z 0000000140013cc0 f i libucrtd:output.obj
 0001:00012cc0       ??$extract_argument_from_va_list@_J_J@?$standard_base@DV?$string_output_adapter@D@__crt_stdio_output@@@__crt_stdio_output@@IEAA_NAEA_J@Z 0000000140013cc0 f i libucrtd:output.obj
 0001:00012cc0       ??$extract_argument_from_va_list@_J_J@?$standard_base@_WV?$string_output_adapter@_W@__crt_stdio_output@@@__crt_stdio_output@@IEAA_NAEA_J@Z 0000000140013cc0 f i libucrtd:output.obj
 0001:00012cc0       ??$extract_argument_from_va_list@PEAUansi_string@?1??type_case_Z@?$output_processor@DV?$string_output_adapter@D@__crt_stdio_output@@V?$format_validation_base@DV?$string_output_adapter@D@__crt_stdio_output@@@2@@__crt_stdio_output@@AEAA_NXZ@PEAU1?1??234@AEAA_NXZ@@?$standard_base@DV?$string_output_adapter@D@__crt_stdio_output@@@__crt_stdio_output@@IEAA_NAEAPEAUansi_string@?1??type_case_Z@?$output_processor@DV?$string_output_adapter@D@__crt_stdio_output@@V?$format_validation_base@DV?$string_output_adapter@D@__crt_stdio_output@@@2@@1@AEAA_NXZ@@Z 0000000140013cc0 f i libucrtd:output.obj
 0001:00012cc0       ??$extract_argument_from_va_list@PEADPEAD@?$standard_base@DV?$string_output_adapter@D@__crt_stdio_output@@@__crt_stdio_output@@IEAA_NAEAPEAD@Z 0000000140013cc0 f i libucrtd:output.obj
 0001:00012cf0       ??$extract_argument_from_va_list@U_CRT_DOUBLE@@U1@@?$standard_base@_WV?$string_output_adapter@_W@__crt_stdio_output@@@__crt_stdio_output@@IEAA_NAEAU_CRT_DOUBLE@@@Z 0000000140013cf0 f i libucrtd:output.obj
 0001:00012cf0       ??$extract_argument_from_va_list@U_CRT_DOUBLE@@U1@@?$standard_base@DV?$string_output_adapter@D@__crt_stdio_output@@@__crt_stdio_output@@IEAA_NAEAU_CRT_DOUBLE@@@Z 0000000140013cf0 f i libucrtd:output.obj
 0001:00012d40       ??$extract_argument_from_va_list@_W_W@?$standard_base@DV?$string_output_adapter@D@__crt_stdio_output@@@__crt_stdio_output@@IEAA_NAEA_W@Z 0000000140013d40 f i libucrtd:output.obj
 0001:00012d40       ??$extract_argument_from_va_list@_W_W@?$standard_base@_WV?$string_output_adapter@_W@__crt_stdio_output@@@__crt_stdio_output@@IEAA_NAEA_W@Z 0000000140013d40 f i libucrtd:output.obj
 0001:00012d70       ??$is_wide_character_specifier@D@__crt_stdio_output@@YA_N_KDW4length_modifier@0@@Z 0000000140013d70 f i libucrtd:output.obj
 0001:00012e10       ??$is_wide_character_specifier@_W@__crt_stdio_output@@YA_N_K_WW4length_modifier@0@@Z 0000000140013e10 f i libucrtd:output.obj
 0001:00012ee0       ??$read_va_arg@E@__crt_stdio_output@@YAEAEAPEAD@Z 0000000140013ee0 f i libucrtd:output.obj
 0001:00012ee0       ??$read_va_arg@C@__crt_stdio_output@@YACAEAPEAD@Z 0000000140013ee0 f i libucrtd:output.obj
 0001:00012f50       ??$read_va_arg@G@__crt_stdio_output@@YAGAEAPEAD@Z 0000000140013f50 f i libucrtd:output.obj
 0001:00012f50       ??$read_va_arg@_W@__crt_stdio_output@@YA_WAEAPEAD@Z 0000000140013f50 f i libucrtd:output.obj
 0001:00012f50       ??$read_va_arg@F@__crt_stdio_output@@YAFAEAPEAD@Z 0000000140013f50 f i libucrtd:output.obj
 0001:00012fc0       ??$read_va_arg@I@__crt_stdio_output@@YAIAEAPEAD@Z 0000000140013fc0 f i libucrtd:output.obj
 0001:00012fc0       ??$read_va_arg@H@__crt_stdio_output@@YAHAEAPEAD@Z 0000000140013fc0 f i libucrtd:output.obj
 0001:00013020       ??$read_va_arg@PEAD@__crt_stdio_output@@YAPEADAEAPEAD@Z 0000000140014020 f i libucrtd:output.obj
 0001:00013020       ??$read_va_arg@_J@__crt_stdio_output@@YA_JAEAPEAD@Z 0000000140014020 f i libucrtd:output.obj
 0001:00013020       ??$read_va_arg@U_CRT_DOUBLE@@@__crt_stdio_output@@YA?AU_CRT_DOUBLE@@AEAPEAD@Z 0000000140014020 f i libucrtd:output.obj
 0001:00013020       ??$read_va_arg@PEAX@__crt_stdio_output@@YAPEAXAEAPEAD@Z 0000000140014020 f i libucrtd:output.obj
 0001:00013020       ??$read_va_arg@_K@__crt_stdio_output@@YA_KAEAPEAD@Z 0000000140014020 f i libucrtd:output.obj
 0001:00013020       ??$read_va_arg@PEAUansi_string@?1??type_case_Z@?$output_processor@DV?$string_output_adapter@D@__crt_stdio_output@@V?$format_validation_base@DV?$string_output_adapter@D@__crt_stdio_output@@@2@@__crt_stdio_output@@AEAA_NXZ@@__crt_stdio_output@@YAPEAUansi_string@?1??type_case_Z@?$output_processor@DV?$string_output_adapter@D@__crt_stdio_output@@V?$format_validation_base@DV?$string_output_adapter@D@__crt_stdio_output@@@2@@0@AEAA_NXZ@AEAPEAD@Z 0000000140014020 f i libucrtd:output.obj
 0001:00013020       ??$read_va_arg@PEAUansi_string@?1??type_case_Z@?$output_processor@_WV?$string_output_adapter@_W@__crt_stdio_output@@V?$format_validation_base@_WV?$string_output_adapter@_W@__crt_stdio_output@@@2@@__crt_stdio_output@@AEAA_NXZ@@__crt_stdio_output@@YAPEAUansi_string@?1??type_case_Z@?$output_processor@_WV?$string_output_adapter@_W@__crt_stdio_output@@V?$format_validation_base@_WV?$string_output_adapter@_W@__crt_stdio_output@@@2@@0@AEAA_NXZ@AEAPEAD@Z 0000000140014020 f i libucrtd:output.obj
 0001:00013090       ??$scratch_count@D@formatting_buffer@__crt_stdio_output@@QEBA_KXZ 0000000140014090 f i libucrtd:output.obj
 0001:000130b0       ??$scratch_data@D@formatting_buffer@__crt_stdio_output@@QEAAPEADXZ 00000001400140b0 f i libucrtd:output.obj
 0001:00013120       ??$tcstol@PEBDPEAPEADH@?$__crt_char_traits@D@@SAJ$$QEAPEBD$$QEAPEAPEAD$$QEAH@Z 0000000140014120 f i libucrtd:output.obj
 0001:00013160       ??$tcstol@PEB_WPEAPEA_WH@?$__crt_char_traits@_W@@SAJ$$QEAPEB_W$$QEAPEAPEA_W$$QEAH@Z 0000000140014160 f i libucrtd:output.obj
 0001:000131a0       ??$type_case_integer_parse_into_buffer@I@?$output_processor@DV?$string_output_adapter@D@__crt_stdio_output@@V?$format_validation_base@DV?$string_output_adapter@D@__crt_stdio_output@@@2@@__crt_stdio_output@@AEAAXII_N@Z 00000001400141a0 f i libucrtd:output.obj
 0001:000132d0       ??$type_case_integer_parse_into_buffer@I@?$output_processor@_WV?$string_output_adapter@_W@__crt_stdio_output@@V?$format_validation_base@_WV?$string_output_adapter@_W@__crt_stdio_output@@@2@@__crt_stdio_output@@AEAAXII_N@Z 00000001400142d0 f i libucrtd:output.obj
 0001:00013410       ??$type_case_integer_parse_into_buffer@_K@?$output_processor@DV?$string_output_adapter@D@__crt_stdio_output@@V?$format_validation_base@DV?$string_output_adapter@D@__crt_stdio_output@@@2@@__crt_stdio_output@@AEAAX_KI_N@Z 0000000140014410 f i libucrtd:output.obj
 0001:00013560       ??$type_case_integer_parse_into_buffer@_K@?$output_processor@_WV?$string_output_adapter@_W@__crt_stdio_output@@V?$format_validation_base@_WV?$string_output_adapter@_W@__crt_stdio_output@@@2@@__crt_stdio_output@@AEAAX_KI_N@Z 0000000140014560 f i libucrtd:output.obj
 0001:000136c0       ??$write_multiple_characters@V?$string_output_adapter@D@__crt_stdio_output@@D@__crt_stdio_output@@YAXAEBV?$string_output_adapter@D@0@DHQEAH@Z 00000001400146c0 f i libucrtd:output.obj
 0001:00013720       ??$write_multiple_characters@V?$string_output_adapter@_W@__crt_stdio_output@@D@__crt_stdio_output@@YAXAEBV?$string_output_adapter@_W@0@DHQEAH@Z 0000000140014720 f i libucrtd:output.obj
 0001:00013780       ??0?$common_data@D@__crt_stdio_output@@IEAA@XZ 0000000140014780 f i libucrtd:output.obj
 0001:00013850       ??0?$common_data@_W@__crt_stdio_output@@IEAA@XZ 0000000140014850 f i libucrtd:output.obj
 0001:00013920       ??0?$output_adapter_data@DV?$string_output_adapter@D@__crt_stdio_output@@@__crt_stdio_output@@IEAA@AEBV?$string_output_adapter@D@1@_KQEBDQEAU__crt_locale_pointers@@QEAD@Z 0000000140014920 f i libucrtd:output.obj
 0001:000139a0       ??0?$output_adapter_data@_WV?$string_output_adapter@_W@__crt_stdio_output@@@__crt_stdio_output@@IEAA@AEBV?$string_output_adapter@_W@1@_KQEB_WQEAU__crt_locale_pointers@@QEAD@Z 00000001400149a0 f i libucrtd:output.obj
 0001:00013a20       ??0?$output_processor@DV?$string_output_adapter@D@__crt_stdio_output@@V?$format_validation_base@DV?$string_output_adapter@D@__crt_stdio_output@@@2@@__crt_stdio_output@@QEAA@AEBV?$string_output_adapter@D@1@_KQEBDQEAU__crt_locale_pointers@@QEAD@Z 0000000140014a20 f i libucrtd:output.obj
 0001:00013a70       ??0?$output_processor@_WV?$string_output_adapter@_W@__crt_stdio_output@@V?$format_validation_base@_WV?$string_output_adapter@_W@__crt_stdio_output@@@2@@__crt_stdio_output@@QEAA@AEBV?$string_output_adapter@_W@1@_KQEB_WQEAU__crt_locale_pointers@@QEAD@Z 0000000140014a70 f i libucrtd:output.obj
 0001:00013ac0       ??0__crt_deferred_errno_cache@@QEAA@XZ 0000000140014ac0 f i libucrtd:output.obj
 0001:00013ae0       ??0__crt_errno_guard@@QEAA@QEAH@Z 0000000140014ae0 f i libucrtd:output.obj
 0001:00013b20       ??0formatting_buffer@__crt_stdio_output@@QEAA@XZ 0000000140014b20 f i libucrtd:output.obj
 0001:00013b60       ??1?$common_data@_W@__crt_stdio_output@@QEAA@XZ 0000000140014b60 f i libucrtd:output.obj
 0001:00013b60       ??1?$common_data@D@__crt_stdio_output@@QEAA@XZ 0000000140014b60 f i libucrtd:output.obj
 0001:00013b80       ??1?$format_validation_base@_WV?$string_output_adapter@_W@__crt_stdio_output@@@__crt_stdio_output@@QEAA@XZ 0000000140014b80 f i libucrtd:output.obj
 0001:00013b80       ??1?$format_validation_base@DV?$string_output_adapter@D@__crt_stdio_output@@@__crt_stdio_output@@QEAA@XZ 0000000140014b80 f i libucrtd:output.obj
 0001:00013ba0       ??1?$output_adapter_data@DV?$string_output_adapter@D@__crt_stdio_output@@@__crt_stdio_output@@QEAA@XZ 0000000140014ba0 f i libucrtd:output.obj
 0001:00013ba0       ??1?$output_adapter_data@_WV?$string_output_adapter@_W@__crt_stdio_output@@@__crt_stdio_output@@QEAA@XZ 0000000140014ba0 f i libucrtd:output.obj
 0001:00013bc0       ??1?$output_processor@DV?$string_output_adapter@D@__crt_stdio_output@@V?$format_validation_base@DV?$string_output_adapter@D@__crt_stdio_output@@@2@@__crt_stdio_output@@QEAA@XZ 0000000140014bc0 f i libucrtd:output.obj
 0001:00013bc0       ??1?$output_processor@_WV?$string_output_adapter@_W@__crt_stdio_output@@V?$format_validation_base@_WV?$string_output_adapter@_W@__crt_stdio_output@@@2@@__crt_stdio_output@@QEAA@XZ 0000000140014bc0 f i libucrtd:output.obj
 0001:00013be0       ??1?$standard_base@DV?$string_output_adapter@D@__crt_stdio_output@@@__crt_stdio_output@@QEAA@XZ 0000000140014be0 f i libucrtd:output.obj
 0001:00013be0       ??1?$standard_base@_WV?$string_output_adapter@_W@__crt_stdio_output@@@__crt_stdio_output@@QEAA@XZ 0000000140014be0 f i libucrtd:output.obj
 0001:00013c00       ??1__crt_errno_guard@@QEAA@XZ 0000000140014c00 f i libucrtd:output.obj
 0001:00013c30       ??1formatting_buffer@__crt_stdio_output@@QEAA@XZ 0000000140014c30 f i libucrtd:output.obj
 0001:00013c60       ??4?$__crt_unique_heap_ptr@DU__crt_internal_free_policy@@@@QEAAAEAV0@$$QEAV0@@Z 0000000140014c60 f i libucrtd:output.obj
 0001:00013ca0       ??A?$spectre_mitigated_lookup_table@Ustate_transition_pair@__crt_stdio_output@@$0IA@@__crt_stdio_output@@QEBAAEBUstate_transition_pair@1@_K@Z 0000000140014ca0 f i libucrtd:output.obj
 0001:00013cc0       ?adjust_hexit@?$output_processor@DV?$string_output_adapter@D@__crt_stdio_output@@V?$format_validation_base@DV?$string_output_adapter@D@__crt_stdio_output@@@2@@__crt_stdio_output@@CADH_N@Z 0000000140014cc0 f i libucrtd:output.obj
 0001:00013cc0       ?adjust_hexit@?$output_processor@_WV?$string_output_adapter@_W@__crt_stdio_output@@V?$format_validation_base@_WV?$string_output_adapter@_W@__crt_stdio_output@@@2@@__crt_stdio_output@@CADH_N@Z 0000000140014cc0 f i libucrtd:output.obj
 0001:00013d10       ?advance_to_next_pass@?$standard_base@_WV?$string_output_adapter@_W@__crt_stdio_output@@@__crt_stdio_output@@IEAA_NXZ 0000000140014d10 f i libucrtd:output.obj
 0001:00013d10       ?advance_to_next_pass@?$standard_base@DV?$string_output_adapter@D@__crt_stdio_output@@@__crt_stdio_output@@IEAA_NXZ 0000000140014d10 f i libucrtd:output.obj
 0001:00013d60       ?crop_zeroes@__crt_stdio_output@@YAXPEADQEAU__crt_locale_pointers@@@Z 0000000140014d60 f i libucrtd:output.obj
 0001:00013ea0       ?find_next_state@?$output_processor@DV?$string_output_adapter@D@__crt_stdio_output@@V?$format_validation_base@DV?$string_output_adapter@D@__crt_stdio_output@@@2@@__crt_stdio_output@@AEBA?AW4state@2@DW432@@Z 0000000140014ea0 f i libucrtd:output.obj
 0001:00013f30       ?find_next_state@?$output_processor@_WV?$string_output_adapter@_W@__crt_stdio_output@@V?$format_validation_base@_WV?$string_output_adapter@_W@__crt_stdio_output@@@2@@__crt_stdio_output@@AEBA?AW4state@2@_WW432@@Z 0000000140014f30 f i libucrtd:output.obj
 0001:00013fc0       ?force_decimal_point@__crt_stdio_output@@YAXPEADQEAU__crt_locale_pointers@@@Z 0000000140014fc0 f i libucrtd:output.obj
 0001:000140c0       ?get@__crt_deferred_errno_cache@@QEAAAEAHXZ 00000001400150c0 f i libucrtd:output.obj
 0001:000140f0       ?get_flags@__crt_stdio_stream@@QEBAJXZ 00000001400150f0 f i libucrtd:output.obj
 0001:00014120       ?has_flag@?$output_processor@_WV?$string_output_adapter@_W@__crt_stdio_output@@V?$format_validation_base@_WV?$string_output_adapter@_W@__crt_stdio_output@@@2@@__crt_stdio_output@@AEBA_NI@Z 0000000140015120 f i libucrtd:output.obj
 0001:00014120       ?has_flag@?$output_processor@DV?$string_output_adapter@D@__crt_stdio_output@@V?$format_validation_base@DV?$string_output_adapter@D@__crt_stdio_output@@@2@@__crt_stdio_output@@AEBA_NI@Z 0000000140015120 f i libucrtd:output.obj
 0001:00014160       ?is_string_backed@__crt_stdio_stream@@QEBA_NXZ 0000000140015160 f i libucrtd:output.obj
 0001:000141a0       ?narrow_null_string@?$output_processor@DV?$string_output_adapter@D@__crt_stdio_output@@V?$format_validation_base@DV?$string_output_adapter@D@__crt_stdio_output@@@2@@__crt_stdio_output@@CAPEADXZ 00000001400151a0 f i libucrtd:output.obj
 0001:000141a0       ?narrow_null_string@?$output_processor@_WV?$string_output_adapter@_W@__crt_stdio_output@@V?$format_validation_base@_WV?$string_output_adapter@_W@__crt_stdio_output@@@2@@__crt_stdio_output@@CAPEADXZ 00000001400151a0 f i libucrtd:output.obj
 0001:000141b0       ?parse_int_from_format_string@?$output_processor@DV?$string_output_adapter@D@__crt_stdio_output@@V?$format_validation_base@DV?$string_output_adapter@D@__crt_stdio_output@@@2@@__crt_stdio_output@@AEAA_NQEAH@Z 00000001400151b0 f i libucrtd:output.obj
 0001:000142a0       ?parse_int_from_format_string@?$output_processor@_WV?$string_output_adapter@_W@__crt_stdio_output@@V?$format_validation_base@_WV?$string_output_adapter@_W@__crt_stdio_output@@@2@@__crt_stdio_output@@AEAA_NQEAH@Z 00000001400152a0 f i libucrtd:output.obj
 0001:00014390       ?process@?$output_processor@DV?$string_output_adapter@D@__crt_stdio_output@@V?$format_validation_base@DV?$string_output_adapter@D@__crt_stdio_output@@@2@@__crt_stdio_output@@QEAAHXZ 0000000140015390 f i libucrtd:output.obj
 0001:000146f0       ?process@?$output_processor@_WV?$string_output_adapter@_W@__crt_stdio_output@@V?$format_validation_base@_WV?$string_output_adapter@_W@__crt_stdio_output@@@2@@__crt_stdio_output@@QEAAHXZ 00000001400156f0 f i libucrtd:output.obj
 0001:00014a50       ?set_flag@?$output_processor@DV?$string_output_adapter@D@__crt_stdio_output@@V?$format_validation_base@DV?$string_output_adapter@D@__crt_stdio_output@@@2@@__crt_stdio_output@@AEAAXI@Z 0000000140015a50 f i libucrtd:output.obj
 0001:00014a50       ?set_flag@?$output_processor@_WV?$string_output_adapter@_W@__crt_stdio_output@@V?$format_validation_base@_WV?$string_output_adapter@_W@__crt_stdio_output@@@2@@__crt_stdio_output@@AEAAXI@Z 0000000140015a50 f i libucrtd:output.obj
 0001:00014a70       ?should_format@?$standard_base@_WV?$string_output_adapter@_W@__crt_stdio_output@@@__crt_stdio_output@@IEAA_NXZ 0000000140015a70 f i libucrtd:output.obj
 0001:00014a70       ?validate_state_for_type_case_a@?$standard_base@DV?$string_output_adapter@D@__crt_stdio_output@@@__crt_stdio_output@@IEBA_NXZ 0000000140015a70 f i libucrtd:output.obj
 0001:00014a70       ?validate_and_update_state_at_beginning_of_format_character@?$standard_base@DV?$string_output_adapter@D@__crt_stdio_output@@@__crt_stdio_output@@IEAA_NXZ 0000000140015a70 f i libucrtd:output.obj
 0001:00014a70       ?validate_and_update_state_at_beginning_of_format_character@?$standard_base@_WV?$string_output_adapter@_W@__crt_stdio_output@@@__crt_stdio_output@@IEAA_NXZ 0000000140015a70 f i libucrtd:output.obj
 0001:00014a70       ?should_format@?$standard_base@DV?$string_output_adapter@D@__crt_stdio_output@@@__crt_stdio_output@@IEAA_NXZ 0000000140015a70 f i libucrtd:output.obj
 0001:00014a70       ?validate_state_for_type_case_a@?$standard_base@_WV?$string_output_adapter@_W@__crt_stdio_output@@@__crt_stdio_output@@IEBA_NXZ 0000000140015a70 f i libucrtd:output.obj
 0001:00014a80       ?should_skip_normal_state_processing@?$standard_base@DV?$string_output_adapter@D@__crt_stdio_output@@@__crt_stdio_output@@IEAA_NXZ 0000000140015a80 f i libucrtd:output.obj
 0001:00014a80       ?should_skip_type_state_output@?$standard_base@DV?$string_output_adapter@D@__crt_stdio_output@@@__crt_stdio_output@@IEBA_NXZ 0000000140015a80 f i libucrtd:output.obj
 0001:00014a80       ?should_skip_type_state_output@?$standard_base@_WV?$string_output_adapter@_W@__crt_stdio_output@@@__crt_stdio_output@@IEBA_NXZ 0000000140015a80 f i libucrtd:output.obj
 0001:00014a80       ?should_skip_normal_state_processing@?$standard_base@_WV?$string_output_adapter@_W@__crt_stdio_output@@@__crt_stdio_output@@IEAA_NXZ 0000000140015a80 f i libucrtd:output.obj
 0001:00014a90       ?state_case_dot@?$output_processor@DV?$string_output_adapter@D@__crt_stdio_output@@V?$format_validation_base@DV?$string_output_adapter@D@__crt_stdio_output@@@2@@__crt_stdio_output@@AEAA_NXZ 0000000140015a90 f i libucrtd:output.obj
 0001:00014a90       ?state_case_dot@?$output_processor@_WV?$string_output_adapter@_W@__crt_stdio_output@@V?$format_validation_base@_WV?$string_output_adapter@_W@__crt_stdio_output@@@2@@__crt_stdio_output@@AEAA_NXZ 0000000140015a90 f i libucrtd:output.obj
 0001:00014ab0       ?state_case_flag@?$output_processor@DV?$string_output_adapter@D@__crt_stdio_output@@V?$format_validation_base@DV?$string_output_adapter@D@__crt_stdio_output@@@2@@__crt_stdio_output@@AEAA_NXZ 0000000140015ab0 f i libucrtd:output.obj
 0001:00014b50       ?state_case_flag@?$output_processor@_WV?$string_output_adapter@_W@__crt_stdio_output@@V?$format_validation_base@_WV?$string_output_adapter@_W@__crt_stdio_output@@@2@@__crt_stdio_output@@AEAA_NXZ 0000000140015b50 f i libucrtd:output.obj
 0001:00014bf0       ?state_case_normal@?$output_processor@DV?$string_output_adapter@D@__crt_stdio_output@@V?$format_validation_base@DV?$string_output_adapter@D@__crt_stdio_output@@@2@@__crt_stdio_output@@AEAA_NXZ 0000000140015bf0 f i libucrtd:output.obj
 0001:00014cd0       ?state_case_normal@?$output_processor@_WV?$string_output_adapter@_W@__crt_stdio_output@@V?$format_validation_base@_WV?$string_output_adapter@_W@__crt_stdio_output@@@2@@__crt_stdio_output@@AEAA_NXZ 0000000140015cd0 f i libucrtd:output.obj
 0001:00014db0       ?state_case_normal_common@?$output_processor@DV?$string_output_adapter@D@__crt_stdio_output@@V?$format_validation_base@DV?$string_output_adapter@D@__crt_stdio_output@@@2@@__crt_stdio_output@@AEAA_NXZ 0000000140015db0 f i libucrtd:output.obj
 0001:00014e00       ?state_case_normal_common@?$output_processor@_WV?$string_output_adapter@_W@__crt_stdio_output@@V?$format_validation_base@_WV?$string_output_adapter@_W@__crt_stdio_output@@@2@@__crt_stdio_output@@AEAA_NXZ 0000000140015e00 f i libucrtd:output.obj
 0001:00014e50       ?state_case_normal_tchar@?$output_processor@DV?$string_output_adapter@D@__crt_stdio_output@@V?$format_validation_base@DV?$string_output_adapter@D@__crt_stdio_output@@@2@@__crt_stdio_output@@AEAA_ND@Z 0000000140015e50 f i libucrtd:output.obj
 0001:00014f90       ?state_case_normal_tchar@?$output_processor@_WV?$string_output_adapter@_W@__crt_stdio_output@@V?$format_validation_base@_WV?$string_output_adapter@_W@__crt_stdio_output@@@2@@__crt_stdio_output@@AEAA_N_W@Z 0000000140015f90 f i libucrtd:output.obj
 0001:00014fb0       ?state_case_percent@?$output_processor@_WV?$string_output_adapter@_W@__crt_stdio_output@@V?$format_validation_base@_WV?$string_output_adapter@_W@__crt_stdio_output@@@2@@__crt_stdio_output@@AEAA_NXZ 0000000140015fb0 f i libucrtd:output.obj
 0001:00014fb0       ?state_case_percent@?$output_processor@DV?$string_output_adapter@D@__crt_stdio_output@@V?$format_validation_base@DV?$string_output_adapter@D@__crt_stdio_output@@@2@@__crt_stdio_output@@AEAA_NXZ 0000000140015fb0 f i libucrtd:output.obj
 0001:00015000       ?state_case_precision@?$output_processor@DV?$string_output_adapter@D@__crt_stdio_output@@V?$format_validation_base@DV?$string_output_adapter@D@__crt_stdio_output@@@2@@__crt_stdio_output@@AEAA_NXZ 0000000140016000 f i libucrtd:output.obj
 0001:00015080       ?state_case_precision@?$output_processor@_WV?$string_output_adapter@_W@__crt_stdio_output@@V?$format_validation_base@_WV?$string_output_adapter@_W@__crt_stdio_output@@@2@@__crt_stdio_output@@AEAA_NXZ 0000000140016080 f i libucrtd:output.obj
 0001:00015100       ?state_case_size@?$output_processor@DV?$string_output_adapter@D@__crt_stdio_output@@V?$format_validation_base@DV?$string_output_adapter@D@__crt_stdio_output@@@2@@__crt_stdio_output@@AEAA_NXZ 0000000140016100 f i libucrtd:output.obj
 0001:00015580       ?state_case_size@?$output_processor@_WV?$string_output_adapter@_W@__crt_stdio_output@@V?$format_validation_base@_WV?$string_output_adapter@_W@__crt_stdio_output@@@2@@__crt_stdio_output@@AEAA_NXZ 0000000140016580 f i libucrtd:output.obj
 0001:00015a00       ?state_case_type@?$output_processor@DV?$string_output_adapter@D@__crt_stdio_output@@V?$format_validation_base@DV?$string_output_adapter@D@__crt_stdio_output@@@2@@__crt_stdio_output@@AEAA_NXZ 0000000140016a00 f i libucrtd:output.obj
 0001:00015ea0       ?state_case_type@?$output_processor@_WV?$string_output_adapter@_W@__crt_stdio_output@@V?$format_validation_base@_WV?$string_output_adapter@_W@__crt_stdio_output@@@2@@__crt_stdio_output@@AEAA_NXZ 0000000140016ea0 f i libucrtd:output.obj
 0001:00016400       ?state_case_width@?$output_processor@DV?$string_output_adapter@D@__crt_stdio_output@@V?$format_validation_base@DV?$string_output_adapter@D@__crt_stdio_output@@@2@@__crt_stdio_output@@AEAA_NXZ 0000000140017400 f i libucrtd:output.obj
 0001:00016490       ?state_case_width@?$output_processor@_WV?$string_output_adapter@_W@__crt_stdio_output@@V?$format_validation_base@_WV?$string_output_adapter@_W@__crt_stdio_output@@@2@@__crt_stdio_output@@AEAA_NXZ 0000000140017490 f i libucrtd:output.obj
 0001:00016520       ?state_count@?$format_validation_base@DV?$string_output_adapter@D@__crt_stdio_output@@@__crt_stdio_output@@KAIXZ 0000000140017520 f i libucrtd:output.obj
 0001:00016520       ?state_count@?$format_validation_base@_WV?$string_output_adapter@_W@__crt_stdio_output@@@__crt_stdio_output@@KAIXZ 0000000140017520 f i libucrtd:output.obj
 0001:00016530       ?state_transition_table@?$format_validation_base@_WV?$string_output_adapter@_W@__crt_stdio_output@@@__crt_stdio_output@@KAAEBV?$spectre_mitigated_lookup_table@Ustate_transition_pair@__crt_stdio_output@@$0IA@@2@XZ 0000000140017530 f i libucrtd:output.obj
 0001:00016530       ?state_transition_table@?$format_validation_base@DV?$string_output_adapter@D@__crt_stdio_output@@@__crt_stdio_output@@KAAEBV?$spectre_mitigated_lookup_table@Ustate_transition_pair@__crt_stdio_output@@$0IA@@2@XZ 0000000140017530 f i libucrtd:output.obj
 0001:00016540       ?tchar_string@?$common_data@D@__crt_stdio_output@@IEAAAEAPEADD@Z 0000000140017540 f i libucrtd:output.obj
 0001:00016560       ?tchar_string@?$common_data@D@__crt_stdio_output@@IEAAAEAPEADXZ 0000000140017560 f i libucrtd:output.obj
 0001:00016580       ?tchar_string@?$common_data@_W@__crt_stdio_output@@IEAAAEAPEA_WXZ 0000000140017580 f i libucrtd:output.obj
 0001:000165a0       ?tchar_string@?$common_data@_W@__crt_stdio_output@@IEAAAEAPEA_W_W@Z 00000001400175a0 f i libucrtd:output.obj
 0001:000165c0       ?to_integer_size@__crt_stdio_output@@YA_KW4length_modifier@1@@Z 00000001400175c0 f i libucrtd:output.obj
 0001:00016670       ?type_case_X@?$output_processor@DV?$string_output_adapter@D@__crt_stdio_output@@V?$format_validation_base@DV?$string_output_adapter@D@__crt_stdio_output@@@2@@__crt_stdio_output@@AEAA_NXZ 0000000140017670 f i libucrtd:output.obj
 0001:00016690       ?type_case_X@?$output_processor@_WV?$string_output_adapter@_W@__crt_stdio_output@@V?$format_validation_base@_WV?$string_output_adapter@_W@__crt_stdio_output@@@2@@__crt_stdio_output@@AEAA_NXZ 0000000140017690 f i libucrtd:output.obj
 0001:000166b0       ?type_case_Z@?$output_processor@DV?$string_output_adapter@D@__crt_stdio_output@@V?$format_validation_base@DV?$string_output_adapter@D@__crt_stdio_output@@@2@@__crt_stdio_output@@AEAA_NXZ 00000001400176b0 f i libucrtd:output.obj
 0001:000167d0       ?type_case_Z@?$output_processor@_WV?$string_output_adapter@_W@__crt_stdio_output@@V?$format_validation_base@_WV?$string_output_adapter@_W@__crt_stdio_output@@@2@@__crt_stdio_output@@AEAA_NXZ 00000001400177d0 f i libucrtd:output.obj
 0001:000168f0       ?type_case_a@?$output_processor@DV?$string_output_adapter@D@__crt_stdio_output@@V?$format_validation_base@DV?$string_output_adapter@D@__crt_stdio_output@@@2@@__crt_stdio_output@@AEAA_NXZ 00000001400178f0 f i libucrtd:output.obj
 0001:00016cc0       ?type_case_a@?$output_processor@_WV?$string_output_adapter@_W@__crt_stdio_output@@V?$format_validation_base@_WV?$string_output_adapter@_W@__crt_stdio_output@@@2@@__crt_stdio_output@@AEAA_NXZ 0000000140017cc0 f i libucrtd:output.obj
 0001:00017090       ?type_case_c@?$output_processor@DV?$string_output_adapter@D@__crt_stdio_output@@V?$format_validation_base@DV?$string_output_adapter@D@__crt_stdio_output@@@2@@__crt_stdio_output@@AEAA_NXZ 0000000140018090 f i libucrtd:output.obj
 0001:000170b0       ?type_case_c@?$output_processor@_WV?$string_output_adapter@_W@__crt_stdio_output@@V?$format_validation_base@_WV?$string_output_adapter@_W@__crt_stdio_output@@@2@@__crt_stdio_output@@AEAA_NXZ 00000001400180b0 f i libucrtd:output.obj
 0001:000170d0       ?type_case_c_tchar@?$output_processor@DV?$string_output_adapter@D@__crt_stdio_output@@V?$format_validation_base@DV?$string_output_adapter@D@__crt_stdio_output@@@2@@__crt_stdio_output@@AEAA_ND@Z 00000001400180d0 f i libucrtd:output.obj
 0001:00017230       ?type_case_c_tchar@?$output_processor@_WV?$string_output_adapter@_W@__crt_stdio_output@@V?$format_validation_base@_WV?$string_output_adapter@_W@__crt_stdio_output@@@2@@__crt_stdio_output@@AEAA_N_W@Z 0000000140018230 f i libucrtd:output.obj
 0001:00017360       ?type_case_d@?$output_processor@DV?$string_output_adapter@D@__crt_stdio_output@@V?$format_validation_base@DV?$string_output_adapter@D@__crt_stdio_output@@@2@@__crt_stdio_output@@AEAA_NXZ 0000000140018360 f i libucrtd:output.obj
 0001:00017390       ?type_case_d@?$output_processor@_WV?$string_output_adapter@_W@__crt_stdio_output@@V?$format_validation_base@_WV?$string_output_adapter@_W@__crt_stdio_output@@@2@@__crt_stdio_output@@AEAA_NXZ 0000000140018390 f i libucrtd:output.obj
 0001:000173c0       ?type_case_integer@?$output_processor@DV?$string_output_adapter@D@__crt_stdio_output@@V?$format_validation_base@DV?$string_output_adapter@D@__crt_stdio_output@@@2@@__crt_stdio_output@@AEAA_NI_N@Z 00000001400183c0 f i libucrtd:output.obj
 0001:00017810       ?type_case_integer@?$output_processor@_WV?$string_output_adapter@_W@__crt_stdio_output@@V?$format_validation_base@_WV?$string_output_adapter@_W@__crt_stdio_output@@@2@@__crt_stdio_output@@AEAA_NI_N@Z 0000000140018810 f i libucrtd:output.obj
 0001:00017c60       ?type_case_n@?$output_processor@DV?$string_output_adapter@D@__crt_stdio_output@@V?$format_validation_base@DV?$string_output_adapter@D@__crt_stdio_output@@@2@@__crt_stdio_output@@AEAA_NXZ 0000000140018c60 f i libucrtd:output.obj
 0001:00017ea0       ?type_case_n@?$output_processor@_WV?$string_output_adapter@_W@__crt_stdio_output@@V?$format_validation_base@_WV?$string_output_adapter@_W@__crt_stdio_output@@@2@@__crt_stdio_output@@AEAA_NXZ 0000000140018ea0 f i libucrtd:output.obj
 0001:000180e0       ?type_case_o@?$output_processor@DV?$string_output_adapter@D@__crt_stdio_output@@V?$format_validation_base@DV?$string_output_adapter@D@__crt_stdio_output@@@2@@__crt_stdio_output@@AEAA_NXZ 00000001400190e0 f i libucrtd:output.obj
 0001:00018130       ?type_case_o@?$output_processor@_WV?$string_output_adapter@_W@__crt_stdio_output@@V?$format_validation_base@_WV?$string_output_adapter@_W@__crt_stdio_output@@@2@@__crt_stdio_output@@AEAA_NXZ 0000000140019130 f i libucrtd:output.obj
 0001:00018180       ?type_case_p@?$output_processor@DV?$string_output_adapter@D@__crt_stdio_output@@V?$format_validation_base@DV?$string_output_adapter@D@__crt_stdio_output@@@2@@__crt_stdio_output@@AEAA_NXZ 0000000140019180 f i libucrtd:output.obj
 0001:000181c0       ?type_case_p@?$output_processor@_WV?$string_output_adapter@_W@__crt_stdio_output@@V?$format_validation_base@_WV?$string_output_adapter@_W@__crt_stdio_output@@@2@@__crt_stdio_output@@AEAA_NXZ 00000001400191c0 f i libucrtd:output.obj
 0001:00018200       ?type_case_s@?$output_processor@DV?$string_output_adapter@D@__crt_stdio_output@@V?$format_validation_base@DV?$string_output_adapter@D@__crt_stdio_output@@@2@@__crt_stdio_output@@AEAA_NXZ 0000000140019200 f i libucrtd:output.obj
 0001:00018320       ?type_case_s@?$output_processor@_WV?$string_output_adapter@_W@__crt_stdio_output@@V?$format_validation_base@_WV?$string_output_adapter@_W@__crt_stdio_output@@@2@@__crt_stdio_output@@AEAA_NXZ 0000000140019320 f i libucrtd:output.obj
 0001:00018440       ?type_case_s_compute_narrow_string_length@?$output_processor@DV?$string_output_adapter@D@__crt_stdio_output@@V?$format_validation_base@DV?$string_output_adapter@D@__crt_stdio_output@@@2@@__crt_stdio_output@@AEBAHHD@Z 0000000140019440 f i libucrtd:output.obj
 0001:00018470       ?type_case_s_compute_narrow_string_length@?$output_processor@_WV?$string_output_adapter@_W@__crt_stdio_output@@V?$format_validation_base@_WV?$string_output_adapter@_W@__crt_stdio_output@@@2@@__crt_stdio_output@@AEBAHH_W@Z 0000000140019470 f i libucrtd:output.obj
 0001:00018500       ?type_case_u@?$output_processor@DV?$string_output_adapter@D@__crt_stdio_output@@V?$format_validation_base@DV?$string_output_adapter@D@__crt_stdio_output@@@2@@__crt_stdio_output@@AEAA_NXZ 0000000140019500 f i libucrtd:output.obj
 0001:00018520       ?type_case_u@?$output_processor@_WV?$string_output_adapter@_W@__crt_stdio_output@@V?$format_validation_base@_WV?$string_output_adapter@_W@__crt_stdio_output@@@2@@__crt_stdio_output@@AEAA_NXZ 0000000140019520 f i libucrtd:output.obj
 0001:00018540       ?type_case_x@?$output_processor@DV?$string_output_adapter@D@__crt_stdio_output@@V?$format_validation_base@DV?$string_output_adapter@D@__crt_stdio_output@@@2@@__crt_stdio_output@@AEAA_NXZ 0000000140019540 f i libucrtd:output.obj
 0001:00018560       ?type_case_x@?$output_processor@_WV?$string_output_adapter@_W@__crt_stdio_output@@V?$format_validation_base@_WV?$string_output_adapter@_W@__crt_stdio_output@@@2@@__crt_stdio_output@@AEAA_NXZ 0000000140019560 f i libucrtd:output.obj
 0001:00018580       ?unset_flag@?$output_processor@DV?$string_output_adapter@D@__crt_stdio_output@@V?$format_validation_base@DV?$string_output_adapter@D@__crt_stdio_output@@@2@@__crt_stdio_output@@AEAAXI@Z 0000000140019580 f i libucrtd:output.obj
 0001:00018580       ?unset_flag@?$output_processor@_WV?$string_output_adapter@_W@__crt_stdio_output@@V?$format_validation_base@_WV?$string_output_adapter@_W@__crt_stdio_output@@@2@@__crt_stdio_output@@AEAAXI@Z 0000000140019580 f i libucrtd:output.obj
 0001:000185b0       ?update_field_width@?$standard_base@_WV?$string_output_adapter@_W@__crt_stdio_output@@@__crt_stdio_output@@IEAA_NXZ 00000001400195b0 f i libucrtd:output.obj
 0001:000185b0       ?update_field_width@?$standard_base@DV?$string_output_adapter@D@__crt_stdio_output@@@__crt_stdio_output@@IEAA_NXZ 00000001400195b0 f i libucrtd:output.obj
 0001:000185e0       ?update_precision@?$standard_base@DV?$string_output_adapter@D@__crt_stdio_output@@@__crt_stdio_output@@IEAA_NXZ 00000001400195e0 f i libucrtd:output.obj
 0001:000185e0       ?update_precision@?$standard_base@_WV?$string_output_adapter@_W@__crt_stdio_output@@@__crt_stdio_output@@IEAA_NXZ 00000001400195e0 f i libucrtd:output.obj
 0001:00018610       ?validate@?$string_output_adapter@D@__crt_stdio_output@@QEBA_NXZ 0000000140019610 f i libucrtd:output.obj
 0001:000186d0       ?validate@?$string_output_adapter@_W@__crt_stdio_output@@QEBA_NXZ 00000001400196d0 f i libucrtd:output.obj
 0001:00018790       ?validate_and_update_state_at_end_of_format_string@?$format_validation_base@DV?$string_output_adapter@D@__crt_stdio_output@@@__crt_stdio_output@@IEBA_NXZ 0000000140019790 f i libucrtd:output.obj
 0001:00018850       ?validate_and_update_state_at_end_of_format_string@?$format_validation_base@_WV?$string_output_adapter@_W@__crt_stdio_output@@@__crt_stdio_output@@IEBA_NXZ 0000000140019850 f i libucrtd:output.obj
 0001:00018910       ?wide_null_string@?$output_processor@_WV?$string_output_adapter@_W@__crt_stdio_output@@V?$format_validation_base@_WV?$string_output_adapter@_W@__crt_stdio_output@@@2@@__crt_stdio_output@@CAPEA_WXZ 0000000140019910 f i libucrtd:output.obj
 0001:00018910       ?wide_null_string@?$output_processor@DV?$string_output_adapter@D@__crt_stdio_output@@V?$format_validation_base@DV?$string_output_adapter@D@__crt_stdio_output@@@2@@__crt_stdio_output@@CAPEA_WXZ 0000000140019910 f i libucrtd:output.obj
 0001:00018920       ?write_character@?$string_output_adapter@D@__crt_stdio_output@@QEBA_NDQEAH@Z 0000000140019920 f i libucrtd:output.obj
 0001:000189e0       ?write_character@?$string_output_adapter@_W@__crt_stdio_output@@QEBA_N_WQEAH@Z 00000001400199e0 f i libucrtd:output.obj
 0001:00018aa0       ?write_stored_string_tchar@?$output_processor@DV?$string_output_adapter@D@__crt_stdio_output@@V?$format_validation_base@DV?$string_output_adapter@D@__crt_stdio_output@@@2@@__crt_stdio_output@@AEAA_ND@Z 0000000140019aa0 f i libucrtd:output.obj
 0001:00018c60       ?write_stored_string_tchar@?$output_processor@_WV?$string_output_adapter@_W@__crt_stdio_output@@V?$format_validation_base@_WV?$string_output_adapter@_W@__crt_stdio_output@@@2@@__crt_stdio_output@@AEAA_N_W@Z 0000000140019c60 f i libucrtd:output.obj
 0001:00018db0       ?write_string@?$string_output_adapter@D@__crt_stdio_output@@QEBAXQEBDHQEAHAEAV__crt_deferred_errno_cache@@@Z 0000000140019db0 f i libucrtd:output.obj
 0001:00018f20       ?write_string@?$string_output_adapter@_W@__crt_stdio_output@@QEBAXQEB_WHQEAHAEAV__crt_deferred_errno_cache@@@Z 0000000140019f20 f i libucrtd:output.obj
 0001:00019090       __acrt_isleadbyte_l_noupdate 000000014001a090 f i libucrtd:output.obj
 0001:000190c0       __acrt_locale_get_ctype_array_value 000000014001a0c0 f i libucrtd:output.obj
 0001:00019100       __stdio_common_vsnprintf_s 000000014001a100 f   libucrtd:output.obj
 0001:00019160       __stdio_common_vsnwprintf_s 000000014001a160 f   libucrtd:output.obj
 0001:000191c0       __stdio_common_vsprintf_s  000000014001a1c0 f   libucrtd:output.obj
 0001:00019210       _ctype_fast_check_internal 000000014001a210 f i libucrtd:output.obj
 0001:00019240       _isdigit_fast_internal     000000014001a240 f i libucrtd:output.obj
 0001:00019270       _tolower_fast_internal     000000014001a270 f i libucrtd:output.obj
 0001:000192a0       ??$is_overflow_condition@K@__crt_strtox@@YA_NIK@Z 000000014001a2a0 f i libucrtd:atox.obj
 0001:00019310       ??$parse_integer@KV?$c_string_character_source@D@__crt_strtox@@@__crt_strtox@@YAKQEAU__crt_locale_pointers@@V?$c_string_character_source@D@0@H_N@Z 000000014001a310 f i libucrtd:atox.obj
 0001:000197a0       ??$parse_integer@KV?$c_string_character_source@_W@__crt_strtox@@@__crt_strtox@@YAKQEAU__crt_locale_pointers@@V?$c_string_character_source@_W@0@H_N@Z 000000014001a7a0 f i libucrtd:atox.obj
 0001:00019c50       ??0?$c_string_character_source@_W@__crt_strtox@@QEAA@QEB_WQEAPEB_W@Z 000000014001ac50 f i libucrtd:atox.obj
 0001:00019c50       ??0?$c_string_character_source@D@__crt_strtox@@QEAA@QEBDQEAPEBD@Z 000000014001ac50 f i libucrtd:atox.obj
 0001:00019ca0       ??1?$c_string_character_source@_W@__crt_strtox@@QEAA@XZ 000000014001aca0 f i libucrtd:atox.obj
 0001:00019ca0       ??1?$c_string_character_source@D@__crt_strtox@@QEAA@XZ 000000014001aca0 f i libucrtd:atox.obj
 0001:00019cd0       ?get@?$c_string_character_source@D@__crt_strtox@@QEAADXZ 000000014001acd0 f i libucrtd:atox.obj
 0001:00019d10       ?get@?$c_string_character_source@_W@__crt_strtox@@QEAA_WXZ 000000014001ad10 f i libucrtd:atox.obj
 0001:00019d50       ?is_space@__crt_strtox@@YA_NDQEAU__crt_locale_pointers@@@Z 000000014001ad50 f i libucrtd:atox.obj
 0001:00019da0       ?is_space@__crt_strtox@@YA_N_WPEAU__crt_locale_pointers@@@Z 000000014001ada0 f i libucrtd:atox.obj
 0001:00019de0       ?maximum_signed_value@__crt_strtox@@YAJK@Z 000000014001ade0 f i libucrtd:atox.obj
 0001:00019df0       ?minimum_signed_value@__crt_strtox@@YAJK@Z 000000014001adf0 f i libucrtd:atox.obj
 0001:00019e00       ?parse_digit@__crt_strtox@@YAID@Z 000000014001ae00 f i libucrtd:atox.obj
 0001:00019e70       ?parse_digit@__crt_strtox@@YAI_W@Z 000000014001ae70 f i libucrtd:atox.obj
 0001:00019ec0       ?restore_state@?$c_string_character_source@D@__crt_strtox@@QEAA_NQEBD@Z 000000014001aec0 f i libucrtd:atox.obj
 0001:00019ec0       ?restore_state@?$c_string_character_source@_W@__crt_strtox@@QEAA_NQEB_W@Z 000000014001aec0 f i libucrtd:atox.obj
 0001:00019ee0       ?unget@?$c_string_character_source@D@__crt_strtox@@QEAAXD@Z 000000014001aee0 f i libucrtd:atox.obj
 0001:00019fc0       ?unget@?$c_string_character_source@_W@__crt_strtox@@QEAAX_W@Z 000000014001afc0 f i libucrtd:atox.obj
 0001:0001a0a0       ?validate@?$c_string_character_source@D@__crt_strtox@@QEBA_NXZ 000000014001b0a0 f i libucrtd:atox.obj
 0001:0001a160       ?validate@?$c_string_character_source@_W@__crt_strtox@@QEBA_NXZ 000000014001b160 f i libucrtd:atox.obj
 0001:0001a220       ?wide_character_to_digit@__crt_strtox@@YAH_W@Z 000000014001b220 f i libucrtd:atox.obj
 0001:0001a590       __ascii_iswalpha           000000014001b590 f i libucrtd:atox.obj
 0001:0001a5d0       __ascii_toupper            000000014001b5d0 f i libucrtd:atox.obj
 0001:0001a5f0       __ascii_towupper           000000014001b5f0 f i libucrtd:atox.obj
 0001:0001a620       strncmp                    000000014001b620 f   libucrtd:strncmp.obj
 0001:0001b450       ??$get_module_file_name@AEAPEAUHINSTANCE__@@AEAY0BAF@_WK@?$__crt_char_traits@_W@@SAKAEAPEAUHINSTANCE__@@AEAY0BAF@_W$$QEAK@Z 000000014001c450 f i libucrtd:dbgrpt.obj
 0001:0001b490       ??$tcscpy_s@AEAY0BAF@D_KPEBD@?$__crt_char_traits@D@@SAHAEAY0BAF@D$$QEA_K$$QEAPEBD@Z 000000014001c490 f i libucrtd:dbgrpt.obj
 0001:0001b4d0       ??$tcscpy_s@AEAY0BAF@_W_KPEB_W@?$__crt_char_traits@_W@@SAHAEAY0BAF@_W$$QEA_K$$QEAPEB_W@Z 000000014001c4d0 f i libucrtd:dbgrpt.obj
 0001:0001b510       ??$tcslen@AEAY0BAF@D@?$__crt_char_traits@D@@SA_KAEAY0BAF@D@Z 000000014001c510 f i libucrtd:dbgrpt.obj
 0001:0001b530       ??$tcslen@AEAY0BAF@_W@?$__crt_char_traits@_W@@SA_KAEAY0BAF@_W@Z 000000014001c530 f i libucrtd:dbgrpt.obj
 0001:0001b550       ??$tcslen@AEBQEBD@?$__crt_char_traits@D@@SA_KAEBQEBD@Z 000000014001c550 f i libucrtd:dbgrpt.obj
 0001:0001b570       ??$tcslen@AEBQEB_W@?$__crt_char_traits@_W@@SA_KAEBQEB_W@Z 000000014001c570 f i libucrtd:dbgrpt.obj
 0001:0001b5d0       _CrtDbgReport              000000014001c5d0 f   libucrtd:dbgrpt.obj
 0001:0001b650       _CrtDbgReportW             000000014001c650 f   libucrtd:dbgrpt.obj
 0001:0001b6d0       __acrt_MessageWindowA      000000014001c6d0 f   libucrtd:dbgrpt.obj
 0001:0001b720       __acrt_MessageWindowW      000000014001c720 f   libucrtd:dbgrpt.obj
 0001:0001b770       _snwprintf_s               000000014001c770 f i libucrtd:dbgrpt.obj
 0001:0001b7e0       _vsnwprintf_s_l            000000014001c7e0 f i libucrtd:dbgrpt.obj
 0001:0001b860       wcsncmp                    000000014001c860 f   libucrtd:wcsncmp.obj
 0001:0001b8f0       free                       000000014001c8f0 f   libucrtd:free.obj
 0001:0001b920       malloc                     000000014001c920 f   libucrtd:malloc.obj
 0001:0001bb90       ??0__crt_scoped_get_last_error_reset@@QEAA@XZ 000000014001cb90 f i libucrtd:per_thread_data.obj
 0001:0001bbb0       ??1__crt_scoped_get_last_error_reset@@QEAA@XZ 000000014001cbb0 f i libucrtd:per_thread_data.obj
 0001:0001c250       __acrt_getptd              000000014001d250 f   libucrtd:per_thread_data.obj
 0001:0001c280       __acrt_getptd_head         000000014001d280 f   libucrtd:per_thread_data.obj
 0001:0001c2b0       __acrt_getptd_noexit       000000014001d2b0 f   libucrtd:per_thread_data.obj
 0001:0001c2c0       __acrt_initialize_ptd      000000014001d2c0 f   libucrtd:per_thread_data.obj
 0001:0001c300       __acrt_uninitialize_ptd    000000014001d300 f   libucrtd:per_thread_data.obj
 0001:0001c330       ??$initialize_from_array@$$BY00Q6AXPEB_W00I_K@Z@?$dual_state_global@P6AXPEB_W00I_K@Z@__crt_state_management@@QEAAXAEAY00Q6AXPEB_W00I_K@Z@Z 000000014001d330 f i libucrtd:invalid_parameter.obj
 0001:0001c390       __acrt_call_reportfault    000000014001d390 f   libucrtd:invalid_parameter.obj
 0001:0001c4c0       __acrt_initialize_invalid_parameter_handler 000000014001d4c0 f   libucrtd:invalid_parameter.obj
 0001:0001c4f0       _invalid_parameter         000000014001d4f0 f   libucrtd:invalid_parameter.obj
 0001:0001c5f0       _invalid_parameter_noinfo  000000014001d5f0 f   libucrtd:invalid_parameter.obj
 0001:0001c620       _invoke_watson             000000014001d620 f   libucrtd:invalid_parameter.obj
 0001:0001c680       _set_error_mode            000000014001d680 f   libucrtd:set_error_mode.obj
 0001:0001ce00       wcscat_s                   000000014001de00 f   libucrtd:wcscat_s.obj
 0001:0001d310       wcscpy_s                   000000014001e310 f   libucrtd:wcscpy_s.obj
 0001:0001d9e0       wcsncpy_s                  000000014001e9e0 f   libucrtd:wcsncpy_s.obj
 0001:0001ed80       ??1?$__crt_simd_cleanup_guard@$00@@QEAA@XZ 000000014001fd80 f i libucrtd:strnlen.obj
 0001:0001ed90       ?compare_equals@?$__crt_simd_traits@$00E@@SA?AT__m256i@@T2@0@Z 000000014001fd90 f i libucrtd:strnlen.obj
 0001:0001edd0       ?compare_equals@?$__crt_simd_traits@$00G@@SA?AT__m256i@@T2@0@Z 000000014001fdd0 f i libucrtd:strnlen.obj
 0001:0001ee10       ?compare_equals@?$__crt_simd_traits@$0A@E@@SA?AT__m128i@@T2@0@Z 000000014001fe10 f i libucrtd:strnlen.obj
 0001:0001ee40       ?compare_equals@?$__crt_simd_traits@$0A@G@@SA?AT__m128i@@T2@0@Z 000000014001fe40 f i libucrtd:strnlen.obj
 0001:0001ee70       ?compute_byte_mask@?$__crt_simd_pack_traits@$00@@SAHT__m256i@@@Z 000000014001fe70 f i libucrtd:strnlen.obj
 0001:0001ee90       ?compute_byte_mask@?$__crt_simd_pack_traits@$0A@@@SAHT__m128i@@@Z 000000014001fe90 f i libucrtd:strnlen.obj
 0001:0001eeb0       ?get_zero_pack@?$__crt_simd_pack_traits@$00@@SA?AT__m256i@@XZ 000000014001feb0 f i libucrtd:strnlen.obj
 0001:0001eee0       ?get_zero_pack@?$__crt_simd_pack_traits@$0A@@@SA?AT__m128i@@XZ 000000014001fee0 f i libucrtd:strnlen.obj
 0001:0001ef00       strnlen                    000000014001ff00 f   libucrtd:strnlen.obj
 0001:0001ef30       wcslen                     000000014001ff30 f   libucrtd:strnlen.obj
 0001:0001ef50       wcsnlen                    000000014001ff50 f   libucrtd:strnlen.obj
 0001:0001f0c0       ??$message_box@$$TAEBQEB_WAEBQEB_WK@?$__crt_char_traits@_W@@SAH$$QEA$$TAEBQEB_W1$$QEAK@Z 00000001400200c0 f i libucrtd:crtmbox.obj
 0001:0001f0c0       ??$message_box@PEAUHWND__@@AEBQEB_WAEBQEB_WAEBI@?$__crt_char_traits@_W@@SAH$$QEAPEAUHWND__@@AEBQEB_W1AEBI@Z 00000001400200c0 f i libucrtd:crtmbox.obj
 0001:0001f110       ??$output_debug_string@AEBQEB_W@?$__crt_char_traits@_W@@SAXAEBQEB_W@Z 0000000140020110 f i libucrtd:crtmbox.obj
 0001:0001f130       __acrt_show_wide_message_box 0000000140020130 f   libucrtd:crtmbox.obj
 0001:0001f160       __acrt_errno_from_os_error 0000000140020160 f   libucrtd:errno.obj
 0001:0001f1f0       __acrt_errno_map_os_error  00000001400201f0 f   libucrtd:errno.obj
 0001:0001f220       __doserrno                 0000000140020220 f   libucrtd:errno.obj
 0001:0001f250       _errno                     0000000140020250 f   libucrtd:errno.obj
 0001:0001f5f0       ??$__acrt_mbs_to_wcs_cp@U__crt_win32_buffer_internal_dynamic_resizing@@@@YAHQEBDAEAV?$__crt_win32_buffer@_WU__crt_win32_buffer_internal_dynamic_resizing@@@@I@Z 00000001400205f0 f i libucrtd:argv_wildcards.obj
 0001:0001f640       ??$__acrt_wcs_to_mbs_cp@U__crt_win32_buffer_internal_dynamic_resizing@@@@YAHQEB_WAEAV?$__crt_win32_buffer@DU__crt_win32_buffer_internal_dynamic_resizing@@@@I@Z 0000000140020640 f i libucrtd:argv_wildcards.obj
 0001:00020090       ??$tcsncpy_s@AEAPEAD_KAEAPEADAEB_K@?$__crt_char_traits@D@@SAHAEAPEAD$$QEA_K0AEB_K@Z 0000000140021090 f i libucrtd:argv_wildcards.obj
 0001:00020090       ??$tcsncpy_s@PEAD_KAEBQEBDAEB_K@?$__crt_char_traits@D@@SAH$$QEAPEAD$$QEA_KAEBQEBDAEB_K@Z 0000000140021090 f i libucrtd:argv_wildcards.obj
 0001:00020090       ??$tcsncpy_s@PEADAEB_KAEBQEBDAEB_K@?$__crt_char_traits@D@@SAH$$QEAPEADAEB_KAEBQEBD1@Z 0000000140021090 f i libucrtd:argv_wildcards.obj
 0001:000200e0       ??$tcspbrk@AEAPEADAEAY02$$CBD@?$__crt_char_traits@D@@SAPEADAEAPEADAEAY02$$CBD@Z 00000001400210e0 f i libucrtd:argv_wildcards.obj
 0001:00020110       ??0?$__crt_win32_buffer@_WU__crt_win32_buffer_internal_dynamic_resizing@@@@QEAA@XZ 0000000140021110 f i libucrtd:argv_wildcards.obj
 0001:00020110       ??0?$__crt_win32_buffer@DU__crt_win32_buffer_internal_dynamic_resizing@@@@QEAA@XZ 0000000140021110 f i libucrtd:argv_wildcards.obj
 0001:000201b0       ??1?$__crt_unique_handle_t@U__crt_findfile_traits@@@@QEAA@XZ 00000001400211b0 f i libucrtd:argv_wildcards.obj
 0001:000201d0       ??1?$__crt_win32_buffer@_WU__crt_win32_buffer_internal_dynamic_resizing@@@@QEAA@XZ 00000001400211d0 f i libucrtd:argv_wildcards.obj
 0001:000201d0       ??1?$__crt_win32_buffer@DU__crt_win32_buffer_internal_dynamic_resizing@@@@QEAA@XZ 00000001400211d0 f i libucrtd:argv_wildcards.obj
 0001:000203c0       ?__acrt_get_utf8_acp_compatibility_codepage@@YAIXZ 00000001400213c0 f i libucrtd:argv_wildcards.obj
 0001:00020460       ?_deallocate@?$__crt_win32_buffer@DU__crt_win32_buffer_internal_dynamic_resizing@@@@AEAAXXZ 0000000140021460 f i libucrtd:argv_wildcards.obj
 0001:00020460       ?_deallocate@?$__crt_win32_buffer@_WU__crt_win32_buffer_internal_dynamic_resizing@@@@AEAAXXZ 0000000140021460 f i libucrtd:argv_wildcards.obj
 0001:000204a0       ?allocate@?$__crt_win32_buffer@DU__crt_win32_buffer_internal_dynamic_resizing@@@@QEAAH_K@Z 00000001400214a0 f i libucrtd:argv_wildcards.obj
 0001:00020520       ?allocate@?$__crt_win32_buffer@_WU__crt_win32_buffer_internal_dynamic_resizing@@@@QEAAH_K@Z 0000000140021520 f i libucrtd:argv_wildcards.obj
 0001:000205b0       ?allocate@__crt_win32_buffer_internal_dynamic_resizing@@SAHQEAPEAX_KAEBV__crt_win32_buffer_empty_debug_info@@@Z 00000001400215b0 f i libucrtd:argv_wildcards.obj
 0001:00020680       ?capacity@?$__crt_win32_buffer@_WU__crt_win32_buffer_internal_dynamic_resizing@@@@QEBA_KXZ 0000000140021680 f i libucrtd:argv_wildcards.obj
 0001:00020680       ?capacity@?$__crt_win32_buffer@DU__crt_win32_buffer_internal_dynamic_resizing@@@@QEBA_KXZ 0000000140021680 f i libucrtd:argv_wildcards.obj
 0001:00020680       ?capacity@?$__crt_win32_buffer@DU__crt_win32_buffer_no_resizing@@@@QEBA_KXZ 0000000140021680 f i libucrtd:getmodulefilenamea.obj
 0001:00020690       ?close@?$__crt_unique_handle_t@U__crt_findfile_traits@@@@QEAAXXZ 0000000140021690 f i libucrtd:argv_wildcards.obj
 0001:000206d0       ?close@__crt_findfile_traits@@SA_NPEAX@Z 00000001400216d0 f i libucrtd:argv_wildcards.obj
 0001:00020710       ?data@?$__crt_win32_buffer@_WU__crt_win32_buffer_internal_dynamic_resizing@@@@QEAAPEA_WXZ 0000000140021710 f i libucrtd:argv_wildcards.obj
 0001:00020710       ?data@?$__crt_win32_buffer@DU__crt_win32_buffer_internal_dynamic_resizing@@@@QEAAPEADXZ 0000000140021710 f i libucrtd:argv_wildcards.obj
 0001:00020710       ?data@?$__crt_win32_buffer@DU__crt_win32_buffer_no_resizing@@@@QEAAPEADXZ 0000000140021710 f i libucrtd:getmodulefilenamea.obj
 0001:00020720       ?deallocate@__crt_win32_buffer_internal_dynamic_resizing@@SAXQEAXAEBV__crt_win32_buffer_empty_debug_info@@@Z 0000000140021720 f i libucrtd:argv_wildcards.obj
 0001:00020a10       ?set_to_nullptr@?$__crt_win32_buffer@_WU__crt_win32_buffer_internal_dynamic_resizing@@@@QEAAXXZ 0000000140021a10 f i libucrtd:argv_wildcards.obj
 0001:00020a10       ?set_to_nullptr@?$__crt_win32_buffer@DU__crt_win32_buffer_internal_dynamic_resizing@@@@QEAAXXZ 0000000140021a10 f i libucrtd:argv_wildcards.obj
 0001:00020a50       ?size@?$__crt_win32_buffer@_WU__crt_win32_buffer_internal_dynamic_resizing@@@@QEAAX_K@Z 0000000140021a50 f i libucrtd:argv_wildcards.obj
 0001:00020a50       ?size@?$__crt_win32_buffer@DU__crt_win32_buffer_no_resizing@@@@QEAAX_K@Z 0000000140021a50 f i libucrtd:getmodulefilenamea.obj
 0001:00020a50       ?size@?$__crt_win32_buffer@DU__crt_win32_buffer_internal_dynamic_resizing@@@@QEAAX_K@Z 0000000140021a50 f i libucrtd:argv_wildcards.obj
 0001:00020a90       ?strpbrk@@YAPEADQEADQEBD@Z 0000000140021a90 f i libucrtd:argv_wildcards.obj
 0001:00020ac0       __acrt_expand_narrow_argv_wildcards 0000000140021ac0 f   libucrtd:argv_wildcards.obj
 0001:00020c90       ??$__acrt_wcs_to_mbs_cp@U__crt_win32_buffer_no_resizing@@@@YAHQEB_WAEAV?$__crt_win32_buffer@DU__crt_win32_buffer_no_resizing@@@@I@Z 0000000140021c90 f i libucrtd:getmodulefilenamea.obj
 0001:00020ce0       ??0?$__crt_win32_buffer@DU__crt_win32_buffer_no_resizing@@@@QEAA@QEAD_K@Z 0000000140021ce0 f i libucrtd:getmodulefilenamea.obj
 0001:00020d50       ??1?$__crt_win32_buffer@DU__crt_win32_buffer_no_resizing@@@@QEAA@XZ 0000000140021d50 f i libucrtd:getmodulefilenamea.obj
 0001:00020d80       ?_deallocate@?$__crt_win32_buffer@DU__crt_win32_buffer_no_resizing@@@@AEAAXXZ 0000000140021d80 f i libucrtd:getmodulefilenamea.obj
 0001:00020dc0       ?allocate@?$__crt_win32_buffer@DU__crt_win32_buffer_no_resizing@@@@QEAAH_K@Z 0000000140021dc0 f i libucrtd:getmodulefilenamea.obj
 0001:00020e40       ?allocate@__crt_win32_buffer_no_resizing@@SAHQEAPEAX_KAEBV__crt_win32_buffer_empty_debug_info@@@Z 0000000140021e40 f i libucrtd:getmodulefilenamea.obj
 0001:00020e70       ?deallocate@__crt_win32_buffer_no_resizing@@SAXQEAXAEBV__crt_win32_buffer_empty_debug_info@@@Z 0000000140021e70 f i libucrtd:getmodulefilenamea.obj
 0001:00020e80       ?set_to_nullptr@?$__crt_win32_buffer@DU__crt_win32_buffer_no_resizing@@@@QEAAXXZ 0000000140021e80 f i libucrtd:getmodulefilenamea.obj
 0001:00020ec0       ?size@?$__crt_win32_buffer@DU__crt_win32_buffer_no_resizing@@@@QEBA_KXZ 0000000140021ec0 f i libucrtd:getmodulefilenamea.obj
 0001:00020ed0       __acrt_GetModuleFileNameA  0000000140021ed0 f   libucrtd:getmodulefilenamea.obj
 0001:00021040       ??$initialize_from_array@$$BY10BAA@E@?$dual_state_global@PEAE@__crt_state_management@@QEAAXAEAY10BAA@E@Z 0000000140022040 f i libucrtd:mbctype.obj
 0001:000210b0       ??$initialize_from_array@$$BY10BAB@E@?$dual_state_global@PEAE@__crt_state_management@@QEAAXAEAY10BAB@E@Z 00000001400220b0 f i libucrtd:mbctype.obj
 0001:00021c20       __acrt_initialize_multibyte 0000000140022c20 f   libucrtd:mbctype.obj
 0001:00021cf0       __acrt_should_sync_with_global_locale 0000000140022cf0 f i libucrtd:mbctype.obj
 0001:00021d30       __acrt_update_thread_multibyte_data 0000000140022d30 f   libucrtd:mbctype.obj
 0001:00021d60       _setmbcp_nolock            0000000140022d60 f   libucrtd:mbctype.obj
 0001:00022404       _ismbblead                 0000000140023404 f   libucrtd:ismbbyte.obj
 0001:00022420       __acrt_initialize_command_line 0000000140023420 f   libucrtd:argv_data.obj
 0001:000224f0       __acrt_MultiByteToWideChar 00000001400234f0 f   libucrtd:multibytetowidechar.obj
 0001:000225f0       __acrt_WideCharToMultiByte 00000001400235f0 f   libucrtd:widechartomultibyte.obj
 0001:00022720       __dcrt_get_narrow_environment_from_os 0000000140023720 f   libucrtd:get_environment_from_os.obj
 0001:00022840       __acrt_initialize_locks    0000000140023840 f   libucrtd:locks.obj
 0001:000228b0       __acrt_lock                00000001400238b0 f   libucrtd:locks.obj
 0001:000228e0       __acrt_uninitialize_locks  00000001400238e0 f   libucrtd:locks.obj
 0001:00022940       __acrt_unlock              0000000140023940 f   libucrtd:locks.obj
 0001:00022c50       __acrt_get_developer_information_policy 0000000140023c50 f   libucrtd:win_policies.obj
 0001:00022c70       __acrt_get_process_end_policy 0000000140023c70 f   libucrtd:win_policies.obj
 0001:00022c80       __acrt_get_windowing_model_policy 0000000140023c80 f   libucrtd:win_policies.obj
 0001:00022ca0       __acrt_lowio_create_handle_array 0000000140023ca0 f   libucrtd:osfinfo.obj
 0001:00022e60       __acrt_lowio_destroy_handle_array 0000000140023e60 f   libucrtd:osfinfo.obj
 0001:00022ee0       __acrt_lowio_ensure_fh_exists 0000000140023ee0 f   libucrtd:osfinfo.obj
 0001:00023040       __acrt_lowio_lock_fh       0000000140024040 f   libucrtd:osfinfo.obj
 0001:00023080       __acrt_lowio_unlock_fh     0000000140024080 f   libucrtd:osfinfo.obj
 0001:000230c0       _free_osfhnd               00000001400240c0 f   libucrtd:osfinfo.obj
 0001:000231f0       _get_osfhandle             00000001400241f0 f   libucrtd:osfinfo.obj
 0001:000233f0       __acrt_initialize_fmode    00000001400243f0 f   libucrtd:txtmode.obj
 0001:000237f0       __acrt_initialize_lowio    00000001400247f0 f   libucrtd:ioinit.obj
 0001:00023840       __acrt_uninitialize_lowio  0000000140024840 f   libucrtd:ioinit.obj
 0001:000238c0       __acrt_locale_free_monetary 00000001400248c0 f   libucrtd:initmon.obj
 0001:00023ad0       __acrt_locale_free_numeric 0000000140024ad0 f   libucrtd:initnum.obj
 0001:00023c70       __acrt_locale_free_time    0000000140024c70 f   libucrtd:inittime.obj
 0001:00023de0       __pctype_func              0000000140024de0 f   libucrtd:ctype.obj
 0001:00023e20       _chvalidator_l             0000000140024e20 f   libucrtd:isctype.obj
 0001:00023ed0       _isctype_l                 0000000140024ed0 f   libucrtd:isctype.obj
 0001:00024100       _isleadbyte_fast_internal  0000000140025100 f i libucrtd:isctype.obj
 0001:00024130       ??1?$__crt_scoped_stack_ptr@_W@@QEAA@XZ 0000000140025130 f i libucrtd:getstringtypea.obj
 0001:00024150       _MallocaComputeSize        0000000140025150 f i libucrtd:getstringtypea.obj
 0001:00024190       _MarkAllocaS               0000000140025190 f i libucrtd:getstringtypea.obj
 0001:000241c0       __acrt_GetStringTypeA      00000001400251c0 f   libucrtd:getstringtypea.obj
 0001:00024420       _freea_crt                 0000000140025420 f i libucrtd:getstringtypea.obj
 0001:000244c0       __acrt_add_locale_ref      00000001400254c0 f   libucrtd:locale_refcounting.obj
 0001:00024620       __acrt_free_locale         0000000140025620 f   libucrtd:locale_refcounting.obj
 0001:000249a0       __acrt_locale_add_lc_time_reference 00000001400259a0 f   libucrtd:locale_refcounting.obj
 0001:000249e0       __acrt_locale_free_lc_time_if_unreferenced 00000001400259e0 f   libucrtd:locale_refcounting.obj
 0001:00024a40       __acrt_locale_release_lc_time_reference 0000000140025a40 f   libucrtd:locale_refcounting.obj
 0001:00024a80       __acrt_release_locale_ref  0000000140025a80 f   libucrtd:locale_refcounting.obj
 0001:00024bf0       __acrt_update_thread_locale_data 0000000140025bf0 f   libucrtd:locale_refcounting.obj
 0001:00024c90       _updatetlocinfoEx_nolock   0000000140025c90 f   libucrtd:locale_refcounting.obj
 0001:000254a0       GetCurrentThreadEffectiveToken 00000001400264a0 f i libucrtd:winapi_thunks.obj
 0001:000254b0       __acrt_AppPolicyGetProcessTerminationMethodInternal 00000001400264b0 f   libucrtd:winapi_thunks.obj
 0001:00025500       __acrt_AppPolicyGetShowDeveloperDiagnosticInternal 0000000140026500 f   libucrtd:winapi_thunks.obj
 0001:00025550       __acrt_AppPolicyGetWindowingModelInternal 0000000140026550 f   libucrtd:winapi_thunks.obj
 0001:000255a0       __acrt_AreFileApisANSI     00000001400265a0 f   libucrtd:winapi_thunks.obj
 0001:000255e0       __acrt_FlsAlloc            00000001400265e0 f   libucrtd:winapi_thunks.obj
 0001:00025630       __acrt_FlsFree             0000000140026630 f   libucrtd:winapi_thunks.obj
 0001:00025680       __acrt_FlsGetValue         0000000140026680 f   libucrtd:winapi_thunks.obj
 0001:000256d0       __acrt_FlsSetValue         00000001400266d0 f   libucrtd:winapi_thunks.obj
 0001:00025730       __acrt_InitializeCriticalSectionEx 0000000140026730 f   libucrtd:winapi_thunks.obj
 0001:00025790       __acrt_LCMapStringEx       0000000140026790 f   libucrtd:winapi_thunks.obj
 0001:00025870       __acrt_LocaleNameToLCID    0000000140026870 f   libucrtd:winapi_thunks.obj
 0001:000258c0       __acrt_MessageBoxW         00000001400268c0 f   libucrtd:winapi_thunks.obj
 0001:00025920       __acrt_can_show_message_box 0000000140026920 f   libucrtd:winapi_thunks.obj
 0001:00025960       __acrt_get_parent_window   0000000140026960 f   libucrtd:winapi_thunks.obj
 0001:000259e0       __acrt_initialize_winapi_thunks 00000001400269e0 f   libucrtd:winapi_thunks.obj
 0001:00025a60       __acrt_is_interactive      0000000140026a60 f   libucrtd:winapi_thunks.obj
 0001:00025b40       __acrt_uninitialize_winapi_thunks 0000000140026b40 f   libucrtd:winapi_thunks.obj
 0001:00025be0       __acrt_initialize_heap     0000000140026be0 f   libucrtd:heap_handle.obj
 0001:00025c10       __acrt_uninitialize_heap   0000000140026c10 f   libucrtd:heap_handle.obj
 0001:00025c30       __acrt_execute_initializers 0000000140026c30 f   libucrtd:shared_initialization.obj
 0001:00025d20       __acrt_execute_uninitializers 0000000140026d20 f   libucrtd:shared_initialization.obj
 0001:00025da0       __acrt_initialize_new_handler 0000000140026da0 f   libucrtd:new_handler.obj
 0001:00025dc0       _callnewh                  0000000140026dc0 f   libucrtd:new_handler.obj
 0001:00025e10       _query_new_handler         0000000140026e10 f   libucrtd:new_handler.obj
 0001:00026010       __acrt_get_sigabrt_handler 0000000140027010 f   libucrtd:signal.obj
 0001:00026040       __acrt_initialize_signal_handlers 0000000140027040 f   libucrtd:signal.obj
 0001:000260a0       __fpecode                  00000001400270a0 f   libucrtd:signal.obj
 0001:000260c0       raise                      00000001400270c0 f   libucrtd:signal.obj
 0001:00026580       ?has_any_of@__crt_stdio_stream@@QEBA_NJ@Z 0000000140027580 f i libucrtd:_sftbuf.obj
 0001:000265c0       ?set_flags@__crt_stdio_stream@@QEBA_NJ@Z 00000001400275c0 f i libucrtd:_sftbuf.obj
 0001:00026630       ?unset_flags@__crt_stdio_stream@@QEBA_NJ@Z 0000000140027630 f i libucrtd:_sftbuf.obj
 0001:000266a0       _free_base                 00000001400276a0 f   libucrtd:free_base.obj
 0001:00026700       _realloc_base              0000000140027700 f   libucrtd:realloc_base.obj
 0001:00026820       _expand_base               0000000140027820 f   libucrtd:expand.obj
 0001:000269b0       __acrt_update_locale_info  00000001400279b0 f   libucrtd:locale_update.obj
 0001:00026a00       __acrt_update_multibyte_info 0000000140027a00 f   libucrtd:locale_update.obj
 0001:00026a50       _CrtDefaultAllocHook       0000000140027a50 f   libucrtd:debug_heap_hook.obj
 0001:00026a70       _CrtGetDebugFillThreshold  0000000140027a70 f   libucrtd:debug_fill_threshold.obj
 0001:00026a80       ??$make_c_string_character_source@DPEAPEAD@__crt_strtox@@YA?AV?$c_string_character_source@D@0@QEBDQEAPEAD@Z 0000000140027a80 f i libucrtd:strtox.obj
 0001:00026a80       ??$make_c_string_character_source@_WPEAPEA_W@__crt_strtox@@YA?AV?$c_string_character_source@_W@0@QEB_WQEAPEA_W@Z 0000000140027a80 f i libucrtd:strtox.obj
 0001:00026ac0       ??$parse_integer_from_string@JDPEAPEAD@__crt_strtox@@YAJQEBDQEAPEADHQEAU__crt_locale_pointers@@@Z 0000000140027ac0 f i libucrtd:strtox.obj
 0001:00026b10       ??$parse_integer_from_string@J_WPEAPEA_W@__crt_strtox@@YAJQEB_WQEAPEA_WHQEAU__crt_locale_pointers@@@Z 0000000140027b10 f i libucrtd:strtox.obj
 0001:00026b60       strtol                     0000000140027b60 f   libucrtd:strtox.obj
 0001:00026b90       wcstol                     0000000140027b90 f   libucrtd:strtox.obj
 0001:00026bc0       _mbtowc_l                  0000000140027bc0 f   libucrtd:mbtowc.obj
 0001:00027020       mbtowc                     0000000140028020 f   libucrtd:mbtowc.obj
 0001:00027050       _wctomb_s_l                0000000140028050 f   libucrtd:wctomb.obj
 0001:000275d0       ?__acrt_fp_classify@@YA?AW4__acrt_fp_class@@AEBN@Z 00000001400285d0 f i libucrtd:cvt.obj
 0001:000276d0       ?__acrt_fp_is_negative@@YA_NAEBN@Z 00000001400286d0 f i libucrtd:cvt.obj
 0001:00029090       ?strrchr@@YAPEADQEADH@Z    000000014002a090 f i libucrtd:cvt.obj
 0001:000290b0       __acrt_fp_format           000000014002a0b0 f   libucrtd:cvt.obj
 0001:000296c0       ?lowio_handle@__crt_stdio_stream@@QEBAHXZ 000000014002a6c0 f i libucrtd:fileno.obj
 0001:000296f0       _fileno                    000000014002a6f0 f   libucrtd:fileno.obj
 0001:000297d0       __acrt_initialize_stdio    000000014002a7d0 f   libucrtd:_file.obj
 0001:000299c0       __acrt_uninitialize_stdio  000000014002a9c0 f   libucrtd:_file.obj
 0001:00029a50       _lock_file                 000000014002aa50 f   libucrtd:_file.obj
 0001:00029a90       _unlock_file               000000014002aa90 f   libucrtd:_file.obj
 0001:00029ad0       _get_printf_count_output   000000014002aad0 f   libucrtd:printf_count_output.obj
 0001:00029b00       iswctype                   000000014002ab00 f   libucrtd:iswctype.obj
 0001:00029b90       _VCrtDbgReportA            000000014002ab90 f   libucrtd:dbgrptt.obj
 0001:0002a570       _VCrtDbgReportW            000000014002b570 f   libucrtd:dbgrptt.obj
 0001:0002b0f0       _snprintf_s                000000014002c0f0 f i libucrtd:dbgrptt.obj
 0001:0002b160       _vsnprintf_s               000000014002c160 f i libucrtd:dbgrptt.obj
 0001:0002b1b0       _vsnprintf_s_l             000000014002c1b0 f i libucrtd:dbgrptt.obj
 0001:0002b230       __acrt_OutputDebugStringA  000000014002c230 f   libucrtd:outputdebugstringa.obj
 0001:0002b460       qsort                      000000014002c460 f   libucrtd:qsort.obj
 0001:0002c1f0       strncpy_s                  000000014002d1f0 f   libucrtd:strncpy_s.obj
 0001:0002c360       strpbrk                    000000014002d360 f   libucrtd:strpbrk.obj
 0001:0002cc50       _mbsdec                    000000014002dc50 f   libucrtd:mbsdec.obj
 0001:0002cc58       _mbsdec_l                  000000014002dc58 f   libucrtd:mbsdec.obj
 0001:0002d340       __acrt_LCMapStringA        000000014002e340 f   libucrtd:lcmapstringa.obj
 0001:0002e010       _itoa_s                    000000014002f010 f   libucrtd:xtoa.obj
 0001:0002e070       _itow_s                    000000014002f070 f   libucrtd:xtoa.obj
 0001:0002e0d0       __ascii_wcsnicmp           000000014002f0d0 f   libucrtd:wcsnicmp.obj
 0001:0002e250       __acrt_DownlevelLocaleNameToLCID 000000014002f250 f   libucrtd:lcidtoname_downlevel.obj
 0001:0002e2b0       _isatty                    000000014002f2b0 f   libucrtd:isatty.obj
 0001:0002e730       ?__acrt_stdio_reset_buffer@@YAXV__crt_stdio_stream@@@Z 000000014002f730 f i libucrtd:fflush.obj
 0001:0002e860       ?has_all_of@__crt_stdio_stream@@QEBA_NJ@Z 000000014002f860 f i libucrtd:fflush.obj
 0001:0002e940       __acrt_stdio_flush_nolock  000000014002f940 f   libucrtd:fflush.obj
 0001:0002ea50       _fflush_nolock             000000014002fa50 f   libucrtd:fflush.obj
 0001:0002eae0       _flushall                  000000014002fae0 f   libucrtd:fflush.obj
 0001:0002eaf0       _malloc_base               000000014002faf0 f   libucrtd:malloc_base.obj
 0001:0002eb90       _isleadbyte_l              000000014002fb90 f i libucrtd:_wctype.obj
 0001:0002ec60       ?__mbrtowc_utf8@__crt_mbstring@@YA_KPEA_WPEBD_KPEAU_Mbstatet@@@Z 000000014002fc60 f   libucrtd:mbrtowc.obj
 0001:0002ecd0       ?__mbsrtowcs_utf8@__crt_mbstring@@YA_KPEA_WPEAPEBD_KPEAU_Mbstatet@@@Z 000000014002fcd0 f   libucrtd:mbrtowc.obj
 0001:0002efd0       ?__c32rtomb_utf8@__crt_mbstring@@YA_KPEAD_UPEAU_Mbstatet@@@Z 000000014002ffd0 f   libucrtd:c32rtomb.obj
 0001:0002f250       ?reset_and_return@__crt_mbstring@@YA_K_KPEAU_Mbstatet@@@Z 0000000140030250 f i libucrtd:c32rtomb.obj
 0001:0002f290       ?return_illegal_sequence@__crt_mbstring@@YA_KPEAU_Mbstatet@@@Z 0000000140030290 f i libucrtd:c32rtomb.obj
 0001:0002f2d0       c32rtomb                   00000001400302d0 f   libucrtd:c32rtomb.obj
 0001:0002f430       __acrt_fp_strflt_to_string 0000000140030430 f   libucrtd:_fptostr.obj
 0001:0002ff30       ??0big_integer@__crt_strtox@@QEAA@AEBU01@@Z 0000000140030f30 f i libucrtd:cfout.obj
 0001:0002ff30       ??4big_integer@__crt_strtox@@QEAAAEAU01@AEBU01@@Z 0000000140030f30 f i libucrtd:cfout.obj
 0001:0002ff90       ??0big_integer@__crt_strtox@@QEAA@XZ 0000000140030f90 f i libucrtd:cfout.obj
 0001:00030050       ??8__crt_strtox@@YA_NAEBUbig_integer@0@0@Z 0000000140031050 f i libucrtd:cfout.obj
 0001:000300c0       ??9__crt_strtox@@YA_NAEBUbig_integer@0@0@Z 00000001400310c0 f i libucrtd:cfout.obj
 0001:00030100       ?add_carry@__crt_strtox@@YAIAEAIII@Z 0000000140031100 f i libucrtd:cfout.obj
 0001:00030150       ?add_multiply_carry@__crt_strtox@@YAIAEAIIII@Z 0000000140031150 f i libucrtd:cfout.obj
 0001:000301b0       ?bit_scan_reverse@__crt_strtox@@YAII@Z 00000001400311b0 f i libucrtd:cfout.obj
 0001:000301f0       ?count_sequential_high_zeroes@__crt_strtox@@YAII@Z 00000001400311f0 f i libucrtd:cfout.obj
 0001:00030230       ?divide@__crt_strtox@@YA_KAEAUbig_integer@1@AEBU21@@Z 0000000140031230 f i libucrtd:cfout.obj
 0001:00030c00       ?is_zero@__crt_strtox@@YA_NAEBUbig_integer@1@@Z 0000000140031c00 f i libucrtd:cfout.obj
 0001:00030c30       ?make_big_integer@__crt_strtox@@YA?AUbig_integer@1@_K@Z 0000000140031c30 f i libucrtd:cfout.obj
 0001:00030d00       ?make_big_integer_power_of_two@__crt_strtox@@YA?AUbig_integer@1@I@Z 0000000140031d00 f i libucrtd:cfout.obj
 0001:00030dd0       ?multiply@__crt_strtox@@YA_NAEAUbig_integer@1@AEBU21@@Z 0000000140031dd0 f i libucrtd:cfout.obj
 0001:00031150       ?multiply@__crt_strtox@@YA_NAEAUbig_integer@1@I@Z 0000000140032150 f i libucrtd:cfout.obj
 0001:00031270       ?multiply_64_32@__crt_strtox@@YA_K_KI@Z 0000000140032270 f i libucrtd:cfout.obj
 0001:00031290       ?multiply_by_power_of_ten@__crt_strtox@@YA_NAEAUbig_integer@1@I@Z 0000000140032290 f i libucrtd:cfout.obj
 0001:00031440       ?multiply_core@__crt_strtox@@YAIQEAIII@Z 0000000140032440 f i libucrtd:cfout.obj
 0001:000314c0       ?shift_left@__crt_strtox@@YA_NAEAUbig_integer@1@I@Z 00000001400324c0 f i libucrtd:cfout.obj
 0001:000317a0       __acrt_fltout              00000001400327a0 f   libucrtd:cfout.obj
 0001:00031b50       fegetround                 0000000140032b50 f   libucrtd:fegetround.obj
 0001:00031b70       ?is_in_use@__crt_stdio_stream@@QEBA_NXZ 0000000140032b70 f i libucrtd:closeall.obj
 0001:00031bb0       _fcloseall                 0000000140032bb0 f   libucrtd:closeall.obj
 0001:00031cc0       ?has_crt_buffer@__crt_stdio_stream@@QEBA_NXZ 0000000140032cc0 f i libucrtd:_freebuf.obj
 0001:00031ce0       __acrt_stdio_free_buffer_nolock 0000000140032ce0 f   libucrtd:_freebuf.obj
 0001:00031dc0       __acrt_GetStringTypeW      0000000140032dc0 f   libucrtd:getstringtypew.obj
 0001:000323e0       _mbstowcs_s_l              00000001400333e0 f   libucrtd:mbstowcs.obj
 0001:000329b0       mbstowcs_s                 00000001400339b0 f   libucrtd:mbstowcs.obj
 0001:00033340       _wcstombs_s_l              0000000140034340 f   libucrtd:wcstombs.obj
 0001:00033880       wcstombs_s                 0000000140034880 f   libucrtd:wcstombs.obj
 0001:00033f40       strcat_s                   0000000140034f40 f   libucrtd:strcat_s.obj
 0001:00033f70       __strncnt                  0000000140034f70 f   libucrtd:strncnt.obj
 0001:00034180       _commit                    0000000140035180 f   libucrtd:commit.obj
 0001:00035d60       _utf8_no_of_trailbytes     0000000140036d60 f i libucrtd:write.obj
 0001:00035d80       _write                     0000000140036d80 f   libucrtd:write.obj
 0001:00036020       _write_nolock              0000000140037020 f   libucrtd:write.obj
 0001:000365f0       ?__mbrtoc32_utf8@__crt_mbstring@@YA_KPEA_UPEBD_KPEAU_Mbstatet@@@Z 00000001400375f0 f   libucrtd:mbrtoc32.obj
 0001:000369b0       log10                      00000001400379b0 f   libucrtd:log10.obj
 0001:00036f60       ceil                       0000000140037f60 f   libucrtd:ceil.obj
 0001:00037130       _controlfp_s               0000000140038130 f   libucrtd:contrlfp.obj
 0001:00037260       fegetenv                   0000000140038260 f   libucrtd:fegetenv.obj
 0001:00037290       fesetenv                   0000000140038290 f   libucrtd:fesetenv.obj
 0001:00037310       feholdexcept               0000000140038310 f   libucrtd:feholdexcept.obj
 0001:00037380       ??$__acrt_fenv_shift_bits@W4__acrt_fenv_abstract_control@@@@YA?AW4__acrt_fenv_abstract_control@@W40@0I@Z 0000000140038380 f i libucrtd:_fenvutils.obj
 0001:00037380       ??$__acrt_fenv_shift_bits@W4__acrt_fenv_abstract_status@@@@YA?AW4__acrt_fenv_abstract_status@@W40@0I@Z 0000000140038380 f i libucrtd:_fenvutils.obj
 0001:000373b0       ??$__acrt_fenv_translate_bit@W4__acrt_fenv_abstract_control@@W4__acrt_fenv_machine_sse_control@@@@YA?AW4__acrt_fenv_abstract_control@@W4__acrt_fenv_machine_sse_control@@0W40@1@Z 00000001400383b0 f i libucrtd:_fenvutils.obj
 0001:00037410       ??$__acrt_fenv_translate_bit@W4__acrt_fenv_machine_sse_status@@W4__acrt_fenv_abstract_status@@@@YA?AW4__acrt_fenv_machine_sse_status@@W4__acrt_fenv_abstract_status@@0W40@1@Z 0000000140038410 f i libucrtd:_fenvutils.obj
 0001:00037410       ??$__acrt_fenv_translate_bit@W4__acrt_fenv_abstract_status@@W4__acrt_fenv_machine_sse_status@@@@YA?AW4__acrt_fenv_abstract_status@@W4__acrt_fenv_machine_sse_status@@0W40@1@Z 0000000140038410 f i libucrtd:_fenvutils.obj
 0001:00037460       ??$__acrt_fenv_translate_bit@W4__acrt_fenv_machine_sse_control@@W4__acrt_fenv_abstract_control@@@@YA?AW4__acrt_fenv_machine_sse_control@@W4__acrt_fenv_abstract_control@@0W40@1@Z 0000000140038460 f i libucrtd:_fenvutils.obj
 0001:000374c0       ??$__acrt_fenv_unshift_bits@W4__acrt_fenv_abstract_status@@@@YA?AW4__acrt_fenv_abstract_status@@W40@0I@Z 00000001400384c0 f i libucrtd:_fenvutils.obj
 0001:000374c0       ??$__acrt_fenv_unshift_bits@W4__acrt_fenv_abstract_control@@@@YA?AW4__acrt_fenv_abstract_control@@W40@0I@Z 00000001400384c0 f i libucrtd:_fenvutils.obj
 0001:000379b0       ??I@YA?AW4__acrt_fenv_abstract_control@@W40@0@Z 00000001400389b0 f i libucrtd:_fenvutils.obj
 0001:000379b0       ??I@YA?AW4__acrt_fenv_machine_sse_status@@W40@0@Z 00000001400389b0 f i libucrtd:_fenvutils.obj
 0001:000379b0       ??I@YA?AW4__acrt_fenv_abstract_status@@W40@0@Z 00000001400389b0 f i libucrtd:_fenvutils.obj
 0001:000379d0       ??I@YA?AW4__acrt_fenv_machine_sse_control@@W40@0@Z 00000001400389d0 f i libucrtd:_fenvutils.obj
 0001:000379f0       ??U@YA?AW4__acrt_fenv_abstract_status@@W40@0@Z 00000001400389f0 f i libucrtd:_fenvutils.obj
 0001:000379f0       ??U@YA?AW4__acrt_fenv_abstract_control@@W40@0@Z 00000001400389f0 f i libucrtd:_fenvutils.obj
 0001:00037a10       ??U@YA?AW4__acrt_fenv_machine_sse_control@@W40@0@Z 0000000140038a10 f i libucrtd:_fenvutils.obj
 0001:00037a30       ??_5@YAAEAW4__acrt_fenv_abstract_control@@AEAW40@W40@@Z 0000000140038a30 f i libucrtd:_fenvutils.obj
 0001:00037a30       ??_5@YAAEAW4__acrt_fenv_abstract_status@@AEAW40@W40@@Z 0000000140038a30 f i libucrtd:_fenvutils.obj
 0001:00037a30       ??_5@YAAEAW4__acrt_fenv_machine_sse_status@@AEAW40@W40@@Z 0000000140038a30 f i libucrtd:_fenvutils.obj
 0001:00037a60       ??_5@YAAEAW4__acrt_fenv_machine_sse_control@@AEAW40@W40@@Z 0000000140038a60 f i libucrtd:_fenvutils.obj
 0001:00037a90       ?__acrt_fenv_shift_abstract_sse_control@@YA?AW4__acrt_fenv_abstract_control@@W41@@Z 0000000140038a90 f i libucrtd:_fenvutils.obj
 0001:00037ae0       ?__acrt_fenv_shift_abstract_sse_status@@YA?AW4__acrt_fenv_abstract_status@@W41@@Z 0000000140038ae0 f i libucrtd:_fenvutils.obj
 0001:00037b10       ?__acrt_fenv_unshift_abstract_sse_control@@YA?AW4__acrt_fenv_abstract_control@@W41@@Z 0000000140038b10 f i libucrtd:_fenvutils.obj
 0001:00037b60       ?__acrt_fenv_unshift_abstract_sse_status@@YA?AW4__acrt_fenv_abstract_status@@W41@@Z 0000000140038b60 f i libucrtd:_fenvutils.obj
 0001:00037e30       __acrt_fenv_get_common_round_control 0000000140038e30 f   libucrtd:_fenvutils.obj
 0001:00037e50       __acrt_fenv_get_control    0000000140038e50 f   libucrtd:_fenvutils.obj
 0001:00037e80       __acrt_fenv_get_status     0000000140038e80 f   libucrtd:_fenvutils.obj
 0001:00037eb0       __acrt_fenv_set_control    0000000140038eb0 f   libucrtd:_fenvutils.obj
 0001:00037ed0       __acrt_fenv_set_status     0000000140038ed0 f   libucrtd:_fenvutils.obj
 0001:00038060       _lseeki64_nolock           0000000140039060 f   libucrtd:lseek.obj
 0001:00038090       _fclose_nolock             0000000140039090 f   libucrtd:fclose.obj
 0001:00038220       fclose                     0000000140039220 f   libucrtd:fclose.obj
 0001:00038360       ?__wcsrtombs_utf8@__crt_mbstring@@YA_KPEADPEAPEB_W_KPEAU_Mbstatet@@@Z 0000000140039360 f   libucrtd:wcrtomb.obj
 0001:000385c8       _putwch_nolock             00000001400395c8 f   libucrtd:putwch.obj
 0001:00038610       __acrt_initialize_fma3     0000000140039610 f   libucrtd:fma3_available.obj
 0001:000386c0       _log10_special             00000001400396c0 f   libucrtd:log_special.obj
 0001:00038a00       _handle_error              0000000140039a00 f   libucrtd:libm_error.obj
 0001:00038b90       _handle_nan                0000000140039b90 f   libucrtd:libm_error.obj
 0001:00038dd0       _clearfp                   0000000140039dd0 f   libucrtd:ieee.obj
 0001:00038df0       _control87                 0000000140039df0 f   libucrtd:ieee.obj
 0001:000392b0       _close                     000000014003a2b0 f   libucrtd:close.obj
 0001:000394a0       _close_nolock              000000014003a4a0 f   libucrtd:close.obj
 0001:00039510       ?__acrt_stdio_free_stream@@YAXV__crt_stdio_stream@@@Z 000000014003a510 f   libucrtd:stream.obj
 0001:000395b0       ?deallocate@__crt_stdio_stream@@QEAAXXZ 000000014003a5b0 f i libucrtd:stream.obj
 0001:000395d0       ?__c16rtomb_utf8@__crt_mbstring@@YA_KPEAD_SPEAU_Mbstatet@@@Z 000000014003a5d0 f   libucrtd:c16rtomb.obj
 0001:000397e4       __dcrt_lowio_ensure_console_output_initialized 000000014003a7e4 f   libucrtd:initcon.obj
 0001:00039838       __dcrt_terminate_console_output 000000014003a838 f   libucrtd:initcon.obj
 0001:00039854       __dcrt_write_console       000000014003a854 f   libucrtd:initcon.obj
 0001:00039920       _raise_exc                 000000014003a920 f   libucrtd:fpexcept.obj
 0001:00039980       _raise_exc_ex              000000014003a980 f   libucrtd:fpexcept.obj
 0001:0003a000       _set_errno_from_matherr    000000014003b000 f   libucrtd:fpexcept.obj
 0001:0003a050       _clrfp                     000000014003b050 f   libucrtd:fpctrl.obj
 0001:0003a080       _ctrlfp                    000000014003b080 f   libucrtd:fpctrl.obj
 0001:0003a130       _set_statfp                000000014003b130 f   libucrtd:fpctrl.obj
 0001:0003a170       _statfp                    000000014003b170 f   libucrtd:fpctrl.obj
 0001:0003a1b0       _get_fpsr                  000000014003b1b0 f   libucrtd:fpsr.obj
 0001:0003a1c0       _set_fpsr                  000000014003b1c0 f   libucrtd:fpsr.obj
 0001:0003a1ca       _fclrf                     000000014003b1ca f   libucrtd:fpsr.obj
 0001:0003a1de       _frnd                      000000014003b1de f   libucrtd:fpsr.obj
 0001:0003a200       _FindPESection             000000014003b200 f   LIBCMTD:pesect.obj
 0001:0003a2b0       _IsNonwritableInCurrentImage 000000014003b2b0 f   LIBCMTD:pesect.obj
 0001:0003a340       _ValidateImageBase         000000014003b340 f   LIBCMTD:pesect.obj
 0001:0003a3c0       ??1type_info@@UEAA@XZ      000000014003b3c0 f   LIBCMTD:std_type_info_static.obj
 0001:0003a3e0       ??_Etype_info@@UEAAPEAXI@Z 000000014003b3e0 f i LIBCMTD:std_type_info_static.obj
 0001:0003a3e0       ??_Gtype_info@@UEAAPEAXI@Z 000000014003b3e0 f i LIBCMTD:std_type_info_static.obj
 0001:0003a420       ??3@YAXPEAX_K@Z            000000014003b420 f   LIBCMTD:delete_scalar_size.obj
 0001:0003a440       __GSHandlerCheck_SEH       000000014003b440 f   LIBCMTD:gshandlerseh.obj
 0001:0003a500       __GSHandlerCheck_EH        000000014003b500 f   LIBCMTD:gshandlereh.obj
 0001:0003a5b0       ??3@YAXPEAX@Z              000000014003b5b0 f   LIBCMTD:delete_scalar.obj
 0001:0003a5e0       memcmp                     000000014003b5e0 f   libvcruntimed:memcmp.obj
 0001:0003a6b0       strrchr                    000000014003b6b0 f   libvcruntimed:strrchr.obj
 0001:0003aae0       _guard_dispatch_icall_nop  000000014003bae0 f   LIBCMTD:guard_dispatch.obj
 0001:0003ab00       _guard_xfg_dispatch_icall_nop 000000014003bb00 f   LIBCMTD:guard_xfg_dispatch.obj
 0002:00000000       __imp_PatBlt               000000014003d000     gdi32:GDI32.dll
 0002:00000008       __imp_GetDeviceCaps        000000014003d008     gdi32:GDI32.dll
 0002:00000010       __imp_StretchDIBits        000000014003d010     gdi32:GDI32.dll
 0002:00000018       \177GDI32_NULL_THUNK_DATA  000000014003d018     gdi32:GDI32.dll
 0002:00000020       __imp_GetConsoleOutputCP   000000014003d020     kernel32:KERNEL32.dll
 0002:00000028       __imp_FlushFileBuffers     000000014003d028     kernel32:KERNEL32.dll
 0002:00000030       __imp_SetFilePointerEx     000000014003d030     kernel32:KERNEL32.dll
 0002:00000038       __imp_WriteConsoleW        000000014003d038     kernel32:KERNEL32.dll
 0002:00000040       __imp_HeapQueryInformation 000000014003d040     kernel32:KERNEL32.dll
 0002:00000048       __imp_HeapReAlloc          000000014003d048     kernel32:KERNEL32.dll
 0002:00000050       __imp_HeapFree             000000014003d050     kernel32:KERNEL32.dll
 0002:00000058       __imp_GetProcessHeap       000000014003d058     kernel32:KERNEL32.dll
 0002:00000060       __imp_LCMapStringW         000000014003d060     kernel32:KERNEL32.dll
 0002:00000068       __imp_GetConsoleMode       000000014003d068     kernel32:KERNEL32.dll
 0002:00000070       __imp_GetStringTypeW       000000014003d070     kernel32:KERNEL32.dll
 0002:00000078       __imp_GetFileType          000000014003d078     kernel32:KERNEL32.dll
 0002:00000080       __imp_SetStdHandle         000000014003d080     kernel32:KERNEL32.dll
 0002:00000088       __imp_CreateFileW          000000014003d088     kernel32:KERNEL32.dll
 0002:00000090       __imp_FreeEnvironmentStringsW 000000014003d090     kernel32:KERNEL32.dll
 0002:00000098       __imp_GetEnvironmentStringsW 000000014003d098     kernel32:KERNEL32.dll
 0002:000000a0       __imp_CompareFileTime      000000014003d0a0     kernel32:KERNEL32.dll
 0002:000000a8       __imp_CreateFileA          000000014003d0a8     kernel32:KERNEL32.dll
 0002:000000b0       __imp_GetFileAttributesExA 000000014003d0b0     kernel32:KERNEL32.dll
 0002:000000b8       __imp_GetFileSizeEx        000000014003d0b8     kernel32:KERNEL32.dll
 0002:000000c0       __imp_ReadFile             000000014003d0c0     kernel32:KERNEL32.dll
 0002:000000c8       __imp_WriteFile            000000014003d0c8     kernel32:KERNEL32.dll
 0002:000000d0       __imp_OutputDebugStringA   000000014003d0d0     kernel32:KERNEL32.dll
 0002:000000d8       __imp_CloseHandle          000000014003d0d8     kernel32:KERNEL32.dll
 0002:000000e0       __imp_QueryPerformanceCounter 000000014003d0e0     kernel32:KERNEL32.dll
 0002:000000e8       __imp_QueryPerformanceFrequency 000000014003d0e8     kernel32:KERNEL32.dll
 0002:000000f0       __imp_Sleep                000000014003d0f0     kernel32:KERNEL32.dll
 0002:000000f8       __imp_VirtualAlloc         000000014003d0f8     kernel32:KERNEL32.dll
 0002:00000100       __imp_VirtualFree          000000014003d100     kernel32:KERNEL32.dll
 0002:00000108       __imp_MapViewOfFile        000000014003d108     kernel32:KERNEL32.dll
 0002:00000110       __imp_FreeLibrary          000000014003d110     kernel32:KERNEL32.dll
 0002:00000118       __imp_GetModuleFileNameA   000000014003d118     kernel32:KERNEL32.dll
 0002:00000120       __imp_GetProcAddress       000000014003d120     kernel32:KERNEL32.dll
 0002:00000128       __imp_LoadLibraryA         000000014003d128     kernel32:KERNEL32.dll
 0002:00000130       __imp_CreateFileMappingA   000000014003d130     kernel32:KERNEL32.dll
 0002:00000138       __imp_CopyFileA            000000014003d138     kernel32:KERNEL32.dll
 0002:00000140       __imp_RtlCaptureContext    000000014003d140     kernel32:KERNEL32.dll
 0002:00000148       __imp_RtlLookupFunctionEntry 000000014003d148     kernel32:KERNEL32.dll
 0002:00000150       __imp_RtlVirtualUnwind     000000014003d150     kernel32:KERNEL32.dll
 0002:00000158       __imp_UnhandledExceptionFilter 000000014003d158     kernel32:KERNEL32.dll
 0002:00000160       __imp_SetUnhandledExceptionFilter 000000014003d160     kernel32:KERNEL32.dll
 0002:00000168       __imp_GetCurrentProcess    000000014003d168     kernel32:KERNEL32.dll
 0002:00000170       __imp_TerminateProcess     000000014003d170     kernel32:KERNEL32.dll
 0002:00000178       __imp_IsProcessorFeaturePresent 000000014003d178     kernel32:KERNEL32.dll
 0002:00000180       __imp_GetCurrentProcessId  000000014003d180     kernel32:KERNEL32.dll
 0002:00000188       __imp_GetCurrentThreadId   000000014003d188     kernel32:KERNEL32.dll
 0002:00000190       __imp_GetSystemTimeAsFileTime 000000014003d190     kernel32:KERNEL32.dll
 0002:00000198       __imp_InitializeSListHead  000000014003d198     kernel32:KERNEL32.dll
 0002:000001a0       __imp_IsDebuggerPresent    000000014003d1a0     kernel32:KERNEL32.dll
 0002:000001a8       __imp_GetStartupInfoW      000000014003d1a8     kernel32:KERNEL32.dll
 0002:000001b0       __imp_GetModuleHandleW     000000014003d1b0     kernel32:KERNEL32.dll
 0002:000001b8       __imp_MultiByteToWideChar  000000014003d1b8     kernel32:KERNEL32.dll
 0002:000001c0       __imp_RtlUnwindEx          000000014003d1c0     kernel32:KERNEL32.dll
 0002:000001c8       __imp_GetLastError         000000014003d1c8     kernel32:KERNEL32.dll
 0002:000001d0       __imp_SetLastError         000000014003d1d0     kernel32:KERNEL32.dll
 0002:000001d8       __imp_EnterCriticalSection 000000014003d1d8     kernel32:KERNEL32.dll
 0002:000001e0       __imp_LeaveCriticalSection 000000014003d1e0     kernel32:KERNEL32.dll
 0002:000001e8       __imp_DeleteCriticalSection 000000014003d1e8     kernel32:KERNEL32.dll
 0002:000001f0       __imp_InitializeCriticalSectionAndSpinCount 000000014003d1f0     kernel32:KERNEL32.dll
 0002:000001f8       __imp_TlsAlloc             000000014003d1f8     kernel32:KERNEL32.dll
 0002:00000200       __imp_TlsGetValue          000000014003d200     kernel32:KERNEL32.dll
 0002:00000208       __imp_TlsSetValue          000000014003d208     kernel32:KERNEL32.dll
 0002:00000210       __imp_TlsFree              000000014003d210     kernel32:KERNEL32.dll
 0002:00000218       __imp_LoadLibraryExW       000000014003d218     kernel32:KERNEL32.dll
 0002:00000220       __imp_EncodePointer        000000014003d220     kernel32:KERNEL32.dll
 0002:00000228       __imp_RaiseException       000000014003d228     kernel32:KERNEL32.dll
 0002:00000230       __imp_RtlPcToFileHeader    000000014003d230     kernel32:KERNEL32.dll
 0002:00000238       __imp_GetStdHandle         000000014003d238     kernel32:KERNEL32.dll
 0002:00000240       __imp_GetModuleFileNameW   000000014003d240     kernel32:KERNEL32.dll
 0002:00000248       __imp_ExitProcess          000000014003d248     kernel32:KERNEL32.dll
 0002:00000250       __imp_GetModuleHandleExW   000000014003d250     kernel32:KERNEL32.dll
 0002:00000258       __imp_HeapAlloc            000000014003d258     kernel32:KERNEL32.dll
 0002:00000260       __imp_HeapSize             000000014003d260     kernel32:KERNEL32.dll
 0002:00000268       __imp_HeapValidate         000000014003d268     kernel32:KERNEL32.dll
 0002:00000270       __imp_GetSystemInfo        000000014003d270     kernel32:KERNEL32.dll
 0002:00000278       __imp_OutputDebugStringW   000000014003d278     kernel32:KERNEL32.dll
 0002:00000280       __imp_FindClose            000000014003d280     kernel32:KERNEL32.dll
 0002:00000288       __imp_FindFirstFileExW     000000014003d288     kernel32:KERNEL32.dll
 0002:00000290       __imp_FindNextFileW        000000014003d290     kernel32:KERNEL32.dll
 0002:00000298       __imp_IsValidCodePage      000000014003d298     kernel32:KERNEL32.dll
 0002:000002a0       __imp_GetACP               000000014003d2a0     kernel32:KERNEL32.dll
 0002:000002a8       __imp_GetOEMCP             000000014003d2a8     kernel32:KERNEL32.dll
 0002:000002b0       __imp_GetCPInfo            000000014003d2b0     kernel32:KERNEL32.dll
 0002:000002b8       __imp_GetCommandLineA      000000014003d2b8     kernel32:KERNEL32.dll
 0002:000002c0       __imp_GetCommandLineW      000000014003d2c0     kernel32:KERNEL32.dll
 0002:000002c8       __imp_WideCharToMultiByte  000000014003d2c8     kernel32:KERNEL32.dll
 0002:000002d0       \177KERNEL32_NULL_THUNK_DATA 000000014003d2d0     kernel32:KERNEL32.dll
 0002:000002d8       __imp_BeginPaint           000000014003d2d8     user32:USER32.dll
 0002:000002e0       __imp_TranslateMessage     000000014003d2e0     user32:USER32.dll
 0002:000002e8       __imp_DispatchMessageA     000000014003d2e8     user32:USER32.dll
 0002:000002f0       __imp_GetMonitorInfoA      000000014003d2f0     user32:USER32.dll
 0002:000002f8       __imp_MonitorFromWindow    000000014003d2f8     user32:USER32.dll
 0002:00000300       __imp_LoadCursorA          000000014003d300     user32:USER32.dll
 0002:00000308       __imp_SetWindowLongA       000000014003d308     user32:USER32.dll
 0002:00000310       __imp_GetWindowLongA       000000014003d310     user32:USER32.dll
 0002:00000318       __imp_ScreenToClient       000000014003d318     user32:USER32.dll
 0002:00000320       __imp_GetCursorPos         000000014003d320     user32:USER32.dll
 0002:00000328       __imp_SetCursor            000000014003d328     user32:USER32.dll
 0002:00000330       __imp_GetClientRect        000000014003d330     user32:USER32.dll
 0002:00000338       __imp_EndPaint             000000014003d338     user32:USER32.dll
 0002:00000340       __imp_wsprintfA            000000014003d340     user32:USER32.dll
 0002:00000348       __imp_ReleaseDC            000000014003d348     user32:USER32.dll
 0002:00000350       __imp_GetDC                000000014003d350     user32:USER32.dll
 0002:00000358       __imp_GetKeyState          000000014003d358     user32:USER32.dll
 0002:00000360       __imp_SetWindowPlacement   000000014003d360     user32:USER32.dll
 0002:00000368       __imp_GetWindowPlacement   000000014003d368     user32:USER32.dll
 0002:00000370       __imp_SetWindowPos         000000014003d370     user32:USER32.dll
 0002:00000378       __imp_CreateWindowExA      000000014003d378     user32:USER32.dll
 0002:00000380       __imp_RegisterClassA       000000014003d380     user32:USER32.dll
 0002:00000388       __imp_DefWindowProcA       000000014003d388     user32:USER32.dll
 0002:00000390       __imp_PeekMessageA         000000014003d390     user32:USER32.dll
 0002:00000398       \177USER32_NULL_THUNK_DATA 000000014003d398     user32:USER32.dll
 0002:000003a0       __imp_timeBeginPeriod      000000014003d3a0     winmm:WINMM.dll
 0002:000003a8       \177WINMM_NULL_THUNK_DATA  000000014003d3a8     winmm:WINMM.dll
 0002:000003b0       __guard_check_icall_fptr   000000014003d3b0     LIBCMTD:guard_support.obj
 0002:000003b8       __guard_xfg_check_icall_fptr 000000014003d3b8     LIBCMTD:guard_support.obj
 0002:000003c0       __guard_dispatch_icall_fptr 000000014003d3c0     LIBCMTD:guard_support.obj
 0002:000003c8       __guard_xfg_dispatch_icall_fptr 000000014003d3c8     LIBCMTD:guard_support.obj
 0002:000003d0       __guard_xfg_table_dispatch_icall_fptr 000000014003d3d0     LIBCMTD:guard_support.obj
 0002:000003d8       __xc_a                     000000014003d3d8     LIBCMTD:initializers.obj
 0002:000003e8       __xc_z                     000000014003d3e8     LIBCMTD:initializers.obj
 0002:000003f0       __xi_a                     000000014003d3f0     LIBCMTD:initializers.obj
 0002:00000408       __acrt_multibyte_initializer 000000014003d408     libucrtd:multibyte_initializer.obj
 0002:00000410       __acrt_fmode_initializer   000000014003d410     libucrtd:fmode_initializer.obj
 0002:00000418       __acrt_stdio_initializer   000000014003d418     libucrtd:stdio_initializer.obj
 0002:00000420       __acrt_tran_fma3_initializer 000000014003d420     libucrtd:fma3_initializer.obj
 0002:00000428       __xi_z                     000000014003d428     LIBCMTD:initializers.obj
 0002:00000430       __xp_a                     000000014003d430     LIBCMTD:initializers.obj
 0002:00000438       __acrt_locale_terminator   000000014003d438     libucrtd:locale_initializer.obj
 0002:00000440       __dcrt_console_output_terminator 000000014003d440     libucrtd:console_output_initializer.obj
 0002:00000448       __acrt_stdio_terminator    000000014003d448     libucrtd:stdio_initializer.obj
 0002:00000450       __xp_z                     000000014003d450     LIBCMTD:initializers.obj
 0002:00000458       __xt_a                     000000014003d458     LIBCMTD:initializers.obj
 0002:00000460       __xt_z                     000000014003d460     LIBCMTD:initializers.obj
 0002:000005f8       __real@3f000000            000000014003d5f8     win32_handmade.obj
 0002:000005fc       __real@3f800000            000000014003d5fc     win32_handmade.obj
 0002:00000600       __real@40000000            000000014003d600     win32_handmade.obj
 0002:00000604       __real@40400000            000000014003d604     win32_handmade.obj
 0002:00000608       __real@447a0000            000000014003d608     win32_handmade.obj
 0002:0000060c       __real@46fffe00            000000014003d60c     win32_handmade.obj
 0002:00000610       __real@47000000            000000014003d610     win32_handmade.obj
 0002:00000614       __real@bf800000            000000014003d614     win32_handmade.obj
 0002:00000620       __xmm@80000000800000008000000080000000 000000014003d620     win32_handmade.obj
 0002:00000640       _pDestructExceptionObject  000000014003d640     libvcruntimed:ehhelpers.obj
 0002:00000650       ??_C@_0EP@GOHIKHHM@d?3?2agent?2_work?263?2s?2src?2vctools@ 000000014003d650     libvcruntimed:per_thread_data.obj
 0002:00000da0       ??_C@_08EHJDFFNH@__based?$CI@ 000000014003dda0     libvcruntimed:undname.obj
 0002:00000db0       ??_C@_07KOLFKCDI@__cdecl@  000000014003ddb0     libvcruntimed:undname.obj
 0002:00000db8       ??_C@_08GHMPAG@__pascal@   000000014003ddb8     libvcruntimed:undname.obj
 0002:00000dc8       ??_C@_09IFJBGAPI@__stdcall@ 000000014003ddc8     libvcruntimed:undname.obj
 0002:00000dd8       ??_C@_0L@NPHFGOKO@__thiscall@ 000000014003ddd8     libvcruntimed:undname.obj
 0002:00000de8       ??_C@_0L@JMKHOMEK@__fastcall@ 000000014003dde8     libvcruntimed:undname.obj
 0002:00000df8       ??_C@_0N@BCKKPABJ@__vectorcall@ 000000014003ddf8     libvcruntimed:undname.obj
 0002:00000e08       ??_C@_09HIJEGCPM@__clrcall@ 000000014003de08     libvcruntimed:undname.obj
 0002:00000e14       ??_C@_06GHPCKEAG@__eabi@   000000014003de14     libvcruntimed:undname.obj
 0002:00000e20       ??_C@_09IOPIDJLG@__swift_1@ 000000014003de20     libvcruntimed:undname.obj
 0002:00000e30       ??_C@_09KFNFGKHF@__swift_2@ 000000014003de30     libvcruntimed:undname.obj
 0002:00000e40       ??_C@_07JOMMBBKO@__ptr64@  000000014003de40     libvcruntimed:undname.obj
 0002:00000e48       ??_C@_0L@PILCLIHE@__restrict@ 000000014003de48     libvcruntimed:undname.obj
 0002:00000e58       ??_C@_0M@GFIIJFMG@__unaligned@ 000000014003de58     libvcruntimed:undname.obj
 0002:00000e68       ??_C@_09DHDLOLLB@restrict?$CI@ 000000014003de68     libvcruntimed:undname.obj
 0002:00000e72       ??_C@_00CNPNBAHC@@         000000014003de72     libvcruntimed:undname.obj
 0002:00000e74       ??_C@_04NIHEBCM@?5new@     000000014003de74     libvcruntimed:undname.obj
 0002:00000e80       ??_C@_07FPCDHGMM@?5delete@ 000000014003de80     libvcruntimed:undname.obj
 0002:00000e88       ??_C@_01NEMOKFLO@?$DN@     000000014003de88     libvcruntimed:undname.obj
 0002:00000e8c       ??_C@_02GPIOPFAK@?$DO?$DO@ 000000014003de8c     libvcruntimed:undname.obj
 0002:00000e90       ??_C@_02FODMEDOG@?$DM?$DM@ 000000014003de90     libvcruntimed:undname.obj
 0002:00000e94       ??_C@_01DCLJPIOD@?$CB@     000000014003de94     libvcruntimed:undname.obj
 0002:00000e98       ??_C@_02EGOFBIJA@?$DN?$DN@ 000000014003de98     libvcruntimed:undname.obj
 0002:00000e9c       ??_C@_02FDNJECIE@?$CB?$DN@ 000000014003de9c     libvcruntimed:undname.obj
 0002:00000ea0       ??_C@_02GPECMEKF@?$FL?$FN@ 000000014003dea0     libvcruntimed:undname.obj
 0002:00000ea8       ??_C@_08LHJFAFGD@operator@ 000000014003dea8     libvcruntimed:undname.obj
 0002:00000eb4       ??_C@_02HBOOOICD@?9?$DO@   000000014003deb4     libvcruntimed:undname.obj
 0002:00000eb8       ??_C@_01NBENCBCI@?$CK@     000000014003deb8     libvcruntimed:undname.obj
 0002:00000ebc       ??_C@_02ECNGHCIF@?$CL?$CL@ 000000014003debc     libvcruntimed:undname.obj
 0002:00000ec0       ??_C@_02BAABKJLB@?9?9@     000000014003dec0     libvcruntimed:undname.obj
 0002:00000ec4       ??_C@_01JOAMLHOP@?9@       000000014003dec4     libvcruntimed:undname.obj
 0002:00000ec8       ??_C@_01MIFGBAGJ@?$CL@     000000014003dec8     libvcruntimed:undname.obj
 0002:00000ecc       ??_C@_01HNPIGOCE@?$CG@     000000014003decc     libvcruntimed:undname.obj
 0002:00000ed0       ??_C@_03MNHNFDLC@?9?$DO?$CK@ 000000014003ded0     libvcruntimed:undname.obj
 0002:00000ed4       ??_C@_01KMDKNFGN@?1@       000000014003ded4     libvcruntimed:undname.obj
 0002:00000ed8       ??_C@_01FGNFDNOH@?$CF@     000000014003ded8     libvcruntimed:undname.obj
 0002:00000edc       ??_C@_01MNNFJEPP@?$DM@     000000014003dedc     libvcruntimed:undname.obj
 0002:00000ee0       ??_C@_02EHCHHCKH@?$DM?$DN@ 000000014003dee0     libvcruntimed:undname.obj
 0002:00000ee4       ??_C@_01PPODPGHN@?$DO@     000000014003dee4     libvcruntimed:undname.obj
 0002:00000ee8       ??_C@_02EEKDKGMJ@?$DO?$DN@ 000000014003dee8     libvcruntimed:undname.obj
 0002:00000eec       ??_C@_01IHBHIGKO@?0@       000000014003deec     libvcruntimed:undname.obj
 0002:00000ef0       ??_C@_02HCKGKOFO@?$CI?$CJ@ 000000014003def0     libvcruntimed:undname.obj
 0002:00000ef4       ??_C@_01PJKLJHI@?$HO@      000000014003def4     libvcruntimed:undname.obj
 0002:00000ef8       ??_C@_01JKBOJNNK@?$FO@     000000014003def8     libvcruntimed:undname.obj
 0002:00000efc       ??_C@_01DNKMNLPK@?$HM@     000000014003defc     libvcruntimed:undname.obj
 0002:00000f00       ??_C@_02PPKAJPJL@?$CG?$CG@ 000000014003df00     libvcruntimed:undname.obj
 0002:00000f04       ??_C@_02NONPIBCD@?$HM?$HM@ 000000014003df04     libvcruntimed:undname.obj
 0002:00000f08       ??_C@_02FPIMKNGF@?$CK?$DN@ 000000014003df08     libvcruntimed:undname.obj
 0002:00000f0c       ??_C@_02FOEOMHFC@?$CL?$DN@ 000000014003df0c     libvcruntimed:undname.obj
 0002:00000f10       ??_C@_02FKMDLLOA@?9?$DN@   000000014003df10     libvcruntimed:undname.obj
 0002:00000f14       ??_C@_02FJEHGPIO@?1?$DN@   000000014003df14     libvcruntimed:undname.obj
 0002:00000f18       ??_C@_02FENAOKFI@?$CF?$DN@ 000000014003df18     libvcruntimed:undname.obj
 0002:00000f1c       ??_C@_03IKFCCPFF@?$DO?$DO?$DN@ 000000014003df1c     libvcruntimed:undname.obj
 0002:00000f20       ??_C@_03CDNPDDLA@?$DM?$DM?$DN@ 000000014003df20     libvcruntimed:undname.obj
 0002:00000f24       ??_C@_02FGJGFEAB@?$CG?$DN@ 000000014003df24     libvcruntimed:undname.obj
 0002:00000f28       ??_C@_02DHLNPPGH@?$HM?$DN@ 000000014003df28     libvcruntimed:undname.obj
 0002:00000f2c       ??_C@_02MHEGNOJ@?$FO?$DN@  000000014003df2c     libvcruntimed:undname.obj
 0002:00000f30       ??_C@_09IFPLHPGF@?$GAvftable?8@ 000000014003df30     libvcruntimed:undname.obj
 0002:00000f40       ??_C@_09BLBHBJP@?$GAvbtable?8@ 000000014003df40     libvcruntimed:undname.obj
 0002:00000f50       ??_C@_07FEEIOKP@?$GAvcall?8@ 000000014003df50     libvcruntimed:undname.obj
 0002:00000f58       ??_C@_08LLFFHHDJ@?$GAtypeof?8@ 000000014003df58     libvcruntimed:undname.obj
 0002:00000f68       ??_C@_0BF@KDPPACIK@?$GAlocal?5static?5guard?8@ 000000014003df68     libvcruntimed:undname.obj
 0002:00000f80       ??_C@_08OBABFOLI@?$GAstring?8@ 000000014003df80     libvcruntimed:undname.obj
 0002:00000f90       ??_C@_0BD@JDLKDPAB@?$GAvbase?5destructor?8@ 000000014003df90     libvcruntimed:undname.obj
 0002:00000fa8       ??_C@_0BN@DEGPLNFK@?$GAvector?5deleting?5destructor?8@ 000000014003dfa8     libvcruntimed:undname.obj
 0002:00000fc8       ??_C@_0BO@OBMKPJIG@?$GAdefault?5constructor?5closure?8@ 000000014003dfc8     libvcruntimed:undname.obj
 0002:00000fe8       ??_C@_0BN@IMDCHIKM@?$GAscalar?5deleting?5destructor?8@ 000000014003dfe8     libvcruntimed:undname.obj
 0002:00001008       ??_C@_0BO@PFGOCPJJ@?$GAvector?5constructor?5iterator?8@ 000000014003e008     libvcruntimed:undname.obj
 0002:00001028       ??_C@_0BN@LFPFMEDL@?$GAvector?5destructor?5iterator?8@ 000000014003e028     libvcruntimed:undname.obj
 0002:00001048       ??_C@_0CE@IKBNEHA@?$GAvector?5vbase?5constructor?5itera@ 000000014003e048     libvcruntimed:undname.obj
 0002:00001070       ??_C@_0BL@NILFHHPC@?$GAvirtual?5displacement?5map?8@ 000000014003e070     libvcruntimed:undname.obj
 0002:00001090       ??_C@_0CB@JONCMFFK@?$GAeh?5vector?5constructor?5iterator@ 000000014003e090     libvcruntimed:undname.obj
 0002:000010b8       ??_C@_0CA@GCEOPDGL@?$GAeh?5vector?5destructor?5iterator?8@ 000000014003e0b8     libvcruntimed:undname.obj
 0002:000010d8       ??_C@_0CH@OOJPLCPH@?$GAeh?5vector?5vbase?5constructor?5it@ 000000014003e0d8     libvcruntimed:undname.obj
 0002:00001100       ??_C@_0BL@LLKPOHJI@?$GAcopy?5constructor?5closure?8@ 000000014003e100     libvcruntimed:undname.obj
 0002:00001120       ??_C@_0BA@KBCDOMBN@?$GAudt?5returning?8@ 000000014003e120     libvcruntimed:undname.obj
 0002:00001130       ??_C@_03KLGMFNMG@?$GAEH@   000000014003e130     libvcruntimed:undname.obj
 0002:00001134       ??_C@_05KHLCHHI@?$GARTTI@  000000014003e134     libvcruntimed:undname.obj
 0002:00001140       ??_C@_0BA@KKLDJDLB@?$GAlocal?5vftable?8@ 000000014003e140     libvcruntimed:undname.obj
 0002:00001150       ??_C@_0CE@IIHCMGGL@?$GAlocal?5vftable?5constructor?5clos@ 000000014003e150     libvcruntimed:undname.obj
 0002:00001174       ??_C@_06FHBGPFGH@?5new?$FL?$FN@ 000000014003e174     libvcruntimed:undname.obj
 0002:00001180       ??_C@_09LBNFPBCA@?5delete?$FL?$FN@ 000000014003e180     libvcruntimed:undname.obj
 0002:00001190       ??_C@_0P@HJKNJFNN@?$GAomni?5callsig?8@ 000000014003e190     libvcruntimed:undname.obj
 0002:000011a0       ??_C@_0BL@CNOONJFP@?$GAplacement?5delete?5closure?8@ 000000014003e1a0     libvcruntimed:undname.obj
 0002:000011c0       ??_C@_0BN@CKNJLHMB@?$GAplacement?5delete?$FL?$FN?5closure?8@ 000000014003e1c0     libvcruntimed:undname.obj
 0002:000011e0       ??_C@_0CG@CFDHKGGD@?$GAmanaged?5vector?5constructor?5ite@ 000000014003e1e0     libvcruntimed:undname.obj
 0002:00001208       ??_C@_0CF@IMGKMJNO@?$GAmanaged?5vector?5destructor?5iter@ 000000014003e208     libvcruntimed:undname.obj
 0002:00001230       ??_C@_0CG@HLDDJMAG@?$GAeh?5vector?5copy?5constructor?5ite@ 000000014003e230     libvcruntimed:undname.obj
 0002:00001258       ??_C@_0CM@FCBBDIGB@?$GAeh?5vector?5vbase?5copy?5construct@ 000000014003e258     libvcruntimed:undname.obj
 0002:00001288       ??_C@_0BL@CLIPGLGB@?$GAdynamic?5initializer?5for?5?8@ 000000014003e288     libvcruntimed:undname.obj
 0002:000012a8       ??_C@_0CB@PDBIFEP@?$GAdynamic?5atexit?5destructor?5for?5@ 000000014003e2a8     libvcruntimed:undname.obj
 0002:000012d0       ??_C@_0CD@CGAJBKEJ@?$GAvector?5copy?5constructor?5iterat@ 000000014003e2d0     libvcruntimed:undname.obj
 0002:000012f8       ??_C@_0CJ@GJELGAMM@?$GAvector?5vbase?5copy?5constructor?5@ 000000014003e2f8     libvcruntimed:undname.obj
 0002:00001328       ??_C@_0CL@FGIJHLCE@?$GAmanaged?5vector?5copy?5constructo@ 000000014003e328     libvcruntimed:undname.obj
 0002:00001358       ??_C@_0BM@PMGGMLDN@?$GAlocal?5static?5thread?5guard?8@ 000000014003e358     libvcruntimed:undname.obj
 0002:00001378       ??_C@_0N@BDNMDMOL@operator?5?$CC?$CC?5@ 000000014003e378     libvcruntimed:undname.obj
 0002:00001388       ??_C@_0BC@GGEBGALA@operator?5co_await@ 000000014003e388     libvcruntimed:undname.obj
 0002:000013a0       ??_C@_0M@GAAIMMOH@operator?$DM?$DN?$DO@ 000000014003e3a0     libvcruntimed:undname.obj
 0002:000013b0       ??_C@_0BC@DAFEJGAK@?5Type?5Descriptor?8@ 000000014003e3b0     libvcruntimed:undname.obj
 0002:000013c8       ??_C@_0BM@LDKODKLH@?5Base?5Class?5Descriptor?5at?5?$CI@ 000000014003e3c8     libvcruntimed:undname.obj
 0002:000013e8       ??_C@_0BD@LGICGFMM@?5Base?5Class?5Array?8@ 000000014003e3e8     libvcruntimed:undname.obj
 0002:00001400       ??_C@_0BN@MECKDCOJ@?5Class?5Hierarchy?5Descriptor?8@ 000000014003e400     libvcruntimed:undname.obj
 0002:00001420       ??_C@_0BK@CFCOFLF@?5Complete?5Object?5Locator?8@ 000000014003e420     libvcruntimed:undname.obj
 0002:00001440       ??_C@_0BG@JNJLAMPM@?$GAanonymous?5namespace?8@ 000000014003e440     libvcruntimed:undname.obj
 0002:00001470       ??_C@_1DM@KHCHBNEB@?$AAa?$AAp?$AAi?$AA?9?$AAm?$AAs?$AA?9?$AAw?$AAi?$AAn?$AA?9?$AAc?$AAo?$AAr?$AAe@ 000000014003e470     libvcruntimed:winapi_downlevel.obj
 0002:000014b0       ??_C@_1DK@LPPGFMPP@?$AAa?$AAp?$AAi?$AA?9?$AAm?$AAs?$AA?9?$AAw?$AAi?$AAn?$AA?9?$AAc?$AAo?$AAr?$AAe@ 000000014003e4b0     libvcruntimed:winapi_downlevel.obj
 0002:000014f0       ??_C@_1BC@GDMECMAK@?$AAk?$AAe?$AAr?$AAn?$AAe?$AAl?$AA3?$AA2@ 000000014003e4f0     libvcruntimed:winapi_downlevel.obj
 0002:00001508       ??_C@_17CNPHIMPH@?$AA?$CF?$AAl?$AAs@ 000000014003e508     libvcruntimed:winapi_downlevel.obj
 0002:00001510       ??_C@_1BA@PFFKHIOG@?$AAa?$AAp?$AAi?$AA?9?$AAm?$AAs?$AA?9@ 000000014003e510     libvcruntimed:winapi_downlevel.obj
 0002:00001520       ??_C@_1EM@LBIFGLGH@?$AAc?$AAa?$AAc?$AAh?$AAe?$AAd?$AA_?$AAh?$AAa?$AAn?$AAd?$AAl?$AAe?$AA?5?$AA?$DN@ 000000014003e520     libvcruntimed:winapi_downlevel.obj
 0002:00001570       ??_C@_1KA@GJDIKNFM@?$AAd?$AA?3?$AA?2?$AAa?$AAg?$AAe?$AAn?$AAt?$AA?2?$AA_?$AAw?$AAo?$AAr?$AAk?$AA?2@ 000000014003e570     libvcruntimed:winapi_downlevel.obj
 0002:00001610       ??_C@_1DI@MAHEDLDB@?$AAc?$AAa?$AAc?$AAh?$AAe?$AAd?$AA_?$AAh?$AAa?$AAn?$AAd?$AAl?$AAe?$AA?5?$AA?$DN@ 000000014003e610     libvcruntimed:winapi_downlevel.obj
 0002:00001650       ??_C@_1FC@IBNCGNKL@?$AAc?$AAa?$AAc?$AAh?$AAe?$AAd?$AA_?$AAf?$AAp?$AA?5?$AA?$DN?$AA?$DN?$AA?5?$AAi?$AAn@ 000000014003e650     libvcruntimed:winapi_downlevel.obj
 0002:000016a8       ??_C@_1CI@GDJBAGLP@?$AAc?$AAa?$AAc?$AAh?$AAe?$AAd?$AA_?$AAf?$AAp?$AA?5?$AA?$DN?$AA?$DN?$AA?5?$AAn?$AAe@ 000000014003e6a8     libvcruntimed:winapi_downlevel.obj
 0002:000016d8       ??_C@_08KNHFBNJ@FlsAlloc@  000000014003e6d8     libvcruntimed:winapi_downlevel.obj
 0002:000016f0       ??_C@_07PEJMOBNF@FlsFree@  000000014003e6f0     libvcruntimed:winapi_downlevel.obj
 0002:00001700       ??_C@_0M@GDNOONDI@FlsGetValue@ 000000014003e700     libvcruntimed:winapi_downlevel.obj
 0002:00001718       ??_C@_0M@JCPCPOEF@FlsSetValue@ 000000014003e718     libvcruntimed:winapi_downlevel.obj
 0002:00001730       ??_C@_0BM@HCFOFFN@InitializeCriticalSectionEx@ 000000014003e730     libvcruntimed:winapi_downlevel.obj
 0002:000017f0       ??_7exception@std@@6B@     000000014003e7f0     libvcruntimed:frame.obj
 0002:00001800       ??_C@_0BC@EOODALEL@Unknown?5exception@ 000000014003e800     libvcruntimed:frame.obj
 0002:00001820       ??_7bad_exception@std@@6B@ 000000014003e820     libvcruntimed:frame.obj
 0002:00001830       ??_C@_0O@DPKOEFFH@bad?5exception@ 000000014003e830     libvcruntimed:frame.obj
 0002:00001840       ??_C@_1FK@OACNEHHA@?$AAt?$AAo?$AA?9?$AA?$DO?$AA_?$AAW?$AAh?$AAa?$AAt?$AA?5?$AA?$DN?$AA?$DN?$AA?5?$AAn?$AAu@ 000000014003e840     libvcruntimed:std_exception.obj
 0002:000018a0       ??_C@_1IO@PDEKOFJA@?$AAd?$AA?3?$AA?2?$AAa?$AAg?$AAe?$AAn?$AAt?$AA?2?$AA_?$AAw?$AAo?$AAr?$AAk?$AA?2@ 000000014003e8a0     libvcruntimed:std_exception.obj
 0002:00001930       __acrt_exception_action_table 000000014003e930     libucrtd:exception_filter.obj
 0002:000019f0       __acrt_signal_action_table_count 000000014003e9f0     libucrtd:exception_filter.obj
 0002:000019f8       __acrt_signal_action_first_fpe_index 000000014003e9f8     libucrtd:exception_filter.obj
 0002:00001a00       __acrt_signal_action_fpe_count 000000014003ea00     libucrtd:exception_filter.obj
 0002:00001a10       ??_C@_1IC@DCNEKBE@?$AAm?$AAi?$AAn?$AAk?$AAe?$AAr?$AAn?$AAe?$AAl?$AA?2?$AAc?$AAr?$AAt?$AAs?$AA?2@ 000000014003ea10     libucrtd:report_runtime_error.obj
 0002:00001a98       ??_C@_1DI@BLFJHKKP@?$AA_?$AA_?$AAa?$AAc?$AAr?$AAt?$AA_?$AAr?$AAe?$AAp?$AAo?$AAr?$AAt?$AA_?$AAr@ 000000014003ea98     libucrtd:report_runtime_error.obj
 0002:00001ad0       ??_C@_1LE@MHPGJGKE@?$AAw?$AAc?$AAs?$AAc?$AAp?$AAy?$AA_?$AAs?$AA?$CI?$AAo?$AAu?$AAt?$AAm?$AAs?$AAg@ 000000014003ead0     libucrtd:report_runtime_error.obj
 0002:00001b88       ??_C@_1DE@JNGNBFGO@?$AAR?$AAu?$AAn?$AAt?$AAi?$AAm?$AAe?$AA?5?$AAE?$AAr?$AAr?$AAo?$AAr?$AA?$CB?$AA?6@ 000000014003eb88     libucrtd:report_runtime_error.obj
 0002:00001bc0       ??_C@_1HK@FJJNAABO@?$AAw?$AAc?$AAs?$AAc?$AAp?$AAy?$AA_?$AAs?$AA?$CI?$AAp?$AAr?$AAo?$AAg?$AAn?$AAa@ 000000014003ebc0     libucrtd:report_runtime_error.obj
 0002:00001c40       ??_C@_1CO@EAEJAADC@?$AA?$DM?$AAp?$AAr?$AAo?$AAg?$AAr?$AAa?$AAm?$AA?5?$AAn?$AAa?$AAm?$AAe?$AA?5?$AAu@ 000000014003ec40     libucrtd:report_runtime_error.obj
 0002:00001c70       ??_C@_1HI@FLHKGEBE@?$AAw?$AAc?$AAs?$AAn?$AAc?$AAp?$AAy?$AA_?$AAs?$AA?$CI?$AAp?$AAc?$AAh?$AA?0?$AA?5@ 000000014003ec70     libucrtd:report_runtime_error.obj
 0002:00001ce8       ??_C@_17LGKOMLJ@?$AA?4?$AA?4?$AA?4@ 000000014003ece8     libucrtd:report_runtime_error.obj
 0002:00001cf0       ??_C@_1IG@MNNKBLBI@?$AAw?$AAc?$AAs?$AAc?$AAa?$AAt?$AA_?$AAs?$AA?$CI?$AAo?$AAu?$AAt?$AAm?$AAs?$AAg@ 000000014003ecf0     libucrtd:report_runtime_error.obj
 0002:00001d78       ??_C@_15IABLJNFO@?$AA?6?$AA?6@ 000000014003ed78     libucrtd:report_runtime_error.obj
 0002:00001d80       ??_C@_1IG@DFBBBDAN@?$AAw?$AAc?$AAs?$AAc?$AAa?$AAt?$AA_?$AAs?$AA?$CI?$AAo?$AAu?$AAt?$AAm?$AAs?$AAg@ 000000014003ed80     libucrtd:report_runtime_error.obj
 0002:00001e10       ??_C@_1EK@MBDPDCGA@?$AAM?$AAi?$AAc?$AAr?$AAo?$AAs?$AAo?$AAf?$AAt?$AA?5?$AAV?$AAi?$AAs?$AAu?$AAa@ 000000014003ee10     libucrtd:report_runtime_error.obj
 0002:00001e60       ??_C@_0DI@KNDIGDEP@minkernel?2crts?2ucrt?2src?2appcrt?2@ 000000014003ee60     libucrtd:argv_parsing.obj
 0002:00001ea0       ??_C@_1JO@PGBIJBAM@?$AAm?$AAo?$AAd?$AAe?$AA?5?$AA?$DN?$AA?$DN?$AA?5?$AA_?$AAc?$AAr?$AAt?$AA_?$AAa?$AAr@ 000000014003eea0     libucrtd:argv_parsing.obj
 0002:00001f40       ??_C@_1HA@JMLCANEE@?$AAm?$AAi?$AAn?$AAk?$AAe?$AAr?$AAn?$AAe?$AAl?$AA?2?$AAc?$AAr?$AAt?$AAs?$AA?2@ 000000014003ef40     libucrtd:argv_parsing.obj
 0002:00001fb0       ??_C@_1CM@LHOJELIC@?$AAc?$AAo?$AAm?$AAm?$AAo?$AAn?$AA_?$AAc?$AAo?$AAn?$AAf?$AAi?$AAg?$AAu?$AAr@ 000000014003efb0     libucrtd:argv_parsing.obj
 0002:00001fe0       ??_C@_0EG@LEHKHOEH@minkernel?2crts?2ucrt?2src?2desktop@ 000000014003efe0     libucrtd:environment_initialization.obj
 0002:00002030       ??_C@_1IM@IMOFFPLG@?$AAm?$AAi?$AAn?$AAk?$AAe?$AAr?$AAn?$AAe?$AAl?$AA?2?$AAc?$AAr?$AAt?$AAs?$AA?2@ 000000014003f030     libucrtd:environment_initialization.obj
 0002:000020c0       ??_C@_1CG@MNNNBNAK@?$AAc?$AAr?$AAe?$AAa?$AAt?$AAe?$AA_?$AAe?$AAn?$AAv?$AAi?$AAr?$AAo?$AAn?$AAm@ 000000014003f0c0     libucrtd:environment_initialization.obj
 0002:000020f0       ??_C@_1HI@OOPIFFGA@?$AAt?$AAr?$AAa?$AAi?$AAt?$AAs?$AA?3?$AA?3?$AAt?$AAc?$AAs?$AAc?$AAp?$AAy?$AA_@ 000000014003f0f0     libucrtd:environment_initialization.obj
 0002:00002168       ??_C@_1BI@BGOHAHKC@?$AAm?$AAs?$AAc?$AAo?$AAr?$AAe?$AAe?$AA?4?$AAd?$AAl?$AAl@ 000000014003f168     libucrtd:exit.obj
 0002:00002180       ??_C@_0P@MIGLKIOC@CorExitProcess@ 000000014003f180     libucrtd:exit.obj
 0002:00002190       ??_C@_1GC@CIJNGKLD@?$AAm?$AAi?$AAn?$AAk?$AAe?$AAr?$AAn?$AAe?$AAl?$AA?2?$AAc?$AAr?$AAt?$AAs?$AA?2@ 000000014003f190     libucrtd:setmode.obj
 0002:00002200       ??_C@_1FO@LPCLHKGE@?$AA?$CI?$AAf?$AAh?$AA?5?$AA?$DO?$AA?$DN?$AA?5?$AA0?$AA?5?$AA?$CG?$AA?$CG?$AA?5?$AA?$CI?$AAu?$AAn@ 000000014003f200     libucrtd:setmode.obj
 0002:00002260       ??_C@_1CM@OKGMMMDH@?$AA?$CI?$AA_?$AAo?$AAs?$AAf?$AAi?$AAl?$AAe?$AA?$CI?$AAf?$AAh?$AA?$CJ?$AA?5?$AA?$CG?$AA?5@ 000000014003f260     libucrtd:setmode.obj
 0002:00002290       ??_C@_1JE@ECKHFIFP@?$AA?$CI?$AA?$CC?$AAI?$AAn?$AAv?$AAa?$AAl?$AAi?$AAd?$AA?5?$AAf?$AAi?$AAl?$AAe?$AA?5@ 000000014003f290     libucrtd:setmode.obj
 0002:00002330       ??_C@_1HC@GNDCDMJL@?$AAm?$AAo?$AAd?$AAe?$AA?5?$AA?$DN?$AA?$DN?$AA?5?$AA_?$AAO?$AA_?$AAT?$AAE?$AAX?$AAT@ 000000014003f330     libucrtd:setmode.obj
 0002:000023a8       ??_C@_1BG@IEEHLOCL@?$AA_?$AAs?$AAe?$AAt?$AA_?$AAf?$AAm?$AAo?$AAd?$AAe@ 000000014003f3a8     libucrtd:setmode.obj
 0002:000023c0       ??_C@_1GA@LDEGDKD@?$AA?$CI?$AA?$CC?$AAI?$AAn?$AAv?$AAa?$AAl?$AAi?$AAd?$AA?5?$AAp?$AAa?$AAr?$AAa?$AAm@ 000000014003f3c0     libucrtd:wsetlocale.obj
 0002:00002420       ??_C@_1GK@DPKNLBIE@?$AAm?$AAi?$AAn?$AAk?$AAe?$AAr?$AAn?$AAe?$AAl?$AA?2?$AAc?$AAr?$AAt?$AAs?$AA?2@ 000000014003f420     libucrtd:wsetlocale.obj
 0002:00002490       ??_C@_1CI@FGIONOJM@?$AA_?$AAc?$AAo?$AAn?$AAf?$AAi?$AAg?$AAt?$AAh?$AAr?$AAe?$AAa?$AAd?$AAl?$AAo@ 000000014003f490     libucrtd:wsetlocale.obj
 0002:000024b8       ??_C@_1CO@JKFLNGDK@?$AAm?$AAo?$AAd?$AAe?$AA?5?$AA?$DN?$AA?$DN?$AA?5?$AA0?$AA?5?$AA?$HM?$AA?$HM?$AA?5?$AAm?$AAo@ 000000014003f4b8     libucrtd:new_mode.obj
 0002:000024f0       ??_C@_1GC@PJMKBHEK@?$AAm?$AAi?$AAn?$AAk?$AAe?$AAr?$AAn?$AAe?$AAl?$AA?2?$AAc?$AAr?$AAt?$AAs?$AA?2@ 000000014003f4f0     libucrtd:new_mode.obj
 0002:00002558       ??_C@_1BM@PDPAKJNF@?$AA_?$AAs?$AAe?$AAt?$AA_?$AAn?$AAe?$AAw?$AA_?$AAm?$AAo?$AAd?$AAe@ 000000014003f558     libucrtd:new_mode.obj
 0002:000025a0       ??_C@_0DC@NBHMIIKL@minkernel?2crts?2ucrt?2src?2appcrt?2@ 000000014003f5a0     libucrtd:onexit.obj
 0002:00002708       ??_C@_04HJMOFLDF@Free@     000000014003f708     libucrtd:debug_heap.obj
 0002:00002710       ??_C@_06EFAGIKOH@Normal@   000000014003f710     libucrtd:debug_heap.obj
 0002:00002718       ??_C@_03OGPFLFLO@CRT@      000000014003f718     libucrtd:debug_heap.obj
 0002:0000271c       ??_C@_06KMEJCCGM@Ignore@   000000014003f71c     libucrtd:debug_heap.obj
 0002:00002724       ??_C@_06PJIGMIJB@Client@   000000014003f724     libucrtd:debug_heap.obj
 0002:00002730       ??_C@_1CE@LJFEPPMP@?$AA_?$AAC?$AAr?$AAt?$AAC?$AAh?$AAe?$AAc?$AAk?$AAM?$AAe?$AAm?$AAo?$AAr?$AAy@ 000000014003f730     libucrtd:debug_heap.obj
 0002:00002760       ??_C@_1GG@OCLHPJPK@?$AAm?$AAi?$AAn?$AAk?$AAe?$AAr?$AAn?$AAe?$AAl?$AA?2?$AAc?$AAr?$AAt?$AAs?$AA?2@ 000000014003f760     libucrtd:debug_heap.obj
 0002:000027c8       ??_C@_0DF@BBEGIFEK@Client?5hook?5allocation?5failure?5@ 000000014003f7c8     libucrtd:debug_heap.obj
 0002:00002800       ??_C@_0CB@CCLOLAHO@Client?5hook?5allocation?5failure?4@ 000000014003f800     libucrtd:debug_heap.obj
 0002:00002824       ??_C@_02DKCKIIND@?$CFs@    000000014003f824     libucrtd:debug_heap.obj
 0002:00002828       ??_C@_0DC@JEMAGEKG@Error?3?5memory?5allocation?3?5bad?5m@ 000000014003f828     libucrtd:debug_heap.obj
 0002:00002860       ??_C@_0DI@KKJPDPGM@Client?5hook?5re?9allocation?5failu@ 000000014003f860     libucrtd:debug_heap.obj
 0002:00002898       ??_C@_0CE@DOFMDOL@Client?5hook?5re?9allocation?5failu@ 000000014003f898     libucrtd:debug_heap.obj
 0002:000028c0       ??_C@_0FA@EFEIGJKG@Error?3?5memory?5allocation?3?5bad?5m@ 000000014003f8c0     libucrtd:debug_heap.obj
 0002:00002910       ??_C@_0EM@LGFLMAGJ@The?5Block?5at?50x?$CFp?5was?5allocated@ 000000014003f910     libucrtd:debug_heap.obj
 0002:00002960       ??_C@_1DM@DEDLGNML@?$AA_?$AAC?$AAr?$AAt?$AAI?$AAs?$AAV?$AAa?$AAl?$AAi?$AAd?$AAH?$AAe?$AAa?$AAp@ 000000014003f960     libucrtd:debug_heap.obj
 0002:000029a0       ??_C@_1PC@MCGKJLN@?$AAo?$AAl?$AAd?$AA_?$AAh?$AAe?$AAa?$AAd?$AA?9?$AA?$DO?$AA_?$AAl?$AAi?$AAn?$AAe@ 000000014003f9a0     libucrtd:debug_heap.obj
 0002:00002a98       ??_C@_0DA@HFBKENN@Error?3?5possible?5heap?5corruption@ 000000014003fa98     libucrtd:debug_heap.obj
 0002:00002ad0       ??_C@_1JM@MCMEPJEP@?$AAr?$AAe?$AAa?$AAl?$AAl?$AAo?$AAc?$AAa?$AAt?$AAi?$AAo?$AAn?$AA_?$AAi?$AAs@ 000000014003fad0     libucrtd:debug_heap.obj
 0002:00002b70       ??_C@_1DM@LNOPKAIJ@?$AA_?$AA_?$AAa?$AAc?$AAr?$AAt?$AA_?$AAl?$AAa?$AAs?$AAt?$AA_?$AAb?$AAl?$AAo@ 000000014003fb70     libucrtd:debug_heap.obj
 0002:00002bb0       ??_C@_1DO@HABCJBHO@?$AA_?$AA_?$AAa?$AAc?$AAr?$AAt?$AA_?$AAf?$AAi?$AAr?$AAs?$AAt?$AA_?$AAb?$AAl@ 000000014003fbb0     libucrtd:debug_heap.obj
 0002:00002bf0       ??_C@_1CC@CKEAHJPH@?$AAb?$AAl?$AAo?$AAc?$AAk?$AA?5?$AA?$CB?$AA?$DN?$AA?5?$AAn?$AAu?$AAl?$AAl?$AAp?$AAt@ 000000014003fbf0     libucrtd:debug_heap.obj
 0002:00002c20       ??_C@_0EJ@HEIBCIMJ@The?5Block?5at?50x?$CFp?5was?5allocated@ 000000014003fc20     libucrtd:debug_heap.obj
 0002:00002c70       ??_C@_0BL@KEIPLFAC@Client?5hook?5free?5failure?4?6@ 000000014003fc70     libucrtd:debug_heap.obj
 0002:00002c90       ??_C@_1FA@KDNEBILF@?$AAi?$AAs?$AA_?$AAb?$AAl?$AAo?$AAc?$AAk?$AA_?$AAt?$AAy?$AAp?$AAe?$AA_?$AAv@ 000000014003fc90     libucrtd:debug_heap.obj
 0002:00002ce0       ??_C@_0KI@JGFOHMEB@HEAP?5CORRUPTION?5DETECTED?3?5befor@ 000000014003fce0     libucrtd:debug_heap.obj
 0002:00002d90       ??_C@_0IK@PJCGLBOB@HEAP?5CORRUPTION?5DETECTED?3?5befor@ 000000014003fd90     libucrtd:debug_heap.obj
 0002:00002e20       ??_C@_0KE@MBMNHHHN@HEAP?5CORRUPTION?5DETECTED?3?5after@ 000000014003fe20     libucrtd:debug_heap.obj
 0002:00002ed0       ??_C@_0IG@LEMBDCJK@HEAP?5CORRUPTION?5DETECTED?3?5after@ 000000014003fed0     libucrtd:debug_heap.obj
 0002:00002f60       ??_C@_1OK@GFEOEJAF@?$AAh?$AAe?$AAa?$AAd?$AAe?$AAr?$AA?9?$AA?$DO?$AA_?$AAl?$AAi?$AAn?$AAe?$AA_?$AAn@ 000000014003ff60     libucrtd:debug_heap.obj
 0002:00003050       ??_C@_1ME@GFALMLNA@?$AAh?$AAe?$AAa?$AAd?$AAe?$AAr?$AA?9?$AA?$DO?$AA_?$AAb?$AAl?$AAo?$AAc?$AAk?$AA_@ 0000000140040050     libucrtd:debug_heap.obj
 0002:00003118       ??_C@_1DI@ILNOPEPI@?$AA_?$AA_?$AAa?$AAc?$AAr?$AAt?$AA_?$AAl?$AAa?$AAs?$AAt?$AA_?$AAb?$AAl?$AAo@ 0000000140040118     libucrtd:debug_heap.obj
 0002:00003150       ??_C@_1DK@KEHFGDIJ@?$AA_?$AA_?$AAa?$AAc?$AAr?$AAt?$AA_?$AAf?$AAi?$AAr?$AAs?$AAt?$AA_?$AAb?$AAl@ 0000000140040150     libucrtd:debug_heap.obj
 0002:00003190       ??_C@_1BG@MBKOGDLD@?$AA_?$AAm?$AAs?$AAi?$AAz?$AAe?$AA_?$AAd?$AAb?$AAg@ 0000000140040190     libucrtd:debug_heap.obj
 0002:000031a8       ??_C@_07OHKEFPKJ@DAMAGED@  00000001400401a8     libucrtd:debug_heap.obj
 0002:000031b0       ??_C@_0KA@IHNJJKPL@HEAP?5CORRUPTION?5DETECTED?3?5on?5to@ 00000001400401b0     libucrtd:debug_heap.obj
 0002:00003250       ??_C@_0IC@BBJIOOJH@HEAP?5CORRUPTION?5DETECTED?3?5on?5to@ 0000000140040250     libucrtd:debug_heap.obj
 0002:000032e0       ??_C@_0EG@DGJMPDBH@?$CFhs?5located?5at?50x?$CFp?5is?5?$CFIu?5byte@ 00000001400402e0     libucrtd:debug_heap.obj
 0002:00003328       ??_C@_0CI@JMLBEDHJ@?$CFhs?5located?5at?50x?$CFp?5is?5?$CFIu?5byte@ 0000000140040328     libucrtd:debug_heap.obj
 0002:00003350       ??_C@_0EG@GPFHANHO@Cycle?5in?5block?5list?5detected?5wh@ 0000000140040350     libucrtd:debug_heap.obj
 0002:00003398       ??_C@_0BJ@ELMAOCAJ@Heap?5validation?5failed?4?6@ 0000000140040398     libucrtd:debug_heap.obj
 0002:000033c0       ??_C@_1IE@BBIFDGEB@?$AAn?$AAe?$AAw?$AA_?$AAb?$AAi?$AAt?$AAs?$AA?5?$AA?$DN?$AA?$DN?$AA?5?$AA_?$AAC?$AAR@ 00000001400403c0     libucrtd:debug_heap.obj
 0002:00003448       ??_C@_1BO@GJFDNMNF@?$AA_?$AAC?$AAr?$AAt?$AAS?$AAe?$AAt?$AAD?$AAb?$AAg?$AAF?$AAl?$AAa?$AAg@ 0000000140040448     libucrtd:debug_heap.obj
 0002:00003468       ??_C@_1CC@BBKMONGA@?$AAs?$AAt?$AAa?$AAt?$AAe?$AA?5?$AA?$CB?$AA?$DN?$AA?5?$AAn?$AAu?$AAl?$AAl?$AAp?$AAt@ 0000000140040468     libucrtd:debug_heap.obj
 0002:00003490       ??_C@_1CE@NJJKELF@?$AA_?$AAC?$AAr?$AAt?$AAM?$AAe?$AAm?$AAC?$AAh?$AAe?$AAc?$AAk?$AAp?$AAo?$AAi@ 0000000140040490     libucrtd:debug_heap.obj
 0002:000034b8       ??_C@_0DP@LEFMFBOD@Bad?5memory?5block?5found?5at?50x?$CFp?4@ 00000001400404b8     libucrtd:debug_heap.obj
 0002:000034f8       ??_C@_0CB@EAAIGELO@Bad?5memory?5block?5found?5at?50x?$CFp?4@ 00000001400404f8     libucrtd:debug_heap.obj
 0002:0000351c       ??_C@_05MKKEDADM@?$CF?42X?5@ 000000014004051c     libucrtd:debug_heap.obj
 0002:00003528       ??_C@_1CC@DIJAHFFJ@?$AAp?$AAr?$AAi?$AAn?$AAt?$AA_?$AAb?$AAl?$AAo?$AAc?$AAk?$AA_?$AAd?$AAa?$AAt@ 0000000140040528     libucrtd:debug_heap.obj
 0002:00003550       ??_C@_1BI@KALLJECN@?$AA?$CI?$AA?$CK?$AA_?$AAe?$AAr?$AAr?$AAn?$AAo?$AA?$CI?$AA?$CJ?$AA?$CJ@ 0000000140040550     libucrtd:debug_heap.obj
 0002:00003568       ??_C@_0BA@HJBKCELP@?5Data?3?5?$DM?$CFs?$DO?5?$CFs?6@ 0000000140040568     libucrtd:debug_heap.obj
 0002:00003578       ??_C@_0BE@KCIPKCIA@Dumping?5objects?5?9?$DO?6@ 0000000140040578     libucrtd:debug_heap.obj
 0002:00003590       ??_C@_0BE@OIEFNFL@?$CDFile?5Error?$CD?$CI?$CFd?$CJ?5?3?5@ 0000000140040590     libucrtd:debug_heap.obj
 0002:000035a8       ??_C@_0L@JMEFFCCJ@?$CFhs?$CI?$CFd?$CJ?5?3?5@ 00000001400405a8     libucrtd:debug_heap.obj
 0002:000035b4       ??_C@_06PKLGBFGM@?$HL?$CFld?$HN?5@ 00000001400405b4     libucrtd:debug_heap.obj
 0002:000035c0       ??_C@_0DD@GHNAAKBB@client?5block?5at?50x?$CFp?0?5subtype?5?$CF@ 00000001400405c0     libucrtd:debug_heap.obj
 0002:000035f8       ??_C@_0CH@FAGDDGPN@normal?5block?5at?50x?$CFp?0?5?$CFIu?5bytes@ 00000001400405f8     libucrtd:debug_heap.obj
 0002:00003620       ??_C@_0DA@MDLBNIBM@crt?5block?5at?50x?$CFp?0?5subtype?5?$CFx?0?5@ 0000000140040620     libucrtd:debug_heap.obj
 0002:00003650       ??_C@_0BH@GFGKJDCO@Object?5dump?5complete?4?6@ 0000000140040650     libucrtd:debug_heap.obj
 0002:00003668       ??_C@_0BI@JBFPOEJA@Detected?5memory?5leaks?$CB?6@ 0000000140040668     libucrtd:debug_heap.obj
 0002:00003680       ??_C@_1GI@BBAEIKL@?$AA?$CI?$AA?$CI?$AAd?$AAe?$AAs?$AAt?$AAi?$AAn?$AAa?$AAt?$AAi?$AAo?$AAn?$AA?$CJ?$AA?$CJ@ 0000000140040680     libucrtd:strcpy_s.obj
 0002:000036f0       ??_C@_1HI@PBJPCEBC@?$AAm?$AAi?$AAn?$AAk?$AAe?$AAr?$AAn?$AAe?$AAl?$AA?2?$AAc?$AAr?$AAt?$AAs?$AA?2@ 00000001400406f0     libucrtd:strcpy_s.obj
 0002:00003768       ??_C@_1CA@FHIAGDFH@?$AAc?$AAo?$AAm?$AAm?$AAo?$AAn?$AA_?$AAt?$AAc?$AAs?$AAc?$AAp?$AAy?$AA_?$AAs@ 0000000140040768     libucrtd:strcpy_s.obj
 0002:00003788       ??_C@_1CK@EIOKGPJL@?$AA?$CI?$AA?$CI?$AA?$CI?$AAs?$AAo?$AAu?$AAr?$AAc?$AAe?$AA?$CJ?$AA?$CJ?$AA?$CJ?$AA?5?$AA?$CB?$AA?$DN@ 0000000140040788     libucrtd:strcpy_s.obj
 0002:000037b8       ??_C@_1CI@HCPHDDLE@?$AAB?$AAu?$AAf?$AAf?$AAe?$AAr?$AA?5?$AAi?$AAs?$AA?5?$AAt?$AAo?$AAo?$AA?5?$AAs@ 00000001400407b8     libucrtd:strcpy_s.obj
 0002:000037e0       ??_C@_1DM@MADKGDLO@?$AA?$CI?$AAL?$AA?$CC?$AAB?$AAu?$AAf?$AAf?$AAe?$AAr?$AA?5?$AAi?$AAs?$AA?5?$AAt?$AAo@ 00000001400407e0     libucrtd:strcpy_s.obj
 0002:00003820       ??_C@_1DA@LLLMNMKI@?$AAa?$AAb?$AAo?$AAr?$AAt?$AA?$CI?$AA?$CJ?$AA?5?$AAh?$AAa?$AAs?$AA?5?$AAb?$AAe?$AAe@ 0000000140040820     libucrtd:abort.obj
 0002:00003850       ?format_validation_lookup_table_spectre@__crt_stdio_output@@3V?$spectre_mitigated_lookup_table@Ustate_transition_pair@__crt_stdio_output@@$0IA@@1@B 0000000140040850     libucrtd:output.obj
 0002:00003c50       ??_C@_1GA@MOBAPGIO@?$AAm?$AAi?$AAn?$AAk?$AAe?$AAr?$AAn?$AAe?$AAl?$AA?2?$AAc?$AAr?$AAt?$AAs?$AA?2@ 0000000140040c50     libucrtd:output.obj
 0002:00003cb0       ??_C@_1CE@EAKLPBKK@?$AAf?$AAo?$AAr?$AAm?$AAa?$AAt?$AA?5?$AA?$CB?$AA?$DN?$AA?5?$AAn?$AAu?$AAl?$AAl?$AAp@ 0000000140040cb0     libucrtd:output.obj
 0002:00003cd8       ??_C@_1CA@PIMGHCEK@?$AAc?$AAo?$AAm?$AAm?$AAo?$AAn?$AA_?$AAv?$AAs?$AAp?$AAr?$AAi?$AAn?$AAt?$AAf@ 0000000140040cd8     libucrtd:output.obj
 0002:00003d00       ??_C@_1EO@EGEEFEFM@?$AAb?$AAu?$AAf?$AAf?$AAe?$AAr?$AA_?$AAc?$AAo?$AAu?$AAn?$AAt?$AA?5?$AA?$DN?$AA?$DN@ 0000000140040d00     libucrtd:output.obj
 0002:00003d50       ??_C@_1CE@JEILLNB@?$AAc?$AAo?$AAm?$AAm?$AAo?$AAn?$AA_?$AAv?$AAs?$AAp?$AAr?$AAi?$AAn?$AAt?$AAf@ 0000000140040d50     libucrtd:output.obj
 0002:00003d80       ??_C@_1EM@OAFHAOLH@?$AAb?$AAu?$AAf?$AAf?$AAe?$AAr?$AA?5?$AA?$CB?$AA?$DN?$AA?5?$AAn?$AAu?$AAl?$AAl?$AAp@ 0000000140040d80     libucrtd:output.obj
 0002:00003dd0       ??_C@_1DA@HPBFKMEB@?$AA?$CI?$AA?$CC?$AAB?$AAu?$AAf?$AAf?$AAe?$AAr?$AA?5?$AAt?$AAo?$AAo?$AA?5?$AAs?$AAm@ 0000000140040dd0     libucrtd:output.obj
 0002:00003e00       ??_C@_1CG@LHFJHFBB@?$AAc?$AAo?$AAm?$AAm?$AAo?$AAn?$AA_?$AAv?$AAs?$AAn?$AAp?$AAr?$AAi?$AAn?$AAt@ 0000000140040e00     libucrtd:output.obj
 0002:00003e28       ??_C@_1CM@JOIJBMEM@?$AA_?$AAf?$AAo?$AAr?$AAm?$AAa?$AAt?$AA_?$AAi?$AAt?$AA?5?$AA?$CB?$AA?$DN?$AA?5?$AAn@ 0000000140040e28     libucrtd:output.obj
 0002:00003e60       ??_C@_1HA@DMAAKIJP@?$AAm?$AAi?$AAn?$AAk?$AAe?$AAr?$AAn?$AAe?$AAl?$AA?2?$AAc?$AAr?$AAt?$AAs?$AA?2@ 0000000140040e60     libucrtd:output.obj
 0002:00003ed0       ??_C@_1EE@DMAIGNBG@?$AA?$CI?$AA?$CC?$AAI?$AAn?$AAc?$AAo?$AAr?$AAr?$AAe?$AAc?$AAt?$AA?5?$AAf?$AAo?$AAr@ 0000000140040ed0     libucrtd:output.obj
 0002:00003f20       ??_C@_1FG@OBJBDPAC@?$AA?$CI?$AA?$CC?$AAN?$AA?5?$AAl?$AAe?$AAn?$AAg?$AAt?$AAh?$AA?5?$AAm?$AAo?$AAd?$AAi@ 0000000140040f20     libucrtd:output.obj
 0002:00003f80       ??_C@_1EC@GJPNJDCN@?$AA_?$AAl?$AAe?$AAn?$AAg?$AAt?$AAh?$AA?5?$AA?$DN?$AA?$DN?$AA?5?$AAl?$AAe?$AAn?$AAg@ 0000000140040f80     libucrtd:output.obj
 0002:00003fc8       ??_C@_1DG@CEJKFDMO@?$AAs?$AAt?$AAa?$AAt?$AAe?$AA_?$AAc?$AAa?$AAs?$AAe?$AA_?$AAn?$AAo?$AAr?$AAm@ 0000000140040fc8     libucrtd:output.obj
 0002:00004000       ??_C@_1CI@DDKMNCPP@?$AA_?$AAc?$AAo?$AAn?$AAt?$AAe?$AAx?$AAt?$AA?5?$AA?$CB?$AA?$DN?$AA?5?$AAn?$AAu?$AAl@ 0000000140041000     libucrtd:output.obj
 0002:00004030       ??_C@_1HK@IIPGOADH@?$AA_?$AA_?$AAc?$AAr?$AAt?$AA_?$AAs?$AAt?$AAd?$AAi?$AAo?$AA_?$AAo?$AAu?$AAt@ 0000000140041030     libucrtd:output.obj
 0002:000040b0       ??_C@_1HE@IACOMEJF@?$AA_?$AA_?$AAc?$AAr?$AAt?$AA_?$AAs?$AAt?$AAd?$AAi?$AAo?$AA_?$AAo?$AAu?$AAt@ 00000001400410b0     libucrtd:output.obj
 0002:00004130       ??_C@_1GC@BNMHNGKM@?$AA_?$AAs?$AAt?$AAa?$AAt?$AAe?$AA?5?$AA?$DN?$AA?$DN?$AA?5?$AAs?$AAt?$AAa?$AAt?$AAe@ 0000000140041130     libucrtd:output.obj
 0002:000041a0       ??_C@_1BEC@NDOOKIMC@?$AA_?$AA_?$AAc?$AAr?$AAt?$AA_?$AAs?$AAt?$AAd?$AAi?$AAo?$AA_?$AAo?$AAu?$AAt@ 00000001400411a0     libucrtd:output.obj
 0002:000042f0       ??_C@_1EK@PNGFDECN@?$AA?$CI?$AA?$CC?$AA?8?$AAn?$AA?8?$AA?5?$AAf?$AAo?$AAr?$AAm?$AAa?$AAt?$AA?5?$AAs?$AAp@ 00000001400412f0     libucrtd:output.obj
 0002:00004340       ??_C@_1EO@GHKFGFKL@?$AA?$CI?$AA?$CC?$AAI?$AAn?$AAv?$AAa?$AAl?$AAi?$AAd?$AA?5?$AAi?$AAn?$AAt?$AAe?$AAg@ 0000000140041340     libucrtd:output.obj
 0002:00004390       ??_C@_1BDG@KOLEFKPF@?$AA_?$AA_?$AAc?$AAr?$AAt?$AA_?$AAs?$AAt?$AAd?$AAi?$AAo?$AA_?$AAo?$AAu?$AAt@ 0000000140041390     libucrtd:output.obj
 0002:000044c8       ??_C@_1O@CEDCILHN@?$AA?$CI?$AAn?$AAu?$AAl?$AAl?$AA?$CJ@ 00000001400414c8     libucrtd:output.obj
 0002:000044d8       ??_C@_06OJHGLDPL@?$CInull?$CJ@ 00000001400414d8     libucrtd:output.obj
 0002:000044e0       ??_C@_1CK@LGDCECDH@?$AA_?$AAf?$AAo?$AAr?$AAm?$AAa?$AAt?$AA_?$AAc?$AAh?$AAa?$AAr?$AA?5?$AA?$CB?$AA?$DN@ 00000001400414e0     libucrtd:output.obj
 0002:00004510       ??_C@_0DI@KIFBHMNO@minkernel?2crts?2ucrt?2inc?2corecrt@ 0000000140041510     libucrtd:output.obj
 0002:00004550       ??_C@_1BMK@JGIBNIA@?$AA_?$AA_?$AAc?$AAr?$AAt?$AA_?$AAs?$AAt?$AAd?$AAi?$AAo?$AA_?$AAo?$AAu?$AAt@ 0000000140041550     libucrtd:output.obj
 0002:00004720       ??_C@_1BLC@INKIGOCN@?$AA_?$AA_?$AAc?$AAr?$AAt?$AA_?$AAs?$AAt?$AAd?$AAi?$AAo?$AA_?$AAo?$AAu?$AAt@ 0000000140041720     libucrtd:output.obj
 0002:000048e0       ??_C@_1BNK@KHNJGCCP@?$AA_?$AA_?$AAc?$AAr?$AAt?$AA_?$AAs?$AAt?$AAd?$AAi?$AAo?$AA_?$AAo?$AAu?$AAt@ 00000001400418e0     libucrtd:output.obj
 0002:00004ac0       ??_C@_1BNO@OHFFMOOJ@?$AA_?$AA_?$AAc?$AAr?$AAt?$AA_?$AAs?$AAt?$AAd?$AAi?$AAo?$AA_?$AAo?$AAu?$AAt@ 0000000140041ac0     libucrtd:output.obj
 0002:00004ca0       ??_C@_1BMC@FAGJFBLI@?$AA_?$AA_?$AAc?$AAr?$AAt?$AA_?$AAs?$AAt?$AAd?$AAi?$AAo?$AA_?$AAo?$AAu?$AAt@ 0000000140041ca0     libucrtd:output.obj
 0002:00004e70       ??_C@_1BMG@CGPDIFDK@?$AA_?$AA_?$AAc?$AAr?$AAt?$AA_?$AAs?$AAt?$AAd?$AAi?$AAo?$AA_?$AAo?$AAu?$AAt@ 0000000140041e70     libucrtd:output.obj
 0002:00005040       ??_C@_1BNC@OHPDPPJK@?$AA_?$AA_?$AAc?$AAr?$AAt?$AA_?$AAs?$AAt?$AAd?$AAi?$AAo?$AA_?$AAo?$AAu?$AAt@ 0000000140042040     libucrtd:output.obj
 0002:00005220       ??_C@_1BLK@FOLFMPJH@?$AA_?$AA_?$AAc?$AAr?$AAt?$AA_?$AAs?$AAt?$AAd?$AAi?$AAo?$AA_?$AAo?$AAu?$AAt@ 0000000140042220     libucrtd:output.obj
 0002:000053e0       ??_C@_1BNO@NAODCKFA@?$AA_?$AA_?$AAc?$AAr?$AAt?$AA_?$AAs?$AAt?$AAd?$AAi?$AAo?$AA_?$AAo?$AAu?$AAt@ 00000001400423e0     libucrtd:output.obj
 0002:000055c0       ??_C@_1BMG@BBEFGBID@?$AA_?$AA_?$AAc?$AAr?$AAt?$AA_?$AAs?$AAt?$AAd?$AAi?$AAo?$AA_?$AAo?$AAu?$AAt@ 00000001400425c0     libucrtd:output.obj
 0002:00005790       ??_C@_1BNC@JPKLPOHO@?$AA_?$AA_?$AAc?$AAr?$AAt?$AA_?$AAs?$AAt?$AAd?$AAi?$AAo?$AA_?$AAo?$AAu?$AAt@ 0000000140042790     libucrtd:output.obj
 0002:00005970       ??_C@_1GE@DPGDJKLM@?$AAm?$AAi?$AAn?$AAk?$AAe?$AAr?$AAn?$AAe?$AAl?$AA?2?$AAc?$AAr?$AAt?$AAs?$AA?2@ 0000000140042970     libucrtd:atox.obj
 0002:000059e0       ??_C@_1EO@MLJCKPIB@?$AAb?$AAa?$AAs?$AAe?$AA?5?$AA?$DN?$AA?$DN?$AA?5?$AA0?$AA?5?$AA?$HM?$AA?$HM?$AA?5?$AA?$CI?$AA2@ 00000001400429e0     libucrtd:atox.obj
 0002:00005a30       ??_C@_1DI@BANODKFL@?$AA_?$AA_?$AAc?$AAr?$AAt?$AA_?$AAs?$AAt?$AAr?$AAt?$AAo?$AAx?$AA?3?$AA?3?$AAp@ 0000000140042a30     libucrtd:atox.obj
 0002:00005a68       ??_C@_1CM@GJENOOEJ@?$AAc?$AA?5?$AA?$DN?$AA?$DN?$AA?5?$AA?8?$AA?2?$AA0?$AA?8?$AA?5?$AA?$HM?$AA?$HM?$AA?5?$AA?$CK?$AA_@ 0000000140042a68     libucrtd:atox.obj
 0002:00005aa0       ??_C@_1HA@CONLANFI@?$AA_?$AA_?$AAc?$AAr?$AAt?$AA_?$AAs?$AAt?$AAr?$AAt?$AAo?$AAx?$AA?3?$AA?3?$AAc@ 0000000140042aa0     libucrtd:atox.obj
 0002:00005b10       ??_C@_1BM@PNEBBBDO@?$AA_?$AAp?$AA?5?$AA?$CB?$AA?$DN?$AA?5?$AAn?$AAu?$AAl?$AAl?$AAp?$AAt?$AAr@ 0000000140042b10     libucrtd:atox.obj
 0002:00005b30       ??_C@_1HG@FCDBLOEG@?$AA_?$AA_?$AAc?$AAr?$AAt?$AA_?$AAs?$AAt?$AAr?$AAt?$AAo?$AAx?$AA?3?$AA?3?$AAc@ 0000000140042b30     libucrtd:atox.obj
 0002:00005bb0       ??_C@_1GK@MNHIDABG@?$AA_?$AA_?$AAc?$AAr?$AAt?$AA_?$AAs?$AAt?$AAr?$AAt?$AAo?$AAx?$AA?3?$AA?3?$AAc@ 0000000140042bb0     libucrtd:atox.obj
 0002:00005c20       ??_C@_1HA@MKKIHBHP@?$AA_?$AA_?$AAc?$AAr?$AAt?$AA_?$AAs?$AAt?$AAr?$AAt?$AAo?$AAx?$AA?3?$AA?3?$AAc@ 0000000140042c20     libucrtd:atox.obj
 0002:00005ca8       ??_C@_1BA@GLMCNLEM@?$AAW?$AAa?$AAr?$AAn?$AAi?$AAn?$AAg@ 0000000140042ca8     libucrtd:dbgrpt.obj
 0002:00005cb8       ??_C@_1M@ILHOPKA@?$AAE?$AAr?$AAr?$AAo?$AAr@ 0000000140042cb8     libucrtd:dbgrpt.obj
 0002:00005cc8       ??_C@_1CC@CGHMNGDG@?$AAA?$AAs?$AAs?$AAe?$AAr?$AAt?$AAi?$AAo?$AAn?$AA?5?$AAF?$AAa?$AAi?$AAl?$AAe@ 0000000140042cc8     libucrtd:dbgrpt.obj
 0002:00005d00       ??_C@_1OG@PMPPFHAF@?$AA?6?$AA?6?$AAF?$AAo?$AAr?$AA?5?$AAi?$AAn?$AAf?$AAo?$AAr?$AAm?$AAa?$AAt?$AAi@ 0000000140042d00     libucrtd:dbgrpt.obj
 0002:00005df0       ??_C@_1MG@LJLILFFD@?$AAD?$AAe?$AAb?$AAu?$AAg?$AA?5?$AA?$CF?$AAl?$AAs?$AA?$CB?$AA?6?$AA?6?$AAP?$AAr?$AAo@ 0000000140042df0     libucrtd:dbgrpt.obj
 0002:00005ec0       ??_C@_1MG@OODCADGL@?$AAD?$AAe?$AAb?$AAu?$AAg?$AA?5?$AA?$CF?$AAl?$AAs?$AA?$CB?$AA?6?$AA?6?$AAP?$AAr?$AAo@ 0000000140042ec0     libucrtd:dbgrpt.obj
 0002:00005f88       ??_C@_0BH@DNAGHKFM@?$DMprogram?5name?5unknown?$DO@ 0000000140042f88     libucrtd:dbgrpt.obj
 0002:00005fa0       ??_C@_1FO@GMJDLAJD@?$AAm?$AAi?$AAn?$AAk?$AAe?$AAr?$AAn?$AAe?$AAl?$AA?2?$AAc?$AAr?$AAt?$AAs?$AA?2@ 0000000140042fa0     libucrtd:dbgrpt.obj
 0002:00006000       ??_C@_1CM@EHMOGBJJ@?$AAc?$AAo?$AAm?$AAm?$AAo?$AAn?$AA_?$AAm?$AAe?$AAs?$AAs?$AAa?$AAg?$AAe?$AA_@ 0000000140043000     libucrtd:dbgrpt.obj
 0002:00006030       ??_C@_1PE@ECNALGCA@?$AAt?$AAr?$AAa?$AAi?$AAt?$AAs?$AA?3?$AA?3?$AAt?$AAc?$AAs?$AAc?$AAp?$AAy?$AA_@ 0000000140043030     libucrtd:dbgrpt.obj
 0002:00006124       ??_C@_11LOCGONAA@@         0000000140043124     libucrtd:dbgrpt.obj
 0002:00006128       ??_C@_1BK@PEDCIPMA@?$AAE?$AAx?$AAp?$AAr?$AAe?$AAs?$AAs?$AAi?$AAo?$AAn?$AA?3?$AA?5@ 0000000140043128     libucrtd:dbgrpt.obj
 0002:00006148       ??_C@_1BA@GLLGCPCK@?$AA?6?$AAL?$AAi?$AAn?$AAe?$AA?3?$AA?5@ 0000000140043148     libucrtd:dbgrpt.obj
 0002:00006158       ??_C@_1BA@LNHECFIM@?$AA?6?$AAF?$AAi?$AAl?$AAe?$AA?3?$AA?5@ 0000000140043158     libucrtd:dbgrpt.obj
 0002:00006168       ??_C@_1BE@CGCJKGHI@?$AA?6?$AAM?$AAo?$AAd?$AAu?$AAl?$AAe?$AA?3?$AA?5@ 0000000140043168     libucrtd:dbgrpt.obj
 0002:00006180       ??_C@_1JM@IBOIJEOO@?$AAw?$AAc?$AAs?$AAc?$AAp?$AAy?$AA_?$AAs?$AA?$CI?$AAm?$AAe?$AAs?$AAs?$AAa?$AAg@ 0000000140043180     libucrtd:dbgrpt.obj
 0002:00006220       ??_C@_1FG@BBOLDHGF@?$AA_?$AAC?$AAr?$AAt?$AAD?$AAb?$AAg?$AAR?$AAe?$AAp?$AAo?$AAr?$AAt?$AA?3?$AA?5@ 0000000140043220     libucrtd:dbgrpt.obj
 0002:00006280       ??_C@_0DM@DKIFNNOL@minkernel?2crts?2ucrt?2src?2appcrt?2@ 0000000140043280     libucrtd:per_thread_data.obj
 0002:000062c0       ??_C@_1DE@BCNCAIK@?$AA?$CI?$AA?$CC?$AAI?$AAn?$AAv?$AAa?$AAl?$AAi?$AAd?$AA?5?$AAe?$AAr?$AAr?$AAo?$AAr@ 00000001400432c0     libucrtd:set_error_mode.obj
 0002:00006300       ??_C@_1GO@EBFPMMIJ@?$AAm?$AAi?$AAn?$AAk?$AAe?$AAr?$AAn?$AAe?$AAl?$AA?2?$AAc?$AAr?$AAt?$AAs?$AA?2@ 0000000140043300     libucrtd:set_error_mode.obj
 0002:00006370       ??_C@_1CA@LFDHAMEM@?$AA_?$AAs?$AAe?$AAt?$AA_?$AAe?$AAr?$AAr?$AAo?$AAr?$AA_?$AAm?$AAo?$AAd?$AAe@ 0000000140043370     libucrtd:set_error_mode.obj
 0002:00006390       ??_C@_1CA@EOJJMFA@?$AAc?$AAo?$AAm?$AAm?$AAo?$AAn?$AA_?$AAt?$AAc?$AAs?$AAc?$AAa?$AAt?$AA_?$AAs@ 0000000140043390     libucrtd:wcscat_s.obj
 0002:000063b0       ??_C@_1DM@FHLMIEG@?$AAS?$AAt?$AAr?$AAi?$AAn?$AAg?$AA?5?$AAi?$AAs?$AA?5?$AAn?$AAo?$AAt?$AA?5?$AAn@ 00000001400433b0     libucrtd:wcscat_s.obj
 0002:000063f0       ??_C@_1FA@MJKDNFFB@?$AA?$CI?$AAL?$AA?$CC?$AAS?$AAt?$AAr?$AAi?$AAn?$AAg?$AA?5?$AAi?$AAs?$AA?5?$AAn?$AAo@ 00000001400433f0     libucrtd:wcscat_s.obj
 0002:00006440       ??_C@_1CC@CHNFGJIC@?$AAc?$AAo?$AAm?$AAm?$AAo?$AAn?$AA_?$AAt?$AAc?$AAs?$AAn?$AAc?$AAp?$AAy?$AA_@ 0000000140043440     libucrtd:wcsncpy_s.obj
 0002:000065d8       ??_C@_1CE@JMFACANE@?$AAr?$AAe?$AAs?$AAu?$AAl?$AAt?$AA?5?$AA?$CB?$AA?$DN?$AA?5?$AAn?$AAu?$AAl?$AAl?$AAp@ 00000001400435d8     libucrtd:errno.obj
 0002:00006628       ??_C@_0DI@DNFGFCIK@minkernel?2crts?2ucrt?2inc?2corecrt@ 0000000140043628     libucrtd:argv_wildcards.obj
 0002:00006660       ??_C@_1HE@CEMHPOHH@?$AAm?$AAi?$AAn?$AAk?$AAe?$AAr?$AAn?$AAe?$AAl?$AA?2?$AAc?$AAr?$AAt?$AAs?$AA?2@ 0000000140043660     libucrtd:argv_wildcards.obj
 0002:000066d8       ??_C@_1DK@IBFFOJGB@?$AAc?$AAo?$AAm?$AAm?$AAo?$AAn?$AA_?$AAe?$AAx?$AAp?$AAa?$AAn?$AAd?$AA_?$AAa@ 00000001400436d8     libucrtd:argv_wildcards.obj
 0002:00006720       ??_C@_1MC@FLPKOFON@?$AAt?$AAr?$AAa?$AAi?$AAt?$AAs?$AA?3?$AA?3?$AAt?$AAc?$AAs?$AAn?$AAc?$AAp?$AAy@ 0000000140043720     libucrtd:argv_wildcards.obj
 0002:000067e8       ??_C@_0DK@FPFMIIJB@minkernel?2crts?2ucrt?2src?2appcrt?2@ 00000001400437e8     libucrtd:argv_wildcards.obj
 0002:00006830       ??_C@_1EA@KOCCBLAD@?$AAc?$AAo?$AAp?$AAy?$AA_?$AAa?$AAn?$AAd?$AA_?$AAa?$AAd?$AAd?$AA_?$AAa?$AAr@ 0000000140043830     libucrtd:argv_wildcards.obj
 0002:00006870       ??_C@_1KM@GDJIGAGL@?$AAt?$AAr?$AAa?$AAi?$AAt?$AAs?$AA?3?$AA?3?$AAt?$AAc?$AAs?$AAn?$AAc?$AAp?$AAy@ 0000000140043870     libucrtd:argv_wildcards.obj
 0002:00006920       ??_C@_1PI@FGFLAGCC@?$AAt?$AAr?$AAa?$AAi?$AAt?$AAs?$AA?3?$AA?3?$AAt?$AAc?$AAs?$AAn?$AAc?$AAp?$AAy@ 0000000140043920     libucrtd:argv_wildcards.obj
 0002:00006a60       ??_C@_1M@HPNHIDJI@?$AAj?$AAa?$AA?9?$AAJ?$AAP@ 0000000140043a60     libucrtd:mbctype.obj
 0002:00006a70       ??_C@_1M@BIBDDEMK@?$AAz?$AAh?$AA?9?$AAC?$AAN@ 0000000140043a70     libucrtd:mbctype.obj
 0002:00006a80       ??_C@_1M@JLOOOEGK@?$AAk?$AAo?$AA?9?$AAK?$AAR@ 0000000140043a80     libucrtd:mbctype.obj
 0002:00006a90       ??_C@_1M@CLNBBOPM@?$AAz?$AAh?$AA?9?$AAT?$AAW@ 0000000140043a90     libucrtd:mbctype.obj
 0002:00006aa0       ??_C@_0DE@HGDKNBFD@minkernel?2crts?2ucrt?2src?2appcrt?2@ 0000000140043aa0     libucrtd:mbctype.obj
 0002:00006ae0       ??_C@_0ED@BLPEHJAI@minkernel?2crts?2ucrt?2src?2desktop@ 0000000140043ae0     libucrtd:get_environment_from_os.obj
 0002:00006b30       ??_C@_1FO@NMANMHOD@?$AAc?$AAa?$AAc?$AAh?$AAe?$AAd?$AA_?$AAs?$AAt?$AAa?$AAt?$AAe?$AA?5?$AA?$DN?$AA?$DN@ 0000000140043b30     libucrtd:win_policies.obj
 0002:00006b90       ??_C@_1HC@GHLNKBJK@?$AAm?$AAi?$AAn?$AAk?$AAe?$AAr?$AAn?$AAe?$AAl?$AA?2?$AAc?$AAr?$AAt?$AAs?$AA?2@ 0000000140043b90     libucrtd:win_policies.obj
 0002:00006c08       ??_C@_0DB@JFFPGLDM@minkernel?2crts?2ucrt?2src?2appcrt?2@ 0000000140043c08     libucrtd:osfinfo.obj
 0002:00006c40       ??_C@_1EM@BPODPNEJ@?$AAs?$AAt?$AAa?$AAt?$AAi?$AAc?$AA_?$AAc?$AAa?$AAs?$AAt?$AA?$DM?$AAu?$AAn?$AAs@ 0000000140043c40     libucrtd:osfinfo.obj
 0002:00006c90       ??_C@_1GC@LDGKBAFM@?$AAm?$AAi?$AAn?$AAk?$AAe?$AAr?$AAn?$AAe?$AAl?$AA?2?$AAc?$AAr?$AAt?$AAs?$AA?2@ 0000000140043c90     libucrtd:osfinfo.obj
 0002:00006cf8       ??_C@_1DM@JELNOMLN@?$AA_?$AA_?$AAa?$AAc?$AAr?$AAt?$AA_?$AAl?$AAo?$AAw?$AAi?$AAo?$AA_?$AAe?$AAn@ 0000000140043cf8     libucrtd:osfinfo.obj
 0002:00006d40       ??_C@_1FK@MGHFJLAL@?$AAf?$AAh?$AA?5?$AA?$DO?$AA?$DN?$AA?5?$AA0?$AA?5?$AA?$CG?$AA?$CG?$AA?5?$AA?$CI?$AAu?$AAn?$AAs@ 0000000140043d40     libucrtd:osfinfo.obj
 0002:00006da0       ??_C@_1BO@EMBOBGKE@?$AA_?$AAg?$AAe?$AAt?$AA_?$AAo?$AAs?$AAf?$AAh?$AAa?$AAn?$AAd?$AAl?$AAe@ 0000000140043da0     libucrtd:osfinfo.obj
 0002:00006dc0       ??_C@_1CI@ILOIOBLM@?$AA_?$AAo?$AAs?$AAf?$AAi?$AAl?$AAe?$AA?$CI?$AAf?$AAh?$AA?$CJ?$AA?5?$AA?$CG?$AA?5?$AAF@ 0000000140043dc0     libucrtd:osfinfo.obj
 0002:00006df0       __lc_time_c                0000000140043df0     libucrtd:nlsdata.obj
 0002:000070b0       ??_C@_03KOEHGMDN@Sun@      00000001400440b0     libucrtd:nlsdata.obj
 0002:000070b4       ??_C@_03PDAGKDH@Mon@       00000001400440b4     libucrtd:nlsdata.obj
 0002:000070b8       ??_C@_03NAGEINEP@Tue@      00000001400440b8     libucrtd:nlsdata.obj
 0002:000070bc       ??_C@_03MHOMLAJA@Wed@      00000001400440bc     libucrtd:nlsdata.obj
 0002:000070c0       ??_C@_03IOFIKPDN@Thu@      00000001400440c0     libucrtd:nlsdata.obj
 0002:000070c4       ??_C@_03IDIOELNC@Fri@      00000001400440c4     libucrtd:nlsdata.obj
 0002:000070c8       ??_C@_03FEFJNEK@Sat@       00000001400440c8     libucrtd:nlsdata.obj
 0002:000070cc       ??_C@_06OOPIFAJ@Sunday@    00000001400440cc     libucrtd:nlsdata.obj
 0002:000070d4       ??_C@_06JLEDEDGH@Monday@   00000001400440d4     libucrtd:nlsdata.obj
 0002:000070e0       ??_C@_07BAAGCFCM@Tuesday@  00000001400440e0     libucrtd:nlsdata.obj
 0002:000070e8       ??_C@_09DLIGFAKA@Wednesday@ 00000001400440e8     libucrtd:nlsdata.obj
 0002:000070f8       ??_C@_08HACCIKIA@Thursday@ 00000001400440f8     libucrtd:nlsdata.obj
 0002:00007104       ??_C@_06JECMNKMI@Friday@   0000000140044104     libucrtd:nlsdata.obj
 0002:00007110       ??_C@_08INBOOONO@Saturday@ 0000000140044110     libucrtd:nlsdata.obj
 0002:0000711c       ??_C@_03JIHJHPIE@Jan@      000000014004411c     libucrtd:nlsdata.obj
 0002:00007120       ??_C@_03HJBDCHOM@Feb@      0000000140044120     libucrtd:nlsdata.obj
 0002:00007124       ??_C@_03ODNJBKGA@Mar@      0000000140044124     libucrtd:nlsdata.obj
 0002:00007128       ??_C@_03LEOLGMJP@Apr@      0000000140044128     libucrtd:nlsdata.obj
 0002:0000712c       ??_C@_03CNMDKL@May@        000000014004412c     libucrtd:nlsdata.obj
 0002:00007130       ??_C@_03IDFGHECI@Jun@      0000000140044130     libucrtd:nlsdata.obj
 0002:00007134       ??_C@_03LBGABGKK@Jul@      0000000140044134     libucrtd:nlsdata.obj
 0002:00007138       ??_C@_03IFJFEIGA@Aug@      0000000140044138     libucrtd:nlsdata.obj
 0002:0000713c       ??_C@_03GGCAPAJC@Sep@      000000014004413c     libucrtd:nlsdata.obj
 0002:00007140       ??_C@_03BMAOKBAD@Oct@      0000000140044140     libucrtd:nlsdata.obj
 0002:00007144       ??_C@_03JPJOFNIA@Nov@      0000000140044144     libucrtd:nlsdata.obj
 0002:00007148       ??_C@_03MKABNOCG@Dec@      0000000140044148     libucrtd:nlsdata.obj
 0002:00007150       ??_C@_07CGJPFGJA@January@  0000000140044150     libucrtd:nlsdata.obj
 0002:00007158       ??_C@_08GNJGEPFN@February@ 0000000140044158     libucrtd:nlsdata.obj
 0002:00007164       ??_C@_05HPCKOFNC@March@    0000000140044164     libucrtd:nlsdata.obj
 0002:0000716c       ??_C@_05DMJDNLEJ@April@    000000014004416c     libucrtd:nlsdata.obj
 0002:00007174       ??_C@_04CNLMGBGM@June@     0000000140044174     libucrtd:nlsdata.obj
 0002:0000717c       ??_C@_04MIEPOIFP@July@     000000014004417c     libucrtd:nlsdata.obj
 0002:00007184       ??_C@_06LBBHFDDG@August@   0000000140044184     libucrtd:nlsdata.obj
 0002:00007190       ??_C@_09BHHEALKD@September@ 0000000140044190     libucrtd:nlsdata.obj
 0002:000071a0       ??_C@_07JJNFCEND@October@  00000001400441a0     libucrtd:nlsdata.obj
 0002:000071a8       ??_C@_08HCHEGEOA@November@ 00000001400441a8     libucrtd:nlsdata.obj
 0002:000071b8       ??_C@_08EDHMEBNP@December@ 00000001400441b8     libucrtd:nlsdata.obj
 0002:000071c4       ??_C@_02DEDBPAFC@AM@       00000001400441c4     libucrtd:nlsdata.obj
 0002:000071c8       ??_C@_02CJNFDJBF@PM@       00000001400441c8     libucrtd:nlsdata.obj
 0002:000071d0       ??_C@_08BPBNCDIB@MM?1dd?1yy@ 00000001400441d0     libucrtd:nlsdata.obj
 0002:000071e0       ??_C@_0BE@CKGJFCPC@dddd?0?5MMMM?5dd?0?5yyyy@ 00000001400441e0     libucrtd:nlsdata.obj
 0002:000071f8       ??_C@_08JCCMCCIL@HH?3mm?3ss@ 00000001400441f8     libucrtd:nlsdata.obj
 0002:00007208       ??_C@_17MBGCMIPB@?$AAS?$AAu?$AAn@ 0000000140044208     libucrtd:nlsdata.obj
 0002:00007210       ??_C@_17KBOMKBF@?$AAM?$AAo?$AAn@ 0000000140044210     libucrtd:nlsdata.obj
 0002:00007218       ??_C@_17BMKGEGOJ@?$AAT?$AAu?$AAe@ 0000000140044218     libucrtd:nlsdata.obj
 0002:00007220       ??_C@_17CJEDCEPE@?$AAW?$AAe?$AAd@ 0000000140044220     libucrtd:nlsdata.obj
 0002:00007228       ??_C@_17PDPHAADD@?$AAT?$AAh?$AAu@ 0000000140044228     libucrtd:nlsdata.obj
 0002:00007230       ??_C@_17HFOLPPLP@?$AAF?$AAr?$AAi@ 0000000140044230     libucrtd:nlsdata.obj
 0002:00007238       ??_C@_17GGIBDPIH@?$AAS?$AAa?$AAt@ 0000000140044238     libucrtd:nlsdata.obj
 0002:00007240       ??_C@_1O@IHNHDHPB@?$AAS?$AAu?$AAn?$AAd?$AAa?$AAy@ 0000000140044240     libucrtd:nlsdata.obj
 0002:00007250       ??_C@_1O@MMNBFLIA@?$AAM?$AAo?$AAn?$AAd?$AAa?$AAy@ 0000000140044250     libucrtd:nlsdata.obj
 0002:00007260       ??_C@_1BA@ENFBFFEK@?$AAT?$AAu?$AAe?$AAs?$AAd?$AAa?$AAy@ 0000000140044260     libucrtd:nlsdata.obj
 0002:00007270       ??_C@_1BE@EBOGMDOH@?$AAW?$AAe?$AAd?$AAn?$AAe?$AAs?$AAd?$AAa?$AAy@ 0000000140044270     libucrtd:nlsdata.obj
 0002:00007288       ??_C@_1BC@HHMNLIHE@?$AAT?$AAh?$AAu?$AAr?$AAs?$AAd?$AAa?$AAy@ 0000000140044288     libucrtd:nlsdata.obj
 0002:000072a0       ??_C@_1O@PDICJHAG@?$AAF?$AAr?$AAi?$AAd?$AAa?$AAy@ 00000001400442a0     libucrtd:nlsdata.obj
 0002:000072b0       ??_C@_1BC@ENMNNPAJ@?$AAS?$AAa?$AAt?$AAu?$AAr?$AAd?$AAa?$AAy@ 00000001400442b0     libucrtd:nlsdata.obj
 0002:000072c8       ??_C@_17DKNBKCHM@?$AAJ?$AAa?$AAn@ 00000001400442c8     libucrtd:nlsdata.obj
 0002:000072d0       ??_C@_17LMDJEKJN@?$AAF?$AAe?$AAb@ 00000001400442d0     libucrtd:nlsdata.obj
 0002:000072d8       ??_C@_17CKNLEDEC@?$AAM?$AAa?$AAr@ 00000001400442d8     libucrtd:nlsdata.obj
 0002:000072e0       ??_C@_17LFPOIHDD@?$AAA?$AAp?$AAr@ 00000001400442e0     libucrtd:nlsdata.obj
 0002:000072e8       ??_C@_17PNNKMEED@?$AAM?$AAa?$AAy@ 00000001400442e8     libucrtd:nlsdata.obj
 0002:000072f0       ??_C@_17KCJGOCPB@?$AAJ?$AAu?$AAn@ 00000001400442f0     libucrtd:nlsdata.obj
 0002:000072f8       ??_C@_17IJPCKHK@?$AAJ?$AAu?$AAl@ 00000001400442f8     libucrtd:nlsdata.obj
 0002:00007300       ??_C@_17ICPELBCN@?$AAA?$AAu?$AAg@ 0000000140044300     libucrtd:nlsdata.obj
 0002:00007308       ??_C@_17HCHCOKMG@?$AAS?$AAe?$AAp@ 0000000140044308     libucrtd:nlsdata.obj
 0002:00007310       ??_C@_17FNLKOI@?$AAO?$AAc?$AAt@ 0000000140044310     libucrtd:nlsdata.obj
 0002:00007318       ??_C@_17BBDMLCIG@?$AAN?$AAo?$AAv@ 0000000140044318     libucrtd:nlsdata.obj
 0002:00007320       ??_C@_17EGKACKIF@?$AAD?$AAe?$AAc@ 0000000140044320     libucrtd:nlsdata.obj
 0002:00007328       ??_C@_1BA@EFMEIEBA@?$AAJ?$AAa?$AAn?$AAu?$AAa?$AAr?$AAy@ 0000000140044328     libucrtd:nlsdata.obj
 0002:00007338       ??_C@_1BC@JGDDFFAM@?$AAF?$AAe?$AAb?$AAr?$AAu?$AAa?$AAr?$AAy@ 0000000140044338     libucrtd:nlsdata.obj
 0002:00007350       ??_C@_1M@IKEENEDF@?$AAM?$AAa?$AAr?$AAc?$AAh@ 0000000140044350     libucrtd:nlsdata.obj
 0002:00007360       ??_C@_1M@GJNLMHFD@?$AAA?$AAp?$AAr?$AAi?$AAl@ 0000000140044360     libucrtd:nlsdata.obj
 0002:00007370       ??_C@_19EPFLPGAP@?$AAJ?$AAu?$AAn?$AAe@ 0000000140044370     libucrtd:nlsdata.obj
 0002:00007380       ??_C@_19BIFMLPCD@?$AAJ?$AAu?$AAl?$AAy@ 0000000140044380     libucrtd:nlsdata.obj
 0002:00007390       ??_C@_1O@PAHLKOAC@?$AAA?$AAu?$AAg?$AAu?$AAs?$AAt@ 0000000140044390     libucrtd:nlsdata.obj
 0002:000073a0       ??_C@_1BE@DKAAMBJL@?$AAS?$AAe?$AAp?$AAt?$AAe?$AAm?$AAb?$AAe?$AAr@ 00000001400443a0     libucrtd:nlsdata.obj
 0002:000073b8       ??_C@_1BA@EPANDLNG@?$AAO?$AAc?$AAt?$AAo?$AAb?$AAe?$AAr@ 00000001400443b8     libucrtd:nlsdata.obj
 0002:000073c8       ??_C@_1BC@BGLIFPF@?$AAN?$AAo?$AAv?$AAe?$AAm?$AAb?$AAe?$AAr@ 00000001400443c8     libucrtd:nlsdata.obj
 0002:000073e0       ??_C@_1BC@FEMKIFH@?$AAD?$AAe?$AAc?$AAe?$AAm?$AAb?$AAe?$AAr@ 00000001400443e0     libucrtd:nlsdata.obj
 0002:000073f4       ??_C@_15ODEHAHHF@?$AAA?$AAM@ 00000001400443f4     libucrtd:nlsdata.obj
 0002:000073fc       ??_C@_15CLMNNGEL@?$AAP?$AAM@ 00000001400443fc     libucrtd:nlsdata.obj
 0002:00007408       ??_C@_1BC@IEBCMHCM@?$AAM?$AAM?$AA?1?$AAd?$AAd?$AA?1?$AAy?$AAy@ 0000000140044408     libucrtd:nlsdata.obj
 0002:00007420       ??_C@_1CI@KNAKOEBC@?$AAd?$AAd?$AAd?$AAd?$AA?0?$AA?5?$AAM?$AAM?$AAM?$AAM?$AA?5?$AAd?$AAd?$AA?0?$AA?5@ 0000000140044420     libucrtd:nlsdata.obj
 0002:00007448       ??_C@_1BC@GDGBMEMK@?$AAH?$AAH?$AA?3?$AAm?$AAm?$AA?3?$AAs?$AAs@ 0000000140044448     libucrtd:nlsdata.obj
 0002:00007460       ??_C@_1M@BMHNFIME@?$AAe?$AAn?$AA?9?$AAU?$AAS@ 0000000140044460     libucrtd:nlsdata.obj
 0002:00007470       __newctype                 0000000140044470     libucrtd:ctype.obj
 0002:00007770       __newclmap                 0000000140044770     libucrtd:ctype.obj
 0002:000078f0       __newcumap                 00000001400448f0     libucrtd:ctype.obj
 0002:00007a70       _wctype                    0000000140044a70     libucrtd:ctype.obj
 0002:00007c78       ??_C@_1CI@JELMFMDH@?$AAc?$AA?5?$AA?$DO?$AA?$DN?$AA?5?$AA?9?$AA1?$AA?5?$AA?$CG?$AA?$CG?$AA?5?$AAc?$AA?5?$AA?$DM?$AA?$DN@ 0000000140044c78     libucrtd:isctype.obj
 0002:00007ca0       ??_C@_1GG@KPBGDFHJ@?$AAm?$AAi?$AAn?$AAk?$AAe?$AAr?$AAn?$AAe?$AAl?$AA?2?$AAc?$AAr?$AAt?$AAs?$AA?2@ 0000000140044ca0     libucrtd:isctype.obj
 0002:00007d10       ??_C@_1FE@KNPCCODH@?$AA?$CI?$AA?$CC?$AAC?$AAo?$AAr?$AAr?$AAu?$AAp?$AAt?$AAe?$AAd?$AA?5?$AAp?$AAo?$AAi@ 0000000140044d10     libucrtd:getstringtypea.obj
 0002:00007d70       ??_C@_1EM@GPJLADAA@?$AAV?$AAC?$AAC?$AAR?$AAT?$AA?2?$AAv?$AAc?$AAr?$AAu?$AAn?$AAt?$AAi?$AAm?$AAe@ 0000000140044d70     libucrtd:getstringtypea.obj
 0002:00007dc0       ??_C@_0DJ@HCPJODDK@minkernel?2crts?2ucrt?2src?2appcrt?2@ 0000000140044dc0     libucrtd:getstringtypea.obj
 0002:00007e00       ??_C@_1BKC@NBNHJIDM@?$AA?$CI?$AAp?$AAt?$AAl?$AAo?$AAc?$AAi?$AA?9?$AA?$DO?$AAl?$AAc?$AA_?$AAc?$AAa?$AAt@ 0000000140044e00     libucrtd:locale_refcounting.obj
 0002:00007fb0       ??_C@_1HK@HCNMEOLA@?$AAm?$AAi?$AAn?$AAk?$AAe?$AAr?$AAn?$AAe?$AAl?$AA?2?$AAc?$AAr?$AAt?$AAs?$AA?2@ 0000000140044fb0     libucrtd:locale_refcounting.obj
 0002:0000802c       ??_C@_15PJPFLCCM@?$AAu?$AAk@ 000000014004502c     libucrtd:get_qualified_locale.obj
 0002:000080e0       ??_C@_1EA@JGEFHKEI@?$AAa?$AAp?$AAi?$AA?9?$AAm?$AAs?$AA?9?$AAw?$AAi?$AAn?$AA?9?$AAc?$AAo?$AAr?$AAe@ 00000001400450e0     libucrtd:winapi_thunks.obj
 0002:00008120       ??_C@_1DI@IJCEHOCB@?$AAa?$AAp?$AAi?$AA?9?$AAm?$AAs?$AA?9?$AAw?$AAi?$AAn?$AA?9?$AAc?$AAo?$AAr?$AAe@ 0000000140045120     libucrtd:winapi_thunks.obj
 0002:00008160       ??_C@_1EI@MPIAOHOC@?$AAa?$AAp?$AAi?$AA?9?$AAm?$AAs?$AA?9?$AAw?$AAi?$AAn?$AA?9?$AAc?$AAo?$AAr?$AAe@ 0000000140045160     libucrtd:winapi_thunks.obj
 0002:000081b0       ??_C@_1FK@FPHCKFIE@?$AAa?$AAp?$AAi?$AA?9?$AAm?$AAs?$AA?9?$AAw?$AAi?$AAn?$AA?9?$AAc?$AAo?$AAr?$AAe@ 00000001400451b0     libucrtd:winapi_thunks.obj
 0002:00008210       ??_C@_1EM@DILCGIIO@?$AAa?$AAp?$AAi?$AA?9?$AAm?$AAs?$AA?9?$AAw?$AAi?$AAn?$AA?9?$AAc?$AAo?$AAr?$AAe@ 0000000140045210     libucrtd:winapi_thunks.obj
 0002:00008260       ??_C@_1DM@LNCGDDPN@?$AAa?$AAp?$AAi?$AA?9?$AAm?$AAs?$AA?9?$AAw?$AAi?$AAn?$AA?9?$AAc?$AAo?$AAr?$AAe@ 0000000140045260     libucrtd:winapi_thunks.obj
 0002:000082a0       ??_C@_1DO@FPAPJEMD@?$AAa?$AAp?$AAi?$AA?9?$AAm?$AAs?$AA?9?$AAw?$AAi?$AAn?$AA?9?$AAc?$AAo?$AAr?$AAe@ 00000001400452a0     libucrtd:winapi_thunks.obj
 0002:000082e0       ??_C@_1DK@NDHNAHIO@?$AAa?$AAp?$AAi?$AA?9?$AAm?$AAs?$AA?9?$AAw?$AAi?$AAn?$AA?9?$AAc?$AAo?$AAr?$AAe@ 00000001400452e0     libucrtd:winapi_thunks.obj
 0002:00008320       ??_C@_1DM@KGHDGBCM@?$AAa?$AAp?$AAi?$AA?9?$AAm?$AAs?$AA?9?$AAw?$AAi?$AAn?$AA?9?$AAc?$AAo?$AAr?$AAe@ 0000000140045320     libucrtd:winapi_thunks.obj
 0002:00008360       ??_C@_1EO@IJIOEFOH@?$AAa?$AAp?$AAi?$AA?9?$AAm?$AAs?$AA?9?$AAw?$AAi?$AAn?$AA?9?$AAr?$AAt?$AAc?$AAo@ 0000000140045360     libucrtd:winapi_thunks.obj
 0002:000083b0       ??_C@_1FG@HHGEKANL@?$AAa?$AAp?$AAi?$AA?9?$AAm?$AAs?$AA?9?$AAw?$AAi?$AAn?$AA?9?$AAs?$AAe?$AAc?$AAu@ 00000001400453b0     libucrtd:winapi_thunks.obj
 0002:00008410       ??_C@_1EG@DBIOJECG@?$AAe?$AAx?$AAt?$AA?9?$AAm?$AAs?$AA?9?$AAw?$AAi?$AAn?$AA?9?$AAn?$AAt?$AAu?$AAs@ 0000000140045410     libucrtd:winapi_thunks.obj
 0002:00008460       ??_C@_1EO@FIHMJCLF@?$AAe?$AAx?$AAt?$AA?9?$AAm?$AAs?$AA?9?$AAw?$AAi?$AAn?$AA?9?$AAn?$AAt?$AAu?$AAs@ 0000000140045460     libucrtd:winapi_thunks.obj
 0002:000084b0       ??_C@_1BC@DNHGCMLG@?$AAa?$AAd?$AAv?$AAa?$AAp?$AAi?$AA3?$AA2@ 00000001400454b0     libucrtd:winapi_thunks.obj
 0002:000084c8       ??_C@_1M@OAIMIKLP@?$AAn?$AAt?$AAd?$AAl?$AAl@ 00000001400454c8     libucrtd:winapi_thunks.obj
 0002:000084e0       ??_C@_1EG@DPGNFKGC@?$AAa?$AAp?$AAi?$AA?9?$AAm?$AAs?$AA?9?$AAw?$AAi?$AAn?$AA?9?$AAa?$AAp?$AAp?$AAm@ 00000001400454e0     libucrtd:winapi_thunks.obj
 0002:00008528       ??_C@_1O@BCCLBEOE@?$AAu?$AAs?$AAe?$AAr?$AA3?$AA2@ 0000000140045528     libucrtd:winapi_thunks.obj
 0002:00008538       ??_C@_1BA@IAIFMGEF@?$AAe?$AAx?$AAt?$AA?9?$AAm?$AAs?$AA?9@ 0000000140045538     libucrtd:winapi_thunks.obj
 0002:00008550       ??_C@_1HE@OILMBOBA@?$AAm?$AAi?$AAn?$AAk?$AAe?$AAr?$AAn?$AAe?$AAl?$AA?2?$AAc?$AAr?$AAt?$AAs?$AA?2@ 0000000140045550     libucrtd:winapi_thunks.obj
 0002:000085c8       ??_C@_0BA@FHFNEAED@AreFileApisANSI@ 00000001400455c8     libucrtd:winapi_thunks.obj
 0002:00008600       ??_C@_0BA@HNOPNCHB@GetActiveWindow@ 0000000140045600     libucrtd:winapi_thunks.obj
 0002:00008618       ??_C@_0BD@HHGDFDBJ@GetLastActivePopup@ 0000000140045618     libucrtd:winapi_thunks.obj
 0002:00008638       ??_C@_0BI@DFKBFLJE@GetProcessWindowStation@ 0000000140045638     libucrtd:winapi_thunks.obj
 0002:00008658       ??_C@_0BK@DEKFELLI@GetUserObjectInformationW@ 0000000140045658     libucrtd:winapi_thunks.obj
 0002:00008688       ??_C@_0O@KKBNKAPF@LCMapStringEx@ 0000000140045688     libucrtd:winapi_thunks.obj
 0002:000086a0       ??_C@_0BB@HBDEELFH@LocaleNameToLCID@ 00000001400456a0     libucrtd:winapi_thunks.obj
 0002:000086c0       ??_C@_0M@CHKKJDAI@MessageBoxA@ 00000001400456c0     libucrtd:winapi_thunks.obj
 0002:000086d8       ??_C@_0M@DLDCCGNP@MessageBoxW@ 00000001400456d8     libucrtd:winapi_thunks.obj
 0002:000086e8       ??_C@_0CF@OJOFEIGO@AppPolicyGetProcessTerminationM@ 00000001400456e8     libucrtd:winapi_thunks.obj
 0002:00008718       ??_C@_0CE@OICFMIKE@AppPolicyGetShowDeveloperDiagno@ 0000000140045718     libucrtd:winapi_thunks.obj
 0002:00008740       ??_C@_0BL@ODDJNEDA@AppPolicyGetWindowingModel@ 0000000140045740     libucrtd:winapi_thunks.obj
 0002:00008760       ??_C@_1DA@NBILLKNO@?$AAl?$AAo?$AAc?$AAa?$AAl?$AA_?$AAa?$AAc?$AAt?$AAi?$AAo?$AAn?$AA?5?$AA?$CB?$AA?$DN@ 0000000140045760     libucrtd:signal.obj
 0002:00008790       ??_C@_1FO@CCGDPEKE@?$AAm?$AAi?$AAn?$AAk?$AAe?$AAr?$AAn?$AAe?$AAl?$AA?2?$AAc?$AAr?$AAt?$AAs?$AA?2@ 0000000140045790     libucrtd:signal.obj
 0002:000087f0       ??_C@_1M@DMJEIKHL@?$AAr?$AAa?$AAi?$AAs?$AAe@ 00000001400457f0     libucrtd:signal.obj
 0002:00008800       ??_C@_1DO@MLNEDKGB@?$AA?$CI?$AA?$CC?$AAI?$AAn?$AAv?$AAa?$AAl?$AAi?$AAd?$AA?5?$AAs?$AAi?$AAg?$AAn?$AAa@ 0000000140045800     libucrtd:signal.obj
 0002:00008840       ??_C@_1DC@OGOLMDEL@?$AAp?$AAu?$AAb?$AAl?$AAi?$AAc?$AA_?$AAs?$AAt?$AAr?$AAe?$AAa?$AAm?$AA?5?$AA?$CB@ 0000000140045840     libucrtd:_sftbuf.obj
 0002:00008880       ??_C@_1FO@GEKPJHID@?$AAm?$AAi?$AAn?$AAk?$AAe?$AAr?$AAn?$AAe?$AAl?$AA?2?$AAc?$AAr?$AAt?$AAs?$AA?2@ 0000000140045880     libucrtd:expand.obj
 0002:000088e0       ??_C@_1BK@JMCGJOCC@?$AA_?$AAe?$AAx?$AAp?$AAa?$AAn?$AAd?$AA_?$AAb?$AAa?$AAs?$AAe@ 00000001400458e0     libucrtd:expand.obj
 0002:00008900       ??_C@_1BBC@DECGKMGJ@?$AA_?$AAl?$AAo?$AAc?$AA_?$AAu?$AAp?$AAd?$AAa?$AAt?$AAe?$AA?4?$AAG?$AAe?$AAt@ 0000000140045900     libucrtd:mbtowc.obj
 0002:00008a20       ??_C@_1GE@CGIHMDEJ@?$AAm?$AAi?$AAn?$AAk?$AAe?$AAr?$AAn?$AAe?$AAl?$AA?2?$AAc?$AAr?$AAt?$AAs?$AA?2@ 0000000140045a20     libucrtd:mbtowc.obj
 0002:00008a90       ??_C@_1HA@KNBGJAIN@?$AAU?$AAT?$AAF?$AA?9?$AA8?$AA?5?$AAi?$AAs?$AAn?$AA?8?$AAt?$AA?5?$AAs?$AAu?$AAp@ 0000000140045a90     libucrtd:mbtowc.obj
 0002:00008b00       ??_C@_1BBA@EIIJPPL@?$AA_?$AAl?$AAo?$AAc?$AA_?$AAu?$AAp?$AAd?$AAa?$AAt?$AAe?$AA?4?$AAG?$AAe?$AAt@ 0000000140045b00     libucrtd:mbtowc.obj
 0002:00008c10       ??_C@_1IE@CDCHDACI@?$AA_?$AAl?$AAo?$AAc?$AA_?$AAu?$AAp?$AAd?$AAa?$AAt?$AAe?$AA?4?$AAG?$AAe?$AAt@ 0000000140045c10     libucrtd:mbtowc.obj
 0002:00008c98       ??_C@_1DK@NBNOAGKB@?$AAd?$AAe?$AAs?$AAt?$AAi?$AAn?$AAa?$AAt?$AAi?$AAo?$AAn?$AA_?$AAc?$AAo?$AAu@ 0000000140045c98     libucrtd:wctomb.obj
 0002:00008ce0       ??_C@_1GE@FCCEPHFG@?$AAm?$AAi?$AAn?$AAk?$AAe?$AAr?$AAn?$AAe?$AAl?$AA?2?$AAc?$AAr?$AAt?$AAs?$AA?2@ 0000000140045ce0     libucrtd:wctomb.obj
 0002:00008d48       ??_C@_1BI@IEADNOHF@?$AA_?$AAw?$AAc?$AAt?$AAo?$AAm?$AAb?$AA_?$AAs?$AA_?$AAl@ 0000000140045d48     libucrtd:wctomb.obj
 0002:00008d60       ??_C@_1CM@ENFEGCNE@?$AAd?$AAe?$AAs?$AAt?$AAi?$AAn?$AAa?$AAt?$AAi?$AAo?$AAn?$AA_?$AAc?$AAo?$AAu@ 0000000140045d60     libucrtd:wctomb.obj
 0002:00008e40       ??_C@_03OEIAHPBN@INF@      0000000140045e40     libucrtd:cvt.obj
 0002:00008e44       ??_C@_03OJHLLCGB@inf@      0000000140045e44     libucrtd:cvt.obj
 0002:00008e48       ??_C@_03LKNCIKJB@NAN@      0000000140045e48     libucrtd:cvt.obj
 0002:00008e4c       ??_C@_03LHCJEHON@nan@      0000000140045e4c     libucrtd:cvt.obj
 0002:00008e50       ??_C@_09OFJJIMPC@NAN?$CISNAN?$CJ@ 0000000140045e50     libucrtd:cvt.obj
 0002:00008e60       ??_C@_09IPFBKMDL@nan?$CIsnan?$CJ@ 0000000140045e60     libucrtd:cvt.obj
 0002:00008e70       ??_C@_08IKHNHAJ@NAN?$CIIND?$CJ@ 0000000140045e70     libucrtd:cvt.obj
 0002:00008e80       ??_C@_08OFCDMILK@nan?$CIind?$CJ@ 0000000140045e80     libucrtd:cvt.obj
 0002:00008e90       ??_C@_1FO@GKAKAPLI@?$AAm?$AAi?$AAn?$AAk?$AAe?$AAr?$AAn?$AAe?$AAl?$AA?2?$AAc?$AAr?$AAt?$AAs?$AA?2@ 0000000140045e90     libucrtd:cvt.obj
 0002:00008ef0       ??_C@_1DE@EHGIGIDK@?$AAf?$AAp?$AA_?$AAf?$AAo?$AAr?$AAm?$AAa?$AAt?$AA_?$AAn?$AAa?$AAn?$AA_?$AAo@ 0000000140045ef0     libucrtd:cvt.obj
 0002:00008f30       ??_C@_1LI@PCMLJPCO@?$AAs?$AAt?$AAr?$AAc?$AAp?$AAy?$AA_?$AAs?$AA?$CI?$AA?5?$AAr?$AAe?$AAs?$AAu?$AAl@ 0000000140045f30     libucrtd:cvt.obj
 0002:00008ff0       ??_C@_1KO@LJHOFBCD@?$AAr?$AAe?$AAs?$AAu?$AAl?$AAt?$AA_?$AAb?$AAu?$AAf?$AAf?$AAe?$AAr?$AA_?$AAc@ 0000000140045ff0     libucrtd:cvt.obj
 0002:000090a0       ??_C@_1CK@BOLHOMFO@?$AAf?$AAp?$AA_?$AAf?$AAo?$AAr?$AAm?$AAa?$AAt?$AA_?$AAe?$AA_?$AAi?$AAn?$AAt@ 00000001400460a0     libucrtd:cvt.obj
 0002:000090d0       ??_C@_1BBE@LHDOMEDC@?$AAs?$AAt?$AAr?$AAc?$AAp?$AAy?$AA_?$AAs?$AA?$CI?$AA?5?$AAp?$AA?0?$AA?5?$AAr?$AAe@ 00000001400460d0     libucrtd:cvt.obj
 0002:000091e4       ??_C@_05KLBDPFGC@e?$CL000@ 00000001400461e4     libucrtd:cvt.obj
 0002:000091f0       ??_C@_1IC@FILKPBAB@?$AAr?$AAe?$AAs?$AAu?$AAl?$AAt?$AA_?$AAb?$AAu?$AAf?$AAf?$AAe?$AAr?$AA_?$AAc@ 00000001400461f0     libucrtd:cvt.obj
 0002:00009278       ??_C@_1BI@PNBDLNBB@?$AAf?$AAp?$AA_?$AAf?$AAo?$AAr?$AAm?$AAa?$AAt?$AA_?$AAa@ 0000000140046278     libucrtd:cvt.obj
 0002:00009290       ??_C@_1DC@MGKAFPFD@?$AAr?$AAe?$AAs?$AAu?$AAl?$AAt?$AA_?$AAb?$AAu?$AAf?$AAf?$AAe?$AAr?$AA?5?$AA?$CB@ 0000000140046290     libucrtd:cvt.obj
 0002:000092c8       ??_C@_1CC@LDAHJAKK@?$AA_?$AA_?$AAa?$AAc?$AAr?$AAt?$AA_?$AAf?$AAp?$AA_?$AAf?$AAo?$AAr?$AAm?$AAa@ 00000001400462c8     libucrtd:cvt.obj
 0002:000092f0       ??_C@_1DA@NMLJJOCO@?$AAr?$AAe?$AAs?$AAu?$AAl?$AAt?$AA_?$AAb?$AAu?$AAf?$AAf?$AAe?$AAr?$AA_?$AAc@ 00000001400462f0     libucrtd:cvt.obj
 0002:00009320       ??_C@_1DE@MNOPBCOK@?$AAs?$AAc?$AAr?$AAa?$AAt?$AAc?$AAh?$AA_?$AAb?$AAu?$AAf?$AAf?$AAe?$AAr?$AA?5@ 0000000140046320     libucrtd:cvt.obj
 0002:00009358       ??_C@_1DC@CKBKNFKH@?$AAs?$AAc?$AAr?$AAa?$AAt?$AAc?$AAh?$AA_?$AAb?$AAu?$AAf?$AAf?$AAe?$AAr?$AA_@ 0000000140046358     libucrtd:cvt.obj
 0002:00009390       ??_C@_1EI@JAHBOGIM@?$AA?$CI?$AA?$CC?$AAU?$AAn?$AAs?$AAu?$AAp?$AAp?$AAo?$AAr?$AAt?$AAe?$AAd?$AA?5?$AAf@ 0000000140046390     libucrtd:cvt.obj
 0002:000093d8       ??_C@_1BO@MHPFFFJJ@?$AAs?$AAt?$AAr?$AAe?$AAa?$AAm?$AA?4?$AAv?$AAa?$AAl?$AAi?$AAd?$AA?$CI?$AA?$CJ@ 00000001400463d8     libucrtd:fileno.obj
 0002:00009400       ??_C@_1GA@KCAHHNGP@?$AAm?$AAi?$AAn?$AAk?$AAe?$AAr?$AAn?$AAe?$AAl?$AA?2?$AAc?$AAr?$AAt?$AAs?$AA?2@ 0000000140046400     libucrtd:fileno.obj
 0002:00009460       ??_C@_1BA@JGHIEKKM@?$AA_?$AAf?$AAi?$AAl?$AAe?$AAn?$AAo@ 0000000140046460     libucrtd:fileno.obj
 0002:00009470       ??_C@_0CP@GDJHIDC@minkernel?2crts?2ucrt?2src?2appcrt?2@ 0000000140046470     libucrtd:_file.obj
 0002:000094a0       ??_C@_1GA@LFAOKOOP@?$AAm?$AAi?$AAn?$AAk?$AAe?$AAr?$AAn?$AAe?$AAl?$AA?2?$AAc?$AAr?$AAt?$AAs?$AA?2@ 00000001400464a0     libucrtd:dbgrptt.obj
 0002:00009500       ??_C@_1CA@KHJHLKA@?$AA_?$AAV?$AAC?$AAr?$AAt?$AAD?$AAb?$AAg?$AAR?$AAe?$AAp?$AAo?$AAr?$AAt?$AAA@ 0000000140046500     libucrtd:dbgrptt.obj
 0002:00009520       ??_C@_1FA@JPHJBHEM@?$AA_?$AAi?$AAt?$AAo?$AAa?$AA_?$AAs?$AA?$CI?$AAn?$AAL?$AAi?$AAn?$AAe?$AA?0?$AA?5@ 0000000140046520     libucrtd:dbgrptt.obj
 0002:00009570       ??_C@_0CG@BNGLOCEO@Second?5Chance?5Assertion?5Failed?3@ 0000000140046570     libucrtd:dbgrptt.obj
 0002:00009598       ??_C@_0P@DFJNDPOP@?$DMfile?5unknown?$DO@ 0000000140046598     libucrtd:dbgrptt.obj
 0002:000095a8       ??_C@_07BHGABMGB@?0?5Line?5@ 00000001400465a8     libucrtd:dbgrptt.obj
 0002:000095b0       ??_C@_01EEMJAFIK@?6@       00000001400465b0     libucrtd:dbgrptt.obj
 0002:000095c0       ??_C@_1JI@GAALPGBM@?$AAs?$AAt?$AAr?$AAc?$AAp?$AAy?$AA_?$AAs?$AA?$CI?$AAs?$AAz?$AAU?$AAs?$AAe?$AAr@ 00000001400465c0     libucrtd:dbgrptt.obj
 0002:00009658       ??_C@_0CL@EACFGMNB@_CrtDbgReport?3?5String?5too?5long?5@ 0000000140046658     libucrtd:dbgrptt.obj
 0002:00009690       ??_C@_1KK@GIGAEDMO@?$AAs?$AAt?$AAr?$AAc?$AAp?$AAy?$AA_?$AAs?$AA?$CI?$AAs?$AAz?$AAL?$AAi?$AAn?$AAe@ 0000000140046690     libucrtd:dbgrptt.obj
 0002:00009740       ??_C@_0BD@CAENFOHP@Assertion?5failed?3?5@ 0000000140046740     libucrtd:dbgrptt.obj
 0002:00009758       ??_C@_0BC@LAIDCHCH@Assertion?5failed?$CB@ 0000000140046758     libucrtd:dbgrptt.obj
 0002:00009770       ??_C@_1FK@NPGBPOFO@?$AAs?$AAt?$AAr?$AAc?$AAa?$AAt?$AA_?$AAs?$AA?$CI?$AAs?$AAz?$AAL?$AAi?$AAn?$AAe@ 0000000140046770     libucrtd:dbgrptt.obj
 0002:000097d0       ??_C@_1EI@CACDLAFK@?$AAs?$AAt?$AAr?$AAc?$AAa?$AAt?$AA_?$AAs?$AA?$CI?$AAs?$AAz?$AAL?$AAi?$AAn?$AAe@ 00000001400467d0     libucrtd:dbgrptt.obj
 0002:00009818       ??_C@_01LIIJDEN@?$AN@      0000000140046818     libucrtd:dbgrptt.obj
 0002:00009820       ??_C@_1EI@LDHJEDO@?$AAs?$AAt?$AAr?$AAc?$AAa?$AAt?$AA_?$AAs?$AA?$CI?$AAs?$AAz?$AAL?$AAi?$AAn?$AAe@ 0000000140046820     libucrtd:dbgrptt.obj
 0002:00009868       ??_C@_0M@IPILFDFN@?$CFs?$CI?$CFd?$CJ?5?3?5?$CFs@ 0000000140046868     libucrtd:dbgrptt.obj
 0002:00009880       ??_C@_1JG@CPKCIOEE@?$AAs?$AAt?$AAr?$AAc?$AAp?$AAy?$AA_?$AAs?$AA?$CI?$AAs?$AAz?$AAO?$AAu?$AAt?$AAM@ 0000000140046880     libucrtd:dbgrptt.obj
 0002:00009920       ??_C@_1FI@IBIOIHEG@?$AAs?$AAt?$AAr?$AAc?$AAp?$AAy?$AA_?$AAs?$AA?$CI?$AAs?$AAz?$AAO?$AAu?$AAt?$AAM@ 0000000140046920     libucrtd:dbgrptt.obj
 0002:00009980       ??_C@_1IM@OOKIFKOH@?$AAe?$AA?5?$AA?$DN?$AA?5?$AAm?$AAb?$AAs?$AAt?$AAo?$AAw?$AAc?$AAs?$AA_?$AAs?$AA?$CI@ 0000000140046980     libucrtd:dbgrptt.obj
 0002:00009a10       ??_C@_1MC@IGEECMDB@?$AAw?$AAc?$AAs?$AAc?$AAp?$AAy?$AA_?$AAs?$AA?$CI?$AAs?$AAz?$AAO?$AAu?$AAt?$AAM@ 0000000140046a10     libucrtd:dbgrptt.obj
 0002:00009ae0       ??_C@_1HO@PJOFIKFE@?$AA_?$AAC?$AAr?$AAt?$AAD?$AAb?$AAg?$AAR?$AAe?$AAp?$AAo?$AAr?$AAt?$AA?3?$AA?5@ 0000000140046ae0     libucrtd:dbgrptt.obj
 0002:00009b60       ??_C@_1CA@HPALHDOD@?$AA_?$AAV?$AAC?$AAr?$AAt?$AAD?$AAb?$AAg?$AAR?$AAe?$AAp?$AAo?$AAr?$AAt?$AAW@ 0000000140046b60     libucrtd:dbgrptt.obj
 0002:00009b80       ??_C@_1FA@CNLLOMHI@?$AA_?$AAi?$AAt?$AAo?$AAw?$AA_?$AAs?$AA?$CI?$AAn?$AAL?$AAi?$AAn?$AAe?$AA?0?$AA?5@ 0000000140046b80     libucrtd:dbgrptt.obj
 0002:00009bd0       ??_C@_1EM@MJFLEDMB@?$AAS?$AAe?$AAc?$AAo?$AAn?$AAd?$AA?5?$AAC?$AAh?$AAa?$AAn?$AAc?$AAe?$AA?5?$AAA@ 0000000140046bd0     libucrtd:dbgrptt.obj
 0002:00009c20       ??_C@_1BO@OCHMLCAG@?$AA?$DM?$AAf?$AAi?$AAl?$AAe?$AA?5?$AAu?$AAn?$AAk?$AAn?$AAo?$AAw?$AAn?$AA?$DO@ 0000000140046c20     libucrtd:dbgrptt.obj
 0002:00009c40       ??_C@_1BA@ELMMDCFC@?$AA?0?$AA?5?$AAL?$AAi?$AAn?$AAe?$AA?5@ 0000000140046c40     libucrtd:dbgrptt.obj
 0002:00009c50       ??_C@_13LBAGMAIH@?$AA?6@   0000000140046c50     libucrtd:dbgrptt.obj
 0002:00009c60       ??_C@_1JK@KHFABAEO@?$AAw?$AAc?$AAs?$AAc?$AAp?$AAy?$AA_?$AAs?$AA?$CI?$AAs?$AAz?$AAU?$AAs?$AAe?$AAr@ 0000000140046c60     libucrtd:dbgrptt.obj
 0002:00009d00       ??_C@_1KO@DGAHENCH@?$AAw?$AAc?$AAs?$AAc?$AAp?$AAy?$AA_?$AAs?$AA?$CI?$AAs?$AAz?$AAL?$AAi?$AAn?$AAe@ 0000000140046d00     libucrtd:dbgrptt.obj
 0002:00009db0       ??_C@_1CG@FFFGGODN@?$AAA?$AAs?$AAs?$AAe?$AAr?$AAt?$AAi?$AAo?$AAn?$AA?5?$AAf?$AAa?$AAi?$AAl?$AAe@ 0000000140046db0     libucrtd:dbgrptt.obj
 0002:00009dd8       ??_C@_1CE@OJBNHDMO@?$AAA?$AAs?$AAs?$AAe?$AAr?$AAt?$AAi?$AAo?$AAn?$AA?5?$AAf?$AAa?$AAi?$AAl?$AAe@ 0000000140046dd8     libucrtd:dbgrptt.obj
 0002:00009e00       ??_C@_1FK@HPADHBBD@?$AAw?$AAc?$AAs?$AAc?$AAa?$AAt?$AA_?$AAs?$AA?$CI?$AAs?$AAz?$AAL?$AAi?$AAn?$AAe@ 0000000140046e00     libucrtd:dbgrptt.obj
 0002:00009e60       ??_C@_1EK@NMDFGHMF@?$AAw?$AAc?$AAs?$AAc?$AAa?$AAt?$AA_?$AAs?$AA?$CI?$AAs?$AAz?$AAL?$AAi?$AAn?$AAe@ 0000000140046e60     libucrtd:dbgrptt.obj
 0002:00009eac       ??_C@_13CMNBPIDO@?$AA?$AN@ 0000000140046eac     libucrtd:dbgrptt.obj
 0002:00009eb0       ??_C@_1EK@PHCBEDKB@?$AAw?$AAc?$AAs?$AAc?$AAa?$AAt?$AA_?$AAs?$AA?$CI?$AAs?$AAz?$AAL?$AAi?$AAn?$AAe@ 0000000140046eb0     libucrtd:dbgrptt.obj
 0002:00009f00       ??_C@_1BM@GIBPMLNL@?$AA?$CF?$AAl?$AAs?$AA?$CI?$AA?$CF?$AAd?$AA?$CJ?$AA?5?$AA?3?$AA?5?$AA?$CF?$AAl?$AAs@ 0000000140046f00     libucrtd:dbgrptt.obj
 0002:00009f20       ??_C@_1JI@EACPGHID@?$AAw?$AAc?$AAs?$AAc?$AAp?$AAy?$AA_?$AAs?$AA?$CI?$AAs?$AAz?$AAO?$AAu?$AAt?$AAM@ 0000000140046f20     libucrtd:dbgrptt.obj
 0002:00009fc0       ??_C@_1FI@DBAIJPJE@?$AAw?$AAc?$AAs?$AAc?$AAp?$AAy?$AA_?$AAs?$AA?$CI?$AAs?$AAz?$AAO?$AAu?$AAt?$AAM@ 0000000140046fc0     libucrtd:dbgrptt.obj
 0002:0000a020       ??_C@_1IK@LEBMBAP@?$AAw?$AAc?$AAs?$AAt?$AAo?$AAm?$AAb?$AAs?$AA_?$AAs?$AA?$CI?$AAn?$AAu?$AAl?$AAl@ 0000000140047020     libucrtd:dbgrptt.obj
 0002:0000a0b0       ??_C@_1MA@LBAMNNOB@?$AAs?$AAt?$AAr?$AAc?$AAp?$AAy?$AA_?$AAs?$AA?$CI?$AAs?$AAz?$AAO?$AAu?$AAt?$AAM@ 00000001400470b0     libucrtd:dbgrptt.obj
 0002:0000a170       ??_C@_0DP@GNPEPHJD@_CrtDbgReport?3?5String?5too?5long?5@ 0000000140047170     libucrtd:dbgrptt.obj
 0002:0000a1b0       ??_C@_1IE@CPGKIAGP@?$AAw?$AAc?$AAs?$AAt?$AAo?$AAm?$AAb?$AAs?$AA_?$AAs?$AA?$CI?$AA?$CG?$AAr?$AAe?$AAt@ 00000001400471b0     libucrtd:dbgrptt.obj
 0002:0000a260       ??_C@_1DI@OOEEHOBJ@?$AAb?$AAa?$AAs?$AAe?$AA?5?$AA?$CB?$AA?$DN?$AA?5?$AAn?$AAu?$AAl?$AAl?$AAp?$AAt?$AAr@ 0000000140047260     libucrtd:qsort.obj
 0002:0000a2a0       ??_C@_1GA@KPPCKKGE@?$AAm?$AAi?$AAn?$AAk?$AAe?$AAr?$AAn?$AAe?$AAl?$AA?2?$AAc?$AAr?$AAt?$AAs?$AA?2@ 00000001400472a0     libucrtd:qsort.obj
 0002:0000a300       ??_C@_1M@INMHODIG@?$AAq?$AAs?$AAo?$AAr?$AAt@ 0000000140047300     libucrtd:qsort.obj
 0002:0000a310       ??_C@_1BE@NJBEBBME@?$AAw?$AAi?$AAd?$AAt?$AAh?$AA?5?$AA?$DO?$AA?5?$AA0@ 0000000140047310     libucrtd:qsort.obj
 0002:0000a328       ??_C@_1CA@LIDFOMIN@?$AAc?$AAo?$AAm?$AAp?$AA?5?$AA?$CB?$AA?$DN?$AA?5?$AAn?$AAu?$AAl?$AAl?$AAp?$AAt?$AAr@ 0000000140047328     libucrtd:qsort.obj
 0002:0000a348       ??_C@_1CE@BLLJFLOH@?$AAs?$AAt?$AAr?$AAi?$AAn?$AAg?$AA?5?$AA?$CB?$AA?$DN?$AA?5?$AAn?$AAu?$AAl?$AAl?$AAp@ 0000000140047348     libucrtd:mbsdec.obj
 0002:0000a370       ??_C@_1GO@DDOMFNGF@?$AAm?$AAi?$AAn?$AAk?$AAe?$AAr?$AAn?$AAe?$AAl?$AA?2?$AAc?$AAr?$AAt?$AAs?$AA?2@ 0000000140047370     libucrtd:mbsdec.obj
 0002:0000a3e0       ??_C@_1BE@KLNCOLCD@?$AA_?$AAm?$AAb?$AAs?$AAd?$AAe?$AAc?$AA_?$AAl@ 00000001400473e0     libucrtd:mbsdec.obj
 0002:0000a3f8       ??_C@_1CG@CMGPGAOD@?$AAc?$AAu?$AAr?$AAr?$AAe?$AAn?$AAt?$AA?5?$AA?$CB?$AA?$DN?$AA?5?$AAn?$AAu?$AAl?$AAl@ 00000001400473f8     libucrtd:mbsdec.obj
 0002:0000a420       ??_C@_0DH@IKPCBLP@minkernel?2crts?2ucrt?2src?2appcrt?2@ 0000000140047420     libucrtd:lcmapstringa.obj
 0002:0000a458       ??_C@_1CE@MCCHPLBM@?$AAb?$AAu?$AAf?$AAf?$AAe?$AAr?$AA?5?$AA?$CB?$AA?$DN?$AA?5?$AAn?$AAu?$AAl?$AAl?$AAp@ 0000000140047458     libucrtd:xtoa.obj
 0002:0000a480       ??_C@_1GA@HBEFGMHK@?$AAm?$AAi?$AAn?$AAk?$AAe?$AAr?$AAn?$AAe?$AAl?$AA?2?$AAc?$AAr?$AAt?$AAs?$AA?2@ 0000000140047480     libucrtd:xtoa.obj
 0002:0000a4e0       ??_C@_1BM@HMPEMLNP@?$AAc?$AAo?$AAm?$AAm?$AAo?$AAn?$AA_?$AAx?$AAt?$AAo?$AAx?$AA_?$AAs@ 00000001400474e0     libucrtd:xtoa.obj
 0002:0000a500       ??_C@_1CC@ONIJBMJF@?$AAb?$AAu?$AAf?$AAf?$AAe?$AAr?$AA_?$AAc?$AAo?$AAu?$AAn?$AAt?$AA?5?$AA?$DO?$AA?5@ 0000000140047500     libucrtd:xtoa.obj
 0002:0000a530       ??_C@_1HA@JFIOFNKD@?$AAb?$AAu?$AAf?$AAf?$AAe?$AAr?$AA_?$AAc?$AAo?$AAu?$AAn?$AAt?$AA?5?$AA?$DO?$AA?5@ 0000000140047530     libucrtd:xtoa.obj
 0002:0000a5a0       ??_C@_1DE@PCJGDBBD@?$AA2?$AA?5?$AA?$DM?$AA?$DN?$AA?5?$AAr?$AAa?$AAd?$AAi?$AAx?$AA?5?$AA?$CG?$AA?$CG?$AA?5?$AAr@ 00000001400475a0     libucrtd:xtoa.obj
 0002:0000a5d8       ??_C@_1CM@LONILNIJ@?$AAl?$AAe?$AAn?$AAg?$AAt?$AAh?$AA?5?$AA?$DM?$AA?5?$AAb?$AAu?$AAf?$AAf?$AAe?$AAr@ 00000001400475d8     libucrtd:xtoa.obj
 0002:0000a608       ??_C@_1BI@OLPLFKOE@?$AAc?$AAo?$AAm?$AAm?$AAo?$AAn?$AA_?$AAx?$AAt?$AAo?$AAx@ 0000000140047608     libucrtd:xtoa.obj
 0002:0000b460       ??_C@_15EMKDOKLE@?$AAa?$AAr@ 0000000140048460     libucrtd:lcidtoname_downlevel.obj
 0002:0000b468       ??_C@_15KNPADPLH@?$AAb?$AAg@ 0000000140048468     libucrtd:lcidtoname_downlevel.obj
 0002:0000b470       ??_C@_15EDMHLDMO@?$AAc?$AAa@ 0000000140048470     libucrtd:lcidtoname_downlevel.obj
 0002:0000b478       ??_C@_1O@BPEAJADD@?$AAz?$AAh?$AA?9?$AAC?$AAH?$AAS@ 0000000140048478     libucrtd:lcidtoname_downlevel.obj
 0002:0000b488       ??_C@_15LJNHCMNK@?$AAc?$AAs@ 0000000140048488     libucrtd:lcidtoname_downlevel.obj
 0002:0000b490       ??_C@_15FOMCIDHG@?$AAd?$AAa@ 0000000140048490     libucrtd:lcidtoname_downlevel.obj
 0002:0000b498       ??_C@_15NBKABECB@?$AAd?$AAe@ 0000000140048498     libucrtd:lcidtoname_downlevel.obj
 0002:0000b4a0       ??_C@_15GHPEIIAO@?$AAe?$AAl@ 00000001400484a0     libucrtd:lcidtoname_downlevel.obj
 0002:0000b4a8       ??_C@_15MNPNEAIF@?$AAe?$AAn@ 00000001400484a8     libucrtd:lcidtoname_downlevel.obj
 0002:0000b4b0       ??_C@_15GPIOMPMH@?$AAe?$AAs@ 00000001400484b0     libucrtd:lcidtoname_downlevel.obj
 0002:0000b4b8       ??_C@_15NGLOAKJC@?$AAf?$AAi@ 00000001400484b8     libucrtd:lcidtoname_downlevel.obj
 0002:0000b4c0       ??_C@_15FBKGNKAM@?$AAf?$AAr@ 00000001400484c0     libucrtd:lcidtoname_downlevel.obj
 0002:0000b4c8       ??_C@_15KGGCNEFK@?$AAh?$AAe@ 00000001400484c8     libucrtd:lcidtoname_downlevel.obj
 0002:0000b4d0       ??_C@_15PGHLIDMF@?$AAh?$AAu@ 00000001400484d0     libucrtd:lcidtoname_downlevel.obj
 0002:0000b4d8       ??_C@_15BIEMAPLM@?$AAi?$AAs@ 00000001400484d8     libucrtd:lcidtoname_downlevel.obj
 0002:0000b4e0       ??_C@_15IFJLDHAF@?$AAi?$AAt@ 00000001400484e0     libucrtd:lcidtoname_downlevel.obj
 0002:0000b4e8       ??_C@_15GEMIOCAG@?$AAj?$AAa@ 00000001400484e8     libucrtd:lcidtoname_downlevel.obj
 0002:0000b4f0       ??_C@_15EPELEGJA@?$AAk?$AAo@ 00000001400484f0     libucrtd:lcidtoname_downlevel.obj
 0002:0000b4f8       ??_C@_15NDDHIMN@?$AAn?$AAl@ 00000001400484f8     libucrtd:lcidtoname_downlevel.obj
 0002:0000b500       ??_C@_15BPIGNHCD@?$AAn?$AAo@ 0000000140048500     libucrtd:lcidtoname_downlevel.obj
 0002:0000b508       ??_C@_15DEOPBLCG@?$AAp?$AAl@ 0000000140048508     libucrtd:lcidtoname_downlevel.obj
 0002:0000b510       ??_C@_15KBECGEFG@?$AAp?$AAt@ 0000000140048510     libucrtd:lcidtoname_downlevel.obj
 0002:0000b518       ??_C@_15GLJCBFMD@?$AAr?$AAo@ 0000000140048518     libucrtd:lcidtoname_downlevel.obj
 0002:0000b520       ??_C@_15FEDGKCDI@?$AAr?$AAu@ 0000000140048520     libucrtd:lcidtoname_downlevel.obj
 0002:0000b528       ??_C@_15GLKMLLHM@?$AAh?$AAr@ 0000000140048528     libucrtd:lcidtoname_downlevel.obj
 0002:0000b530       ??_C@_15CPKMFBDB@?$AAs?$AAk@ 0000000140048530     libucrtd:lcidtoname_downlevel.obj
 0002:0000b538       ??_C@_15BAAIOGMK@?$AAs?$AAq@ 0000000140048538     libucrtd:lcidtoname_downlevel.obj
 0002:0000b540       ??_C@_15INNPNOHD@?$AAs?$AAv@ 0000000140048540     libucrtd:lcidtoname_downlevel.obj
 0002:0000b548       ??_C@_15CABMMOGH@?$AAt?$AAh@ 0000000140048548     libucrtd:lcidtoname_downlevel.obj
 0002:0000b550       ??_C@_15BPLIHJJM@?$AAt?$AAr@ 0000000140048550     libucrtd:lcidtoname_downlevel.obj
 0002:0000b558       ??_C@_15NEOEKKDJ@?$AAu?$AAr@ 0000000140048558     libucrtd:lcidtoname_downlevel.obj
 0002:0000b560       ??_C@_15NFICGAJK@?$AAi?$AAd@ 0000000140048560     libucrtd:lcidtoname_downlevel.obj
 0002:0000b568       ??_C@_15HPJPHDM@?$AAb?$AAe@ 0000000140048568     libucrtd:lcidtoname_downlevel.obj
 0002:0000b570       ??_C@_15LCHLGJII@?$AAs?$AAl@ 0000000140048570     libucrtd:lcidtoname_downlevel.obj
 0002:0000b578       ??_C@_15PCFJPHHO@?$AAe?$AAt@ 0000000140048578     libucrtd:lcidtoname_downlevel.obj
 0002:0000b580       ??_C@_15HPFPGODN@?$AAl?$AAv@ 0000000140048580     libucrtd:lcidtoname_downlevel.obj
 0002:0000b588       ??_C@_15NFFGKGLG@?$AAl?$AAt@ 0000000140048588     libucrtd:lcidtoname_downlevel.obj
 0002:0000b590       ??_C@_15BDAKCCHN@?$AAf?$AAa@ 0000000140048590     libucrtd:lcidtoname_downlevel.obj
 0002:0000b598       ??_C@_15NFGIAIAJ@?$AAv?$AAi@ 0000000140048598     libucrtd:lcidtoname_downlevel.obj
 0002:0000b5a0       ??_C@_15LMKNDMHN@?$AAh?$AAy@ 00000001400485a0     libucrtd:lcidtoname_downlevel.obj
 0002:0000b5a8       ??_C@_15IJBHMCFL@?$AAa?$AAz@ 00000001400485a8     libucrtd:lcidtoname_downlevel.obj
 0002:0000b5b0       ??_C@_15EKOFJABL@?$AAe?$AAu@ 00000001400485b0     libucrtd:lcidtoname_downlevel.obj
 0002:0000b5b8       ??_C@_15BGHADCNK@?$AAm?$AAk@ 00000001400485b8     libucrtd:lcidtoname_downlevel.obj
 0002:0000b5c0       ??_C@_15JDNICKHM@?$AAa?$AAf@ 00000001400485c0     libucrtd:lcidtoname_downlevel.obj
 0002:0000b5c8       ??_C@_15KPJEDBKD@?$AAk?$AAa@ 00000001400485c8     libucrtd:lcidtoname_downlevel.obj
 0002:0000b5d0       ??_C@_15PDNFFFEO@?$AAf?$AAo@ 00000001400485d0     libucrtd:lcidtoname_downlevel.obj
 0002:0000b5d8       ??_C@_15OMLEGLOC@?$AAh?$AAi@ 00000001400485d8     libucrtd:lcidtoname_downlevel.obj
 0002:0000b5e0       ??_C@_15IDNNENKK@?$AAm?$AAs@ 00000001400485e0     libucrtd:lcidtoname_downlevel.obj
 0002:0000b5e8       ??_C@_15MACJNBMH@?$AAk?$AAk@ 00000001400485e8     libucrtd:lcidtoname_downlevel.obj
 0002:0000b5f0       ??_C@_15DKDJEOND@?$AAk?$AAy@ 00000001400485f0     libucrtd:lcidtoname_downlevel.obj
 0002:0000b5f8       ??_C@_15DFGDLJBG@?$AAs?$AAw@ 00000001400485f8     libucrtd:lcidtoname_downlevel.obj
 0002:0000b600       ??_C@_15BBFAICNG@?$AAu?$AAz@ 0000000140048600     libucrtd:lcidtoname_downlevel.obj
 0002:0000b608       ??_C@_15DKNDCGEA@?$AAt?$AAt@ 0000000140048608     libucrtd:lcidtoname_downlevel.obj
 0002:0000b610       ??_C@_15MGIFMDPL@?$AAp?$AAa@ 0000000140048610     libucrtd:lcidtoname_downlevel.obj
 0002:0000b618       ??_C@_15HCNDBBA@?$AAg?$AAu@ 0000000140048618     libucrtd:lcidtoname_downlevel.obj
 0002:0000b620       ??_C@_15FNBEIBON@?$AAt?$AAa@ 0000000140048620     libucrtd:lcidtoname_downlevel.obj
 0002:0000b628       ??_C@_15NCHGBGLK@?$AAt?$AAe@ 0000000140048628     libucrtd:lcidtoname_downlevel.obj
 0002:0000b630       ??_C@_15PHPHCBPF@?$AAk?$AAn@ 0000000140048630     libucrtd:lcidtoname_downlevel.obj
 0002:0000b638       ??_C@_15DLGBCKMP@?$AAm?$AAr@ 0000000140048638     libucrtd:lcidtoname_downlevel.obj
 0002:0000b640       ??_C@_15EABBLBFF@?$AAs?$AAa@ 0000000140048640     libucrtd:lcidtoname_downlevel.obj
 0002:0000b648       ??_C@_15CBKOMCOI@?$AAm?$AAn@ 0000000140048648     libucrtd:lcidtoname_downlevel.obj
 0002:0000b650       ??_C@_15CKDMCJAF@?$AAg?$AAl@ 0000000140048650     libucrtd:lcidtoname_downlevel.obj
 0002:0000b658       ??_C@_17CNJFBPG@?$AAk?$AAo?$AAk@ 0000000140048658     libucrtd:lcidtoname_downlevel.obj
 0002:0000b660       ??_C@_17FFBJICPL@?$AAs?$AAy?$AAr@ 0000000140048660     libucrtd:lcidtoname_downlevel.obj
 0002:0000b668       ??_C@_17KPNDCPAF@?$AAd?$AAi?$AAv@ 0000000140048668     libucrtd:lcidtoname_downlevel.obj
 0002:0000b670       ??_C@_1M@OKAHONE@?$AAa?$AAr?$AA?9?$AAS?$AAA@ 0000000140048670     libucrtd:lcidtoname_downlevel.obj
 0002:0000b680       ??_C@_1M@FFFIGIGK@?$AAb?$AAg?$AA?9?$AAB?$AAG@ 0000000140048680     libucrtd:lcidtoname_downlevel.obj
 0002:0000b690       ??_C@_1M@BJNKEDC@?$AAc?$AAa?$AA?9?$AAE?$AAS@ 0000000140048690     libucrtd:lcidtoname_downlevel.obj
 0002:0000b6a0       ??_C@_1M@IJJHFJHA@?$AAc?$AAs?$AA?9?$AAC?$AAZ@ 00000001400486a0     libucrtd:lcidtoname_downlevel.obj
 0002:0000b6b0       ??_C@_1M@CLPEOBGI@?$AAd?$AAa?$AA?9?$AAD?$AAK@ 00000001400486b0     libucrtd:lcidtoname_downlevel.obj
 0002:0000b6c0       ??_C@_1M@MCMADGCB@?$AAd?$AAe?$AA?9?$AAD?$AAE@ 00000001400486c0     libucrtd:lcidtoname_downlevel.obj
 0002:0000b6d0       ??_C@_1M@OOCKEMAM@?$AAe?$AAl?$AA?9?$AAG?$AAR@ 00000001400486d0     libucrtd:lcidtoname_downlevel.obj
 0002:0000b6e0       ??_C@_1M@DDNJFGID@?$AAf?$AAi?$AA?9?$AAF?$AAI@ 00000001400486e0     libucrtd:lcidtoname_downlevel.obj
 0002:0000b6f0       ??_C@_1M@GLIPPMAC@?$AAf?$AAr?$AA?9?$AAF?$AAR@ 00000001400486f0     libucrtd:lcidtoname_downlevel.obj
 0002:0000b700       ??_C@_1M@GFMCHPE@?$AAh?$AAe?$AA?9?$AAI?$AAL@ 0000000140048700     libucrtd:lcidtoname_downlevel.obj
 0002:0000b710       ??_C@_1M@MHLPGNKM@?$AAh?$AAu?$AA?9?$AAH?$AAU@ 0000000140048710     libucrtd:lcidtoname_downlevel.obj
 0002:0000b720       ??_C@_1M@LPDDNNPN@?$AAi?$AAs?$AA?9?$AAI?$AAS@ 0000000140048720     libucrtd:lcidtoname_downlevel.obj
 0002:0000b730       ??_C@_1M@MADIPODN@?$AAi?$AAt?$AA?9?$AAI?$AAT@ 0000000140048730     libucrtd:lcidtoname_downlevel.obj
 0002:0000b740       ??_C@_1M@IHBJJGG@?$AAn?$AAl?$AA?9?$AAN?$AAL@ 0000000140048740     libucrtd:lcidtoname_downlevel.obj
 0002:0000b750       ??_C@_1M@EANAGDL@?$AAn?$AAb?$AA?9?$AAN?$AAO@ 0000000140048750     libucrtd:lcidtoname_downlevel.obj
 0002:0000b760       ??_C@_1M@NEIEMEGP@?$AAp?$AAl?$AA?9?$AAP?$AAL@ 0000000140048760     libucrtd:lcidtoname_downlevel.obj
 0002:0000b770       ??_C@_1M@BOCFIGEP@?$AAp?$AAt?$AA?9?$AAB?$AAR@ 0000000140048770     libucrtd:lcidtoname_downlevel.obj
 0002:0000b780       ??_C@_1M@IMPFOPBG@?$AAr?$AAo?$AA?9?$AAR?$AAO@ 0000000140048780     libucrtd:lcidtoname_downlevel.obj
 0002:0000b790       ??_C@_1M@IDNNEJMM@?$AAr?$AAu?$AA?9?$AAR?$AAU@ 0000000140048790     libucrtd:lcidtoname_downlevel.obj
 0002:0000b7a0       ??_C@_1M@LILEEOGM@?$AAh?$AAr?$AA?9?$AAH?$AAR@ 00000001400487a0     libucrtd:lcidtoname_downlevel.obj
 0002:0000b7b0       ??_C@_1M@FKIFEHPB@?$AAs?$AAk?$AA?9?$AAS?$AAK@ 00000001400487b0     libucrtd:lcidtoname_downlevel.obj
 0002:0000b7c0       ??_C@_1M@LJMAMNPJ@?$AAs?$AAq?$AA?9?$AAA?$AAL@ 00000001400487c0     libucrtd:lcidtoname_downlevel.obj
 0002:0000b7d0       ??_C@_1M@GIAKDKJK@?$AAs?$AAv?$AA?9?$AAS?$AAE@ 00000001400487d0     libucrtd:lcidtoname_downlevel.obj
 0002:0000b7e0       ??_C@_1M@MKJKIKCL@?$AAt?$AAh?$AA?9?$AAT?$AAH@ 00000001400487e0     libucrtd:lcidtoname_downlevel.obj
 0002:0000b7f0       ??_C@_1M@MFLCCMPB@?$AAt?$AAr?$AA?9?$AAT?$AAR@ 00000001400487f0     libucrtd:lcidtoname_downlevel.obj
 0002:0000b800       ??_C@_1M@OIJHDKJN@?$AAu?$AAr?$AA?9?$AAP?$AAK@ 0000000140048800     libucrtd:lcidtoname_downlevel.obj
 0002:0000b810       ??_C@_1M@LHIPCIEK@?$AAi?$AAd?$AA?9?$AAI?$AAD@ 0000000140048810     libucrtd:lcidtoname_downlevel.obj
 0002:0000b820       ??_C@_1M@MFMOBGI@?$AAu?$AAk?$AA?9?$AAU?$AAA@ 0000000140048820     libucrtd:lcidtoname_downlevel.obj
 0002:0000b830       ??_C@_1M@OBGLJIPL@?$AAb?$AAe?$AA?9?$AAB?$AAY@ 0000000140048830     libucrtd:lcidtoname_downlevel.obj
 0002:0000b840       ??_C@_1M@BCFAJEAD@?$AAs?$AAl?$AA?9?$AAS?$AAI@ 0000000140048840     libucrtd:lcidtoname_downlevel.obj
 0002:0000b850       ??_C@_1M@FKFFEDDN@?$AAe?$AAt?$AA?9?$AAE?$AAE@ 0000000140048850     libucrtd:lcidtoname_downlevel.obj
 0002:0000b860       ??_C@_1M@KGKKAACI@?$AAl?$AAv?$AA?9?$AAL?$AAV@ 0000000140048860     libucrtd:lcidtoname_downlevel.obj
 0002:0000b870       ??_C@_1M@IFGBIJO@?$AAl?$AAt?$AA?9?$AAL?$AAT@ 0000000140048870     libucrtd:lcidtoname_downlevel.obj
 0002:0000b880       ??_C@_1M@FGEAHEDM@?$AAf?$AAa?$AA?9?$AAI?$AAR@ 0000000140048880     libucrtd:lcidtoname_downlevel.obj
 0002:0000b890       ??_C@_1M@KBMAIBFN@?$AAv?$AAi?$AA?9?$AAV?$AAN@ 0000000140048890     libucrtd:lcidtoname_downlevel.obj
 0002:0000b8a0       ??_C@_1M@GPCBKDJK@?$AAh?$AAy?$AA?9?$AAA?$AAM@ 00000001400488a0     libucrtd:lcidtoname_downlevel.obj
 0002:0000b8b0       ??_C@_1BG@BECMDDJB@?$AAa?$AAz?$AA?9?$AAA?$AAZ?$AA?9?$AAL?$AAa?$AAt?$AAn@ 00000001400488b0     libucrtd:lcidtoname_downlevel.obj
 0002:0000b8c8       ??_C@_1M@MAOFCAEA@?$AAe?$AAu?$AA?9?$AAE?$AAS@ 00000001400488c8     libucrtd:lcidtoname_downlevel.obj
 0002:0000b8d8       ??_C@_1M@IGHABKPI@?$AAm?$AAk?$AA?9?$AAM?$AAK@ 00000001400488d8     libucrtd:lcidtoname_downlevel.obj
 0002:0000b8e8       ??_C@_1M@IAIGNEJG@?$AAt?$AAn?$AA?9?$AAZ?$AAA@ 00000001400488e8     libucrtd:lcidtoname_downlevel.obj
 0002:0000b8f8       ??_C@_1M@IIJCOJFA@?$AAx?$AAh?$AA?9?$AAZ?$AAA@ 00000001400488f8     libucrtd:lcidtoname_downlevel.obj
 0002:0000b908       ??_C@_1M@LGPJHNJH@?$AAz?$AAu?$AA?9?$AAZ?$AAA@ 0000000140048908     libucrtd:lcidtoname_downlevel.obj
 0002:0000b918       ??_C@_1M@HOKAOIO@?$AAa?$AAf?$AA?9?$AAZ?$AAA@ 0000000140048918     libucrtd:lcidtoname_downlevel.obj
 0002:0000b928       ??_C@_1M@DPCLHLIE@?$AAk?$AAa?$AA?9?$AAG?$AAE@ 0000000140048928     libucrtd:lcidtoname_downlevel.obj
 0002:0000b938       ??_C@_1M@BLKMHJBI@?$AAf?$AAo?$AA?9?$AAF?$AAO@ 0000000140048938     libucrtd:lcidtoname_downlevel.obj
 0002:0000b948       ??_C@_1M@LGGJAPPB@?$AAh?$AAi?$AA?9?$AAI?$AAN@ 0000000140048948     libucrtd:lcidtoname_downlevel.obj
 0002:0000b958       ??_C@_1M@FIKPIHFE@?$AAm?$AAt?$AA?9?$AAM?$AAT@ 0000000140048958     libucrtd:lcidtoname_downlevel.obj
 0002:0000b968       ??_C@_1M@HEGGPBFA@?$AAs?$AAe?$AA?9?$AAN?$AAO@ 0000000140048968     libucrtd:lcidtoname_downlevel.obj
 0002:0000b978       ??_C@_1M@EIBJEEPA@?$AAm?$AAs?$AA?9?$AAM?$AAY@ 0000000140048978     libucrtd:lcidtoname_downlevel.obj
 0002:0000b988       ??_C@_1M@FHLBGMPP@?$AAk?$AAk?$AA?9?$AAK?$AAZ@ 0000000140048988     libucrtd:lcidtoname_downlevel.obj
 0002:0000b998       ??_C@_1M@NGJJLCGI@?$AAk?$AAy?$AA?9?$AAK?$AAG@ 0000000140048998     libucrtd:lcidtoname_downlevel.obj
 0002:0000b9a8       ??_C@_1M@GIENNBFC@?$AAs?$AAw?$AA?9?$AAK?$AAE@ 00000001400489a8     libucrtd:lcidtoname_downlevel.obj
 0002:0000b9b8       ??_C@_1BG@NDGMJIMJ@?$AAu?$AAz?$AA?9?$AAU?$AAZ?$AA?9?$AAL?$AAa?$AAt?$AAn@ 00000001400489b8     libucrtd:lcidtoname_downlevel.obj
 0002:0000b9d0       ??_C@_1M@IDCCIHBC@?$AAt?$AAt?$AA?9?$AAR?$AAU@ 00000001400489d0     libucrtd:lcidtoname_downlevel.obj
 0002:0000b9e0       ??_C@_1M@LOICPMOJ@?$AAb?$AAn?$AA?9?$AAI?$AAN@ 00000001400489e0     libucrtd:lcidtoname_downlevel.obj
 0002:0000b9f0       ??_C@_1M@KPKKNEAH@?$AAp?$AAa?$AA?9?$AAI?$AAN@ 00000001400489f0     libucrtd:lcidtoname_downlevel.obj
 0002:0000ba00       ??_C@_1M@PJGPPBOG@?$AAg?$AAu?$AA?9?$AAI?$AAN@ 0000000140048a00     libucrtd:lcidtoname_downlevel.obj
 0002:0000ba10       ??_C@_1M@KMKMOPHI@?$AAt?$AAa?$AA?9?$AAI?$AAN@ 0000000140048a10     libucrtd:lcidtoname_downlevel.obj
 0002:0000ba20       ??_C@_1M@KFEHEPAC@?$AAt?$AAe?$AA?9?$AAI?$AAN@ 0000000140048a20     libucrtd:lcidtoname_downlevel.obj
 0002:0000ba30       ??_C@_1M@CDCLMGHI@?$AAk?$AAn?$AA?9?$AAI?$AAN@ 0000000140048a30     libucrtd:lcidtoname_downlevel.obj
 0002:0000ba40       ??_C@_1M@MIODLDKF@?$AAm?$AAl?$AA?9?$AAI?$AAN@ 0000000140048a40     libucrtd:lcidtoname_downlevel.obj
 0002:0000ba50       ??_C@_1M@PBIEACPO@?$AAm?$AAr?$AA?9?$AAI?$AAN@ 0000000140048a50     libucrtd:lcidtoname_downlevel.obj
 0002:0000ba60       ??_C@_1M@NIDEAGPH@?$AAs?$AAa?$AA?9?$AAI?$AAN@ 0000000140048a60     libucrtd:lcidtoname_downlevel.obj
 0002:0000ba70       ??_C@_1M@FHIHCBIO@?$AAm?$AAn?$AA?9?$AAM?$AAN@ 0000000140048a70     libucrtd:lcidtoname_downlevel.obj
 0002:0000ba80       ??_C@_1M@JAIJPENP@?$AAc?$AAy?$AA?9?$AAG?$AAB@ 0000000140048a80     libucrtd:lcidtoname_downlevel.obj
 0002:0000ba90       ??_C@_1M@PHGFBEPN@?$AAg?$AAl?$AA?9?$AAE?$AAS@ 0000000140048a90     libucrtd:lcidtoname_downlevel.obj
 0002:0000baa0       ??_C@_1O@KPIPDNCP@?$AAk?$AAo?$AAk?$AA?9?$AAI?$AAN@ 0000000140048aa0     libucrtd:lcidtoname_downlevel.obj
 0002:0000bab0       ??_C@_1O@KNHJLDJA@?$AAs?$AAy?$AAr?$AA?9?$AAS?$AAY@ 0000000140048ab0     libucrtd:lcidtoname_downlevel.obj
 0002:0000bac0       ??_C@_1O@MKEKBLAH@?$AAd?$AAi?$AAv?$AA?9?$AAM?$AAV@ 0000000140048ac0     libucrtd:lcidtoname_downlevel.obj
 0002:0000bad0       ??_C@_1O@OHDCKDDF@?$AAq?$AAu?$AAz?$AA?9?$AAB?$AAO@ 0000000140048ad0     libucrtd:lcidtoname_downlevel.obj
 0002:0000bae0       ??_C@_1M@LEPJNLFD@?$AAn?$AAs?$AA?9?$AAZ?$AAA@ 0000000140048ae0     libucrtd:lcidtoname_downlevel.obj
 0002:0000baf0       ??_C@_1M@OMLEIIJB@?$AAm?$AAi?$AA?9?$AAN?$AAZ@ 0000000140048af0     libucrtd:lcidtoname_downlevel.obj
 0002:0000bb00       ??_C@_1M@PMPEAILG@?$AAa?$AAr?$AA?9?$AAI?$AAQ@ 0000000140048b00     libucrtd:lcidtoname_downlevel.obj
 0002:0000bb10       ??_C@_1M@CNKPNOEE@?$AAd?$AAe?$AA?9?$AAC?$AAH@ 0000000140048b10     libucrtd:lcidtoname_downlevel.obj
 0002:0000bb20       ??_C@_1M@LKMGMLKO@?$AAe?$AAn?$AA?9?$AAG?$AAB@ 0000000140048b20     libucrtd:lcidtoname_downlevel.obj
 0002:0000bb30       ??_C@_1M@PGKJFFGL@?$AAe?$AAs?$AA?9?$AAM?$AAX@ 0000000140048b30     libucrtd:lcidtoname_downlevel.obj
 0002:0000bb40       ??_C@_1M@DNNANBDC@?$AAf?$AAr?$AA?9?$AAB?$AAE@ 0000000140048b40     libucrtd:lcidtoname_downlevel.obj
 0002:0000bb50       ??_C@_1M@HLGMDFHM@?$AAi?$AAt?$AA?9?$AAC?$AAH@ 0000000140048b50     libucrtd:lcidtoname_downlevel.obj
 0002:0000bb60       ??_C@_1M@CLLBGJH@?$AAn?$AAl?$AA?9?$AAB?$AAE@ 0000000140048b60     libucrtd:lcidtoname_downlevel.obj
 0002:0000bb70       ??_C@_1M@BODBOGLF@?$AAn?$AAn?$AA?9?$AAN?$AAO@ 0000000140048b70     libucrtd:lcidtoname_downlevel.obj
 0002:0000bb80       ??_C@_1M@HFFAHKAD@?$AAp?$AAt?$AA?9?$AAP?$AAT@ 0000000140048b80     libucrtd:lcidtoname_downlevel.obj
 0002:0000bb90       ??_C@_1BG@LNOAKHIE@?$AAs?$AAr?$AA?9?$AAS?$AAP?$AA?9?$AAL?$AAa?$AAt?$AAn@ 0000000140048b90     libucrtd:lcidtoname_downlevel.obj
 0002:0000bba8       ??_C@_1M@HBMHBGAK@?$AAs?$AAv?$AA?9?$AAF?$AAI@ 0000000140048ba8     libucrtd:lcidtoname_downlevel.obj
 0002:0000bbb8       ??_C@_1BG@DGCJGJBE@?$AAa?$AAz?$AA?9?$AAA?$AAZ?$AA?9?$AAC?$AAy?$AAr?$AAl@ 0000000140048bb8     libucrtd:lcidtoname_downlevel.obj
 0002:0000bbd0       ??_C@_1M@KEJDAAHB@?$AAs?$AAe?$AA?9?$AAS?$AAE@ 0000000140048bd0     libucrtd:lcidtoname_downlevel.obj
 0002:0000bbe0       ??_C@_1M@HEIBJJAD@?$AAm?$AAs?$AA?9?$AAB?$AAN@ 0000000140048be0     libucrtd:lcidtoname_downlevel.obj
 0002:0000bbf0       ??_C@_1BG@PBGJMCEM@?$AAu?$AAz?$AA?9?$AAU?$AAZ?$AA?9?$AAC?$AAy?$AAr?$AAl@ 0000000140048bf0     libucrtd:lcidtoname_downlevel.obj
 0002:0000bc08       ??_C@_1O@LAOBCMDF@?$AAq?$AAu?$AAz?$AA?9?$AAE?$AAC@ 0000000140048c08     libucrtd:lcidtoname_downlevel.obj
 0002:0000bc18       ??_C@_1M@POEEMAIO@?$AAa?$AAr?$AA?9?$AAE?$AAG@ 0000000140048c18     libucrtd:lcidtoname_downlevel.obj
 0002:0000bc28       ??_C@_1M@EFAKDEDL@?$AAz?$AAh?$AA?9?$AAH?$AAK@ 0000000140048c28     libucrtd:lcidtoname_downlevel.obj
 0002:0000bc38       ??_C@_1M@HKKIJHGI@?$AAd?$AAe?$AA?9?$AAA?$AAT@ 0000000140048c38     libucrtd:lcidtoname_downlevel.obj
 0002:0000bc48       ??_C@_1M@KBFBEHJF@?$AAe?$AAn?$AA?9?$AAA?$AAU@ 0000000140048c48     libucrtd:lcidtoname_downlevel.obj
 0002:0000bc58       ??_C@_1M@MNPLFAAH@?$AAe?$AAs?$AA?9?$AAE?$AAS@ 0000000140048c58     libucrtd:lcidtoname_downlevel.obj
 0002:0000bc68       ??_C@_1M@HJOOJFMA@?$AAf?$AAr?$AA?9?$AAC?$AAA@ 0000000140048c68     libucrtd:lcidtoname_downlevel.obj
 0002:0000bc78       ??_C@_1BG@JPOFPNAB@?$AAs?$AAr?$AA?9?$AAS?$AAP?$AA?9?$AAC?$AAy?$AAr?$AAl@ 0000000140048c78     libucrtd:lcidtoname_downlevel.obj
 0002:0000bc90       ??_C@_1M@LNFOCMOB@?$AAs?$AAe?$AA?9?$AAF?$AAI@ 0000000140048c90     libucrtd:lcidtoname_downlevel.obj
 0002:0000bca0       ??_C@_1O@MGJBOAMB@?$AAq?$AAu?$AAz?$AA?9?$AAP?$AAE@ 0000000140048ca0     libucrtd:lcidtoname_downlevel.obj
 0002:0000bcb0       ??_C@_1M@GJINLBOK@?$AAa?$AAr?$AA?9?$AAL?$AAY@ 0000000140048cb0     libucrtd:lcidtoname_downlevel.obj
 0002:0000bcc0       ??_C@_1M@GGMNHJNL@?$AAz?$AAh?$AA?9?$AAS?$AAG@ 0000000140048cc0     libucrtd:lcidtoname_downlevel.obj
 0002:0000bcd0       ??_C@_1M@HOIKODND@?$AAd?$AAe?$AA?9?$AAL?$AAU@ 0000000140048cd0     libucrtd:lcidtoname_downlevel.obj
 0002:0000bce0       ??_C@_1M@DDOCCGFG@?$AAe?$AAn?$AA?9?$AAC?$AAA@ 0000000140048ce0     libucrtd:lcidtoname_downlevel.obj
 0002:0000bcf0       ??_C@_1M@BNOEMJLF@?$AAe?$AAs?$AA?9?$AAG?$AAT@ 0000000140048cf0     libucrtd:lcidtoname_downlevel.obj
 0002:0000bd00       ??_C@_1M@EOGNKEK@?$AAf?$AAr?$AA?9?$AAC?$AAH@ 0000000140048d00     libucrtd:lcidtoname_downlevel.obj
 0002:0000bd10       ??_C@_1M@FLIDJFHL@?$AAh?$AAr?$AA?9?$AAB?$AAA@ 0000000140048d10     libucrtd:lcidtoname_downlevel.obj
 0002:0000bd20       ??_C@_1O@FMCELNAJ@?$AAs?$AAm?$AAj?$AA?9?$AAN?$AAO@ 0000000140048d20     libucrtd:lcidtoname_downlevel.obj
 0002:0000bd30       ??_C@_1M@JHGLJMGJ@?$AAa?$AAr?$AA?9?$AAD?$AAZ@ 0000000140048d30     libucrtd:lcidtoname_downlevel.obj
 0002:0000bd40       ??_C@_1M@JKKFDCNP@?$AAz?$AAh?$AA?9?$AAM?$AAO@ 0000000140048d40     libucrtd:lcidtoname_downlevel.obj
 0002:0000bd50       ??_C@_1M@GEEFALPE@?$AAd?$AAe?$AA?9?$AAL?$AAI@ 0000000140048d50     libucrtd:lcidtoname_downlevel.obj
 0002:0000bd60       ??_C@_1M@IGEOFBG@?$AAe?$AAn?$AA?9?$AAN?$AAZ@ 0000000140048d60     libucrtd:lcidtoname_downlevel.obj
 0002:0000bd70       ??_C@_1M@KDBONEHP@?$AAe?$AAs?$AA?9?$AAC?$AAR@ 0000000140048d70     libucrtd:lcidtoname_downlevel.obj
 0002:0000bd80       ??_C@_1M@FHMDOHNN@?$AAf?$AAr?$AA?9?$AAL?$AAU@ 0000000140048d80     libucrtd:lcidtoname_downlevel.obj
 0002:0000bd90       ??_C@_1BG@NFKKMAFG@?$AAb?$AAs?$AA?9?$AAB?$AAA?$AA?9?$AAL?$AAa?$AAt?$AAn@ 0000000140048d90     libucrtd:lcidtoname_downlevel.obj
 0002:0000bda8       ??_C@_1O@IMNBEMCI@?$AAs?$AAm?$AAj?$AA?9?$AAS?$AAE@ 0000000140048da8     libucrtd:lcidtoname_downlevel.obj
 0002:0000bdb8       ??_C@_1M@DHHMBNDP@?$AAa?$AAr?$AA?9?$AAM?$AAA@ 0000000140048db8     libucrtd:lcidtoname_downlevel.obj
 0002:0000bdc8       ??_C@_1M@BNBLJCGH@?$AAe?$AAn?$AA?9?$AAI?$AAE@ 0000000140048dc8     libucrtd:lcidtoname_downlevel.obj
 0002:0000bdd8       ??_C@_1M@GEPAFMDL@?$AAe?$AAs?$AA?9?$AAP?$AAA@ 0000000140048dd8     libucrtd:lcidtoname_downlevel.obj
 0002:0000bde8       ??_C@_1M@OJONDMDL@?$AAf?$AAr?$AA?9?$AAM?$AAC@ 0000000140048de8     libucrtd:lcidtoname_downlevel.obj
 0002:0000bdf8       ??_C@_1BG@OBCNFJB@?$AAs?$AAr?$AA?9?$AAB?$AAA?$AA?9?$AAL?$AAa?$AAt?$AAn@ 0000000140048df8     libucrtd:lcidtoname_downlevel.obj
 0002:0000be10       ??_C@_1O@KEMEEGPO@?$AAs?$AAm?$AAa?$AA?9?$AAN?$AAO@ 0000000140048e10     libucrtd:lcidtoname_downlevel.obj
 0002:0000be20       ??_C@_1M@ELMGFODK@?$AAa?$AAr?$AA?9?$AAT?$AAN@ 0000000140048e20     libucrtd:lcidtoname_downlevel.obj
 0002:0000be30       ??_C@_1M@BHDLHFAF@?$AAe?$AAn?$AA?9?$AAZ?$AAA@ 0000000140048e30     libucrtd:lcidtoname_downlevel.obj
 0002:0000be40       ??_C@_1M@BMGIGLIF@?$AAe?$AAs?$AA?9?$AAD?$AAO@ 0000000140048e40     libucrtd:lcidtoname_downlevel.obj
 0002:0000be50       ??_C@_1BG@CMBHIPBE@?$AAs?$AAr?$AA?9?$AAB?$AAA?$AA?9?$AAC?$AAy?$AAr?$AAl@ 0000000140048e50     libucrtd:lcidtoname_downlevel.obj
 0002:0000be68       ??_C@_1O@HEDBLHNP@?$AAs?$AAm?$AAa?$AA?9?$AAS?$AAE@ 0000000140048e68     libucrtd:lcidtoname_downlevel.obj
 0002:0000be78       ??_C@_1M@DAGCADIM@?$AAa?$AAr?$AA?9?$AAO?$AAM@ 0000000140048e78     libucrtd:lcidtoname_downlevel.obj
 0002:0000be88       ??_C@_1M@FODLMICG@?$AAe?$AAn?$AA?9?$AAJ?$AAM@ 0000000140048e88     libucrtd:lcidtoname_downlevel.obj
 0002:0000be98       ??_C@_1M@DNMLCIHB@?$AAe?$AAs?$AA?9?$AAV?$AAE@ 0000000140048e98     libucrtd:lcidtoname_downlevel.obj
 0002:0000bea8       ??_C@_1O@EOKHMKJK@?$AAs?$AAm?$AAs?$AA?9?$AAF?$AAI@ 0000000140048ea8     libucrtd:lcidtoname_downlevel.obj
 0002:0000beb8       ??_C@_1M@CAFJMKOF@?$AAa?$AAr?$AA?9?$AAY?$AAE@ 0000000140048eb8     libucrtd:lcidtoname_downlevel.obj
 0002:0000bec8       ??_C@_1M@CBFHIJLI@?$AAe?$AAn?$AA?9?$AAC?$AAB@ 0000000140048ec8     libucrtd:lcidtoname_downlevel.obj
 0002:0000bed8       ??_C@_1M@BGNFLDN@?$AAe?$AAs?$AA?9?$AAC?$AAO@ 0000000140048ed8     libucrtd:lcidtoname_downlevel.obj
 0002:0000bee8       ??_C@_1O@JMPHMAMC@?$AAs?$AAm?$AAn?$AA?9?$AAF?$AAI@ 0000000140048ee8     libucrtd:lcidtoname_downlevel.obj
 0002:0000bef8       ??_C@_1M@JLANABKE@?$AAa?$AAr?$AA?9?$AAS?$AAY@ 0000000140048ef8     libucrtd:lcidtoname_downlevel.obj
 0002:0000bf08       ??_C@_1M@HPKGCFGN@?$AAe?$AAn?$AA?9?$AAB?$AAZ@ 0000000140048f08     libucrtd:lcidtoname_downlevel.obj
 0002:0000bf18       ??_C@_1M@OLJCMLGM@?$AAe?$AAs?$AA?9?$AAP?$AAE@ 0000000140048f18     libucrtd:lcidtoname_downlevel.obj
 0002:0000bf28       ??_C@_1M@MKKGFKLE@?$AAa?$AAr?$AA?9?$AAJ?$AAO@ 0000000140048f28     libucrtd:lcidtoname_downlevel.obj
 0002:0000bf38       ??_C@_1M@EKPGLDNI@?$AAe?$AAn?$AA?9?$AAT?$AAT@ 0000000140048f38     libucrtd:lcidtoname_downlevel.obj
 0002:0000bf48       ??_C@_1M@OONGHFHE@?$AAe?$AAs?$AA?9?$AAA?$AAR@ 0000000140048f48     libucrtd:lcidtoname_downlevel.obj
 0002:0000bf58       ??_C@_1M@OOJFGBHE@?$AAa?$AAr?$AA?9?$AAL?$AAB@ 0000000140048f58     libucrtd:lcidtoname_downlevel.obj
 0002:0000bf68       ??_C@_1M@GCEJHNEG@?$AAe?$AAn?$AA?9?$AAZ?$AAW@ 0000000140048f68     libucrtd:lcidtoname_downlevel.obj
 0002:0000bf78       ??_C@_1M@JNOCAHJI@?$AAe?$AAs?$AA?9?$AAE?$AAC@ 0000000140048f78     libucrtd:lcidtoname_downlevel.obj
 0002:0000bf88       ??_C@_1M@JEFHPGGB@?$AAa?$AAr?$AA?9?$AAK?$AAW@ 0000000140048f88     libucrtd:lcidtoname_downlevel.obj
 0002:0000bf98       ??_C@_1M@MLKIBJOJ@?$AAe?$AAn?$AA?9?$AAP?$AAH@ 0000000140048f98     libucrtd:lcidtoname_downlevel.obj
 0002:0000bfa8       ??_C@_1M@BDNIPEND@?$AAe?$AAs?$AA?9?$AAC?$AAL@ 0000000140048fa8     libucrtd:lcidtoname_downlevel.obj
 0002:0000bfb8       ??_C@_1M@MPNMEKBD@?$AAa?$AAr?$AA?9?$AAA?$AAE@ 0000000140048fb8     libucrtd:lcidtoname_downlevel.obj
 0002:0000bfc8       ??_C@_1M@KBJALCPI@?$AAe?$AAs?$AA?9?$AAU?$AAY@ 0000000140048fc8     libucrtd:lcidtoname_downlevel.obj
 0002:0000bfd8       ??_C@_1M@LLCCOAGA@?$AAa?$AAr?$AA?9?$AAB?$AAH@ 0000000140048fd8     libucrtd:lcidtoname_downlevel.obj
 0002:0000bfe8       ??_C@_1M@PBFNCDEL@?$AAe?$AAs?$AA?9?$AAP?$AAY@ 0000000140048fe8     libucrtd:lcidtoname_downlevel.obj
 0002:0000bff8       ??_C@_1M@EDGINPNP@?$AAa?$AAr?$AA?9?$AAQ?$AAA@ 0000000140048ff8     libucrtd:lcidtoname_downlevel.obj
 0002:0000c008       ??_C@_1M@MKDBIIJI@?$AAe?$AAs?$AA?9?$AAB?$AAO@ 0000000140049008     libucrtd:lcidtoname_downlevel.obj
 0002:0000c018       ??_C@_1M@CPKKEBLD@?$AAe?$AAs?$AA?9?$AAS?$AAV@ 0000000140049018     libucrtd:lcidtoname_downlevel.obj
 0002:0000c028       ??_C@_1M@NDBGMMJL@?$AAe?$AAs?$AA?9?$AAH?$AAN@ 0000000140049028     libucrtd:lcidtoname_downlevel.obj
 0002:0000c038       ??_C@_1M@JIJIBHDP@?$AAe?$AAs?$AA?9?$AAN?$AAI@ 0000000140049038     libucrtd:lcidtoname_downlevel.obj
 0002:0000c048       ??_C@_1M@CGFMKEEK@?$AAe?$AAs?$AA?9?$AAP?$AAR@ 0000000140049048     libucrtd:lcidtoname_downlevel.obj
 0002:0000c058       ??_C@_1O@ICJHKIIK@?$AAz?$AAh?$AA?9?$AAC?$AAH?$AAT@ 0000000140049058     libucrtd:lcidtoname_downlevel.obj
 0002:0000c068       ??_C@_15CLNEJCE@?$AAs?$AAr@ 0000000140049068     libucrtd:lcidtoname_downlevel.obj
 0002:0000ceb0       ??_C@_1M@KAHEKEIG@?$AAa?$AAf?$AA?9?$AAz?$AAa@ 0000000140049eb0     libucrtd:lcidtoname_downlevel.obj
 0002:0000cec0       ??_C@_1M@GIECOABL@?$AAa?$AAr?$AA?9?$AAa?$AAe@ 0000000140049ec0     libucrtd:lcidtoname_downlevel.obj
 0002:0000ced0       ??_C@_1M@BMLMEKGI@?$AAa?$AAr?$AA?9?$AAb?$AAh@ 0000000140049ed0     libucrtd:lcidtoname_downlevel.obj
 0002:0000cee0       ??_C@_1M@DAPFDGGB@?$AAa?$AAr?$AA?9?$AAd?$AAz@ 0000000140049ee0     libucrtd:lcidtoname_downlevel.obj
 0002:0000cef0       ??_C@_1M@FJNKGKIG@?$AAa?$AAr?$AA?9?$AAe?$AAg@ 0000000140049ef0     libucrtd:lcidtoname_downlevel.obj
 0002:0000cf00       ??_C@_1M@FLGKKCLO@?$AAa?$AAr?$AA?9?$AAi?$AAq@ 0000000140049f00     libucrtd:lcidtoname_downlevel.obj
 0002:0000cf10       ??_C@_1M@GNDIPALM@?$AAa?$AAr?$AA?9?$AAj?$AAo@ 0000000140049f10     libucrtd:lcidtoname_downlevel.obj
 0002:0000cf20       ??_C@_1M@DDMJFMGJ@?$AAa?$AAr?$AA?9?$AAk?$AAw@ 0000000140049f20     libucrtd:lcidtoname_downlevel.obj
 0002:0000cf30       ??_C@_1M@EJALMLHM@?$AAa?$AAr?$AA?9?$AAl?$AAb@ 0000000140049f30     libucrtd:lcidtoname_downlevel.obj
 0002:0000cf40       ??_C@_1M@MOBDBLOC@?$AAa?$AAr?$AA?9?$AAl?$AAy@ 0000000140049f40     libucrtd:lcidtoname_downlevel.obj
 0002:0000cf50       ??_C@_1M@JAOCLHDH@?$AAa?$AAr?$AA?9?$AAm?$AAa@ 0000000140049f50     libucrtd:lcidtoname_downlevel.obj
 0002:0000cf60       ??_C@_1M@JHPMKJIE@?$AAa?$AAr?$AA?9?$AAo?$AAm@ 0000000140049f60     libucrtd:lcidtoname_downlevel.obj
 0002:0000cf70       ??_C@_1M@OEPGHFNH@?$AAa?$AAr?$AA?9?$AAq?$AAa@ 0000000140049f70     libucrtd:lcidtoname_downlevel.obj
 0002:0000cf80       ??_C@_1M@KJDONENM@?$AAa?$AAr?$AA?9?$AAs?$AAa@ 0000000140049f80     libucrtd:lcidtoname_downlevel.obj
 0002:0000cf90       ??_C@_1M@DMJDKLKM@?$AAa?$AAr?$AA?9?$AAs?$AAy@ 0000000140049f90     libucrtd:lcidtoname_downlevel.obj
 0002:0000cfa0       ??_C@_1M@OMFIPEDC@?$AAa?$AAr?$AA?9?$AAt?$AAn@ 0000000140049fa0     libucrtd:lcidtoname_downlevel.obj
 0002:0000cfb0       ??_C@_1M@IHMHGAON@?$AAa?$AAr?$AA?9?$AAy?$AAe@ 0000000140049fb0     libucrtd:lcidtoname_downlevel.obj
 0002:0000cfc0       ??_C@_1BG@KDCPGJGB@?$AAa?$AAz?$AA?9?$AAa?$AAz?$AA?9?$AAc?$AAy?$AAr?$AAl@ 0000000140049fc0     libucrtd:lcidtoname_downlevel.obj
 0002:0000cfd8       ??_C@_1BG@IBCKDDOE@?$AAa?$AAz?$AA?9?$AAa?$AAz?$AA?9?$AAl?$AAa?$AAt?$AAn@ 0000000140049fd8     libucrtd:lcidtoname_downlevel.obj
 0002:0000cff0       ??_C@_1M@EGPFDCPD@?$AAb?$AAe?$AA?9?$AAb?$AAy@ 0000000140049ff0     libucrtd:lcidtoname_downlevel.obj
 0002:0000d000       ??_C@_1M@PCMGMCGC@?$AAb?$AAg?$AA?9?$AAb?$AAg@ 000000014004a000     libucrtd:lcidtoname_downlevel.obj
 0002:0000d010       ??_C@_1M@BJBMFGOB@?$AAb?$AAn?$AA?9?$AAi?$AAn@ 000000014004a010     libucrtd:lcidtoname_downlevel.obj
 0002:0000d020       ??_C@_1BG@EAKMMACD@?$AAb?$AAs?$AA?9?$AAb?$AAa?$AA?9?$AAl?$AAa?$AAt?$AAn@ 000000014004a020     libucrtd:lcidtoname_downlevel.obj
 0002:0000d038       ??_C@_1M@KGADAODK@?$AAc?$AAa?$AA?9?$AAe?$AAs@ 000000014004a038     libucrtd:lcidtoname_downlevel.obj
 0002:0000d048       ??_C@_1M@COAJPDHI@?$AAc?$AAs?$AA?9?$AAc?$AAz@ 000000014004a048     libucrtd:lcidtoname_downlevel.obj
 0002:0000d058       ??_C@_1M@DHBHFONH@?$AAc?$AAy?$AA?9?$AAg?$AAb@ 000000014004a058     libucrtd:lcidtoname_downlevel.obj
 0002:0000d068       ??_C@_1M@IMGKELGA@?$AAd?$AAa?$AA?9?$AAd?$AAk@ 000000014004a068     libucrtd:lcidtoname_downlevel.obj
 0002:0000d078       ??_C@_1M@NNDGDNGA@?$AAd?$AAe?$AA?9?$AAa?$AAt@ 000000014004a078     libucrtd:lcidtoname_downlevel.obj
 0002:0000d088       ??_C@_1M@IKDBHEEM@?$AAd?$AAe?$AA?9?$AAc?$AAh@ 000000014004a088     libucrtd:lcidtoname_downlevel.obj
 0002:0000d098       ??_C@_1M@GFFOJMCJ@?$AAd?$AAe?$AA?9?$AAd?$AAe@ 000000014004a098     libucrtd:lcidtoname_downlevel.obj
 0002:0000d0a8       ??_C@_1M@MDNLKBPM@?$AAd?$AAe?$AA?9?$AAl?$AAi@ 000000014004a0a8     libucrtd:lcidtoname_downlevel.obj
 0002:0000d0b8       ??_C@_1M@NJBEEJNL@?$AAd?$AAe?$AA?9?$AAl?$AAu@ 000000014004a0b8     libucrtd:lcidtoname_downlevel.obj
 0002:0000d0c8       ??_C@_1O@GNNELBAP@?$AAd?$AAi?$AAv?$AA?9?$AAm?$AAv@ 000000014004a0c8     libucrtd:lcidtoname_downlevel.obj
 0002:0000d0d8       ??_C@_1M@EJLEOGAE@?$AAe?$AAl?$AA?9?$AAg?$AAr@ 000000014004a0d8     libucrtd:lcidtoname_downlevel.obj
 0002:0000d0e8       ??_C@_1M@GMPONJN@?$AAe?$AAn?$AA?9?$AAa?$AAu@ 000000014004a0e8     libucrtd:lcidtoname_downlevel.obj
 0002:0000d0f8       ??_C@_1M@NIDIIPGF@?$AAe?$AAn?$AA?9?$AAb?$AAz@ 000000014004a0f8     libucrtd:lcidtoname_downlevel.obj
 0002:0000d108       ??_C@_1M@JEHMIMFO@?$AAe?$AAn?$AA?9?$AAc?$AAa@ 000000014004a108     libucrtd:lcidtoname_downlevel.obj
 0002:0000d118       ??_C@_1M@IGMJCDLA@?$AAe?$AAn?$AA?9?$AAc?$AAb@ 000000014004a118     libucrtd:lcidtoname_downlevel.obj
 0002:0000d128       ??_C@_1M@BNFIGBKG@?$AAe?$AAn?$AA?9?$AAg?$AAb@ 000000014004a128     libucrtd:lcidtoname_downlevel.obj
 0002:0000d138       ??_C@_1M@LKIFDIGP@?$AAe?$AAn?$AA?9?$AAi?$AAe@ 000000014004a138     libucrtd:lcidtoname_downlevel.obj
 0002:0000d148       ??_C@_1M@PJKFGCCO@?$AAe?$AAn?$AA?9?$AAj?$AAm@ 000000014004a148     libucrtd:lcidtoname_downlevel.obj
 0002:0000d158       ??_C@_1M@KPPKEPBO@?$AAe?$AAn?$AA?9?$AAn?$AAz@ 000000014004a158     libucrtd:lcidtoname_downlevel.obj
 0002:0000d168       ??_C@_1M@GMDGLDOB@?$AAe?$AAn?$AA?9?$AAp?$AAh@ 000000014004a168     libucrtd:lcidtoname_downlevel.obj
 0002:0000d178       ??_C@_1M@ONGIBJNA@?$AAe?$AAn?$AA?9?$AAt?$AAt@ 000000014004a178     libucrtd:lcidtoname_downlevel.obj
 0002:0000d188       ??_C@_1M@LLODPCMM@?$AAe?$AAn?$AA?9?$AAu?$AAs@ 000000014004a188     libucrtd:lcidtoname_downlevel.obj
 0002:0000d198       ??_C@_1M@LAKFNPAN@?$AAe?$AAn?$AA?9?$AAz?$AAa@ 000000014004a198     libucrtd:lcidtoname_downlevel.obj
 0002:0000d1a8       ??_C@_1M@MFNHNHEO@?$AAe?$AAn?$AA?9?$AAz?$AAw@ 000000014004a1a8     libucrtd:lcidtoname_downlevel.obj
 0002:0000d1b8       ??_C@_1M@EJEINPHM@?$AAe?$AAs?$AA?9?$AAa?$AAr@ 000000014004a1b8     libucrtd:lcidtoname_downlevel.obj
 0002:0000d1c8       ??_C@_1M@GNKPCCJA@?$AAe?$AAs?$AA?9?$AAb?$AAo@ 000000014004a1c8     libucrtd:lcidtoname_downlevel.obj
 0002:0000d1d8       ??_C@_1M@LEEGFONL@?$AAe?$AAs?$AA?9?$AAc?$AAl@ 000000014004a1d8     libucrtd:lcidtoname_downlevel.obj
 0002:0000d1e8       ??_C@_1M@KGPDPBDF@?$AAe?$AAs?$AA?9?$AAc?$AAo@ 000000014004a1e8     libucrtd:lcidtoname_downlevel.obj
 0002:0000d1f8       ??_C@_1M@EIAHOHH@?$AAe?$AAs?$AA?9?$AAc?$AAr@ 000000014004a1f8     libucrtd:lcidtoname_downlevel.obj
 0002:0000d208       ??_C@_1M@LLPGMBIN@?$AAe?$AAs?$AA?9?$AAd?$AAo@ 000000014004a208     libucrtd:lcidtoname_downlevel.obj
 0002:0000d218       ??_C@_1M@DKHMKNJA@?$AAe?$AAs?$AA?9?$AAe?$AAc@ 000000014004a218     libucrtd:lcidtoname_downlevel.obj
 0002:0000d228       ??_C@_1M@GKGFPKAP@?$AAe?$AAs?$AA?9?$AAe?$AAs@ 000000014004a228     libucrtd:lcidtoname_downlevel.obj
 0002:0000d238       ??_C@_1M@LKHKGDLN@?$AAe?$AAs?$AA?9?$AAg?$AAt@ 000000014004a238     libucrtd:lcidtoname_downlevel.obj
 0002:0000d248       ??_C@_1M@HEIIGGJD@?$AAe?$AAs?$AA?9?$AAh?$AAn@ 000000014004a248     libucrtd:lcidtoname_downlevel.obj
 0002:0000d258       ??_C@_1M@FBDHPPGD@?$AAe?$AAs?$AA?9?$AAm?$AAx@ 000000014004a258     libucrtd:lcidtoname_downlevel.obj
 0002:0000d268       ??_C@_1M@DPAGLNDH@?$AAe?$AAs?$AA?9?$AAn?$AAi@ 000000014004a268     libucrtd:lcidtoname_downlevel.obj
 0002:0000d278       ??_C@_1M@MDGOPGDD@?$AAe?$AAs?$AA?9?$AAp?$AAa@ 000000014004a278     libucrtd:lcidtoname_downlevel.obj
 0002:0000d288       ??_C@_1M@EMAMGBGE@?$AAe?$AAs?$AA?9?$AAp?$AAe@ 000000014004a288     libucrtd:lcidtoname_downlevel.obj
 0002:0000d298       ??_C@_1M@IBMCAOEC@?$AAe?$AAs?$AA?9?$AAp?$AAr@ 000000014004a298     libucrtd:lcidtoname_downlevel.obj
 0002:0000d2a8       ??_C@_1M@FGMDIJED@?$AAe?$AAs?$AA?9?$AAp?$AAy@ 000000014004a2a8     libucrtd:lcidtoname_downlevel.obj
 0002:0000d2b8       ??_C@_1M@IIDEOLLL@?$AAe?$AAs?$AA?9?$AAs?$AAv@ 000000014004a2b8     libucrtd:lcidtoname_downlevel.obj
 0002:0000d2c8       ??_C@_1M@GAOBIPA@?$AAe?$AAs?$AA?9?$AAu?$AAy@ 000000014004a2c8     libucrtd:lcidtoname_downlevel.obj
 0002:0000d2d8       ??_C@_1M@JKFFICHJ@?$AAe?$AAs?$AA?9?$AAv?$AAe@ 000000014004a2d8     libucrtd:lcidtoname_downlevel.obj
 0002:0000d2e8       ??_C@_1M@PNMLOJDF@?$AAe?$AAt?$AA?9?$AAe?$AAe@ 000000014004a2e8     libucrtd:lcidtoname_downlevel.obj
 0002:0000d2f8       ??_C@_1M@GHHLIKEI@?$AAe?$AAu?$AA?9?$AAe?$AAs@ 000000014004a2f8     libucrtd:lcidtoname_downlevel.obj
 0002:0000d308       ??_C@_1M@PBNONODE@?$AAf?$AAa?$AA?9?$AAi?$AAr@ 000000014004a308     libucrtd:lcidtoname_downlevel.obj
 0002:0000d318       ??_C@_1M@JEEHPMIL@?$AAf?$AAi?$AA?9?$AAf?$AAi@ 000000014004a318     libucrtd:lcidtoname_downlevel.obj
 0002:0000d328       ??_C@_1M@LMDCNDBA@?$AAf?$AAo?$AA?9?$AAf?$AAo@ 000000014004a328     libucrtd:lcidtoname_downlevel.obj
 0002:0000d338       ??_C@_1M@JKEOHLDK@?$AAf?$AAr?$AA?9?$AAb?$AAe@ 000000014004a338     libucrtd:lcidtoname_downlevel.obj
 0002:0000d348       ??_C@_1M@NOHADPMI@?$AAf?$AAr?$AA?9?$AAc?$AAa@ 000000014004a348     libucrtd:lcidtoname_downlevel.obj
 0002:0000d358       ??_C@_1M@KDHIHAEC@?$AAf?$AAr?$AA?9?$AAc?$AAh@ 000000014004a358     libucrtd:lcidtoname_downlevel.obj
 0002:0000d368       ??_C@_1M@MMBBFGAK@?$AAf?$AAr?$AA?9?$AAf?$AAr@ 000000014004a368     libucrtd:lcidtoname_downlevel.obj
 0002:0000d378       ??_C@_1M@PAFNENNF@?$AAf?$AAr?$AA?9?$AAl?$AAu@ 000000014004a378     libucrtd:lcidtoname_downlevel.obj
 0002:0000d388       ??_C@_1M@EOHDJGDD@?$AAf?$AAr?$AA?9?$AAm?$AAc@ 000000014004a388     libucrtd:lcidtoname_downlevel.obj
 0002:0000d398       ??_C@_1M@FAPLLOPF@?$AAg?$AAl?$AA?9?$AAe?$AAs@ 000000014004a398     libucrtd:lcidtoname_downlevel.obj
 0002:0000d3a8       ??_C@_1M@FOPBFLOO@?$AAg?$AAu?$AA?9?$AAi?$AAn@ 000000014004a3a8     libucrtd:lcidtoname_downlevel.obj
 0002:0000d3b8       ??_C@_1M@KBMCINPM@?$AAh?$AAe?$AA?9?$AAi?$AAl@ 000000014004a3b8     libucrtd:lcidtoname_downlevel.obj
 0002:0000d3c8       ??_C@_1M@BBPHKFPJ@?$AAh?$AAi?$AA?9?$AAi?$AAn@ 000000014004a3c8     libucrtd:lcidtoname_downlevel.obj
 0002:0000d3d8       ??_C@_1M@PMBNDPHD@?$AAh?$AAr?$AA?9?$AAb?$AAa@ 000000014004a3d8     libucrtd:lcidtoname_downlevel.obj
 0002:0000d3e8       ??_C@_1M@BPCKOEGE@?$AAh?$AAr?$AA?9?$AAh?$AAr@ 000000014004a3e8     libucrtd:lcidtoname_downlevel.obj
 0002:0000d3f8       ??_C@_1M@GACBMHKE@?$AAh?$AAu?$AA?9?$AAh?$AAu@ 000000014004a3f8     libucrtd:lcidtoname_downlevel.obj
 0002:0000d408       ??_C@_1M@MILPAJJC@?$AAh?$AAy?$AA?9?$AAa?$AAm@ 000000014004a408     libucrtd:lcidtoname_downlevel.obj
 0002:0000d418       ??_C@_1M@BABBICEC@?$AAi?$AAd?$AA?9?$AAi?$AAd@ 000000014004a418     libucrtd:lcidtoname_downlevel.obj
 0002:0000d428       ??_C@_1M@BIKNHHPF@?$AAi?$AAs?$AA?9?$AAi?$AAs@ 000000014004a428     libucrtd:lcidtoname_downlevel.obj
 0002:0000d438       ??_C@_1M@NMPCJPHE@?$AAi?$AAt?$AA?9?$AAc?$AAh@ 000000014004a438     libucrtd:lcidtoname_downlevel.obj
 0002:0000d448       ??_C@_1M@GHKGFEDF@?$AAi?$AAt?$AA?9?$AAi?$AAt@ 000000014004a448     libucrtd:lcidtoname_downlevel.obj
 0002:0000d458       ??_C@_1M@NIEJCJJA@?$AAj?$AAa?$AA?9?$AAj?$AAp@ 000000014004a458     libucrtd:lcidtoname_downlevel.obj
 0002:0000d468       ??_C@_1M@JILFNBIM@?$AAk?$AAa?$AA?9?$AAg?$AAe@ 000000014004a468     libucrtd:lcidtoname_downlevel.obj
 0002:0000d478       ??_C@_1M@PACPMGPH@?$AAk?$AAk?$AA?9?$AAk?$AAz@ 000000014004a478     libucrtd:lcidtoname_downlevel.obj
 0002:0000d488       ??_C@_1M@IELFGMHA@?$AAk?$AAn?$AA?9?$AAi?$AAn@ 000000014004a488     libucrtd:lcidtoname_downlevel.obj
 0002:0000d498       ??_C@_1O@IBBJHCH@?$AAk?$AAo?$AAk?$AA?9?$AAi?$AAn@ 000000014004a498     libucrtd:lcidtoname_downlevel.obj
 0002:0000d4a8       ??_C@_1M@DMHAEOGC@?$AAk?$AAo?$AA?9?$AAk?$AAr@ 000000014004a4a8     libucrtd:lcidtoname_downlevel.obj
 0002:0000d4b8       ??_C@_1M@HBAHBIGA@?$AAk?$AAy?$AA?9?$AAk?$AAg@ 000000014004a4b8     libucrtd:lcidtoname_downlevel.obj
 0002:0000d4c8       ??_C@_1M@KPMILCJG@?$AAl?$AAt?$AA?9?$AAl?$AAt@ 000000014004a4c8     libucrtd:lcidtoname_downlevel.obj
 0002:0000d4d8       ??_C@_1M@BDEKKCA@?$AAl?$AAv?$AA?9?$AAl?$AAv@ 000000014004a4d8     libucrtd:lcidtoname_downlevel.obj
 0002:0000d4e8       ??_C@_1M@ELCKCCJJ@?$AAm?$AAi?$AA?9?$AAn?$AAz@ 000000014004a4e8     libucrtd:lcidtoname_downlevel.obj
 0002:0000d4f8       ??_C@_1M@CBOOLAPA@?$AAm?$AAk?$AA?9?$AAm?$AAk@ 000000014004a4f8     libucrtd:lcidtoname_downlevel.obj
 0002:0000d508       ??_C@_1M@GPHNBJKN@?$AAm?$AAl?$AA?9?$AAi?$AAn@ 000000014004a508     libucrtd:lcidtoname_downlevel.obj
 0002:0000d518       ??_C@_1M@PABJILIG@?$AAm?$AAn?$AA?9?$AAm?$AAn@ 000000014004a518     libucrtd:lcidtoname_downlevel.obj
 0002:0000d528       ??_C@_1M@FGBKKIPG@?$AAm?$AAr?$AA?9?$AAi?$AAn@ 000000014004a528     libucrtd:lcidtoname_downlevel.obj
 0002:0000d538       ??_C@_1M@NDBPDDAL@?$AAm?$AAs?$AA?9?$AAb?$AAn@ 000000014004a538     libucrtd:lcidtoname_downlevel.obj
 0002:0000d548       ??_C@_1M@OPIHOOPI@?$AAm?$AAs?$AA?9?$AAm?$AAy@ 000000014004a548     libucrtd:lcidtoname_downlevel.obj
 0002:0000d558       ??_C@_1M@PPDBCNFM@?$AAm?$AAt?$AA?9?$AAm?$AAt@ 000000014004a558     libucrtd:lcidtoname_downlevel.obj
 0002:0000d568       ??_C@_1M@KDJDKMDD@?$AAn?$AAb?$AA?9?$AAn?$AAo@ 000000014004a568     libucrtd:lcidtoname_downlevel.obj
 0002:0000d578       ??_C@_1M@KFCFLMJP@?$AAn?$AAl?$AA?9?$AAb?$AAe@ 000000014004a578     libucrtd:lcidtoname_downlevel.obj
 0002:0000d588       ??_C@_1M@KPOPDDGO@?$AAn?$AAl?$AA?9?$AAn?$AAl@ 000000014004a588     libucrtd:lcidtoname_downlevel.obj
 0002:0000d598       ??_C@_1M@LJKPEMLN@?$AAn?$AAn?$AA?9?$AAn?$AAo@ 000000014004a598     libucrtd:lcidtoname_downlevel.obj
 0002:0000d5a8       ??_C@_1M@BDGHHBFL@?$AAn?$AAs?$AA?9?$AAz?$AAa@ 000000014004a5a8     libucrtd:lcidtoname_downlevel.obj
 0002:0000d5b8       ??_C@_1M@IDEHOAP@?$AAp?$AAa?$AA?9?$AAi?$AAn@ 000000014004a5b8     libucrtd:lcidtoname_downlevel.obj
 0002:0000d5c8       ??_C@_1M@HDBKGOGH@?$AAp?$AAl?$AA?9?$AAp?$AAl@ 000000014004a5c8     libucrtd:lcidtoname_downlevel.obj
 0002:0000d5d8       ??_C@_1M@LJLLCMEH@?$AAp?$AAt?$AA?9?$AAb?$AAr@ 000000014004a5d8     libucrtd:lcidtoname_downlevel.obj
 0002:0000d5e8       ??_C@_1M@NCMONAAL@?$AAp?$AAt?$AA?9?$AAp?$AAt@ 000000014004a5e8     libucrtd:lcidtoname_downlevel.obj
 0002:0000d5f8       ??_C@_1O@EAKMAJDN@?$AAq?$AAu?$AAz?$AA?9?$AAb?$AAo@ 000000014004a5f8     libucrtd:lcidtoname_downlevel.obj
 0002:0000d608       ??_C@_1O@BHHPIGDN@?$AAq?$AAu?$AAz?$AA?9?$AAe?$AAc@ 000000014004a608     libucrtd:lcidtoname_downlevel.obj
 0002:0000d618       ??_C@_1O@GBAPEKMJ@?$AAq?$AAu?$AAz?$AA?9?$AAp?$AAe@ 000000014004a618     libucrtd:lcidtoname_downlevel.obj
 0002:0000d628       ??_C@_1M@CLGLEFBO@?$AAr?$AAo?$AA?9?$AAr?$AAo@ 000000014004a628     libucrtd:lcidtoname_downlevel.obj
 0002:0000d638       ??_C@_1M@CEEDODME@?$AAr?$AAu?$AA?9?$AAr?$AAu@ 000000014004a638     libucrtd:lcidtoname_downlevel.obj
 0002:0000d648       ??_C@_1M@HPKKKMPP@?$AAs?$AAa?$AA?9?$AAi?$AAn@ 000000014004a648     libucrtd:lcidtoname_downlevel.obj
 0002:0000d658       ??_C@_1M@BKMAIGOJ@?$AAs?$AAe?$AA?9?$AAf?$AAi@ 000000014004a658     libucrtd:lcidtoname_downlevel.obj
 0002:0000d668       ??_C@_1M@NDPIFLFI@?$AAs?$AAe?$AA?9?$AAn?$AAo@ 000000014004a668     libucrtd:lcidtoname_downlevel.obj
 0002:0000d678       ??_C@_1M@DANKKHJ@?$AAs?$AAe?$AA?9?$AAs?$AAe@ 000000014004a678     libucrtd:lcidtoname_downlevel.obj
 0002:0000d688       ??_C@_1M@PNBLONPJ@?$AAs?$AAk?$AA?9?$AAs?$AAk@ 000000014004a688     libucrtd:lcidtoname_downlevel.obj
 0002:0000d698       ??_C@_1M@LFMODOAL@?$AAs?$AAl?$AA?9?$AAs?$AAi@ 000000014004a698     libucrtd:lcidtoname_downlevel.obj
 0002:0000d6a8       ??_C@_1O@DFKOMPG@?$AAs?$AAm?$AAa?$AA?9?$AAn?$AAo@ 000000014004a6a8     libucrtd:lcidtoname_downlevel.obj
 0002:0000d6b8       ??_C@_1O@NDKPBNNH@?$AAs?$AAm?$AAa?$AA?9?$AAs?$AAe@ 000000014004a6b8     libucrtd:lcidtoname_downlevel.obj
 0002:0000d6c8       ??_C@_1O@PLLKBHAB@?$AAs?$AAm?$AAj?$AA?9?$AAn?$AAo@ 000000014004a6c8     libucrtd:lcidtoname_downlevel.obj
 0002:0000d6d8       ??_C@_1O@CLEPOGCA@?$AAs?$AAm?$AAj?$AA?9?$AAs?$AAe@ 000000014004a6d8     libucrtd:lcidtoname_downlevel.obj
 0002:0000d6e8       ??_C@_1O@DLGJGKMK@?$AAs?$AAm?$AAn?$AA?9?$AAf?$AAi@ 000000014004a6e8     libucrtd:lcidtoname_downlevel.obj
 0002:0000d6f8       ??_C@_1O@OJDJGAJC@?$AAs?$AAm?$AAs?$AA?9?$AAf?$AAi@ 000000014004a6f8     libucrtd:lcidtoname_downlevel.obj
 0002:0000d708       ??_C@_1M@BOFOGHPB@?$AAs?$AAq?$AA?9?$AAa?$AAl@ 000000014004a708     libucrtd:lcidtoname_downlevel.obj
 0002:0000d718       ??_C@_1BG@LJBBIPGB@?$AAs?$AAr?$AA?9?$AAb?$AAa?$AA?9?$AAc?$AAy?$AAr?$AAl@ 000000014004a718     libucrtd:lcidtoname_downlevel.obj
 0002:0000d730       ??_C@_1BG@JLBENFOE@?$AAs?$AAr?$AA?9?$AAb?$AAa?$AA?9?$AAl?$AAa?$AAt?$AAn@ 000000014004a730     libucrtd:lcidtoname_downlevel.obj
 0002:0000d748       ??_C@_1BG@KODPNHE@?$AAs?$AAr?$AA?9?$AAs?$AAp?$AA?9?$AAc?$AAy?$AAr?$AAl@ 000000014004a748     libucrtd:lcidtoname_downlevel.obj
 0002:0000d760       ??_C@_1BG@CIOGKHPB@?$AAs?$AAr?$AA?9?$AAs?$AAp?$AA?9?$AAl?$AAa?$AAt?$AAn@ 000000014004a760     libucrtd:lcidtoname_downlevel.obj
 0002:0000d778       ??_C@_1M@NGFJLMAC@?$AAs?$AAv?$AA?9?$AAf?$AAi@ 000000014004a778     libucrtd:lcidtoname_downlevel.obj
 0002:0000d788       ??_C@_1M@MPJEJAJC@?$AAs?$AAv?$AA?9?$AAs?$AAe@ 000000014004a788     libucrtd:lcidtoname_downlevel.obj
 0002:0000d798       ??_C@_1M@MPNDHLFK@?$AAs?$AAw?$AA?9?$AAk?$AAe@ 000000014004a798     libucrtd:lcidtoname_downlevel.obj
 0002:0000d7a8       ??_C@_1O@KOHBJJI@?$AAs?$AAy?$AAr?$AA?9?$AAs?$AAy@ 000000014004a7a8     libucrtd:lcidtoname_downlevel.obj
 0002:0000d7b8       ??_C@_1M@LDCEFHA@?$AAt?$AAa?$AA?9?$AAi?$AAn@ 000000014004a7b8     libucrtd:lcidtoname_downlevel.obj
 0002:0000d7c8       ??_C@_1M@CNJOFAK@?$AAt?$AAe?$AA?9?$AAi?$AAn@ 000000014004a7c8     libucrtd:lcidtoname_downlevel.obj
 0002:0000d7d8       ??_C@_1M@GNAECACD@?$AAt?$AAh?$AA?9?$AAt?$AAh@ 000000014004a7d8     libucrtd:lcidtoname_downlevel.obj
 0002:0000d7e8       ??_C@_1M@CHBIHOJO@?$AAt?$AAn?$AA?9?$AAz?$AAa@ 000000014004a7e8     libucrtd:lcidtoname_downlevel.obj
 0002:0000d7f8       ??_C@_1M@GCCMIGPJ@?$AAt?$AAr?$AA?9?$AAt?$AAr@ 000000014004a7f8     libucrtd:lcidtoname_downlevel.obj
 0002:0000d808       ??_C@_1M@CELMCNBK@?$AAt?$AAt?$AA?9?$AAr?$AAu@ 000000014004a808     libucrtd:lcidtoname_downlevel.obj
 0002:0000d818       ??_C@_1M@KLMCELGA@?$AAu?$AAk?$AA?9?$AAu?$AAa@ 000000014004a818     libucrtd:lcidtoname_downlevel.obj
 0002:0000d828       ??_C@_1M@EPAJJAJF@?$AAu?$AAr?$AA?9?$AAp?$AAk@ 000000014004a828     libucrtd:lcidtoname_downlevel.obj
 0002:0000d838       ??_C@_1BG@GEGPMCDJ@?$AAu?$AAz?$AA?9?$AAu?$AAz?$AA?9?$AAc?$AAy?$AAr?$AAl@ 000000014004a838     libucrtd:lcidtoname_downlevel.obj
 0002:0000d850       ??_C@_1BG@EGGKJILM@?$AAu?$AAz?$AA?9?$AAu?$AAz?$AA?9?$AAl?$AAa?$AAt?$AAn@ 000000014004a850     libucrtd:lcidtoname_downlevel.obj
 0002:0000d868       ??_C@_1M@GFOCLFF@?$AAv?$AAi?$AA?9?$AAv?$AAn@ 000000014004a868     libucrtd:lcidtoname_downlevel.obj
 0002:0000d878       ??_C@_1M@CPAMEDFI@?$AAx?$AAh?$AA?9?$AAz?$AAa@ 000000014004a878     libucrtd:lcidtoname_downlevel.obj
 0002:0000d888       ??_C@_1O@EBKIFIGN@?$AAz?$AAh?$AA?9?$AAc?$AAh?$AAs@ 000000014004a888     libucrtd:lcidtoname_downlevel.obj
 0002:0000d898       ??_C@_1O@NMHPGANE@?$AAz?$AAh?$AA?9?$AAc?$AAh?$AAt@ 000000014004a898     libucrtd:lcidtoname_downlevel.obj
 0002:0000d8a8       ??_C@_1M@LPINJOMC@?$AAz?$AAh?$AA?9?$AAc?$AAn@ 000000014004a8a8     libucrtd:lcidtoname_downlevel.obj
 0002:0000d8b8       ??_C@_1M@OCJEJODD@?$AAz?$AAh?$AA?9?$AAh?$AAk@ 000000014004a8b8     libucrtd:lcidtoname_downlevel.obj
 0002:0000d8c8       ??_C@_1M@DNDLJINH@?$AAz?$AAh?$AA?9?$AAm?$AAo@ 000000014004a8c8     libucrtd:lcidtoname_downlevel.obj
 0002:0000d8d8       ??_C@_1M@MBFDNDND@?$AAz?$AAh?$AA?9?$AAs?$AAg@ 000000014004a8d8     libucrtd:lcidtoname_downlevel.obj
 0002:0000d8e8       ??_C@_1M@IMEPLEPE@?$AAz?$AAh?$AA?9?$AAt?$AAw@ 000000014004a8e8     libucrtd:lcidtoname_downlevel.obj
 0002:0000d8f8       ??_C@_1M@BBGHNHJP@?$AAz?$AAu?$AA?9?$AAz?$AAa@ 000000014004a8f8     libucrtd:lcidtoname_downlevel.obj
 0002:0000d910       ??_C@_1GA@DEPMKPD@?$AAm?$AAi?$AAn?$AAk?$AAe?$AAr?$AAn?$AAe?$AAl?$AA?2?$AAc?$AAr?$AAt?$AAs?$AA?2@ 000000014004a910     libucrtd:isatty.obj
 0002:0000d970       ??_C@_1BA@LEBDGIHM@?$AA_?$AAi?$AAs?$AAa?$AAt?$AAt?$AAy@ 000000014004a970     libucrtd:isatty.obj
 0002:0000d980       ??_C@_1GG@MCCIENJO@?$AAm?$AAi?$AAn?$AAk?$AAe?$AAr?$AAn?$AAe?$AAl?$AA?2?$AAc?$AAr?$AAt?$AAs?$AA?2@ 000000014004a980     libucrtd:mbrtowc.obj
 0002:0000d9f0       ??_C@_1EK@MCEFBPIK@?$AAr?$AAe?$AAt?$AAv?$AAa?$AAl?$AA?5?$AA?$CB?$AA?$DN?$AA?5?$AA_?$AA_?$AAc?$AAr?$AAt@ 000000014004a9f0     libucrtd:mbrtowc.obj
 0002:0000da40       ??_C@_1EK@OANGPA@?$AA1?$AA?5?$AA?$DM?$AA?$DN?$AA?5?$AAt?$AAr?$AAa?$AAi?$AAl?$AA_?$AAb?$AAy?$AAt?$AAe@ 000000014004aa40     libucrtd:c32rtomb.obj
 0002:0000da90       ??_C@_1GI@FBFKMNDD@?$AAm?$AAi?$AAn?$AAk?$AAe?$AAr?$AAn?$AAe?$AAl?$AA?2?$AAc?$AAr?$AAt?$AAs?$AA?2@ 000000014004aa90     libucrtd:c32rtomb.obj
 0002:0000db00       ??_C@_1EA@DDDCIHI@?$AAc?$AA3?$AA2?$AA?5?$AA?$DM?$AA?5?$AA?$CI?$AA1?$AAu?$AA?5?$AA?$DM?$AA?$DM?$AA?5?$AA?$CI?$AA7@ 000000014004ab00     libucrtd:c32rtomb.obj
 0002:0000db40       ??_C@_1GI@IMEEHIAK@?$AAm?$AAi?$AAn?$AAk?$AAe?$AAr?$AAn?$AAe?$AAl?$AA?2?$AAc?$AAr?$AAt?$AAs?$AA?2@ 000000014004ab40     libucrtd:_fptostr.obj
 0002:0000dba8       ??_C@_1DG@NMGBKPMI@?$AA_?$AA_?$AAa?$AAc?$AAr?$AAt?$AA_?$AAf?$AAp?$AA_?$AAs?$AAt?$AAr?$AAf?$AAl@ 000000014004aba8     libucrtd:_fptostr.obj
 0002:0000dbe0       ??_C@_1IE@EAOKIIFP@?$AAb?$AAu?$AAf?$AAf?$AAe?$AAr?$AA_?$AAc?$AAo?$AAu?$AAn?$AAt?$AA?5?$AA?$DO?$AA?5@ 000000014004abe0     libucrtd:_fptostr.obj
 0002:0000dc68       ??_C@_1CA@EDEEBMBB@?$AAp?$AAf?$AAl?$AAt?$AA?5?$AA?$CB?$AA?$DN?$AA?5?$AAn?$AAu?$AAl?$AAl?$AAp?$AAt?$AAr@ 000000014004ac68     libucrtd:_fptostr.obj
 0002:0000dc90       ?large_power_data@?1??multiply_by_power_of_ten@__crt_strtox@@YA_NAEAUbig_integer@2@I@Z@4QBIB 000000014004ac90     libucrtd:cfout.obj
 0002:0000e5a0       ?large_power_indices@?1??multiply_by_power_of_ten@__crt_strtox@@YA_NAEAUbig_integer@2@I@Z@4QBUunpack_index@?1??12@YA_N0I@Z@B 000000014004b5a0     libucrtd:cfout.obj
 0002:0000e638       ?small_powers_of_ten@?1??multiply_by_power_of_ten@__crt_strtox@@YA_NAEAUbig_integer@2@I@Z@4QBIB 000000014004b638     libucrtd:cfout.obj
 0002:0000e660       ??_C@_1DI@GICAMMFM@?$AA?$CI?$AA?$CC?$AAD?$AAi?$AAv?$AAi?$AAs?$AAi?$AAo?$AAn?$AA?5?$AAb?$AAy?$AA?5?$AAz@ 000000014004b660     libucrtd:cfout.obj
 0002:0000e6a0       ??_C@_1GO@BFGDDONN@?$AAm?$AAi?$AAn?$AAk?$AAe?$AAr?$AAn?$AAe?$AAl?$AA?2?$AAc?$AAr?$AAt?$AAs?$AA?2@ 000000014004b6a0     libucrtd:cfout.obj
 0002:0000e710       ??_C@_1GC@DDAKNBNC@?$AAm?$AAi?$AAn?$AAk?$AAe?$AAr?$AAn?$AAe?$AAl?$AA?2?$AAc?$AAr?$AAt?$AAs?$AA?2@ 000000014004b710     libucrtd:cfout.obj
 0002:0000e778       ??_C@_1BM@FAAOAKKO@?$AA_?$AA_?$AAa?$AAc?$AAr?$AAt?$AA_?$AAf?$AAl?$AAt?$AAo?$AAu?$AAt@ 000000014004b778     libucrtd:cfout.obj
 0002:0000e7a0       ??_C@_1EI@OACEJKEP@?$AAs?$AAt?$AAr?$AAc?$AAp?$AAy?$AA_?$AAs?$AA?$CI?$AAr?$AAe?$AAs?$AAu?$AAl?$AAt@ 000000014004b7a0     libucrtd:cfout.obj
 0002:0000e7e8       ??_C@_01GBGANLPD@0@        000000014004b7e8     libucrtd:cfout.obj
 0002:0000e7f0       ??_C@_1FC@KIECGFMP@?$AAs?$AAt?$AAr?$AAc?$AAp?$AAy?$AA_?$AAs?$AA?$CI?$AAr?$AAe?$AAs?$AAu?$AAl?$AAt@ 000000014004b7f0     libucrtd:cfout.obj
 0002:0000e844       ??_C@_05DNEBIAHO@1?$CDINF@ 000000014004b844     libucrtd:cfout.obj
 0002:0000e850       ??_C@_1FC@NFPJEIBD@?$AAs?$AAt?$AAr?$AAc?$AAp?$AAy?$AA_?$AAs?$AA?$CI?$AAr?$AAe?$AAs?$AAu?$AAl?$AAt@ 000000014004b850     libucrtd:cfout.obj
 0002:0000e8a4       ??_C@_06IMKFLFPG@1?$CDQNAN@ 000000014004b8a4     libucrtd:cfout.obj
 0002:0000e8b0       ??_C@_1FC@DEJHIMLO@?$AAs?$AAt?$AAr?$AAc?$AAp?$AAy?$AA_?$AAs?$AA?$CI?$AAr?$AAe?$AAs?$AAu?$AAl?$AAt@ 000000014004b8b0     libucrtd:cfout.obj
 0002:0000e904       ??_C@_06PGGFOGJG@1?$CDSNAN@ 000000014004b904     libucrtd:cfout.obj
 0002:0000e910       ??_C@_1FC@KMLHLFPC@?$AAs?$AAt?$AAr?$AAc?$AAp?$AAy?$AA_?$AAs?$AA?$CI?$AAr?$AAe?$AAs?$AAu?$AAl?$AAt@ 000000014004b910     libucrtd:cfout.obj
 0002:0000e964       ??_C@_05PHHOCPM@1?$CDIND@  000000014004b964     libucrtd:cfout.obj
 0002:0000e970       ??_C@_1DE@KHKADFOO@?$AAm?$AAa?$AAn?$AAt?$AAi?$AAs?$AAs?$AAa?$AA_?$AAb?$AAu?$AAf?$AAf?$AAe?$AAr@ 000000014004b970     libucrtd:cfout.obj
 0002:0000e9b0       ??_C@_1FI@LFKLOPAC@?$AA?$CI?$AA?$CC?$AAu?$AAn?$AAe?$AAx?$AAp?$AAe?$AAc?$AAt?$AAe?$AAd?$AA?5?$AAi?$AAn@ 000000014004b9b0     libucrtd:cfout.obj
 0002:0000ea10       ??_C@_1FG@MLHBDPBG@?$AAq?$AAu?$AAo?$AAt?$AAi?$AAe?$AAn?$AAt?$AA?5?$AA?$DM?$AA?5?$AAd?$AAi?$AAg?$AAi@ 000000014004ba10     libucrtd:cfout.obj
 0002:0000ea70       ??_C@_1GE@GPOPIOIG@?$AAm?$AAi?$AAn?$AAk?$AAe?$AAr?$AAn?$AAe?$AAl?$AA?2?$AAc?$AAr?$AAt?$AAs?$AA?2@ 000000014004ba70     libucrtd:_freebuf.obj
 0002:0000ead8       ??_C@_1BK@FPAMLIDG@?$AAs?$AA?5?$AA?$CB?$AA?$DN?$AA?5?$AAn?$AAu?$AAl?$AAl?$AAp?$AAt?$AAr@ 000000014004bad8     libucrtd:mbstowcs.obj
 0002:0000eb00       ??_C@_1GI@KABMHNPH@?$AAm?$AAi?$AAn?$AAk?$AAe?$AAr?$AAn?$AAe?$AAl?$AA?2?$AAc?$AAr?$AAt?$AAs?$AA?2@ 000000014004bb00     libucrtd:mbstowcs.obj
 0002:0000eb68       ??_C@_1CG@JEHFHLNG@?$AA_?$AAm?$AAb?$AAs?$AAt?$AAo?$AAw?$AAc?$AAs?$AA_?$AAl?$AA_?$AAh?$AAe?$AAl@ 000000014004bb68     libucrtd:mbstowcs.obj
 0002:0000eb90       ??_C@_1JM@MEKBACIG@?$AA?$CI?$AAp?$AAw?$AAc?$AAs?$AA?5?$AA?$DN?$AA?$DN?$AA?5?$AAn?$AAu?$AAl?$AAl?$AAp?$AAt@ 000000014004bb90     libucrtd:mbstowcs.obj
 0002:0000ec30       ??_C@_1BM@PHENIGHD@?$AA_?$AAm?$AAb?$AAs?$AAt?$AAo?$AAw?$AAc?$AAs?$AA_?$AAs?$AA_?$AAl@ 000000014004bc30     libucrtd:mbstowcs.obj
 0002:0000ec50       ??_C@_1CM@LLECFMFH@?$AAb?$AAu?$AAf?$AAf?$AAe?$AAr?$AAS?$AAi?$AAz?$AAe?$AA?5?$AA?$DM?$AA?$DN?$AA?5?$AAI@ 000000014004bc50     libucrtd:mbstowcs.obj
 0002:0000ec80       ??_C@_1CO@JNPEPJAL@?$AAr?$AAe?$AAt?$AAs?$AAi?$AAz?$AAe?$AA?5?$AA?$DM?$AA?$DN?$AA?5?$AAs?$AAi?$AAz?$AAe@ 000000014004bc80     libucrtd:mbstowcs.obj
 0002:0000ecd8       ??_C@_1CA@NOKNKDIG@?$AAp?$AAw?$AAc?$AAs?$AA?5?$AA?$CB?$AA?$DN?$AA?5?$AAn?$AAu?$AAl?$AAl?$AAp?$AAt?$AAr@ 000000014004bcd8     libucrtd:wcstombs.obj
 0002:0000ed00       ??_C@_1GI@EEJDEALP@?$AAm?$AAi?$AAn?$AAk?$AAe?$AAr?$AAn?$AAe?$AAl?$AA?2?$AAc?$AAr?$AAt?$AAs?$AA?2@ 000000014004bd00     libucrtd:wcstombs.obj
 0002:0000ed68       ??_C@_1CG@LLJCAOHF@?$AA_?$AAw?$AAc?$AAs?$AAt?$AAo?$AAm?$AAb?$AAs?$AA_?$AAl?$AA_?$AAh?$AAe?$AAl@ 000000014004bd68     libucrtd:wcstombs.obj
 0002:0000ed90       ??_C@_1JI@DFNKFCLG@?$AA?$CI?$AAd?$AAs?$AAt?$AA?5?$AA?$CB?$AA?$DN?$AA?5?$AAn?$AAu?$AAl?$AAl?$AAp?$AAt?$AAr@ 000000014004bd90     libucrtd:wcstombs.obj
 0002:0000ee28       ??_C@_1BM@BDMCLLDL@?$AA_?$AAw?$AAc?$AAs?$AAt?$AAo?$AAm?$AAb?$AAs?$AA_?$AAs?$AA_?$AAl@ 000000014004be28     libucrtd:wcstombs.obj
 0002:0000ee48       ??_C@_1CM@KEOGBFLI@?$AAs?$AAi?$AAz?$AAe?$AAI?$AAn?$AAB?$AAy?$AAt?$AAe?$AAs?$AA?5?$AA?$DO?$AA?5?$AAr@ 000000014004be48     libucrtd:wcstombs.obj
 0002:0000ee80       ??_C@_1GA@MPOOLHCO@?$AAm?$AAi?$AAn?$AAk?$AAe?$AAr?$AAn?$AAe?$AAl?$AA?2?$AAc?$AAr?$AAt?$AAs?$AA?2@ 000000014004be80     libucrtd:commit.obj
 0002:0000eee0       ??_C@_1BA@FLNMBBIM@?$AA_?$AAc?$AAo?$AAm?$AAm?$AAi?$AAt@ 000000014004bee0     libucrtd:commit.obj
 0002:0000eef0       ??_C@_1FO@CAMPMGCN@?$AAm?$AAi?$AAn?$AAk?$AAe?$AAr?$AAn?$AAe?$AAl?$AA?2?$AAc?$AAr?$AAt?$AAs?$AA?2@ 000000014004bef0     libucrtd:write.obj
 0002:0000ef50       ??_C@_1O@KOFKDHPL@?$AA_?$AAw?$AAr?$AAi?$AAt?$AAe@ 000000014004bf50     libucrtd:write.obj
 0002:0000ef60       ??_C@_1CK@MMEFCHHN@?$AA?$CB?$AA_?$AAd?$AAb?$AAc?$AAs?$AAB?$AAu?$AAf?$AAf?$AAe?$AAr?$AAU?$AAs?$AAe@ 000000014004bf60     libucrtd:write.obj
 0002:0000ef90       ??_C@_1EG@LICJGLJJ@?$AA1?$AA?5?$AA?$DM?$AA?5?$AAm?$AAb?$AA_?$AAl?$AAe?$AAn?$AA?5?$AA?$CG?$AA?$CG?$AA?5?$AAm@ 000000014004bf90     libucrtd:write.obj
 0002:0000efe0       ??_C@_1FC@NFILPJB@?$AAm?$AAb?$AA_?$AAb?$AAu?$AAf?$AA_?$AAu?$AAs?$AAe?$AAd?$AA?5?$AA?$CL?$AA?5?$AAb@ 000000014004bfe0     libucrtd:write.obj
 0002:0000f040       ??_C@_1FC@HEJOPHLA@?$AAa?$AAv?$AAa?$AAi?$AAl?$AAa?$AAb?$AAl?$AAe?$AA_?$AAb?$AAy?$AAt?$AAe?$AAs@ 000000014004c040     libucrtd:write.obj
 0002:0000f098       ??_C@_1DI@CNMHHHLG@?$AAi?$AAs?$AAl?$AAe?$AAa?$AAd?$AAb?$AAy?$AAt?$AAe?$AA?$CI?$AA_?$AAd?$AAb?$AAc@ 000000014004c098     libucrtd:write.obj
 0002:0000f0d0       ??_C@_1BM@NCANHCIP@?$AA_?$AAw?$AAr?$AAi?$AAt?$AAe?$AA_?$AAn?$AAo?$AAl?$AAo?$AAc?$AAk@ 000000014004c0d0     libucrtd:write.obj
 0002:0000f0f0       ??_C@_1CK@CPEAGIIP@?$AAb?$AAu?$AAf?$AAf?$AAe?$AAr?$AA_?$AAs?$AAi?$AAz?$AAe?$AA?5?$AA?$CF?$AA?5?$AA2@ 000000014004c0f0     libucrtd:write.obj
 0002:0000f370       __real@3ff0000000000000    000000014004c370     libucrtd:ceil.obj
 0002:0000f378       ??_C@_1DG@JNDMIEJL@?$AA?$CI?$AA?$CC?$AAI?$AAn?$AAv?$AAa?$AAl?$AAi?$AAd?$AA?5?$AAi?$AAn?$AAp?$AAu?$AAt@ 000000014004c378     libucrtd:contrlfp.obj
 0002:0000f3b0       ??_C@_1FO@HHLKCIKB@?$AAm?$AAi?$AAn?$AAk?$AAe?$AAr?$AAn?$AAe?$AAl?$AA?2?$AAc?$AAr?$AAt?$AAs?$AA?2@ 000000014004c3b0     libucrtd:contrlfp.obj
 0002:0000f410       ??_C@_1BK@CDOALEA@?$AA_?$AAc?$AAo?$AAn?$AAt?$AAr?$AAo?$AAl?$AAf?$AAp?$AA_?$AAs@ 000000014004c410     libucrtd:contrlfp.obj
 0002:0000f430       ??_C@_1FO@KIIHJNFN@?$AAm?$AAi?$AAn?$AAk?$AAe?$AAr?$AAn?$AAe?$AAl?$AA?2?$AAc?$AAr?$AAt?$AAs?$AA?2@ 000000014004c430     libucrtd:lseek.obj
 0002:0000f490       ??_C@_1DM@LMLOLGJ@?$AA?$CI?$AA?$CC?$AAI?$AAn?$AAv?$AAa?$AAl?$AAi?$AAd?$AA?5?$AAf?$AAi?$AAl?$AAe?$AA?5@ 000000014004c490     libucrtd:lseek.obj
 0002:0000f4d0       ??_C@_1GA@DKNOMDCL@?$AAm?$AAi?$AAn?$AAk?$AAe?$AAr?$AAn?$AAe?$AAl?$AA?2?$AAc?$AAr?$AAt?$AAs?$AA?2@ 000000014004c4d0     libucrtd:fclose.obj
 0002:0000f530       ??_C@_1O@EGMJNCOI@?$AAf?$AAc?$AAl?$AAo?$AAs?$AAe@ 000000014004c530     libucrtd:fclose.obj
 0002:0000f540       ??_C@_1BO@JINCABEC@?$AA_?$AAf?$AAc?$AAl?$AAo?$AAs?$AAe?$AA_?$AAn?$AAo?$AAl?$AAo?$AAc?$AAk@ 000000014004c540     libucrtd:fclose.obj
 0002:0000f560       __log10_256_lead           000000014004c560     libucrtd:log10_256_lead_tail_table.obj
 0002:0000fd70       __log10_256_tail           000000014004cd70     libucrtd:log10_256_lead_tail_table.obj
 0002:00010580       __log_F_inv_qword          000000014004d580     libucrtd:log_f_inv_qword_table.obj
 0002:00010d90       ??_C@_05HGHHAHAP@log10@    000000014004dd90     libucrtd:log_special.obj
 0002:00010da0       ??_C@_1EK@PDBKILLM@?$AA?$CI?$AAm?$AAa?$AAs?$AAk?$AA?$CG?$AA?$HO?$AA?$CI?$AA_?$AAM?$AAC?$AAW?$AA_?$AAD?$AAN@ 000000014004dda0     libucrtd:ieee.obj
 0002:00010df0       ??_C@_1GC@IEFABLII@?$AAm?$AAi?$AAn?$AAk?$AAe?$AAr?$AAn?$AAe?$AAl?$AA?2?$AAc?$AAr?$AAt?$AAs?$AA?2@ 000000014004ddf0     libucrtd:ieee.obj
 0002:00010e60       ??_C@_1FO@IPDGALOE@?$AAm?$AAi?$AAn?$AAk?$AAe?$AAr?$AAn?$AAe?$AAl?$AA?2?$AAc?$AAr?$AAt?$AAs?$AA?2@ 000000014004de60     libucrtd:close.obj
 0002:00010ec0       ??_C@_1O@EDEJGJBM@?$AA_?$AAc?$AAl?$AAo?$AAs?$AAe@ 000000014004dec0     libucrtd:close.obj
 0002:00010ed0       ??_C@_1BA@BALFACEM@?$AAC?$AAO?$AAN?$AAO?$AAU?$AAT?$AA$@ 000000014004ded0     libucrtd:initcon.obj
 0002:00010ef8       ??_7type_info@@6B@         000000014004def8     LIBCMTD:std_type_info_static.obj
 0002:00010f60       _load_config_used          000000014004df60     LIBCMTD:loadcfg.obj
 0002:00011100       ??_R4exception@std@@6B@    000000014004e100     libvcruntimed:frame.obj
 0002:00011128       ??_R3exception@std@@8      000000014004e128     libvcruntimed:frame.obj
 0002:00011140       ??_R2exception@std@@8      000000014004e140     libvcruntimed:frame.obj
 0002:00011150       ??_R1A@?0A@EA@exception@std@@8 000000014004e150     libvcruntimed:frame.obj
 0002:00011178       ??_R4bad_exception@std@@6B@ 000000014004e178     libvcruntimed:frame.obj
 0002:000111a0       ??_R3bad_exception@std@@8  000000014004e1a0     libvcruntimed:frame.obj
 0002:000111b8       ??_R2bad_exception@std@@8  000000014004e1b8     libvcruntimed:frame.obj
 0002:000111d0       ??_R1A@?0A@EA@bad_exception@std@@8 000000014004e1d0     libvcruntimed:frame.obj
 0002:000111f8       ??_R4type_info@@6B@        000000014004e1f8     LIBCMTD:std_type_info_static.obj
 0002:00011220       ??_R3type_info@@8          000000014004e220     LIBCMTD:std_type_info_static.obj
 0002:00011238       ??_R2type_info@@8          000000014004e238     LIBCMTD:std_type_info_static.obj
 0002:00011248       ??_R1A@?0A@EA@type_info@@8 000000014004e248     LIBCMTD:std_type_info_static.obj
 0002:00011590       __rtc_iaa                  000000014004e590     LIBCMTD:initsect.obj
 0002:00011598       __rtc_izz                  000000014004e598     LIBCMTD:initsect.obj
 0002:000115a0       __rtc_taa                  000000014004e5a0     LIBCMTD:initsect.obj
 0002:000115a8       __rtc_tzz                  000000014004e5a8     LIBCMTD:initsect.obj
 0002:00012778       _TI2?AVbad_exception@std@@ 000000014004f778     libvcruntimed:frame.obj
 0002:00012798       _CTA2?AVbad_exception@std@@ 000000014004f798     libvcruntimed:frame.obj
 0002:000127b0       _CT??_R0?AVbad_exception@std@@@8??0bad_exception@std@@QEAA@AEBV01@@Z24 000000014004f7b0     libvcruntimed:frame.obj
 0002:000127d8       _CT??_R0?AVexception@std@@@8??0exception@std@@QEAA@AEBV01@@Z24 000000014004f7d8     libvcruntimed:frame.obj
 0002:000127fc       __IMPORT_DESCRIPTOR_USER32 000000014004f7fc     user32:USER32.dll
 0002:00012810       __IMPORT_DESCRIPTOR_GDI32  000000014004f810     gdi32:GDI32.dll
 0002:00012824       __IMPORT_DESCRIPTOR_WINMM  000000014004f824     winmm:WINMM.dll
 0002:00012838       __IMPORT_DESCRIPTOR_KERNEL32 000000014004f838     kernel32:KERNEL32.dll
 0002:0001284c       __NULL_IMPORT_DESCRIPTOR   000000014004f84c     user32:USER32.dll
 0003:00000040       __security_cookie_complement 0000000140051040     LIBCMTD:gs_cookie.obj
 0003:00000048       __security_cookie          0000000140051048     LIBCMTD:gs_cookie.obj
 0003:00000050       _fltused                   0000000140051050     LIBCMTD:fltused.obj
 0003:00000054       __scrt_native_dllmain_reason 0000000140051054     LIBCMTD:utility.obj
 0003:00000058       __scrt_default_matherr     0000000140051058     LIBCMTD:matherr.obj
 0003:00000060       __isa_available            0000000140051060     LIBCMTD:cpu_disp.obj
 0003:00000064       __isa_enabled              0000000140051064     LIBCMTD:cpu_disp.obj
 0003:00000068       __memcpy_nt_iters          0000000140051068     LIBCMTD:cpu_disp.obj
 0003:00000070       __memset_nt_iters          0000000140051070     LIBCMTD:cpu_disp.obj
 0003:00000094       _crtDbgFlag                0000000140051094     libucrtd:debug_heap.obj
 0003:00000098       _crtBreakAlloc             0000000140051098     libucrtd:debug_heap.obj
 0003:000000a0       __abort_behavior           00000001400510a0     libucrtd:abort.obj
 0003:000000c0       __acrt_initial_multibyte_data 00000001400510c0     libucrtd:mbctype.obj
 0003:00000600       __acrt_initial_locale_data 0000000140051600     libucrtd:nlsdata.obj
 0003:00000758       __acrt_initial_locale_pointers 0000000140051758     libucrtd:nlsdata.obj
 0003:00000768       __acrt_wide_c_locale_string 0000000140051768     libucrtd:nlsdata.obj
 0003:00000770       _pwctype                   0000000140051770     libucrtd:ctype.obj
 0003:00000780       __acrt_lconv_c             0000000140051780     libucrtd:localeconv.obj
 0003:00000818       __acrt_lconv_static_decimal 0000000140051818     libucrtd:localeconv.obj
 0003:0000081c       __acrt_lconv_static_W_decimal 000000014005181c     libucrtd:localeconv.obj
 0003:00000820       __globallocalestatus       0000000140051820     libucrtd:glstatus.obj
 0003:00000828       _pfnAllocHook              0000000140051828     libucrtd:debug_heap_hook.obj
 0003:00000840       _iob                       0000000140051840     libucrtd:_file.obj
 0003:00000948       _CrtDbgMode                0000000140051948     libucrtd:dbgrptt.obj
 0003:00000958       _CrtDbgFile                0000000140051958     libucrtd:dbgrptt.obj
 0003:00000970       _crtAssertBusy             0000000140051970     libucrtd:dbgrptt.obj
 0003:00000980       _lookuptrailbytes          0000000140051980     libucrtd:read.obj
 0003:00000aa0       ??_R0?AVbad_exception@std@@@8 0000000140051aa0     libvcruntimed:frame.obj
 0003:00000ac8       ??_R0?AVexception@std@@@8  0000000140051ac8     libvcruntimed:frame.obj
 0003:00000af0       ??_R0?AVtype_info@@@8      0000000140051af0     LIBCMTD:std_type_info_static.obj
 0003:000010f0       __scrt_current_native_startup_state 00000001400520f0     LIBCMTD:utility.obj
 0003:000010f8       __scrt_native_startup_lock 00000001400520f8     LIBCMTD:utility.obj
 0003:00001140       ?__type_info_root_node@@3U__type_info_node@@A 0000000140052140     LIBCMTD:tncleanup.obj
 0003:00001150       ?_OptionsStorage@?1??__local_stdio_printf_options@@9@4_KA 0000000140052150     LIBCMTD:default_local_stdio_options.obj
 0003:00001158       ?_OptionsStorage@?1??__local_stdio_scanf_options@@9@4_KA 0000000140052158     LIBCMTD:default_local_stdio_options.obj
 0003:00001160       __scrt_debugger_hook_flag  0000000140052160     LIBCMTD:utility_desktop.obj
 0003:00001168       __castguard_check_failure_os_handled_fptr 0000000140052168     LIBCMTD:guard_support.obj
 0003:00001170       __favor                    0000000140052170     LIBCMTD:cpu_disp.obj
 0003:00001178       ?__WinRTOutOfMemoryExceptionCallback@@3P6APEAXXZEA 0000000140052178     libvcruntimed:ehhelpers.obj
 0003:00001230       ?pArgList@UnDecorator@@0PEAVReplicator@@EA 0000000140052230     libvcruntimed:undname.obj
 0003:00001238       ?pZNameList@UnDecorator@@0PEAVReplicator@@EA 0000000140052238     libvcruntimed:undname.obj
 0003:00001240       ?pTemplateArgList@UnDecorator@@0PEAVReplicator@@EA 0000000140052240     libvcruntimed:undname.obj
 0003:00001248       ?gName@UnDecorator@@0PEBDEB 0000000140052248     libvcruntimed:undname.obj
 0003:00001250       ?name@UnDecorator@@0PEBDEB 0000000140052250     libvcruntimed:undname.obj
 0003:00001258       ?disableFlags@UnDecorator@@0KA 0000000140052258     libvcruntimed:undname.obj
 0003:0000125c       ?fExplicitTemplateParams@UnDecorator@@0_NA 000000014005225c     libvcruntimed:undname.obj
 0003:0000125d       ?fGetTemplateArgumentList@UnDecorator@@0_NA 000000014005225d     libvcruntimed:undname.obj
 0003:00001260       ?m_pGetParameter@UnDecorator@@0P6APEADJ@ZEA 0000000140052260     libvcruntimed:undname.obj
 0003:00001268       ?m_CHPENameOffset@UnDecorator@@0KA 0000000140052268     libvcruntimed:undname.obj
 0003:0000126c       ?m_recursionLevel@UnDecorator@@0KA 000000014005226c     libvcruntimed:undname.obj
 0003:000012d8       __pPurecall                00000001400522d8     libvcruntimed:purevirt_data.obj
 0003:00001a28       _environ_table             0000000140052a28     libucrtd:environment_initialization.obj
 0003:00001a30       _wenviron_table            0000000140052a30     libucrtd:environment_initialization.obj
 0003:00001a38       __dcrt_initial_wide_environment 0000000140052a38     libucrtd:environment_initialization.obj
 0003:00001a40       __dcrt_initial_narrow_environment 0000000140052a40     libucrtd:environment_initialization.obj
 0003:00001a58       ?c_exit_complete@?1???R<lambda_6e4b09c48022b2350581041d5f6b0c4c>@@QEBA@XZ@4_NA 0000000140052a58     libucrtd:exit.obj
 0003:00001a5c       __acrt_locale_changed_data 0000000140052a5c     libucrtd:wsetlocale.obj
 0003:00001a64       _commode                   0000000140052a64     libucrtd:ncommode.obj
 0003:00001a68       __acrt_atexit_table        0000000140052a68     libucrtd:onexit.obj
 0003:00001a80       __acrt_at_quick_exit_table 0000000140052a80     libucrtd:onexit.obj
 0003:00001ac8       _pfnDumpClient             0000000140052ac8     libucrtd:debug_heap.obj
 0003:00001ae8       _mbctype                   0000000140052ae8     libucrtd:mbctype.obj
 0003:00001af0       _mbcasemap                 0000000140052af0     libucrtd:mbctype.obj
 0003:00001af8       __acrt_current_multibyte_data 0000000140052af8     libucrtd:mbctype.obj
 0003:00001b08       _pgmptr                    0000000140052b08     libucrtd:argv_data.obj
 0003:00001b10       __argc                     0000000140052b10     libucrtd:argv_data.obj
 0003:00001b18       __argv                     0000000140052b18     libucrtd:argv_data.obj
 0003:00001b20       __wargv                    0000000140052b20     libucrtd:argv_data.obj
 0003:00001b28       _acmdln                    0000000140052b28     libucrtd:argv_data.obj
 0003:00001b30       _wcmdln                    0000000140052b30     libucrtd:argv_data.obj
 0003:00001d7c       _fmode                     0000000140052d7c     libucrtd:txtmode.obj
 0003:00001d80       __pioinfo                  0000000140052d80     libucrtd:ioinit.obj
 0003:00002180       _nhandle                   0000000140053180     libucrtd:ioinit.obj
 0003:00002188       __acrt_current_locale_data 0000000140053188     libucrtd:nlsdata.obj
 0003:00002340       __acrt_lconv_static_null   0000000140053340     libucrtd:localeconv.obj
 0003:00002344       __acrt_lconv_static_W_null 0000000140053344     libucrtd:localeconv.obj
 0003:00002348       __acrt_heap                0000000140053348     libucrtd:heap_handle.obj
 0003:00002378       __acrt_stdout_buffer       0000000140053378     libucrtd:_sftbuf.obj
 0003:00002380       __acrt_stderr_buffer       0000000140053380     libucrtd:_sftbuf.obj
 0003:00002390       _nstream                   0000000140053390     libucrtd:_file.obj
 0003:00002398       __piob                     0000000140053398     libucrtd:_file.obj
 0003:000023a8       _pfnReportHook             00000001400533a8     libucrtd:dbgrptt.obj
 0003:000023b0       _pReportHookList           00000001400533b0     libucrtd:dbgrptt.obj
 0003:000023b8       _pReportHookListW          00000001400533b8     libucrtd:dbgrptt.obj
 0003:000023c8       __fma3_is_available        00000001400533c8     libucrtd:fma3_available.obj
 0003:000023cc       __use_fma3_lib             00000001400533cc     libucrtd:fma3_available.obj
 0003:000023d8       __scrt_ucrt_dll_is_in_use  00000001400533d8     <common>
 0003:000023e0       __dyn_tls_dtor_callback    00000001400533e0     <common>
 0003:000023e8       __dyn_tls_init_callback    00000001400533e8     <common>

 entry point at        0001:00003e20

 Static symbols

 0000:fffa7000       .debug$S                   0000000140000000     gdi32:GDI32.dll
 0000:fffa7000       .debug$S                   0000000140000000     gdi32:GDI32.dll
 0000:fffa7000       .debug$S                   0000000140000000     gdi32:GDI32.dll
 0000:fffa7000       .debug$S                   0000000140000000     kernel32:KERNEL32.dll
 0000:fffa7000       .debug$S                   0000000140000000     kernel32:KERNEL32.dll
 0000:fffa7000       .debug$S                   0000000140000000     kernel32:KERNEL32.dll
 0000:fffa7000       .debug$S                   0000000140000000     kernel32:KERNEL32.dll
 0000:fffa7000       .debug$S                   0000000140000000     kernel32:KERNEL32.dll
 0000:fffa7000       .debug$S                   0000000140000000     kernel32:KERNEL32.dll
 0000:fffa7000       .debug$S                   0000000140000000     kernel32:KERNEL32.dll
 0000:fffa7000       .debug$S                   0000000140000000     kernel32:KERNEL32.dll
 0000:fffa7000       .debug$S                   0000000140000000     kernel32:KERNEL32.dll
 0000:fffa7000       .debug$S                   0000000140000000     kernel32:KERNEL32.dll
 0000:fffa7000       .debug$S                   0000000140000000     kernel32:KERNEL32.dll
 0000:fffa7000       .debug$S                   0000000140000000     kernel32:KERNEL32.dll
 0000:fffa7000       .debug$S                   0000000140000000     kernel32:KERNEL32.dll
 0000:fffa7000       .debug$S                   0000000140000000     kernel32:KERNEL32.dll
 0000:fffa7000       .debug$S                   0000000140000000     kernel32:KERNEL32.dll
 0000:fffa7000       .debug$S                   0000000140000000     kernel32:KERNEL32.dll
 0000:fffa7000       .debug$S                   0000000140000000     kernel32:KERNEL32.dll
 0000:fffa7000       .debug$S                   0000000140000000     kernel32:KERNEL32.dll
 0000:fffa7000       .debug$S                   0000000140000000     kernel32:KERNEL32.dll
 0000:fffa7000       .debug$S                   0000000140000000     kernel32:KERNEL32.dll
 0000:fffa7000       .debug$S                   0000000140000000     kernel32:KERNEL32.dll
 0000:fffa7000       .debug$S                   0000000140000000     kernel32:KERNEL32.dll
 0000:fffa7000       .debug$S                   0000000140000000     kernel32:KERNEL32.dll
 0000:fffa7000       .debug$S                   0000000140000000     kernel32:KERNEL32.dll
 0000:fffa7000       .debug$S                   0000000140000000     kernel32:KERNEL32.dll
 0000:fffa7000       .debug$S                   0000000140000000     kernel32:KERNEL32.dll
 0000:fffa7000       .debug$S                   0000000140000000     kernel32:KERNEL32.dll
 0000:fffa7000       .debug$S                   0000000140000000     kernel32:KERNEL32.dll
 0000:fffa7000       .debug$S                   0000000140000000     kernel32:KERNEL32.dll
 0000:fffa7000       .debug$S                   0000000140000000     kernel32:KERNEL32.dll
 0000:fffa7000       .debug$S                   0000000140000000     kernel32:KERNEL32.dll
 0000:fffa7000       .debug$S                   0000000140000000     kernel32:KERNEL32.dll
 0000:fffa7000       .debug$S                   0000000140000000     kernel32:KERNEL32.dll
 0000:fffa7000       .debug$S                   0000000140000000     kernel32:KERNEL32.dll
 0000:fffa7000       .debug$S                   0000000140000000     kernel32:KERNEL32.dll
 0000:fffa7000       .debug$S                   0000000140000000     kernel32:KERNEL32.dll
 0000:fffa7000       .debug$S                   0000000140000000     kernel32:KERNEL32.dll
 0000:fffa7000       .debug$S                   0000000140000000     kernel32:KERNEL32.dll
 0000:fffa7000       .debug$S                   0000000140000000     kernel32:KERNEL32.dll
 0000:fffa7000       .debug$S                   0000000140000000     kernel32:KERNEL32.dll
 0000:fffa7000       .debug$S                   0000000140000000     kernel32:KERNEL32.dll
 0000:fffa7000       .debug$S                   0000000140000000     kernel32:KERNEL32.dll
 0000:fffa7000       .debug$S                   0000000140000000     kernel32:KERNEL32.dll
 0000:fffa7000       .debug$S                   0000000140000000     kernel32:KERNEL32.dll
 0000:fffa7000       .debug$S                   0000000140000000     kernel32:KERNEL32.dll
 0000:fffa7000       .debug$S                   0000000140000000     kernel32:KERNEL32.dll
 0000:fffa7000       .debug$S                   0000000140000000     kernel32:KERNEL32.dll
 0000:fffa7000       .debug$S                   0000000140000000     kernel32:KERNEL32.dll
 0000:fffa7000       .debug$S                   0000000140000000     kernel32:KERNEL32.dll
 0000:fffa7000       .debug$S                   0000000140000000     kernel32:KERNEL32.dll
 0000:fffa7000       .debug$S                   0000000140000000     kernel32:KERNEL32.dll
 0000:fffa7000       .debug$S                   0000000140000000     kernel32:KERNEL32.dll
 0000:fffa7000       .debug$S                   0000000140000000     kernel32:KERNEL32.dll
 0000:fffa7000       .debug$S                   0000000140000000     kernel32:KERNEL32.dll
 0000:fffa7000       .debug$S                   0000000140000000     kernel32:KERNEL32.dll
 0000:fffa7000       .debug$S                   0000000140000000     kernel32:KERNEL32.dll
 0000:fffa7000       .debug$S                   0000000140000000     kernel32:KERNEL32.dll
 0000:fffa7000       .debug$S                   0000000140000000     kernel32:KERNEL32.dll
 0000:fffa7000       .debug$S                   0000000140000000     kernel32:KERNEL32.dll
 0000:fffa7000       .debug$S                   0000000140000000     kernel32:KERNEL32.dll
 0000:fffa7000       .debug$S                   0000000140000000     kernel32:KERNEL32.dll
 0000:fffa7000       .debug$S                   0000000140000000     kernel32:KERNEL32.dll
 0000:fffa7000       .debug$S                   0000000140000000     kernel32:KERNEL32.dll
 0000:fffa7000       .debug$S                   0000000140000000     kernel32:KERNEL32.dll
 0000:fffa7000       .debug$S                   0000000140000000     kernel32:KERNEL32.dll
 0000:fffa7000       .debug$S                   0000000140000000     kernel32:KERNEL32.dll
 0000:fffa7000       .debug$S                   0000000140000000     kernel32:KERNEL32.dll
 0000:fffa7000       .debug$S                   0000000140000000     kernel32:KERNEL32.dll
 0000:fffa7000       .debug$S                   0000000140000000     kernel32:KERNEL32.dll
 0000:fffa7000       .debug$S                   0000000140000000     kernel32:KERNEL32.dll
 0000:fffa7000       .debug$S                   0000000140000000     kernel32:KERNEL32.dll
 0000:fffa7000       .debug$S                   0000000140000000     kernel32:KERNEL32.dll
 0000:fffa7000       .debug$S                   0000000140000000     kernel32:KERNEL32.dll
 0000:fffa7000       .debug$S                   0000000140000000     kernel32:KERNEL32.dll
 0000:fffa7000       .debug$S                   0000000140000000     kernel32:KERNEL32.dll
 0000:fffa7000       .debug$S                   0000000140000000     kernel32:KERNEL32.dll
 0000:fffa7000       .debug$S                   0000000140000000     kernel32:KERNEL32.dll
 0000:fffa7000       .debug$S                   0000000140000000     kernel32:KERNEL32.dll
 0000:fffa7000       .debug$S                   0000000140000000     kernel32:KERNEL32.dll
 0000:fffa7000       .debug$S                   0000000140000000     kernel32:KERNEL32.dll
 0000:fffa7000       .debug$S                   0000000140000000     kernel32:KERNEL32.dll
 0000:fffa7000       .debug$S                   0000000140000000     kernel32:KERNEL32.dll
 0000:fffa7000       .debug$S                   0000000140000000     kernel32:KERNEL32.dll
 0000:fffa7000       .debug$S                   0000000140000000     kernel32:KERNEL32.dll
 0000:fffa7000       .debug$S                   0000000140000000     kernel32:KERNEL32.dll
 0000:fffa7000       .debug$S                   0000000140000000     kernel32:KERNEL32.dll
 0000:fffa7000       .debug$S                   0000000140000000     kernel32:KERNEL32.dll
 0000:fffa7000       .debug$S                   0000000140000000     kernel32:KERNEL32.dll
 0000:fffa7000       .debug$S                   0000000140000000     kernel32:KERNEL32.dll
 0000:fffa7000       .debug$S                   0000000140000000     kernel32:KERNEL32.dll
 0000:fffa7000       .debug$S                   0000000140000000     kernel32:KERNEL32.dll
 0000:fffa7000       .debug$S                   0000000140000000     kernel32:KERNEL32.dll
 0000:fffa7000       .debug$S                   0000000140000000     kernel32:KERNEL32.dll
 0000:fffa7000       .debug$S                   0000000140000000     kernel32:KERNEL32.dll
 0000:fffa7000       .debug$S                   0000000140000000     kernel32:KERNEL32.dll
 0000:fffa7000       .debug$S                   0000000140000000     kernel32:KERNEL32.dll
 0000:fffa7000       .debug$S                   0000000140000000     kernel32:KERNEL32.dll
 0000:fffa7000       .debug$S                   0000000140000000     kernel32:KERNEL32.dll
 0000:fffa7000       .debug$S                   0000000140000000     kernel32:KERNEL32.dll
 0000:fffa7000       .debug$S                   0000000140000000     kernel32:KERNEL32.dll
 0000:fffa7000       .debug$S                   0000000140000000     user32:USER32.dll
 0000:fffa7000       .debug$S                   0000000140000000     user32:USER32.dll
 0000:fffa7000       .debug$S                   0000000140000000     user32:USER32.dll
 0000:fffa7000       .debug$S                   0000000140000000     user32:USER32.dll
 0000:fffa7000       .debug$S                   0000000140000000     user32:USER32.dll
 0000:fffa7000       .debug$S                   0000000140000000     user32:USER32.dll
 0000:fffa7000       .debug$S                   0000000140000000     user32:USER32.dll
 0000:fffa7000       .debug$S                   0000000140000000     user32:USER32.dll
 0000:fffa7000       .debug$S                   0000000140000000     user32:USER32.dll
 0000:fffa7000       .debug$S                   0000000140000000     user32:USER32.dll
 0000:fffa7000       .debug$S                   0000000140000000     user32:USER32.dll
 0000:fffa7000       .debug$S                   0000000140000000     user32:USER32.dll
 0000:fffa7000       .debug$S                   0000000140000000     user32:USER32.dll
 0000:fffa7000       .debug$S                   0000000140000000     user32:USER32.dll
 0000:fffa7000       .debug$S                   0000000140000000     user32:USER32.dll
 0000:fffa7000       .debug$S                   0000000140000000     user32:USER32.dll
 0000:fffa7000       .debug$S                   0000000140000000     user32:USER32.dll
 0000:fffa7000       .debug$S                   0000000140000000     user32:USER32.dll
 0000:fffa7000       .debug$S                   0000000140000000     user32:USER32.dll
 0000:fffa7000       .debug$S                   0000000140000000     user32:USER32.dll
 0000:fffa7000       .debug$S                   0000000140000000     user32:USER32.dll
 0000:fffa7000       .debug$S                   0000000140000000     user32:USER32.dll
 0000:fffa7000       .debug$S                   0000000140000000     user32:USER32.dll
 0000:fffa7000       .debug$S                   0000000140000000     user32:USER32.dll
 0000:fffa7000       .debug$S                   0000000140000000     winmm:WINMM.dll
 0001:00001850       ?ToggleFullscreen@@YAXPEAUHWND__@@@Z 0000000140002850 f   win32_handmade.obj
 0001:00001a10       ?CatStrings@@YAX_KPEAD0101@Z 0000000140002a10 f   win32_handmade.obj
 0001:00001ae0       ?Win32GetEXEFileName@@YAXPEAUwin32_state@@@Z 0000000140002ae0 f   win32_handmade.obj
 0001:00001b80       ?StringLength@@YAHPEAD@Z   0000000140002b80 f   win32_handmade.obj
 0001:00001bd0       ?Win32BuildEXEPathFileName@@YAXPEAUwin32_state@@PEADH1@Z 0000000140002bd0 f   win32_handmade.obj
 0001:00001ed0       ?Win32LoadGameCode@@YA?AUwin32_game_code@@PEAD00@Z 0000000140002ed0 f   win32_handmade.obj
 0001:00002030       ?Win32UnloadGameCode@@YAXPEAUwin32_game_code@@@Z 0000000140003030 f   win32_handmade.obj
 0001:00002090       ?Win32LoadXInput@@YAXXZ    0000000140003090 f   win32_handmade.obj
 0001:00002120       ?Win32InitDSound@@YAXPEAUHWND__@@HH@Z 0000000140003120 f   win32_handmade.obj
 0001:00002350       ?GetWindowDimension@@YA?AUwin32_window_dimension@@PEAUHWND__@@@Z 0000000140003350 f   win32_handmade.obj
 0001:000023c0       ?Win32ResizeDIBSection@@YAXPEAUwin32_offscreen_buffer@@HH@Z 00000001400033c0 f   win32_handmade.obj
 0001:000024e0       ?Win32DisplayBufferInWindow@@YAXPEAUwin32_offscreen_buffer@@PEAUHDC__@@HH@Z 00000001400034e0 f   win32_handmade.obj
 0001:00002900       $LN15                      0000000140003900     win32_handmade.obj
 0001:0000291c       $LN14                      000000014000391c     win32_handmade.obj
 0001:00002a20       ?Win32ClearSoundBuffer@@YAXPEAUwin32_sound_output@@@Z 0000000140003a20 f   win32_handmade.obj
 0001:00002b40       ?Win32FillSoundBuffer@@YAXPEAUwin32_sound_output@@KKPEAUgame_sound_output_buffer@@@Z 0000000140003b40 f   win32_handmade.obj
 0001:00002d70       ?Win32ProcessKeyboardMessage@@YAXPEAUgame_button_state@@H@Z 0000000140003d70 f   win32_handmade.obj
 0001:00002db0       ?Win32ProcessXInputDigitalButton@@YAXKPEAUgame_button_state@@K0@Z 0000000140003db0 f   win32_handmade.obj
 0001:00002e50       ?Win32GetInputFileLocation@@YAXPEAUwin32_state@@HHHPEAD@Z 0000000140003e50 f   win32_handmade.obj
 0001:00002f00       ?Win32GetReplayBuffer@@YAPEAUwin32_replay_buffer@@PEAUwin32_state@@I@Z 0000000140003f00 f   win32_handmade.obj
 0001:00002f50       ?Win32BeginRecordingInput@@YAXPEAUwin32_state@@H@Z 0000000140003f50 f   win32_handmade.obj
 0001:00003070       ?Win32EndRecordingInput@@YAXPEAUwin32_state@@@Z 0000000140004070 f   win32_handmade.obj
 0001:000030b0       ?Win32BeginInputPlayback@@YAXPEAUwin32_state@@H@Z 00000001400040b0 f   win32_handmade.obj
 0001:000031d0       ?Win32EndInputPlayback@@YAXPEAUwin32_state@@@Z 00000001400041d0 f   win32_handmade.obj
 0001:00003210       ?Win32RecordInput@@YAXPEAUwin32_state@@PEAUgame_input@@@Z 0000000140004210 f   win32_handmade.obj
 0001:00003260       ?Win32PlayBackInput@@YAXPEAUwin32_state@@PEAUgame_input@@@Z 0000000140004260 f   win32_handmade.obj
 0001:000032e0       ?Win32ProcessXInputStickValue@@YAMFF@Z 00000001400042e0 f   win32_handmade.obj
 0001:00003360       ?Win32ProcessPendingMessages@@YAXPEAUwin32_state@@PEAUgame_controller_input@@@Z 0000000140004360 f   win32_handmade.obj
 0001:000039f0       $$000000                   00000001400049f0     LIBCMTD:chkstk.obj
 0001:00003a60       $$000000                   0000000140004a60     LIBCMTD:amdsecgs.obj
 0001:00003aa0       ?pre_c_initialization@@YAHXZ 0000000140004aa0 f   LIBCMTD:exe_winmain.obj
 0001:00003b60       ?post_pgo_initialization@@YAHXZ 0000000140004b60 f   LIBCMTD:exe_winmain.obj
 0001:00003b70       ?pre_cpp_initialization@@YAXXZ 0000000140004b70 f   LIBCMTD:exe_winmain.obj
 0001:00003b90       ?__scrt_common_main@@YAHXZ 0000000140004b90 f   LIBCMTD:exe_winmain.obj
 0001:00003bb0       ?__scrt_common_main_seh@@YAHXZ 0000000140004bb0 f   LIBCMTD:exe_winmain.obj
 0001:00003d80       ?invoke_main@@YAHXZ        0000000140004d80 f   LIBCMTD:exe_winmain.obj
 0001:00004010       capture_current_context    0000000140005010 f   LIBCMTD:gs_report.obj
 0001:00004010       ?capture_current_context@@YAXQEAU_CONTEXT@@@Z 0000000140005010 f   libucrtd:invalid_parameter.obj
 0001:000040b0       capture_previous_context   00000001400050b0 f   LIBCMTD:gs_report.obj
 0001:00004170       ?find_pe_section@@YAPEAU_IMAGE_SECTION_HEADER@@QEAE_K@Z 0000000140005170 f   LIBCMTD:utility.obj
 0001:00004240       ?is_potentially_valid_image_base@@YA_NQEAX@Z 0000000140005240 f   LIBCMTD:utility.obj
 0001:00004670       __get_entropy              0000000140005670 f   LIBCMTD:gs_support.obj
 0001:00004810       initialize_environment     0000000140005810 f   libucrtd:initialization.obj
 0001:00004810       initialize_global_state_isolation 0000000140005810 f   libucrtd:initialization.obj
 0001:00004820       init_memcpy_functions      0000000140005820 f   libvcruntimed:initialization.obj
 0001:00005690       ??0<lambda_8d0ee55de4b1038c4002e0adecdf1839>@@QEAA@AEBQEAU__acrt_ptd@@@Z 0000000140006690 f i libucrtd:per_thread_data.obj
 0001:00005690       ??0<lambda_8f455de75cd7d7f24b4096f044d8b9e6>@@QEAA@AEBQEAU__acrt_ptd@@@Z 0000000140006690 f i libucrtd:per_thread_data.obj
 0001:00005690       ??0<lambda_e157831efee4ea0afb0a2ace5dd5fd0d>@@QEAA@AEBQEAU__acrt_ptd@@@Z 0000000140006690 f i libucrtd:per_thread_data.obj
 0001:00005690       ??0<lambda_4e7105787b7b0e0227fbf2b2d883fa65>@@QEAA@AEBH@Z 0000000140006690 f i libucrtd:close.obj
 0001:00005690       ??0<lambda_5533cddd4bda0037814beee657757329>@@QEAA@AEBH@Z 0000000140006690 f i libucrtd:commit.obj
 0001:00005690       ??0<lambda_df1553121bfa390f1154bd84936f2730>@@QEAA@AEAV?$__crt_unique_heap_ptr@PEADU__crt_internal_free_policy@@@@@Z 0000000140006690 f i libucrtd:argv_parsing.obj
 0001:00005690       ??0<lambda_d121dba8a4adeaf3a9819e48611155df>@@QEAA@AEBQEAU_onexit_table_t@@@Z 0000000140006690 f i libucrtd:onexit.obj
 0001:000056f0       ?begin@?$argument_list@D@?A0x5f5c8891@@QEBAPEAPEADXZ 00000001400066f0 f i libucrtd:argv_wildcards.obj
 0001:000058d0       ?_FilterSetCurrentException@@YAKPEAU_EXCEPTION_POINTERS@@E@Z 00000001400068d0 f   libvcruntimed:ehhelpers.obj
 0001:00005b30       $$000000                   0000000140006b30     libvcruntimed:notify.obj
 0001:00005be0       ??0scoped_get_last_error_reset@?A0xb3e1f75e@@QEAA@XZ 0000000140006be0 f   libvcruntimed:per_thread_data.obj
 0001:00005c00       ??1scoped_get_last_error_reset@?A0xb3e1f75e@@QEAA@XZ 0000000140006c00 f   libvcruntimed:per_thread_data.obj
 0001:00005c50       ?store_and_initialize_ptd@@YA_NQEAU__vcrt_ptd@@@Z 0000000140006c50 f   libvcruntimed:per_thread_data.obj
 0001:000060e0       ?invalid_function_sentinel@@YAPEAXXZ 00000001400070e0 f   libvcruntimed:winapi_downlevel.obj
 0001:000060e0       ?invalid_function_sentinel@@YAPEAXXZ 00000001400070e0 f   libucrtd:winapi_thunks.obj
 0001:000060f0       ?try_get_FlsAlloc@@YAP6AKP6AXPEAX@Z@ZXZ 00000001400070f0 f   libvcruntimed:winapi_downlevel.obj
 0001:00006120       ?try_get_FlsFree@@YAP6AHK@ZXZ 0000000140007120 f   libvcruntimed:winapi_downlevel.obj
 0001:00006150       ?try_get_FlsGetValue@@YAP6APEAXK@ZXZ 0000000140007150 f   libvcruntimed:winapi_downlevel.obj
 0001:00006180       ?try_get_FlsSetValue@@YAP6AHKPEAX@ZXZ 0000000140007180 f   libvcruntimed:winapi_downlevel.obj
 0001:000061b0       ?try_get_InitializeCriticalSectionEx@@YAP6AHPEAU_RTL_CRITICAL_SECTION@@KK@ZXZ 00000001400071b0 f   libvcruntimed:winapi_downlevel.obj
 0001:000061e0       ?try_get_first_available_module@@YAPEAUHINSTANCE__@@QEBW4module_id@?A0x84e3c32f@@0@Z 00000001400071e0 f   libvcruntimed:winapi_downlevel.obj
 0001:00006240       ?try_get_function@@YAPEAXW4function_id@?A0x84e3c32f@@QEBDQEBW4module_id@2@2@Z 0000000140007240 f   libvcruntimed:winapi_downlevel.obj
 0001:000063b0       ?try_get_module@@YAPEAUHINSTANCE__@@W4module_id@?A0x84e3c32f@@@Z 00000001400073b0 f   libvcruntimed:winapi_downlevel.obj
 0001:00006510       ?try_get_proc_address_from_first_available_module@@YAPEAXQEBDQEBW4module_id@?A0x84e3c32f@@1@Z 0000000140007510 f   libvcruntimed:winapi_downlevel.obj
 0001:00006560       ?try_load_library_from_system_directory@@YAPEAUHINSTANCE__@@QEB_W@Z 0000000140007560 f   libvcruntimed:winapi_downlevel.obj
 0001:00006790       $$000000                   0000000140007790     libvcruntimed:memcpy.obj
 0001:00006c00       ??$SehTransFilter@V__FrameHandler3@@@@YAHPEAU_EXCEPTION_POINTERS@@PEAUEHExceptionRecord@@PEA_KPEAU_CONTEXT@@PEAU_xDISPATCHER_CONTEXT@@PEBU_s_FuncInfo@@HPEAH@Z 0000000140007c00 f   libvcruntimed:risctrnsctrl.obj
 0001:00007910       ?adjustIp@@YA_KPEAU_xDISPATCHER_CONTEXT@@_K@Z 0000000140008910 f   libvcruntimed:ehstate.obj
 0001:00007920       ??$BuildCatchObjectHelperInternal@V__FrameHandler3@@@@YAHPEAUEHExceptionRecord@@PEAXPEBU_s_HandlerType@@PEBU_s_CatchableType@@@Z 0000000140008920 f   libvcruntimed:frame.obj
 0001:00007d00       ??$BuildCatchObjectInternal@V__FrameHandler3@@@@YAXPEAUEHExceptionRecord@@PEAXPEBU_s_HandlerType@@PEBU_s_CatchableType@@@Z 0000000140008d00 f   libvcruntimed:frame.obj
 0001:00007e50       ??$CatchIt@V__FrameHandler3@@@@YAXPEAUEHExceptionRecord@@PEA_KPEAU_CONTEXT@@PEAU_xDISPATCHER_CONTEXT@@PEBU_s_FuncInfo@@PEBU_s_HandlerType@@PEBU_s_CatchableType@@PEBU_s_TryBlockMapEntry@@H1EE@Z 0000000140008e50 f   libvcruntimed:frame.obj
 0001:00007f90       ??$FindHandler@V__FrameHandler3@@@@YAXPEAUEHExceptionRecord@@PEA_KPEAU_CONTEXT@@PEAU_xDISPATCHER_CONTEXT@@PEBU_s_FuncInfo@@EH1@Z 0000000140008f90 f   libvcruntimed:frame.obj
 0001:00008770       ??$FindHandlerForForeignException@V__FrameHandler3@@@@YAXPEAUEHExceptionRecord@@PEA_KPEAU_CONTEXT@@PEAU_xDISPATCHER_CONTEXT@@PEBU_s_FuncInfo@@HH1@Z 0000000140009770 f   libvcruntimed:frame.obj
 0001:00009190       ??0<lambda_92619d2358a28f41a33ba319515a20b9>@@QEAA@AEBQEAU__acrt_ptd@@AEBQEAPEAU__crt_locale_data@@@Z 000000014000a190 f i libucrtd:per_thread_data.obj
 0001:00009190       ??0<lambda_bd5a608237428601b7e45fbdc72b1ae8>@@QEAA@AEBQEAU__acrt_ptd@@AEBQEAPEAU__crt_multibyte_data@@@Z 000000014000a190 f i libucrtd:mbctype.obj
 0001:00009190       ??0<lambda_3b83eb014488ad801d84acef5aaf14d3>@@QEAA@AEBQEAU_onexit_table_t@@AEBQ6AHXZ@Z 000000014000a190 f i libucrtd:onexit.obj
 0001:00009820       ?ExFilterRethrow@@YAHPEAU_EXCEPTION_POINTERS@@PEAUEHExceptionRecord@@PEAH@Z 000000014000a820 f   libvcruntimed:frame.obj
 0001:00009c40       ?IsInExceptionSpec@@YAEPEAUEHExceptionRecord@@PEBU_s_ESTypeList@@@Z 000000014000ac40 f   libvcruntimed:frame.obj
 0001:00009d60       ?Is_bad_exception_allowed@@YAEPEBU_s_ESTypeList@@@Z 000000014000ad60 f   libvcruntimed:frame.obj
 0001:00009ee0       ?__RethrowException@@YAXPEAUEHExceptionRecord@@@Z 000000014000aee0 f   libvcruntimed:frame.obj
 0001:0000a100       $$000000                   000000014000b100     libvcruntimed:memset.obj
 0001:0000a2c0       $$000000                   000000014000b2c0     libvcruntimed:handlers.obj
 0001:0000a6f0       ?xcptlookup@@YAPEAU__crt_signal_action_t@@KQEAU1@@Z 000000014000b6f0 f   libucrtd:exception_filter.obj
 0001:0000a9e0       $LN33                      000000014000b9e0     libucrtd:exception_filter.obj
 0001:0000aa00       ?issue_debug_notification@@YA_NQEB_W@Z 000000014000ba00 f   libucrtd:report_runtime_error.obj
 0001:0000aa60       ?should_write_error_to_console@@YA_NXZ 000000014000ba60 f   libucrtd:report_runtime_error.obj
 0001:0000aaa0       ?write_string_to_console@@YAXQEB_W@Z 000000014000baa0 f   libucrtd:report_runtime_error.obj
 0001:0000b0c0       ??$common_configure_argv@D@@YAHW4_crt_argv_mode@@@Z 000000014000c0c0 f   libucrtd:argv_parsing.obj
 0001:0000b490       ??$parse_command_line@D@@YAXPEADPEAPEAD0PEA_K2@Z 000000014000c490 f   libucrtd:argv_parsing.obj
 0001:0000b940       ??R<lambda_df1553121bfa390f1154bd84936f2730>@@QEBAHXZ 000000014000c940 f   libucrtd:argv_parsing.obj
 0001:0000b9a0       ?do_locale_initialization@@YAXD@Z 000000014000c9a0 f   libucrtd:argv_parsing.obj
 0001:0000b9a0       ?do_locale_initialization@@YAXE@Z 000000014000c9a0 f   libucrtd:argv_winmain.obj
 0001:0000b9c0       ?expand_argv_wildcards@@YAHQEAPEADQEAPEAPEAD@Z 000000014000c9c0 f   libucrtd:argv_parsing.obj
 0001:0000b9f0       ?get_argv@@YAAEAPEAPEADD@Z 000000014000c9f0 f   libucrtd:argv_parsing.obj
 0001:0000ba00       ?get_command_line@@YAPEADD@Z 000000014000ca00 f   libucrtd:argv_parsing.obj
 0001:0000ba00       ?get_command_line@@YAPEAEE@Z 000000014000ca00 f   libucrtd:argv_winmain.obj
 0001:0000ba10       ?should_copy_another_character@@YA_ND@Z 000000014000ca10 f   libucrtd:argv_parsing.obj
 0001:0000bba4       ??$common_initialize_environment_nolock@D@@YAHXZ 000000014000cba4 f   libucrtd:environment_initialization.obj
 0001:0000bc1c       ??$create_environment@D@@YAQEAPEADQEAD@Z 000000014000cc1c f   libucrtd:environment_initialization.obj
 0001:0000bd78       ??$free_environment@D@@YAXQEAPEAD@Z 000000014000cd78 f   libucrtd:environment_initialization.obj
 0001:0000bd78       ??$free_environment@_W@@YAXQEAPEA_W@Z 000000014000cd78 f   libucrtd:environment_initialization.obj
 0001:0000bdd4       ??$uninitialize_environment_internal@D@@YAXAEAPEAPEAD@Z 000000014000cdd4 f   libucrtd:environment_initialization.obj
 0001:0000bdf0       ??$uninitialize_environment_internal@_W@@YAXAEAPEAPEA_W@Z 000000014000cdf0 f   libucrtd:environment_initialization.obj
 0001:0000be60       ??$common_wincmdln@E@@YAPEAEXZ 000000014000ce60 f   libucrtd:argv_winmain.obj
 0001:0000bf60       ?should_copy_another_character@@YA_NE@Z 000000014000cf60 f   libucrtd:argv_winmain.obj
 0001:0000c0b0       ??$?RV<lambda_d80eeec6fff315bfe5c115232f3240e3>@@AEAV<lambda_6e4b09c48022b2350581041d5f6b0c4c>@@V<lambda_2358e3775559c9db80273638284d5e45>@@@?$__crt_seh_guarded_call@X@@QEAAX$$QEAV<lambda_d80eeec6fff315bfe5c115232f3240e3>@@AEAV<lambda_6e4b09c48022b2350581041d5f6b0c4c>@@$$QEAV<lambda_2358e3775559c9db80273638284d5e45>@@@Z 000000014000d0b0 f   libucrtd:exit.obj
 0001:0000c0f0       ??$__acrt_lock_and_call@V<lambda_6e4b09c48022b2350581041d5f6b0c4c>@@@@YAXW4__acrt_lock_id@@$$QEAV<lambda_6e4b09c48022b2350581041d5f6b0c4c>@@@Z 000000014000d0f0 f   libucrtd:exit.obj
 0001:0000c190       ??0<lambda_04ddeca75b7c13fd67716e8dfcef87ee>@@QEAA@AEBW4__acrt_lock_id@@@Z 000000014000d190 f   libucrtd:per_thread_data.obj
 0001:0000c190       ??0<lambda_0ae27a3a962d80f24befdcbee591983d>@@QEAA@AEBW4__acrt_lock_id@@@Z 000000014000d190 f   libucrtd:per_thread_data.obj
 0001:0000c190       ??0<lambda_2d41944a1d46af3157314b8a01080d33>@@QEAA@AEBW4__acrt_lock_id@@@Z 000000014000d190 f   libucrtd:per_thread_data.obj
 0001:0000c190       ??0<lambda_6992ecaafeb10aed2b74cb1fae11a551>@@QEAA@AEBW4__acrt_lock_id@@@Z 000000014000d190 f   libucrtd:per_thread_data.obj
 0001:0000c190       ??0<lambda_74a0ef281e44d15e1136f792f539efb3>@@QEAA@AEBW4__acrt_lock_id@@@Z 000000014000d190 f   libucrtd:per_thread_data.obj
 0001:0000c190       ??0<lambda_aa500f224e6afead328df44964fe2772>@@QEAA@AEBW4__acrt_lock_id@@@Z 000000014000d190 f   libucrtd:per_thread_data.obj
 0001:0000c190       ??0<lambda_aa87e3671a710a21b5dc78c0bdf72e11>@@QEAA@AEBW4__acrt_lock_id@@@Z 000000014000d190 f   libucrtd:per_thread_data.obj
 0001:0000c190       ??0<lambda_dc504788e8f1664fe9b84e20bfb512f2>@@QEAA@AEBW4__acrt_lock_id@@@Z 000000014000d190 f   libucrtd:per_thread_data.obj
 0001:0000c190       ??0<lambda_38119f0e861e05405d8a144b9b982f0a>@@QEAA@AEBW4__acrt_lock_id@@@Z 000000014000d190 f   libucrtd:wsetlocale.obj
 0001:0000c190       ??0<lambda_410d79af7f07d98d83a3f525b3859a53>@@QEAA@AEBW4__acrt_lock_id@@@Z 000000014000d190 f   libucrtd:wsetlocale.obj
 0001:0000c190       ??0<lambda_53fc7fc888e23d815d7080162c0aeeb2>@@QEAA@AEBH@Z 000000014000d190 f   libucrtd:close.obj
 0001:0000c190       ??0<lambda_8ddc48ad9d26c778cb15812d1d88fc8a>@@QEAA@AEBH@Z 000000014000d190 f   libucrtd:close.obj
 0001:0000c190       ??0<lambda_47cffbaa968af5c721c38a4a6f8da44d>@@QEAA@AEBH@Z 000000014000d190 f   libucrtd:commit.obj
 0001:0000c190       ??0<lambda_4e3dbe6921bc0b5a1a6bc6573fdc859e>@@QEAA@AEBH@Z 000000014000d190 f   libucrtd:commit.obj
 0001:0000c190       ??0<lambda_728235dc0fc2b1f82d1fa5b3e7102d8f>@@QEAA@AEBW4__acrt_lock_id@@@Z 000000014000d190 f   libucrtd:mbctype.obj
 0001:0000c190       ??0<lambda_efa02eb69bf647d2f7ff0dd6f1103f72>@@QEAA@AEBW4__acrt_lock_id@@@Z 000000014000d190 f   libucrtd:mbctype.obj
 0001:0000c190       ??0<lambda_450d765d439847d4c735a33c368b5fc0>@@QEAA@AEBW4__acrt_lock_id@@@Z 000000014000d190 f   libucrtd:signal.obj
 0001:0000c190       ??0<lambda_601a2a7da3b7a96e9554ac7215c4b07c>@@QEAA@AEBW4__acrt_lock_id@@@Z 000000014000d190 f   libucrtd:signal.obj
 0001:0000c190       ??0<lambda_2358e3775559c9db80273638284d5e45>@@QEAA@AEBW4__acrt_lock_id@@@Z 000000014000d190 f   libucrtd:exit.obj
 0001:0000c190       ??0<lambda_d80eeec6fff315bfe5c115232f3240e3>@@QEAA@AEBW4__acrt_lock_id@@@Z 000000014000d190 f   libucrtd:exit.obj
 0001:0000c190       ??0<lambda_00e911965883f7966597d4c465c83ebc>@@QEAA@AEBW4__acrt_lock_id@@@Z 000000014000d190 f   libucrtd:onexit.obj
 0001:0000c190       ??0<lambda_6a47f4c8fd0152770a780fc1d70204eb>@@QEAA@AEBW4__acrt_lock_id@@@Z 000000014000d190 f   libucrtd:onexit.obj
 0001:0000c190       ??0<lambda_6aaa2265f5b6a89667e7d7630012e97a>@@QEAA@AEBW4__acrt_lock_id@@@Z 000000014000d190 f   libucrtd:onexit.obj
 0001:0000c190       ??0<lambda_dce957679fd779aa27c4ca5c39e09098>@@QEAA@AEBW4__acrt_lock_id@@@Z 000000014000d190 f   libucrtd:onexit.obj
 0001:0000c190       ??0<lambda_886d6c58226a84441f68b9f2b8217b83>@@QEAA@AEBW4__acrt_lock_id@@@Z 000000014000d190 f   libucrtd:fflush.obj
 0001:0000c190       ??0<lambda_f7f22ab5edc0698d5f6905b0d3f44752>@@QEAA@AEBW4__acrt_lock_id@@@Z 000000014000d190 f   libucrtd:fflush.obj
 0001:0000c1b0       ??0<lambda_6e4b09c48022b2350581041d5f6b0c4c>@@QEAA@AEBW4_crt_exit_cleanup_mode@@AEBW4_crt_exit_return_mode@@AEA_N@Z 000000014000d1b0 f   libucrtd:exit.obj
 0001:0000c1b0       ??0<lambda_ab61a845afdef5b7c387490eaf3616ee>@@QEAA@AEAHAEB_N0@Z 000000014000d1b0 f   libucrtd:fflush.obj
 0001:0000c220       ??R<lambda_04ddeca75b7c13fd67716e8dfcef87ee>@@QEBAXXZ 000000014000d220 f   libucrtd:per_thread_data.obj
 0001:0000c220       ??R<lambda_6992ecaafeb10aed2b74cb1fae11a551>@@QEBAXXZ 000000014000d220 f   libucrtd:per_thread_data.obj
 0001:0000c220       ??R<lambda_aa500f224e6afead328df44964fe2772>@@QEBAXXZ 000000014000d220 f   libucrtd:per_thread_data.obj
 0001:0000c220       ??R<lambda_dc504788e8f1664fe9b84e20bfb512f2>@@QEBAXXZ 000000014000d220 f   libucrtd:per_thread_data.obj
 0001:0000c220       ??R<lambda_38119f0e861e05405d8a144b9b982f0a>@@QEBAXXZ 000000014000d220 f   libucrtd:wsetlocale.obj
 0001:0000c220       ??R<lambda_728235dc0fc2b1f82d1fa5b3e7102d8f>@@QEBAXXZ 000000014000d220 f   libucrtd:mbctype.obj
 0001:0000c220       ??R<lambda_601a2a7da3b7a96e9554ac7215c4b07c>@@QEBAXXZ 000000014000d220 f   libucrtd:signal.obj
 0001:0000c220       ??R<lambda_2358e3775559c9db80273638284d5e45>@@QEBAXXZ 000000014000d220 f   libucrtd:exit.obj
 0001:0000c220       ??R<lambda_00e911965883f7966597d4c465c83ebc>@@QEBAXXZ 000000014000d220 f   libucrtd:onexit.obj
 0001:0000c220       ??R<lambda_6aaa2265f5b6a89667e7d7630012e97a>@@QEBAXXZ 000000014000d220 f   libucrtd:onexit.obj
 0001:0000c220       ??R<lambda_f7f22ab5edc0698d5f6905b0d3f44752>@@QEBAXXZ 000000014000d220 f   libucrtd:fflush.obj
 0001:0000c240       ??R<lambda_6e4b09c48022b2350581041d5f6b0c4c>@@QEBA@XZ 000000014000d240 f   libucrtd:exit.obj
 0001:0000c340       ??R<lambda_0ae27a3a962d80f24befdcbee591983d>@@QEBAXXZ 000000014000d340 f   libucrtd:per_thread_data.obj
 0001:0000c340       ??R<lambda_2d41944a1d46af3157314b8a01080d33>@@QEBAXXZ 000000014000d340 f   libucrtd:per_thread_data.obj
 0001:0000c340       ??R<lambda_74a0ef281e44d15e1136f792f539efb3>@@QEBAXXZ 000000014000d340 f   libucrtd:per_thread_data.obj
 0001:0000c340       ??R<lambda_aa87e3671a710a21b5dc78c0bdf72e11>@@QEBAXXZ 000000014000d340 f   libucrtd:per_thread_data.obj
 0001:0000c340       ??R<lambda_410d79af7f07d98d83a3f525b3859a53>@@QEBAXXZ 000000014000d340 f   libucrtd:wsetlocale.obj
 0001:0000c340       ??R<lambda_efa02eb69bf647d2f7ff0dd6f1103f72>@@QEBAXXZ 000000014000d340 f   libucrtd:mbctype.obj
 0001:0000c340       ??R<lambda_450d765d439847d4c735a33c368b5fc0>@@QEBAXXZ 000000014000d340 f   libucrtd:signal.obj
 0001:0000c340       ??R<lambda_d80eeec6fff315bfe5c115232f3240e3>@@QEBAXXZ 000000014000d340 f   libucrtd:exit.obj
 0001:0000c340       ??R<lambda_6a47f4c8fd0152770a780fc1d70204eb>@@QEBAXXZ 000000014000d340 f   libucrtd:onexit.obj
 0001:0000c340       ??R<lambda_dce957679fd779aa27c4ca5c39e09098>@@QEBAXXZ 000000014000d340 f   libucrtd:onexit.obj
 0001:0000c340       ??R<lambda_886d6c58226a84441f68b9f2b8217b83>@@QEBAXXZ 000000014000d340 f   libucrtd:fflush.obj
 0001:0000c3b0       ?atexit_exception_filter@@YAHK@Z 000000014000d3b0 f   libucrtd:exit.obj
 0001:0000c450       ?common_exit@@YAXHW4_crt_exit_cleanup_mode@@W4_crt_exit_return_mode@@@Z 000000014000d450 f   libucrtd:exit.obj
 0001:0000c4e0       ?exit_or_terminate_process@@YAXI@Z 000000014000d4e0 f   libucrtd:exit.obj
 0001:0000c520       ?is_managed_app@@YA_NXZ    000000014000d520 f   libucrtd:exit.obj
 0001:0000c5d0       ?should_call_terminate_process@@YA_NXZ 000000014000d5d0 f   libucrtd:exit.obj
 0001:0000c630       ?try_cor_exit_process@@YAXI@Z 000000014000d630 f   libucrtd:exit.obj
 0001:0000c8c0       ??$?RV<lambda_410d79af7f07d98d83a3f525b3859a53>@@AEAV<lambda_3e16ef9562a7dcce91392c22ab16ea36>@@V<lambda_38119f0e861e05405d8a144b9b982f0a>@@@?$__crt_seh_guarded_call@X@@QEAAX$$QEAV<lambda_410d79af7f07d98d83a3f525b3859a53>@@AEAV<lambda_3e16ef9562a7dcce91392c22ab16ea36>@@$$QEAV<lambda_38119f0e861e05405d8a144b9b982f0a>@@@Z 000000014000d8c0 f   libucrtd:wsetlocale.obj
 0001:0000c900       ??$__acrt_lock_and_call@V<lambda_3e16ef9562a7dcce91392c22ab16ea36>@@@@YAXW4__acrt_lock_id@@$$QEAV<lambda_3e16ef9562a7dcce91392c22ab16ea36>@@@Z 000000014000d900 f   libucrtd:wsetlocale.obj
 0001:0000c950       ??$uninitialize@V<lambda_363eea9039da1e8169e2d060c7fe5cbc>@@@?$dual_state_global@PEAU__crt_locale_data@@@__crt_state_management@@QEAAX$$QEAV<lambda_363eea9039da1e8169e2d060c7fe5cbc>@@@Z 000000014000d950 f   libucrtd:wsetlocale.obj
 0001:0000c9a0       ??R<lambda_363eea9039da1e8169e2d060c7fe5cbc>@@QEBAXAEAPEAU__crt_locale_data@@@Z 000000014000d9a0 f   libucrtd:wsetlocale.obj
 0001:0000c9e0       ??R<lambda_3e16ef9562a7dcce91392c22ab16ea36>@@QEBA@XZ 000000014000d9e0 f   libucrtd:wsetlocale.obj
 0001:0000cd60       ??$?RV<lambda_6a47f4c8fd0152770a780fc1d70204eb>@@AEAV<lambda_d121dba8a4adeaf3a9819e48611155df>@@V<lambda_6aaa2265f5b6a89667e7d7630012e97a>@@@?$__crt_seh_guarded_call@H@@QEAAH$$QEAV<lambda_6a47f4c8fd0152770a780fc1d70204eb>@@AEAV<lambda_d121dba8a4adeaf3a9819e48611155df>@@$$QEAV<lambda_6aaa2265f5b6a89667e7d7630012e97a>@@@Z 000000014000dd60 f   libucrtd:onexit.obj
 0001:0000cdb0       ??$?RV<lambda_dce957679fd779aa27c4ca5c39e09098>@@AEAV<lambda_3b83eb014488ad801d84acef5aaf14d3>@@V<lambda_00e911965883f7966597d4c465c83ebc>@@@?$__crt_seh_guarded_call@H@@QEAAH$$QEAV<lambda_dce957679fd779aa27c4ca5c39e09098>@@AEAV<lambda_3b83eb014488ad801d84acef5aaf14d3>@@$$QEAV<lambda_00e911965883f7966597d4c465c83ebc>@@@Z 000000014000ddb0 f   libucrtd:onexit.obj
 0001:0000ce00       ??$__acrt_lock_and_call@V<lambda_3b83eb014488ad801d84acef5aaf14d3>@@@@YAHW4__acrt_lock_id@@$$QEAV<lambda_3b83eb014488ad801d84acef5aaf14d3>@@@Z 000000014000de00 f   libucrtd:onexit.obj
 0001:0000ce50       ??$__acrt_lock_and_call@V<lambda_d121dba8a4adeaf3a9819e48611155df>@@@@YAHW4__acrt_lock_id@@$$QEAV<lambda_d121dba8a4adeaf3a9819e48611155df>@@@Z 000000014000de50 f   libucrtd:onexit.obj
 0001:0000cea0       ??R<lambda_3b83eb014488ad801d84acef5aaf14d3>@@QEBAHXZ 000000014000dea0 f   libucrtd:onexit.obj
 0001:0000d1b0       ??R<lambda_d121dba8a4adeaf3a9819e48611155df>@@QEBAHXZ 000000014000e1b0 f   libucrtd:onexit.obj
 0001:0000d500       initialize_global_variables 000000014000e500 f   libucrtd:initialization.obj
 0001:0000d520       initialize_c               000000014000e520 f   libucrtd:initialization.obj
 0001:0000d550       uninitialize_c             000000014000e550 f   libucrtd:initialization.obj
 0001:0000d550       uninitialize_global_state_isolation 000000014000e550 f   libucrtd:initialization.obj
 0001:0000d560       uninitialize_environment   000000014000e560 f   libucrtd:initialization.obj
 0001:0000d590       initialize_pointers        000000014000e590 f   libucrtd:initialization.obj
 0001:0000d5f0       uninitialize_vcruntime     000000014000e5f0 f   libucrtd:initialization.obj
 0001:0000d610       uninitialize_allocated_memory 000000014000e610 f   libucrtd:initialization.obj
 0001:0000d650       uninitialize_allocated_io_buffers 000000014000e650 f   libucrtd:initialization.obj
 0001:0000d6d0       report_memory_leaks        000000014000e6d0 f   libucrtd:initialization.obj
 0001:0000d700       ??$uninitialize@V<lambda_af27fe6ede5d83bbdbd622796c194e9c>@@@?$dual_state_global@PEAU__crt_multibyte_data@@@__crt_state_management@@QEAAX$$QEAV<lambda_af27fe6ede5d83bbdbd622796c194e9c>@@@Z 000000014000e700 f   libucrtd:initialization.obj
 0001:0000d750       ??R<lambda_af27fe6ede5d83bbdbd622796c194e9c>@@QEBAXAEAPEAU__crt_multibyte_data@@@Z 000000014000e750 f   libucrtd:initialization.obj
 0001:0000d9b0       ?block_from_header@@YAPEAEQEAU_CrtMemBlockHeader@@@Z 000000014000e9b0 f   libucrtd:debug_heap.obj
 0001:0000d9c0       ?check_block@@YA_NQEAU_CrtMemBlockHeader@@@Z 000000014000e9c0 f   libucrtd:debug_heap.obj
 0001:0000dd80       ?check_bytes@@YA_NQEBEE_K@Z 000000014000ed80 f   libucrtd:debug_heap.obj
 0001:0000ddf0       ?dump_all_object_since_nolock@@YAXQEBU_CrtMemState@@@Z 000000014000edf0 f   libucrtd:debug_heap.obj
 0001:0000e1b0       ?free_dbg_nolock@@YAXQEAXH@Z 000000014000f1b0 f   libucrtd:debug_heap.obj
 0001:0000e800       ?header_from_block@@YAPEAU_CrtMemBlockHeader@@QEBX@Z 000000014000f800 f   libucrtd:debug_heap.obj
 0001:0000e810       ?heap_alloc_dbg@@YAPEAX_KHQEBDH@Z 000000014000f810 f   libucrtd:debug_heap.obj
 0001:0000e8b0       ?heap_alloc_dbg_internal@@YAPEAX_KHQEBDH@Z 000000014000f8b0 f   libucrtd:debug_heap.obj
 0001:0000ecf0       ?is_bad_read_pointer@@YA_NQEBX_K@Z 000000014000fcf0 f   libucrtd:debug_heap.obj
 0001:0000ee00       ?is_block_an_aligned_allocation@@YA_NQEBX@Z 000000014000fe00 f   libucrtd:debug_heap.obj
 0001:0000ee40       ?is_block_type_valid@@YA_NH@Z 000000014000fe40 f   libucrtd:debug_heap.obj
 0001:0000ee90       ?print_block_data@@YAXQEAU__crt_locale_pointers@@QEAU_CrtMemBlockHeader@@@Z 000000014000fe90 f   libucrtd:debug_heap.obj
 0001:0000f0c0       ?realloc_dbg_nolock@@YAPEAXQEAXQEA_KHQEBDH_N@Z 00000001400100c0 f   libucrtd:debug_heap.obj
 0001:0000f8e0       ?validate_heap_if_required_nolock@@YAXXZ 00000001400108e0 f   libucrtd:debug_heap.obj
 0001:00010690       ??$common_tcscpy_s@D@@YAHQEAD_KQEBD@Z 0000000140011690 f   libucrtd:strcpy_s.obj
 0001:00010b90       $$000000                   0000000140011b90     libucrtd:strcmp.obj
 0001:00010c10       $$000000                   0000000140011c10     libucrtd:strlen.obj
 0001:00010ed0       ??$common_vsnprintf_s@D@@YAH_KQEAD00QEBDQEAU__crt_locale_pointers@@1@Z 0000000140011ed0 f   libucrtd:output.obj
 0001:00011490       ??$common_vsnprintf_s@_W@@YAH_KQEA_W00QEB_WQEAU__crt_locale_pointers@@QEAD@Z 0000000140012490 f   libucrtd:output.obj
 0001:00011a60       ??$common_vsprintf@Vformat_validation_base@__crt_stdio_output@@D@@YAH_KQEAD0QEBDQEAU__crt_locale_pointers@@1@Z 0000000140012a60 f   libucrtd:output.obj
 0001:00011f40       ??$common_vsprintf@Vformat_validation_base@__crt_stdio_output@@_W@@YAH_KQEA_W0QEB_WQEAU__crt_locale_pointers@@QEAD@Z 0000000140012f40 f   libucrtd:output.obj
 0001:00012410       ??$common_vsprintf_s@D@@YAH_KQEAD0QEBDQEAU__crt_locale_pointers@@1@Z 0000000140013410 f   libucrtd:output.obj
 0001:000146cc       $LN39                      00000001400156cc     libucrtd:output.obj
 0001:00014a2c       $LN39                      0000000140015a2c     libucrtd:output.obj
 0001:00015518       $LN54                      0000000140016518     libucrtd:output.obj
 0001:00015540       $LN53                      0000000140016540     libucrtd:output.obj
 0001:00015998       $LN54                      0000000140016998     libucrtd:output.obj
 0001:000159c0       $LN53                      00000001400169c0     libucrtd:output.obj
 0001:00015e34       $LN44                      0000000140016e34     libucrtd:output.obj
 0001:00015e64       $LN43                      0000000140016e64     libucrtd:output.obj
 0001:0001638c       $LN44                      000000014001738c     libucrtd:output.obj
 0001:000163bc       $LN43                      00000001400173bc     libucrtd:output.obj
 0001:00016640       $LN19                      0000000140017640     libucrtd:output.obj
 0001:0001a610       $$000000                   000000014001b610     libucrtd:strncmp.obj
 0001:0001a6a0       ??$common_message_window@D@@YAHHQEAXQEBD111@Z 000000014001b6a0 f   libucrtd:dbgrpt.obj
 0001:0001ad70       ??$common_message_window@_W@@YAHHQEAXQEB_W111@Z 000000014001bd70 f   libucrtd:dbgrpt.obj
 0001:0001b590       ?get_output_message_format@@YAPEB_WD@Z 000000014001c590 f   libucrtd:dbgrpt.obj
 0001:0001b5a0       ?get_output_message_format@@YAPEB_W_W@Z 000000014001c5a0 f   libucrtd:dbgrpt.obj
 0001:0001b5b0       ?get_program_name_unknown_text@@YAPEBDD@Z 000000014001c5b0 f   libucrtd:dbgrpt.obj
 0001:0001b5c0       ?get_program_name_unknown_text@@YAPEB_W_W@Z 000000014001c5c0 f   libucrtd:dbgrpt.obj
 0001:0001b950       ??$?RV<lambda_0ae27a3a962d80f24befdcbee591983d>@@AEAV<lambda_8d0ee55de4b1038c4002e0adecdf1839>@@V<lambda_dc504788e8f1664fe9b84e20bfb512f2>@@@?$__crt_seh_guarded_call@X@@QEAAX$$QEAV<lambda_0ae27a3a962d80f24befdcbee591983d>@@AEAV<lambda_8d0ee55de4b1038c4002e0adecdf1839>@@$$QEAV<lambda_dc504788e8f1664fe9b84e20bfb512f2>@@@Z 000000014001c950 f   libucrtd:per_thread_data.obj
 0001:0001b990       ??$?RV<lambda_2d41944a1d46af3157314b8a01080d33>@@AEAV<lambda_8f455de75cd7d7f24b4096f044d8b9e6>@@V<lambda_aa500f224e6afead328df44964fe2772>@@@?$__crt_seh_guarded_call@X@@QEAAX$$QEAV<lambda_2d41944a1d46af3157314b8a01080d33>@@AEAV<lambda_8f455de75cd7d7f24b4096f044d8b9e6>@@$$QEAV<lambda_aa500f224e6afead328df44964fe2772>@@@Z 000000014001c990 f   libucrtd:per_thread_data.obj
 0001:0001b9d0       ??$?RV<lambda_74a0ef281e44d15e1136f792f539efb3>@@AEAV<lambda_e157831efee4ea0afb0a2ace5dd5fd0d>@@V<lambda_04ddeca75b7c13fd67716e8dfcef87ee>@@@?$__crt_seh_guarded_call@X@@QEAAX$$QEAV<lambda_74a0ef281e44d15e1136f792f539efb3>@@AEAV<lambda_e157831efee4ea0afb0a2ace5dd5fd0d>@@$$QEAV<lambda_04ddeca75b7c13fd67716e8dfcef87ee>@@@Z 000000014001c9d0 f   libucrtd:per_thread_data.obj
 0001:0001ba10       ??$?RV<lambda_aa87e3671a710a21b5dc78c0bdf72e11>@@AEAV<lambda_92619d2358a28f41a33ba319515a20b9>@@V<lambda_6992ecaafeb10aed2b74cb1fae11a551>@@@?$__crt_seh_guarded_call@X@@QEAAX$$QEAV<lambda_aa87e3671a710a21b5dc78c0bdf72e11>@@AEAV<lambda_92619d2358a28f41a33ba319515a20b9>@@$$QEAV<lambda_6992ecaafeb10aed2b74cb1fae11a551>@@@Z 000000014001ca10 f   libucrtd:per_thread_data.obj
 0001:0001ba50       ??$__acrt_lock_and_call@V<lambda_8d0ee55de4b1038c4002e0adecdf1839>@@@@YAXW4__acrt_lock_id@@$$QEAV<lambda_8d0ee55de4b1038c4002e0adecdf1839>@@@Z 000000014001ca50 f   libucrtd:per_thread_data.obj
 0001:0001baa0       ??$__acrt_lock_and_call@V<lambda_8f455de75cd7d7f24b4096f044d8b9e6>@@@@YAXW4__acrt_lock_id@@$$QEAV<lambda_8f455de75cd7d7f24b4096f044d8b9e6>@@@Z 000000014001caa0 f   libucrtd:per_thread_data.obj
 0001:0001baf0       ??$__acrt_lock_and_call@V<lambda_92619d2358a28f41a33ba319515a20b9>@@@@YAXW4__acrt_lock_id@@$$QEAV<lambda_92619d2358a28f41a33ba319515a20b9>@@@Z 000000014001caf0 f   libucrtd:per_thread_data.obj
 0001:0001bb40       ??$__acrt_lock_and_call@V<lambda_e157831efee4ea0afb0a2ace5dd5fd0d>@@@@YAXW4__acrt_lock_id@@$$QEAV<lambda_e157831efee4ea0afb0a2ace5dd5fd0d>@@@Z 000000014001cb40 f   libucrtd:per_thread_data.obj
 0001:0001bbd0       ??R<lambda_8d0ee55de4b1038c4002e0adecdf1839>@@QEBAXXZ 000000014001cbd0 f   libucrtd:per_thread_data.obj
 0001:0001bbf0       ??R<lambda_8f455de75cd7d7f24b4096f044d8b9e6>@@QEBAXXZ 000000014001cbf0 f   libucrtd:per_thread_data.obj
 0001:0001bc10       ??R<lambda_92619d2358a28f41a33ba319515a20b9>@@QEBAXXZ 000000014001cc10 f   libucrtd:per_thread_data.obj
 0001:0001bc40       ??R<lambda_e157831efee4ea0afb0a2ace5dd5fd0d>@@QEBAXXZ 000000014001cc40 f   libucrtd:per_thread_data.obj
 0001:0001bcb0       ?construct_ptd@@YAXQEAU__acrt_ptd@@QEAPEAU__crt_locale_data@@@Z 000000014001ccb0 f   libucrtd:per_thread_data.obj
 0001:0001bd90       ?construct_ptd_array@@YAXQEAU__acrt_ptd@@@Z 000000014001cd90 f   libucrtd:per_thread_data.obj
 0001:0001be00       ?destroy_fls@@YAXPEAX@Z    000000014001ce00 f   libucrtd:per_thread_data.obj
 0001:0001be40       ?destroy_ptd@@YAXQEAU__acrt_ptd@@@Z 000000014001ce40 f   libucrtd:per_thread_data.obj
 0001:0001bf60       ?destroy_ptd_array@@YAXQEAU__acrt_ptd@@@Z 000000014001cf60 f   libucrtd:per_thread_data.obj
 0001:0001bfb0       ?internal_get_ptd_head@@YAPEAU__acrt_ptd@@XZ 000000014001cfb0 f   libucrtd:per_thread_data.obj
 0001:0001c0e0       ?internal_getptd_noexit@@YAPEAU__acrt_ptd@@XZ 000000014001d0e0 f   libucrtd:per_thread_data.obj
 0001:0001c150       ?replace_current_thread_locale_nolock@@YAXQEAU__acrt_ptd@@QEAU__crt_locale_data@@@Z 000000014001d150 f   libucrtd:per_thread_data.obj
 0001:0001c210       ?try_get_ptd_head@@YAPEAU__acrt_ptd@@XZ 000000014001d210 f   libucrtd:per_thread_data.obj
 0001:0001c780       ??$common_tcscat_s@_W@@YAHQEA_W_KQEB_W@Z 000000014001d780 f   libucrtd:wcscat_s.obj
 0001:0001ce30       ??$common_tcscpy_s@_W@@YAHQEA_W_KQEB_W@Z 000000014001de30 f   libucrtd:wcscpy_s.obj
 0001:0001d340       ??$common_tcsncpy_s@_W@@YAHQEA_W_KQEB_W1@Z 000000014001e340 f   libucrtd:wcsncpy_s.obj
 0001:0001da20       ??$common_strnlen@$00G@@YA_KQEBG_K@Z 000000014001ea20 f   libucrtd:strnlen.obj
 0001:0001da80       ??$common_strnlen@$0A@E@@YA_KQEBE_K@Z 000000014001ea80 f   libucrtd:strnlen.obj
 0001:0001dae0       ??$common_strnlen@$0A@G@@YA_KQEBG_K@Z 000000014001eae0 f   libucrtd:strnlen.obj
 0001:0001db40       ??$common_strnlen_c@$00G@@YA_KQEBG_K@Z 000000014001eb40 f   libucrtd:strnlen.obj
 0001:0001dbc0       ??$common_strnlen_c@$0A@E@@YA_KQEBE_K@Z 000000014001ebc0 f   libucrtd:strnlen.obj
 0001:0001dc40       ??$common_strnlen_c@$0A@G@@YA_KQEBG_K@Z 000000014001ec40 f   libucrtd:strnlen.obj
 0001:0001dcc0       ??$common_strnlen_simd@$00$00G@@YA_KQEBG_K@Z 000000014001ecc0 f   libucrtd:strnlen.obj
 0001:0001df60       ??$common_strnlen_simd@$00$0A@G@@YA_KQEBG_K@Z 000000014001ef60 f   libucrtd:strnlen.obj
 0001:0001e250       ??$common_strnlen_simd@$0A@$00E@@YA_KQEBE_K@Z 000000014001f250 f   libucrtd:strnlen.obj
 0001:0001e4d0       ??$common_strnlen_simd@$0A@$00G@@YA_KQEBG_K@Z 000000014001f4d0 f   libucrtd:strnlen.obj
 0001:0001e770       ??$common_strnlen_simd@$0A@$0A@E@@YA_KQEBE_K@Z 000000014001f770 f   libucrtd:strnlen.obj
 0001:0001ea40       ??$common_strnlen_simd@$0A@$0A@G@@YA_KQEBG_K@Z 000000014001fa40 f   libucrtd:strnlen.obj
 0001:0001ed30       ??$last_reached@$00@@YA_NQEBX0@Z 000000014001fd30 f   libucrtd:strnlen.obj
 0001:0001ed40       ??$last_reached@$0A@@@YA_NQEBX0@Z 000000014001fd40 f   libucrtd:strnlen.obj
 0001:0001ef80       ??$common_show_message_box@_W@@YAHQEB_W0I@Z 000000014001ff80 f   libucrtd:crtmbox.obj
 0001:0001f280       ?<lambda_invoker_cdecl>@<lambda_a1ce4c8ae42411fd470c77163914f50e>@@CAHPEBX0@Z 0000000140020280 f   libucrtd:argv_wildcards.obj
 0001:0001f2b0       ??$__acrt_convert_wcs_mbs_cp@D_WV<lambda_7c9dea7b4ca7285d2cdb541a38da6275>@@U__crt_win32_buffer_internal_dynamic_resizing@@@@YAHQEBDAEAV?$__crt_win32_buffer@_WU__crt_win32_buffer_internal_dynamic_resizing@@@@AEBV<lambda_7c9dea7b4ca7285d2cdb541a38da6275>@@I@Z 00000001400202b0 f   libucrtd:argv_wildcards.obj
 0001:0001f450       ??$__acrt_convert_wcs_mbs_cp@_WDV<lambda_d8593a27d1aa8c02be35c86a17d324c4>@@U__crt_win32_buffer_internal_dynamic_resizing@@@@YAHQEB_WAEAV?$__crt_win32_buffer@DU__crt_win32_buffer_internal_dynamic_resizing@@@@AEBV<lambda_d8593a27d1aa8c02be35c86a17d324c4>@@I@Z 0000000140020450 f   libucrtd:argv_wildcards.obj
 0001:0001f690       ??$common_expand_argv_wildcards@D@@YAHQEAPEADQEAPEAPEAD@Z 0000000140020690 f   libucrtd:argv_wildcards.obj
 0001:0001fac0       ??$copy_and_add_argument_to_buffer@D@@YAHQEBD0_KAEAV?$argument_list@D@?A0x5f5c8891@@@Z 0000000140020ac0 f   libucrtd:argv_wildcards.obj
 0001:0001fc70       ??$expand_argument_wildcards@D@@YAHQEAD0AEAV?$argument_list@D@?A0x5f5c8891@@@Z 0000000140020c70 f   libucrtd:argv_wildcards.obj
 0001:00020170       ??0?$argument_list@D@?A0x5f5c8891@@QEAA@XZ 0000000140021170 f   libucrtd:argv_wildcards.obj
 0001:00020200       ??1?$argument_list@D@?A0x5f5c8891@@QEAA@XZ 0000000140021200 f   libucrtd:argv_wildcards.obj
 0001:00020270       ??B<lambda_a1ce4c8ae42411fd470c77163914f50e>@@QEBAP6AHPEBX0@ZXZ 0000000140021270 f   libucrtd:argv_wildcards.obj
 0001:00020280       ??R<lambda_7c9dea7b4ca7285d2cdb541a38da6275>@@QEBAHIQEBDQEA_W_K@Z 0000000140021280 f   libucrtd:argv_wildcards.obj
 0001:000202d0       ??R<lambda_a1ce4c8ae42411fd470c77163914f50e>@@QEBAHPEBX0@Z 00000001400212d0 f   libucrtd:argv_wildcards.obj
 0001:00020310       ??R<lambda_cfae5a0e6efa98e0d1aa03c4cec8f74e>@@QEBA_ND@Z 0000000140021310 f   libucrtd:argv_wildcards.obj
 0001:00020360       ??R<lambda_f788ae46380686e8b737efdd8c720d07>@@QEBAHIQEB_WQEAD_K@Z 0000000140021360 f   libucrtd:getmodulefilenamea.obj
 0001:00020360       ??R<lambda_d8593a27d1aa8c02be35c86a17d324c4>@@QEBAHIQEB_WQEAD_K@Z 0000000140021360 f   libucrtd:argv_wildcards.obj
 0001:00020610       ?append@?$argument_list@D@?A0x5f5c8891@@QEAAHQEAD@Z 0000000140021610 f   libucrtd:argv_wildcards.obj
 0001:00020750       ?end@?$argument_list@D@?A0x5f5c8891@@QEBAPEAPEADXZ 0000000140021750 f   libucrtd:argv_wildcards.obj
 0001:00020760       ?expand_if_necessary@?$argument_list@D@?A0x5f5c8891@@AEAAHXZ 0000000140021760 f   libucrtd:argv_wildcards.obj
 0001:00020940       ?get_file_name@@YAPEADQEAV?$__crt_win32_buffer@DU__crt_win32_buffer_internal_dynamic_resizing@@@@QEA_W@Z 0000000140021940 f   libucrtd:argv_wildcards.obj
 0001:00020990       ?get_wide@@YAPEA_WQEAV?$__crt_win32_buffer@_WU__crt_win32_buffer_internal_dynamic_resizing@@@@QEAD@Z 0000000140021990 f   libucrtd:argv_wildcards.obj
 0001:000209e0       ?previous_character@@YAPEADQEAD0@Z 00000001400219e0 f   libucrtd:argv_wildcards.obj
 0001:00020a70       ?size@?$argument_list@D@?A0x5f5c8891@@QEBA_KXZ 0000000140021a70 f   libucrtd:argv_wildcards.obj
 0001:00020af0       ??$__acrt_convert_wcs_mbs_cp@_WDV<lambda_f788ae46380686e8b737efdd8c720d07>@@U__crt_win32_buffer_no_resizing@@@@YAHQEB_WAEAV?$__crt_win32_buffer@DU__crt_win32_buffer_no_resizing@@@@AEBV<lambda_f788ae46380686e8b737efdd8c720d07>@@I@Z 0000000140021af0 f   libucrtd:getmodulefilenamea.obj
 0001:00020fb0       ??$?RV<lambda_efa02eb69bf647d2f7ff0dd6f1103f72>@@AEAV<lambda_bd5a608237428601b7e45fbdc72b1ae8>@@V<lambda_728235dc0fc2b1f82d1fa5b3e7102d8f>@@@?$__crt_seh_guarded_call@X@@QEAAX$$QEAV<lambda_efa02eb69bf647d2f7ff0dd6f1103f72>@@AEAV<lambda_bd5a608237428601b7e45fbdc72b1ae8>@@$$QEAV<lambda_728235dc0fc2b1f82d1fa5b3e7102d8f>@@@Z 0000000140021fb0 f   libucrtd:mbctype.obj
 0001:00020ff0       ??$__acrt_lock_and_call@V<lambda_bd5a608237428601b7e45fbdc72b1ae8>@@@@YAXW4__acrt_lock_id@@$$QEAV<lambda_bd5a608237428601b7e45fbdc72b1ae8>@@@Z 0000000140021ff0 f   libucrtd:mbctype.obj
 0001:00021120       ??R<lambda_bd5a608237428601b7e45fbdc72b1ae8>@@QEBAXXZ 0000000140022120 f   libucrtd:mbctype.obj
 0001:00021240       ?CPtoLocaleName@@YAPEB_WH@Z 0000000140022240 f   libucrtd:mbctype.obj
 0001:000212e0       ?getSystemCP@@YAHH@Z       00000001400222e0 f   libucrtd:mbctype.obj
 0001:000213c0       ?setSBCS@@YAXPEAU__crt_multibyte_data@@@Z 00000001400223c0 f   libucrtd:mbctype.obj
 0001:000214c0       ?setSBUpLow@@YAXPEAU__crt_multibyte_data@@@Z 00000001400224c0 f   libucrtd:mbctype.obj
 0001:000218b0       ?setmbcp_internal@@YAHH_NQEAU__acrt_ptd@@QEAPEAU__crt_multibyte_data@@@Z 00000001400228b0 f   libucrtd:mbctype.obj
 0001:00021b10       ?update_thread_multibyte_data_internal@@YAPEAU__crt_multibyte_data@@QEAU__acrt_ptd@@QEAPEAU1@@Z 0000000140022b10 f   libucrtd:mbctype.obj
 0001:00022250       memcpy_s                   0000000140023250 f   libucrtd:cfout.obj
 0001:00022250       memcpy_s                   0000000140023250 f   libucrtd:mbctype.obj
 0001:0002238c       ?x_ismbbtype_l@@YAHPEAU__crt_locale_pointers@@IHH@Z 000000014002338c f   libucrtd:ismbbyte.obj
 0001:00022450       ?filter_mbtowcs_flags@@YAKIK@Z 0000000140023450 f   libucrtd:multibytetowidechar.obj
 0001:00022550       ?filter_wcstomb_flags@@YAKIK@Z 0000000140023550 f   libucrtd:widechartomultibyte.obj
 0001:00022970       ??$get_cached_win_policy@Udeveloper_information_policy_properties@?1??__acrt_get_developer_information_policy@@YA?AW4developer_information_policy@@XZ@@@YA?AW4developer_information_policy@@W4AppPolicyShowDeveloperDiagnostic@@@Z 0000000140023970 f   libucrtd:win_policies.obj
 0001:00022a40       ??$get_cached_win_policy@Uwindowing_model_policy_properties@?1??__acrt_get_windowing_model_policy@@YA?AW4windowing_model_policy@@XZ@@@YA?AW4windowing_model_policy@@W4AppPolicyWindowingModel@@@Z 0000000140023a40 f   libucrtd:win_policies.obj
 0001:00022b10       ??$get_win_policy@Uprocess_end_policy_properties@?1??__acrt_get_process_end_policy@@YA?AW4process_end_policy@@XZ@@@YA?AW4process_end_policy@@W4AppPolicyProcessTerminationMethod@@@Z 0000000140023b10 f   libucrtd:win_policies.obj
 0001:00022b60       ?appmodel_get_policy@developer_information_policy_properties@?1??__acrt_get_developer_information_policy@@YA?AW4developer_information_policy@@XZ@SAJPEAW4AppPolicyShowDeveloperDiagnostic@@@Z 0000000140023b60 f   libucrtd:win_policies.obj
 0001:00022b80       ?appmodel_get_policy@process_end_policy_properties@?1??__acrt_get_process_end_policy@@YA?AW4process_end_policy@@XZ@SAJPEAW4AppPolicyProcessTerminationMethod@@@Z 0000000140023b80 f   libucrtd:win_policies.obj
 0001:00022ba0       ?appmodel_get_policy@windowing_model_policy_properties@?1??__acrt_get_windowing_model_policy@@YA?AW4windowing_model_policy@@XZ@SAJPEAW4AppPolicyWindowingModel@@@Z 0000000140023ba0 f   libucrtd:win_policies.obj
 0001:00022bc0       ?appmodel_policy_to_policy_type@developer_information_policy_properties@?1??__acrt_get_developer_information_policy@@YA?AW4developer_information_policy@@XZ@SA?AW43@J@Z 0000000140023bc0 f   libucrtd:win_policies.obj
 0001:00022be0       ?appmodel_policy_to_policy_type@process_end_policy_properties@?1??__acrt_get_process_end_policy@@YA?AW4process_end_policy@@XZ@SA?AW43@W4AppPolicyProcessTerminationMethod@@@Z 0000000140023be0 f   libucrtd:win_policies.obj
 0001:00022c00       ?appmodel_policy_to_policy_type@windowing_model_policy_properties@?1??__acrt_get_windowing_model_policy@@YA?AW4windowing_model_policy@@XZ@SA?AW43@J@Z 0000000140023c00 f   libucrtd:win_policies.obj
 0001:00023450       ?get_std_handle_id@@YAKH@Z 0000000140024450 f   libucrtd:ioinit.obj
 0001:000234a0       ?initialize_inherited_file_handles_nolock@@YAXXZ 00000001400244a0 f   libucrtd:ioinit.obj
 0001:00023650       ?initialize_stdio_handles_nolock@@YAXXZ 0000000140024650 f   libucrtd:ioinit.obj
 0001:00023bb0       ??$free_crt_array@D$01@@YAXAEAY01PEAD@Z 0000000140024bb0 f   libucrtd:inittime.obj
 0001:00023bb0       ??$free_crt_array@_W$01@@YAXAEAY01PEA_W@Z 0000000140024bb0 f   libucrtd:inittime.obj
 0001:00023bd0       ??$free_crt_array@D$06@@YAXAEAY06PEAD@Z 0000000140024bd0 f   libucrtd:inittime.obj
 0001:00023bd0       ??$free_crt_array@_W$06@@YAXAEAY06PEA_W@Z 0000000140024bd0 f   libucrtd:inittime.obj
 0001:00023bf0       ??$free_crt_array@D$0M@@@YAXAEAY0M@PEAD@Z 0000000140024bf0 f   libucrtd:inittime.obj
 0001:00023bf0       ??$free_crt_array@_W$0M@@@YAXAEAY0M@PEA_W@Z 0000000140024bf0 f   libucrtd:inittime.obj
 0001:00023c10       ?free_crt_array_internal@@YAXQEAPEBX_K@Z 0000000140024c10 f   libucrtd:inittime.obj
 0001:00024d30       ?try_get_AppPolicyGetProcessTerminationMethod@@YAP6AJPEAXPEAW4AppPolicyProcessTerminationMethod@@@ZXZ 0000000140025d30 f   libucrtd:winapi_thunks.obj
 0001:00024d60       ?try_get_AppPolicyGetShowDeveloperDiagnostic@@YAP6AJPEAXPEAW4AppPolicyShowDeveloperDiagnostic@@@ZXZ 0000000140025d60 f   libucrtd:winapi_thunks.obj
 0001:00024d90       ?try_get_AppPolicyGetWindowingModel@@YAP6AJPEAXPEAW4AppPolicyWindowingModel@@@ZXZ 0000000140025d90 f   libucrtd:winapi_thunks.obj
 0001:00024dc0       ?try_get_AreFileApisANSI@@YAP6AHXZXZ 0000000140025dc0 f   libucrtd:winapi_thunks.obj
 0001:00024df0       ?try_get_FlsAlloc@@YAP6AKP6AXPEAX@Z@ZXZ 0000000140025df0 f   libucrtd:winapi_thunks.obj
 0001:00024e20       ?try_get_FlsFree@@YAP6AHK@ZXZ 0000000140025e20 f   libucrtd:winapi_thunks.obj
 0001:00024e50       ?try_get_FlsGetValue@@YAP6APEAXK@ZXZ 0000000140025e50 f   libucrtd:winapi_thunks.obj
 0001:00024e80       ?try_get_FlsSetValue@@YAP6AHKPEAX@ZXZ 0000000140025e80 f   libucrtd:winapi_thunks.obj
 0001:00024eb0       ?try_get_GetActiveWindow@@YAP6APEAUHWND__@@XZXZ 0000000140025eb0 f   libucrtd:winapi_thunks.obj
 0001:00024ee0       ?try_get_GetLastActivePopup@@YAP6APEAUHWND__@@PEAU1@@ZXZ 0000000140025ee0 f   libucrtd:winapi_thunks.obj
 0001:00024f10       ?try_get_GetProcessWindowStation@@YAP6APEAUHWINSTA__@@XZXZ 0000000140025f10 f   libucrtd:winapi_thunks.obj
 0001:00024f40       ?try_get_GetUserObjectInformationW@@YAP6AHPEAXH0KPEAK@ZXZ 0000000140025f40 f   libucrtd:winapi_thunks.obj
 0001:00024f70       ?try_get_InitializeCriticalSectionEx@@YAP6AHPEAU_RTL_CRITICAL_SECTION@@KK@ZXZ 0000000140025f70 f   libucrtd:winapi_thunks.obj
 0001:00024fa0       ?try_get_LCMapStringEx@@YAP6AHPEB_WK0HPEA_WHPEAU_nlsversioninfo@@PEAX_J@ZXZ 0000000140025fa0 f   libucrtd:winapi_thunks.obj
 0001:00024fd0       ?try_get_LocaleNameToLCID@@YAP6AKPEB_WK@ZXZ 0000000140025fd0 f   libucrtd:winapi_thunks.obj
 0001:00025000       ?try_get_MessageBoxA@@YAP6AHPEAUHWND__@@PEBD1I@ZXZ 0000000140026000 f   libucrtd:winapi_thunks.obj
 0001:00025030       ?try_get_MessageBoxW@@YAP6AHPEAUHWND__@@PEB_W1I@ZXZ 0000000140026030 f   libucrtd:winapi_thunks.obj
 0001:00025060       ?try_get_first_available_module@@YAPEAUHINSTANCE__@@QEBW4module_id@?A0x391cf84c@@0@Z 0000000140026060 f   libucrtd:winapi_thunks.obj
 0001:000250c0       ?try_get_function@@YAPEAXW4function_id@?A0x391cf84c@@QEBDQEBW4module_id@2@2@Z 00000001400260c0 f   libucrtd:winapi_thunks.obj
 0001:00025260       ?try_get_module@@YAPEAUHINSTANCE__@@W4module_id@?A0x391cf84c@@@Z 0000000140026260 f   libucrtd:winapi_thunks.obj
 0001:000253c0       ?try_get_proc_address_from_first_available_module@@YAPEAXQEBDQEBW4module_id@?A0x391cf84c@@1@Z 00000001400263c0 f   libucrtd:winapi_thunks.obj
 0001:00025410       ?try_load_library_from_system_directory@@YAPEAUHINSTANCE__@@QEB_W@Z 0000000140026410 f   libucrtd:winapi_thunks.obj
 0001:00025e50       ??$?RV<lambda_450d765d439847d4c735a33c368b5fc0>@@AEAV<lambda_44731a7d0e6d81c3e6aa82d741081786>@@V<lambda_601a2a7da3b7a96e9554ac7215c4b07c>@@@?$__crt_seh_guarded_call@P6AXH@Z@@QEAAP6AXH@Z$$QEAV<lambda_450d765d439847d4c735a33c368b5fc0>@@AEAV<lambda_44731a7d0e6d81c3e6aa82d741081786>@@$$QEAV<lambda_601a2a7da3b7a96e9554ac7215c4b07c>@@@Z 0000000140026e50 f   libucrtd:signal.obj
 0001:00025ea0       ??$__acrt_lock_and_call@V<lambda_44731a7d0e6d81c3e6aa82d741081786>@@@@YAP6AXH@ZW4__acrt_lock_id@@$$QEAV<lambda_44731a7d0e6d81c3e6aa82d741081786>@@@Z 0000000140026ea0 f   libucrtd:signal.obj
 0001:00025ef0       ??R<lambda_44731a7d0e6d81c3e6aa82d741081786>@@QEBAP6AXH@ZXZ 0000000140026ef0 f   libucrtd:signal.obj
 0001:00025f20       ?get_global_action_nolock@@YAPEAP6AXH@ZH@Z 0000000140026f20 f   libucrtd:signal.obj
 0001:00025fb0       ?siglookup@@YAPEAU__crt_signal_action_t@@HQEAU1@@Z 0000000140026fb0 f   libucrtd:signal.obj
 0001:00026550       $LN58                      0000000140027550     libucrtd:signal.obj
 0001:0002655c       $LN57                      000000014002755c     libucrtd:signal.obj
 0001:00026690       ?select_heap@@YAPEAXQEAX@Z 0000000140027690 f   libucrtd:free_base.obj
 0001:000267b0       ?is_contraction_possible@@YA_N_K@Z 00000001400277b0 f   libucrtd:expand.obj
 0001:00027720       ?fe_to_nearest@@YA_NQEBN_KF@Z 0000000140028720 f   libucrtd:cvt.obj
 0001:00027870       ?fp_format_a@@YAHQEBNPEAD_KQEAD2H_NIQEAU__crt_locale_pointers@@W4__acrt_rounding_mode@@@Z 0000000140028870 f   libucrtd:cvt.obj
 0001:00028110       ?fp_format_e@@YAHQEBNQEAD_K12H_NIQEAU__crt_locale_pointers@@W4__acrt_rounding_mode@@@Z 0000000140029110 f   libucrtd:cvt.obj
 0001:00028330       ?fp_format_e_internal@@YAHQEAD_KH_NIQEAU_strflt@@2QEAU__crt_locale_pointers@@@Z 0000000140029330 f   libucrtd:cvt.obj
 0001:00028760       ?fp_format_f@@YAHQEBNQEAD_K12HQEAU__crt_locale_pointers@@W4__acrt_rounding_mode@@@Z 0000000140029760 f   libucrtd:cvt.obj
 0001:000288c0       ?fp_format_f_internal@@YAHQEAD_KHQEAU_strflt@@_NQEAU__crt_locale_pointers@@@Z 00000001400298c0 f   libucrtd:cvt.obj
 0001:00028b60       ?fp_format_g@@YAHQEBNQEAD_K12H_NIQEAU__crt_locale_pointers@@@Z 0000000140029b60 f   libucrtd:cvt.obj
 0001:00028da0       ?fp_format_nan_or_infinity@@YAHW4__acrt_fp_class@@_NPEAD_K1@Z 0000000140029da0 f   libucrtd:cvt.obj
 0001:00028f10       ?shift_bytes@@YAXQEAD_K0H@Z 0000000140029f10 f   libucrtd:cvt.obj
 0001:00028f60       ?should_round_up@@YA_NQEBN_KFW4__acrt_rounding_mode@@@Z 0000000140029f60 f   libucrtd:cvt.obj
 0001:00029678       $LN42                      000000014002a678     libucrtd:cvt.obj
 0001:0002968c       $LN41                      000000014002a68c     libucrtd:cvt.obj
 0001:0002b2f0       ?shortsort@@YAXPEAD0_KP6AHPEBX2@Z@Z 000000014002c2f0 f   libucrtd:qsort.obj
 0001:0002b3d0       ?swap@@YAXPEAD0_K@Z        000000014002c3d0 f   libucrtd:qsort.obj
 0001:0002bb70       ??$common_tcsncpy_s@D@@YAHQEAD_KQEBD1@Z 000000014002cb70 f   libucrtd:strncpy_s.obj
 0001:0002c230       fallbackMethod             000000014002d230 f   libucrtd:strpbrk.obj
 0001:0002cb94       $LN85                      000000014002db94     libucrtd:strpbrk.obj
 0001:0002cbd0       $LN84                      000000014002dbd0     libucrtd:strpbrk.obj
 0001:0002cc10       $LN83                      000000014002dc10     libucrtd:strpbrk.obj
 0001:0002cd50       ?__acrt_LCMapStringA_stat@@YAHPEAU__crt_locale_pointers@@PEB_WKPEBDHPEADHHH@Z 000000014002dd50 f   libucrtd:lcmapstringa.obj
 0001:0002d3f0       ?initialize_multibyte@@YAHXZ 000000014002e3f0 f   libucrtd:multibyte_initializer.obj
 0001:0002d420       ??$common_xtox@KD@@YAHKQEAD_KI_N@Z 000000014002e420 f   libucrtd:xtoa.obj
 0001:0002d660       ??$common_xtox@K_W@@YAHKQEA_W_KI_N@Z 000000014002e660 f   libucrtd:xtoa.obj
 0001:0002d8b0       ??$common_xtox_s@KD@@YAHKQEAD_KI_N@Z 000000014002e8b0 f   libucrtd:xtoa.obj
 0001:0002dc60       ??$common_xtox_s@K_W@@YAHKQEA_W_KI_N@Z 000000014002ec60 f   libucrtd:xtoa.obj
 0001:0002e1a0       ?GetTableIndexFromLocaleName@@YAHPEB_W@Z 000000014002f1a0 f   libucrtd:lcidtoname_downlevel.obj
 0001:0002e3c0       ??$?RV<lambda_842d9ff0dc9ef11c61343bbaebe7f885>@@AEAV<lambda_c5860995281e5c4ce005b3de8f5874ee>@@V<lambda_d90129c13df834fdcbf8d2b88dafcf2d>@@@?$__crt_seh_guarded_call@X@@QEAAX$$QEAV<lambda_842d9ff0dc9ef11c61343bbaebe7f885>@@AEAV<lambda_c5860995281e5c4ce005b3de8f5874ee>@@$$QEAV<lambda_d90129c13df834fdcbf8d2b88dafcf2d>@@@Z 000000014002f3c0 f   libucrtd:fflush.obj
 0001:0002e400       ??$?RV<lambda_886d6c58226a84441f68b9f2b8217b83>@@AEAV<lambda_ab61a845afdef5b7c387490eaf3616ee>@@V<lambda_f7f22ab5edc0698d5f6905b0d3f44752>@@@?$__crt_seh_guarded_call@X@@QEAAX$$QEAV<lambda_886d6c58226a84441f68b9f2b8217b83>@@AEAV<lambda_ab61a845afdef5b7c387490eaf3616ee>@@$$QEAV<lambda_f7f22ab5edc0698d5f6905b0d3f44752>@@@Z 000000014002f400 f   libucrtd:fflush.obj
 0001:0002e440       ??$__acrt_lock_and_call@V<lambda_ab61a845afdef5b7c387490eaf3616ee>@@@@YAXW4__acrt_lock_id@@$$QEAV<lambda_ab61a845afdef5b7c387490eaf3616ee>@@@Z 000000014002f440 f   libucrtd:fflush.obj
 0001:0002e490       ??$__acrt_lock_stream_and_call@V<lambda_c5860995281e5c4ce005b3de8f5874ee>@@@@YAXQEAU_iobuf@@$$QEAV<lambda_c5860995281e5c4ce005b3de8f5874ee>@@@Z 000000014002f490 f   libucrtd:fflush.obj
 0001:0002e4e0       ??0<lambda_842d9ff0dc9ef11c61343bbaebe7f885>@@QEAA@AEBQEAU_iobuf@@@Z 000000014002f4e0 f   libucrtd:fflush.obj
 0001:0002e4e0       ??0<lambda_d90129c13df834fdcbf8d2b88dafcf2d>@@QEAA@AEBQEAU_iobuf@@@Z 000000014002f4e0 f   libucrtd:fflush.obj
 0001:0002e500       ??0<lambda_c5860995281e5c4ce005b3de8f5874ee>@@QEAA@AEBV__crt_stdio_stream@@AEAHAEB_N1@Z 000000014002f500 f   libucrtd:fflush.obj
 0001:0002e560       ??R<lambda_842d9ff0dc9ef11c61343bbaebe7f885>@@QEBAXXZ 000000014002f560 f   libucrtd:fflush.obj
 0001:0002e580       ??R<lambda_ab61a845afdef5b7c387490eaf3616ee>@@QEBA@XZ 000000014002f580 f   libucrtd:fflush.obj
 0001:0002e670       ??R<lambda_c5860995281e5c4ce005b3de8f5874ee>@@QEBAXXZ 000000014002f670 f   libucrtd:fflush.obj
 0001:0002e710       ??R<lambda_d90129c13df834fdcbf8d2b88dafcf2d>@@QEBAXXZ 000000014002f710 f   libucrtd:fflush.obj
 0001:0002e780       ?common_flush_all@@YAH_N@Z 000000014002f780 f   libucrtd:fflush.obj
 0001:0002e7f0       ?common_flush_all_should_try_to_flush_stream@@YA_NV__crt_stdio_stream@@QEAH@Z 000000014002f7f0 f   libucrtd:fflush.obj
 0001:0002e8a0       ?is_stream_allocated@@YA_NJ@Z 000000014002f8a0 f   libucrtd:fflush.obj
 0001:0002e8d0       ?is_stream_flushable@@YA_NJ@Z 000000014002f8d0 f   libucrtd:fflush.obj
 0001:0002e900       ?is_stream_flushable_or_commitable@@YA_NJ@Z 000000014002f900 f   libucrtd:fflush.obj
 0001:0002ebf0       ??R<lambda_88e6d024674186fe9d3f7283b675e4c3>@@QEBA_KPEBD@Z 000000014002fbf0 f   libucrtd:mbrtowc.obj
 0001:0002f300       ?should_round_up@@YA_NQEBDHW4__acrt_has_trailing_digits@@W4__acrt_rounding_mode@@@Z 0000000140030300 f   libucrtd:_fptostr.obj
 0001:0002f8b0       ??$convert_to_fos_high_precision@N@@YA?AW4__acrt_has_trailing_digits@@NIQEAHQEAD_K@Z 00000001400308b0 f   libucrtd:cfout.obj
 0001:0002ffd0       ??0scoped_fp_state_reset@?A0x71ca7cfb@@QEAA@XZ 0000000140030fd0 f   libucrtd:cfout.obj
 0001:00030020       ??1scoped_fp_state_reset@?A0x71ca7cfb@@QEAA@XZ 0000000140031020 f   libucrtd:cfout.obj
 0001:00031e00       ?_mbstowcs_l_helper@@YA_KPEA_WPEBD_KPEAU__crt_locale_pointers@@@Z 0000000140032e00 f   libucrtd:mbstowcs.obj
 0001:00032a00       ?_wcstombs_l_helper@@YA_KPEADPEB_W_KPEAU__crt_locale_pointers@@@Z 0000000140033a00 f   libucrtd:wcstombs.obj
 0001:000332b0       ?wcsncnt@@YA_KPEB_W_K@Z    00000001400342b0 f   libucrtd:wcstombs.obj
 0001:000338d0       ??$common_tcscat_s@D@@YAHQEAD_KQEBD@Z 00000001400348d0 f   libucrtd:strcat_s.obj
 0001:00033fd0       ??$?RV<lambda_4e3dbe6921bc0b5a1a6bc6573fdc859e>@@AEAV<lambda_5533cddd4bda0037814beee657757329>@@V<lambda_47cffbaa968af5c721c38a4a6f8da44d>@@@?$__crt_seh_guarded_call@H@@QEAAH$$QEAV<lambda_4e3dbe6921bc0b5a1a6bc6573fdc859e>@@AEAV<lambda_5533cddd4bda0037814beee657757329>@@$$QEAV<lambda_47cffbaa968af5c721c38a4a6f8da44d>@@@Z 0000000140034fd0 f   libucrtd:commit.obj
 0001:00034020       ??$__acrt_lowio_lock_fh_and_call@V<lambda_5533cddd4bda0037814beee657757329>@@@@YAHH$$QEAV<lambda_5533cddd4bda0037814beee657757329>@@@Z 0000000140035020 f   libucrtd:commit.obj
 0001:00034070       ??R<lambda_8ddc48ad9d26c778cb15812d1d88fc8a>@@QEBAXXZ 0000000140035070 f   libucrtd:close.obj
 0001:00034070       ??R<lambda_47cffbaa968af5c721c38a4a6f8da44d>@@QEBAXXZ 0000000140035070 f   libucrtd:commit.obj
 0001:00034090       ??R<lambda_53fc7fc888e23d815d7080162c0aeeb2>@@QEBAXXZ 0000000140035090 f   libucrtd:close.obj
 0001:00034090       ??R<lambda_4e3dbe6921bc0b5a1a6bc6573fdc859e>@@QEBAXXZ 0000000140035090 f   libucrtd:commit.obj
 0001:000340b0       ??R<lambda_5533cddd4bda0037814beee657757329>@@QEBAHXZ 00000001400350b0 f   libucrtd:commit.obj
 0001:00034350       ?write_binary_nolock@@YA?AUwrite_result@?A0x17268360@@HQEBDI@Z 0000000140035350 f   libucrtd:write.obj
 0001:00034420       ?write_double_translated_ansi_nolock@@YA?AUwrite_result@?A0x17268360@@HQEBDI@Z 0000000140035420 f   libucrtd:write.obj
 0001:00035380       ?write_double_translated_unicode_nolock@@YA?AUwrite_result@?A0x17268360@@QEBDI@Z 0000000140036380 f   libucrtd:write.obj
 0001:000354e0       ?write_requires_double_translation_nolock@@YA_NH@Z 00000001400364e0 f   libucrtd:write.obj
 0001:00035600       ?write_text_ansi_nolock@@YA?AUwrite_result@?A0x17268360@@HQEBDI@Z 0000000140036600 f   libucrtd:write.obj
 0001:00035830       ?write_text_utf16le_nolock@@YA?AUwrite_result@?A0x17268360@@HQEBDI@Z 0000000140036830 f   libucrtd:write.obj
 0001:00035a70       ?write_text_utf8_nolock@@YA?AUwrite_result@?A0x17268360@@HQEBDI@Z 0000000140036a70 f   libucrtd:write.obj
 0001:000369b0       $$000000                   00000001400379b0     libucrtd:log10.obj
 0001:000374f0       ??$to_abstract_status@W4__acrt_fenv_machine_sse_status@@@@YA?AW4__acrt_fenv_abstract_status@@W4__acrt_fenv_machine_sse_status@@@Z 00000001400384f0 f   libucrtd:_fenvutils.obj
 0001:00037510       ??$translate_control_exception_mask@W4__acrt_fenv_abstract_control@@W4__acrt_fenv_machine_sse_control@@@@YA?AW4__acrt_fenv_abstract_control@@W4__acrt_fenv_machine_sse_control@@@Z 0000000140038510 f   libucrtd:_fenvutils.obj
 0001:00037600       ??$translate_control_exception_mask@W4__acrt_fenv_machine_sse_control@@W4__acrt_fenv_abstract_control@@@@YA?AW4__acrt_fenv_machine_sse_control@@W4__acrt_fenv_abstract_control@@@Z 0000000140038600 f   libucrtd:_fenvutils.obj
 0001:000376f0       ??$translate_control_rounding_control@W4__acrt_fenv_abstract_control@@W4__acrt_fenv_machine_sse_control@@@@YA?AW4__acrt_fenv_abstract_control@@W4__acrt_fenv_machine_sse_control@@@Z 00000001400386f0 f   libucrtd:_fenvutils.obj
 0001:00037760       ??$translate_control_rounding_control@W4__acrt_fenv_machine_sse_control@@W4__acrt_fenv_abstract_control@@@@YA?AW4__acrt_fenv_machine_sse_control@@W4__acrt_fenv_abstract_control@@@Z 0000000140038760 f   libucrtd:_fenvutils.obj
 0001:000377d0       ??$translate_status@W4__acrt_fenv_abstract_status@@W4__acrt_fenv_machine_sse_status@@@@YA?AW4__acrt_fenv_abstract_status@@W4__acrt_fenv_machine_sse_status@@@Z 00000001400387d0 f   libucrtd:_fenvutils.obj
 0001:000378c0       ??$translate_status@W4__acrt_fenv_machine_sse_status@@W4__acrt_fenv_abstract_status@@@@YA?AW4__acrt_fenv_machine_sse_status@@W4__acrt_fenv_abstract_status@@@Z 00000001400388c0 f   libucrtd:_fenvutils.obj
 0001:00037b90       ?get_machine_sse_control@@YA?AW4__acrt_fenv_machine_sse_control@@XZ 0000000140038b90 f   libucrtd:_fenvutils.obj
 0001:00037bb0       ?get_machine_sse_status@@YA?AW4__acrt_fenv_machine_sse_status@@XZ 0000000140038bb0 f   libucrtd:_fenvutils.obj
 0001:00037bd0       ?set_machine_sse_control@@YAXW4__acrt_fenv_machine_sse_control@@@Z 0000000140038bd0 f   libucrtd:_fenvutils.obj
 0001:00037c30       ?set_machine_sse_status@@YAXW4__acrt_fenv_machine_sse_status@@@Z 0000000140038c30 f   libucrtd:_fenvutils.obj
 0001:00037c80       ?to_abstract_control@@YA?AW4__acrt_fenv_abstract_control@@W4__acrt_fenv_machine_sse_control@@@Z 0000000140038c80 f   libucrtd:_fenvutils.obj
 0001:00037cd0       ?to_machine_sse_control@@YA?AW4__acrt_fenv_machine_sse_control@@W4__acrt_fenv_abstract_control@@@Z 0000000140038cd0 f   libucrtd:_fenvutils.obj
 0001:00037d30       ?to_machine_sse_status@@YA?AW4__acrt_fenv_machine_sse_status@@W4__acrt_fenv_abstract_status@@@Z 0000000140038d30 f   libucrtd:_fenvutils.obj
 0001:00037d50       ?translate_control_denormal_control_from_sse@@YA?AW4__acrt_fenv_abstract_control@@W4__acrt_fenv_machine_sse_control@@@Z 0000000140038d50 f   libucrtd:_fenvutils.obj
 0001:00037dd0       ?translate_control_denormal_control_to_sse@@YA?AW4__acrt_fenv_machine_sse_control@@W4__acrt_fenv_abstract_control@@@Z 0000000140038dd0 f   libucrtd:_fenvutils.obj
 0001:00037ef0       ??$common_lseek_nolock@_J@@YA_JH_JH@Z 0000000140038ef0 f   libucrtd:lseek.obj
 0001:00038000       ?common_lseek_do_seek_nolock@@YA_JQEAX_JH@Z 0000000140039000 f   libucrtd:lseek.obj
 0001:00038710       _log_special_common        0000000140039710 f   libucrtd:log_special.obj
 0001:00038830       _call_matherr              0000000140039830 f   libucrtd:libm_error.obj
 0001:000388c0       _exception_enabled         00000001400398c0 f   libucrtd:libm_error.obj
 0001:00038be0       _abstract_cw               0000000140039be0 f   libucrtd:ieee.obj
 0001:00038d30       _abstract_sw               0000000140039d30 f   libucrtd:ieee.obj
 0001:00038e10       _hw_cw                     0000000140039e10 f   libucrtd:ieee.obj
 0001:00038f60       common_control87           0000000140039f60 f   libucrtd:ieee.obj
 0001:00039080       ??$?RV<lambda_53fc7fc888e23d815d7080162c0aeeb2>@@AEAV<lambda_4e7105787b7b0e0227fbf2b2d883fa65>@@V<lambda_8ddc48ad9d26c778cb15812d1d88fc8a>@@@?$__crt_seh_guarded_call@H@@QEAAH$$QEAV<lambda_53fc7fc888e23d815d7080162c0aeeb2>@@AEAV<lambda_4e7105787b7b0e0227fbf2b2d883fa65>@@$$QEAV<lambda_8ddc48ad9d26c778cb15812d1d88fc8a>@@@Z 000000014003a080 f   libucrtd:close.obj
 0001:000390d0       ??$__acrt_lowio_lock_fh_and_call@V<lambda_4e7105787b7b0e0227fbf2b2d883fa65>@@@@YAHH$$QEAV<lambda_4e7105787b7b0e0227fbf2b2d883fa65>@@@Z 000000014003a0d0 f   libucrtd:close.obj
 0001:00039120       ??R<lambda_4e7105787b7b0e0227fbf2b2d883fa65>@@QEBAHXZ 000000014003a120 f   libucrtd:close.obj
 0001:000391d0       ?close_os_handle_nolock@@YAKH@Z 000000014003a1d0 f   libucrtd:close.obj
 0001:000396e0       ?combine_second_surrogate@?A0xc60ee810@@YA_U_SPEAU_Mbstatet@@@Z 000000014003a6e0 f   libucrtd:c16rtomb.obj
 0001:00039700       ?has_surrogate@?A0xc60ee810@@YA_NPEAU_Mbstatet@@@Z 000000014003a700 f   libucrtd:c16rtomb.obj
 0001:00039730       ?is_first_surrogate@?A0xc60ee810@@YA_N_S@Z 000000014003a730 f   libucrtd:c16rtomb.obj
 0001:00039770       ?is_second_surrogate@?A0xc60ee810@@YA_N_S@Z 000000014003a770 f   libucrtd:c16rtomb.obj
 0001:000397b0       ?store_first_surrogate@?A0xc60ee810@@YAX_SPEAU_Mbstatet@@@Z 000000014003a7b0 f   libucrtd:c16rtomb.obj
 0001:0003a1a0       $$000000                   000000014003b1a0     libucrtd:fpsr.obj
 0001:0003a5d0       $$000000                   000000014003b5d0     libvcruntimed:memcmp.obj
 0001:0003aad0       $$000000                   000000014003bad0     LIBCMTD:guard_dispatch.obj
 0001:0003aaf0       $$000000                   000000014003baf0     LIBCMTD:guard_xfg_dispatch.obj
 0001:0003ab10       ?filt$0@?0??__scrt_common_main_seh@@YAHXZ@4HA 000000014003bb10 f   LIBCMTD:exe_winmain.obj
 0001:0003ab40       __scrt_is_nonwritable_in_current_image$filt$0 000000014003bb40 f   LIBCMTD:utility.obj
 0001:0003ab80       __DestructExceptionObject$filt$0 000000014003bb80 f   libvcruntimed:ehhelpers.obj
 0001:0003abb0       ?filt$0@?0???$_CallSETranslator@V__FrameHandler3@@@@YAHPEAUEHExceptionRecord@@PEA_KPEAU_CONTEXT@@PEAU_xDISPATCHER_CONTEXT@@PEBU_s_FuncInfo@@K1H@Z@4HA 000000014003bbb0 f   libvcruntimed:risctrnsctrl.obj
 0001:0003ac20       ?filt$0@?0???$BuildCatchObjectHelperInternal@V__FrameHandler3@@@@YAHPEAUEHExceptionRecord@@PEAXPEBU_s_HandlerType@@PEBU_s_CatchableType@@@Z@4HA 000000014003bc20 f   libvcruntimed:frame.obj
 0001:0003ac20       ?filt$0@?0???$BuildCatchObjectInternal@V__FrameHandler3@@@@YAXPEAUEHExceptionRecord@@PEAXPEBU_s_HandlerType@@PEBU_s_CatchableType@@@Z@4HA 000000014003bc20 f   libvcruntimed:frame.obj
 0001:0003ac20       ?filt$0@?0??is_bad_read_pointer@@YA_NQEBX_K@Z@4HA 000000014003bc20 f   libucrtd:debug_heap.obj
 0001:0003ac20       terminate$filt$0           000000014003bc20 f   libucrtd:terminate.obj
 0001:0003ac40       ?filt$0@?0??CxxCallCatchBlock@__FrameHandler3@@SAPEAXPEAU_EXCEPTION_RECORD@@@Z@4HA 000000014003bc40 f   libvcruntimed:frame.obj
 0001:0003ac69       ?fin$1@?0??CxxCallCatchBlock@__FrameHandler3@@SAPEAXPEAU_EXCEPTION_RECORD@@@Z@4HA 000000014003bc69 f   libvcruntimed:frame.obj
 0001:0003ad00       ?filt$0@?0??FrameUnwindToState@__FrameHandler3@@SAXPEA_KPEAU_xDISPATCHER_CONTEXT@@PEBU_s_FuncInfo@@H@Z@4HA 000000014003bd00 f   libvcruntimed:frame.obj
 0001:0003ad21       ?fin$1@?0??FrameUnwindToState@__FrameHandler3@@SAXPEA_KPEAU_xDISPATCHER_CONTEXT@@PEBU_s_FuncInfo@@H@Z@4HA 000000014003bd21 f   libvcruntimed:frame.obj
 0001:0003ad60       ?fin$0@?0???$?RV<lambda_0ae27a3a962d80f24befdcbee591983d>@@AEAV<lambda_8d0ee55de4b1038c4002e0adecdf1839>@@V<lambda_dc504788e8f1664fe9b84e20bfb512f2>@@@?$__crt_seh_guarded_call@X@@QEAAX$$QEAV<lambda_0ae27a3a962d80f24befdcbee591983d>@@AEAV<lambda_8d0ee55de4b1038c4002e0adecdf1839>@@$$QEAV<lambda_dc504788e8f1664fe9b84e20bfb512f2>@@@Z@4HA 000000014003bd60 f   libucrtd:per_thread_data.obj
 0001:0003ad60       ?fin$0@?0???$?RV<lambda_2d41944a1d46af3157314b8a01080d33>@@AEAV<lambda_8f455de75cd7d7f24b4096f044d8b9e6>@@V<lambda_aa500f224e6afead328df44964fe2772>@@@?$__crt_seh_guarded_call@X@@QEAAX$$QEAV<lambda_2d41944a1d46af3157314b8a01080d33>@@AEAV<lambda_8f455de75cd7d7f24b4096f044d8b9e6>@@$$QEAV<lambda_aa500f224e6afead328df44964fe2772>@@@Z@4HA 000000014003bd60 f   libucrtd:per_thread_data.obj
 0001:0003ad60       ?fin$0@?0???$?RV<lambda_74a0ef281e44d15e1136f792f539efb3>@@AEAV<lambda_e157831efee4ea0afb0a2ace5dd5fd0d>@@V<lambda_04ddeca75b7c13fd67716e8dfcef87ee>@@@?$__crt_seh_guarded_call@X@@QEAAX$$QEAV<lambda_74a0ef281e44d15e1136f792f539efb3>@@AEAV<lambda_e157831efee4ea0afb0a2ace5dd5fd0d>@@$$QEAV<lambda_04ddeca75b7c13fd67716e8dfcef87ee>@@@Z@4HA 000000014003bd60 f   libucrtd:per_thread_data.obj
 0001:0003ad60       ?fin$0@?0???$?RV<lambda_aa87e3671a710a21b5dc78c0bdf72e11>@@AEAV<lambda_92619d2358a28f41a33ba319515a20b9>@@V<lambda_6992ecaafeb10aed2b74cb1fae11a551>@@@?$__crt_seh_guarded_call@X@@QEAAX$$QEAV<lambda_aa87e3671a710a21b5dc78c0bdf72e11>@@AEAV<lambda_92619d2358a28f41a33ba319515a20b9>@@$$QEAV<lambda_6992ecaafeb10aed2b74cb1fae11a551>@@@Z@4HA 000000014003bd60 f   libucrtd:per_thread_data.obj
 0001:0003ad60       ?fin$0@?0???$?RV<lambda_410d79af7f07d98d83a3f525b3859a53>@@AEAV<lambda_3e16ef9562a7dcce91392c22ab16ea36>@@V<lambda_38119f0e861e05405d8a144b9b982f0a>@@@?$__crt_seh_guarded_call@X@@QEAAX$$QEAV<lambda_410d79af7f07d98d83a3f525b3859a53>@@AEAV<lambda_3e16ef9562a7dcce91392c22ab16ea36>@@$$QEAV<lambda_38119f0e861e05405d8a144b9b982f0a>@@@Z@4HA 000000014003bd60 f   libucrtd:wsetlocale.obj
 0001:0003ad60       ?fin$0@?0???$?RV<lambda_efa02eb69bf647d2f7ff0dd6f1103f72>@@AEAV<lambda_bd5a608237428601b7e45fbdc72b1ae8>@@V<lambda_728235dc0fc2b1f82d1fa5b3e7102d8f>@@@?$__crt_seh_guarded_call@X@@QEAAX$$QEAV<lambda_efa02eb69bf647d2f7ff0dd6f1103f72>@@AEAV<lambda_bd5a608237428601b7e45fbdc72b1ae8>@@$$QEAV<lambda_728235dc0fc2b1f82d1fa5b3e7102d8f>@@@Z@4HA 000000014003bd60 f   libucrtd:mbctype.obj
 0001:0003ad60       ?fin$0@?0???$?RV<lambda_d80eeec6fff315bfe5c115232f3240e3>@@AEAV<lambda_6e4b09c48022b2350581041d5f6b0c4c>@@V<lambda_2358e3775559c9db80273638284d5e45>@@@?$__crt_seh_guarded_call@X@@QEAAX$$QEAV<lambda_d80eeec6fff315bfe5c115232f3240e3>@@AEAV<lambda_6e4b09c48022b2350581041d5f6b0c4c>@@$$QEAV<lambda_2358e3775559c9db80273638284d5e45>@@@Z@4HA 000000014003bd60 f   libucrtd:exit.obj
 0001:0003ad60       ?fin$0@?0???$?RV<lambda_886d6c58226a84441f68b9f2b8217b83>@@AEAV<lambda_ab61a845afdef5b7c387490eaf3616ee>@@V<lambda_f7f22ab5edc0698d5f6905b0d3f44752>@@@?$__crt_seh_guarded_call@X@@QEAAX$$QEAV<lambda_886d6c58226a84441f68b9f2b8217b83>@@AEAV<lambda_ab61a845afdef5b7c387490eaf3616ee>@@$$QEAV<lambda_f7f22ab5edc0698d5f6905b0d3f44752>@@@Z@4HA 000000014003bd60 f   libucrtd:fflush.obj
 0001:0003ad80       ?filt$0@?0???R<lambda_6e4b09c48022b2350581041d5f6b0c4c>@@QEBA@XZ@4HA 000000014003bd80 f   libucrtd:exit.obj
 0001:0003adb0       ?fin$0@?0???$?RV<lambda_450d765d439847d4c735a33c368b5fc0>@@AEAV<lambda_44731a7d0e6d81c3e6aa82d741081786>@@V<lambda_601a2a7da3b7a96e9554ac7215c4b07c>@@@?$__crt_seh_guarded_call@P6AXH@Z@@QEAAP6AXH@Z$$QEAV<lambda_450d765d439847d4c735a33c368b5fc0>@@AEAV<lambda_44731a7d0e6d81c3e6aa82d741081786>@@$$QEAV<lambda_601a2a7da3b7a96e9554ac7215c4b07c>@@@Z@4HA 000000014003bdb0 f   libucrtd:signal.obj
 0001:0003adb0       ?fin$0@?0???$?RV<lambda_6a47f4c8fd0152770a780fc1d70204eb>@@AEAV<lambda_d121dba8a4adeaf3a9819e48611155df>@@V<lambda_6aaa2265f5b6a89667e7d7630012e97a>@@@?$__crt_seh_guarded_call@H@@QEAAH$$QEAV<lambda_6a47f4c8fd0152770a780fc1d70204eb>@@AEAV<lambda_d121dba8a4adeaf3a9819e48611155df>@@$$QEAV<lambda_6aaa2265f5b6a89667e7d7630012e97a>@@@Z@4HA 000000014003bdb0 f   libucrtd:onexit.obj
 0001:0003adb0       ?fin$0@?0???$?RV<lambda_dce957679fd779aa27c4ca5c39e09098>@@AEAV<lambda_3b83eb014488ad801d84acef5aaf14d3>@@V<lambda_00e911965883f7966597d4c465c83ebc>@@@?$__crt_seh_guarded_call@H@@QEAAH$$QEAV<lambda_dce957679fd779aa27c4ca5c39e09098>@@AEAV<lambda_3b83eb014488ad801d84acef5aaf14d3>@@$$QEAV<lambda_00e911965883f7966597d4c465c83ebc>@@@Z@4HA 000000014003bdb0 f   libucrtd:onexit.obj
 0001:0003add0       ?dtor$0@?0???R<lambda_d121dba8a4adeaf3a9819e48611155df>@@QEBAHXZ@4HA 000000014003bdd0 f   libucrtd:onexit.obj
 0001:0003adf0       ?fin$0@?0??heap_alloc_dbg_internal@@YAPEAX_KHQEBDH@Z@4HA 000000014003bdf0 f   libucrtd:debug_heap.obj
 0001:0003adf0       _CrtMemCheckpoint$fin$0    000000014003bdf0 f   libucrtd:debug_heap.obj
 0001:0003ae10       ?fin$0@?0??validate_heap_if_required_nolock@@YAXXZ@4HA 000000014003be10 f   libucrtd:debug_heap.obj
 0001:0003ae30       _CrtCheckMemory$fin$0      000000014003be30 f   libucrtd:debug_heap.obj
 0001:0003ae30       _CrtMemDumpAllObjectsSince$fin$0 000000014003be30 f   libucrtd:debug_heap.obj
 0001:0003ae30       _CrtSetDbgFlag$fin$0       000000014003be30 f   libucrtd:debug_heap.obj
 0001:0003ae30       _msize_dbg$fin$0           000000014003be30 f   libucrtd:debug_heap.obj
 0001:0003ae30       _realloc_dbg$fin$0         000000014003be30 f   libucrtd:debug_heap.obj
 0001:0003ae50       _free_dbg$fin$0            000000014003be50 f   libucrtd:debug_heap.obj
 0001:0003ae50       _query_new_handler$fin$0   000000014003be50 f   libucrtd:new_handler.obj
 0001:0003ae70       ?fin$0@?0??update_thread_multibyte_data_internal@@YAPEAU__crt_multibyte_data@@QEAU__acrt_ptd@@QEAPEAU1@@Z@4HA 000000014003be70 f   libucrtd:mbctype.obj
 0001:0003ae90       __acrt_lowio_ensure_fh_exists$fin$0 000000014003be90 f   libucrtd:osfinfo.obj
 0001:0003aeb0       __acrt_initialize_lowio$fin$0 000000014003beb0 f   libucrtd:ioinit.obj
 0001:0003aed0       __acrt_update_thread_locale_data$fin$0 000000014003bed0 f   libucrtd:locale_refcounting.obj
 0001:0003aef0       raise$fin$0                000000014003bef0 f   libucrtd:signal.obj
 0001:0003af20       ?dtor$0@?0??fp_format_a@@YAHQEBNPEAD_KQEAD2H_NIQEAU__crt_locale_pointers@@W4__acrt_rounding_mode@@@Z@4HA 000000014003bf20 f   libucrtd:cvt.obj
 0001:0003af40       _VCrtDbgReportA$fin$0      000000014003bf40 f   libucrtd:dbgrptt.obj
 0001:0003af5b       _VCrtDbgReportA$fin$1      000000014003bf5b f   libucrtd:dbgrptt.obj
 0001:0003af80       _VCrtDbgReportW$fin$0      000000014003bf80 f   libucrtd:dbgrptt.obj
 0001:0003af9b       _VCrtDbgReportW$fin$1      000000014003bf9b f   libucrtd:dbgrptt.obj
 0001:0003afc0       ?dtor$0@?0??shortsort@@YAXPEAD0_KP6AHPEBX2@Z@Z@4HA 000000014003bfc0 f   libucrtd:qsort.obj
 0001:0003afe0       ?fin$0@?0???$?RV<lambda_842d9ff0dc9ef11c61343bbaebe7f885>@@AEAV<lambda_c5860995281e5c4ce005b3de8f5874ee>@@V<lambda_d90129c13df834fdcbf8d2b88dafcf2d>@@@?$__crt_seh_guarded_call@X@@QEAAX$$QEAV<lambda_842d9ff0dc9ef11c61343bbaebe7f885>@@AEAV<lambda_c5860995281e5c4ce005b3de8f5874ee>@@$$QEAV<lambda_d90129c13df834fdcbf8d2b88dafcf2d>@@@Z@4HA 000000014003bfe0 f   libucrtd:fflush.obj
 0001:0003b000       _fcloseall$fin$0           000000014003c000 f   libucrtd:closeall.obj
 0001:0003b020       ?dtor$0@?0??_wcstombs_l_helper@@YA_KPEADPEB_W_KPEAU__crt_locale_pointers@@@Z@4HA 000000014003c020 f   libucrtd:wcstombs.obj
 0001:0003b040       ?fin$0@?0???$?RV<lambda_53fc7fc888e23d815d7080162c0aeeb2>@@AEAV<lambda_4e7105787b7b0e0227fbf2b2d883fa65>@@V<lambda_8ddc48ad9d26c778cb15812d1d88fc8a>@@@?$__crt_seh_guarded_call@H@@QEAAH$$QEAV<lambda_53fc7fc888e23d815d7080162c0aeeb2>@@AEAV<lambda_4e7105787b7b0e0227fbf2b2d883fa65>@@$$QEAV<lambda_8ddc48ad9d26c778cb15812d1d88fc8a>@@@Z@4HA 000000014003c040 f   libucrtd:close.obj
 0001:0003b040       ?fin$0@?0???$?RV<lambda_4e3dbe6921bc0b5a1a6bc6573fdc859e>@@AEAV<lambda_5533cddd4bda0037814beee657757329>@@V<lambda_47cffbaa968af5c721c38a4a6f8da44d>@@@?$__crt_seh_guarded_call@H@@QEAAH$$QEAV<lambda_4e3dbe6921bc0b5a1a6bc6573fdc859e>@@AEAV<lambda_5533cddd4bda0037814beee657757329>@@$$QEAV<lambda_47cffbaa968af5c721c38a4a6f8da44d>@@@Z@4HA 000000014003c040 f   libucrtd:commit.obj
 0001:0003b060       _write$fin$0               000000014003c060 f   libucrtd:write.obj
 0001:0003b080       fclose$fin$0               000000014003c080 f   libucrtd:fclose.obj
 0001:0003b0b0       common_control87$filt$0    000000014003c0b0 f   libucrtd:ieee.obj
 0001:0003b100       _ctrlfp$filt$0             000000014003c100 f   libucrtd:fpctrl.obj
 0001:0003b150       _IsNonwritableInCurrentImage$filt$0 000000014003c150 f   LIBCMTD:pesect.obj
 0002:000003e0       ?pre_cpp_initializer@@3P6AXXZEA 000000014003d3e0     LIBCMTD:exe_winmain.obj
 0002:000003f8       ?pre_c_initializer@@3P6AHXZEA 000000014003d3f8     LIBCMTD:exe_winmain.obj
 0002:00000400       ?post_pgo_initializer@@3P6AHXZEA 000000014003d400     LIBCMTD:exe_winmain.obj
 0002:00000470       $SG120723                  000000014003d470     win32_handmade.obj
 0002:00000488       $SG120724                  000000014003d488     win32_handmade.obj
 0002:000004a0       $SG120735                  000000014003d4a0     win32_handmade.obj
 0002:000004b0       $SG120737                  000000014003d4b0     win32_handmade.obj
 0002:000004c0       $SG120739                  000000014003d4c0     win32_handmade.obj
 0002:000004d0       $SG120742                  000000014003d4d0     win32_handmade.obj
 0002:000004e0       $SG120743                  000000014003d4e0     win32_handmade.obj
 0002:000004f0       $SG120767                  000000014003d4f0     win32_handmade.obj
 0002:00000500       $SG120769                  000000014003d500     win32_handmade.obj
 0002:00000518       $SG120777                  000000014003d518     win32_handmade.obj
 0002:00000534       $SG120900                  000000014003d534     win32_handmade.obj
 0002:00000540       $SG120780                  000000014003d540     win32_handmade.obj
 0002:00000560       $SG120901                  000000014003d560     win32_handmade.obj
 0002:00000568       $SG120902                  000000014003d568     win32_handmade.obj
 0002:00000580       $SG121176                  000000014003d580     win32_handmade.obj
 0002:00000590       $SG121177                  000000014003d590     win32_handmade.obj
 0002:000005a8       $SG121178                  000000014003d5a8     win32_handmade.obj
 0002:000005b8       $SG121179                  000000014003d5b8     win32_handmade.obj
 0002:000005d0       $SG121181                  000000014003d5d0     win32_handmade.obj
 0002:000005e8       $SG121189                  000000014003d5e8     win32_handmade.obj
 0002:00000630       GS_ExceptionPointers       000000014003d630     LIBCMTD:gs_report.obj
 0002:000006a0       ?tokenTable@@3QBUStringLiteral@@B 000000014003d6a0     libvcruntimed:undname.obj
 0002:000007a0       ?nameTable@@3QBUStringLiteral@@B 000000014003d7a0     libvcruntimed:undname.obj
 0002:00000cd0       ?rttiTable@@3QBUStringLiteral@@B 000000014003dcd0     libvcruntimed:undname.obj
 0002:00000d20       ?IndirectionName@@3QBUStringLiteral@@B 000000014003dd20     libvcruntimed:undname.obj
 0002:00000d80       ?PrefixName@@3QBUStringLiteral@@B 000000014003dd80     libvcruntimed:undname.obj
 0002:00001458       ?module_names@?A0x84e3c32f@@3QBQEB_WB 000000014003e458     libvcruntimed:winapi_downlevel.obj
 0002:000016d0       ?candidate_modules@?1??try_get_FlsAlloc@@YAP6AKP6AXPEAX@Z@ZXZ@4QBW4module_id@?A0x84e3c32f@@B 000000014003e6d0     libvcruntimed:winapi_downlevel.obj
 0002:000016e8       ?candidate_modules@?1??try_get_FlsFree@@YAP6AHK@ZXZ@4QBW4module_id@?A0x84e3c32f@@B 000000014003e6e8     libvcruntimed:winapi_downlevel.obj
 0002:000016f8       ?candidate_modules@?1??try_get_FlsGetValue@@YAP6APEAXK@ZXZ@4QBW4module_id@?A0x84e3c32f@@B 000000014003e6f8     libvcruntimed:winapi_downlevel.obj
 0002:00001710       ?candidate_modules@?1??try_get_FlsSetValue@@YAP6AHKPEAX@ZXZ@4QBW4module_id@?A0x84e3c32f@@B 000000014003e710     libvcruntimed:winapi_downlevel.obj
 0002:00001728       ?candidate_modules@?1??try_get_InitializeCriticalSectionEx@@YAP6AHPEAU_RTL_CRITICAL_SECTION@@KK@ZXZ@4QBW4module_id@?A0x84e3c32f@@B 000000014003e728     libvcruntimed:winapi_downlevel.obj
 0002:00001750       ?ExceptionTemplate@?1??UnwindNestedFrames@__FrameHandler3@@SAXPEA_KPEAUEHExceptionRecord@@PEAU_CONTEXT@@0PEAXPEBU_s_FuncInfo@@HHPEBU_s_HandlerType@@PEAU_xDISPATCHER_CONTEXT@@E@Z@4U_EXCEPTION_RECORD@@B 000000014003e750     libvcruntimed:risctrnsctrl.obj
 0002:00002578       $cppxdata$??R<lambda_d121dba8a4adeaf3a9819e48611155df>@@QEBAHXZ 000000014003f578     libucrtd:onexit.obj
 0002:000025e0       __acrt_initializers        000000014003f5e0     libucrtd:initialization.obj
 0002:000026e0       ?block_use_names@@3QBQEBDB 000000014003f6e0     libucrtd:debug_heap.obj
 0002:00005c90       ?report_type_messages@@3QBQEB_WB 0000000140042c90     libucrtd:dbgrpt.obj
 0002:00005cf0       ?more_info_string@@3QEB_WEB 0000000140042cf0     libucrtd:dbgrpt.obj
 0002:00005ffe       ?empty_string@?1???$common_message_window@D@@YAHHQEAXQEBD111@Z@4QBDB 0000000140042ffe     libucrtd:dbgrpt.obj
 0002:00006278       ?empty_string@?1???$common_message_window@_W@@YAHHQEAXQEB_W111@Z@4QB_WB 0000000140043278     libucrtd:dbgrpt.obj
 0002:00006470       ?errtable@@3QBUerrentry@?A0x31fdb9ec@@B 0000000140043470     libucrtd:errno.obj
 0002:00006600       $cppxdata$??1?$__crt_win32_buffer@DU__crt_win32_buffer_internal_dynamic_resizing@@@@QEAA@XZ 0000000140043600     libucrtd:argv_wildcards.obj
 0002:00006600       $cppxdata$??1?$__crt_win32_buffer@_WU__crt_win32_buffer_internal_dynamic_resizing@@@@QEAA@XZ 0000000140043600     libucrtd:argv_wildcards.obj
 0002:00006a18       $cppxdata$??1?$__crt_win32_buffer@DU__crt_win32_buffer_no_resizing@@@@QEAA@XZ 0000000140043a18     libucrtd:getmodulefilenamea.obj
 0002:00006a40       ?_mb_locale_names@@3QBQEB_WB 0000000140043a40     libucrtd:mbctype.obj
 0002:00008040       ?module_names@?A0x391cf84c@@3QBQEB_WB 0000000140045040     libucrtd:winapi_thunks.obj
 0002:000085c4       ?candidate_modules@?1??try_get_AreFileApisANSI@@YAP6AHXZXZ@4QBW4module_id@?A0x391cf84c@@B 00000001400455c4     libucrtd:winapi_thunks.obj
 0002:000085d8       ?candidate_modules@?1??try_get_FlsAlloc@@YAP6AKP6AXPEAX@Z@ZXZ@4QBW4module_id@?A0x391cf84c@@B 00000001400455d8     libucrtd:winapi_thunks.obj
 0002:000085e0       ?candidate_modules@?1??try_get_FlsFree@@YAP6AHK@ZXZ@4QBW4module_id@?A0x391cf84c@@B 00000001400455e0     libucrtd:winapi_thunks.obj
 0002:000085e8       ?candidate_modules@?1??try_get_FlsGetValue@@YAP6APEAXK@ZXZ@4QBW4module_id@?A0x391cf84c@@B 00000001400455e8     libucrtd:winapi_thunks.obj
 0002:000085f0       ?candidate_modules@?1??try_get_FlsSetValue@@YAP6AHKPEAX@ZXZ@4QBW4module_id@?A0x391cf84c@@B 00000001400455f0     libucrtd:winapi_thunks.obj
 0002:000085f8       ?candidate_modules@?1??try_get_GetActiveWindow@@YAP6APEAUHWND__@@XZXZ@4QBW4module_id@?A0x391cf84c@@B 00000001400455f8     libucrtd:winapi_thunks.obj
 0002:00008610       ?candidate_modules@?1??try_get_GetLastActivePopup@@YAP6APEAUHWND__@@PEAU2@@ZXZ@4QBW4module_id@?A0x391cf84c@@B 0000000140045610     libucrtd:winapi_thunks.obj
 0002:00008630       ?candidate_modules@?1??try_get_GetProcessWindowStation@@YAP6APEAUHWINSTA__@@XZXZ@4QBW4module_id@?A0x391cf84c@@B 0000000140045630     libucrtd:winapi_thunks.obj
 0002:00008650       ?candidate_modules@?1??try_get_GetUserObjectInformationW@@YAP6AHPEAXH0KPEAK@ZXZ@4QBW4module_id@?A0x391cf84c@@B 0000000140045650     libucrtd:winapi_thunks.obj
 0002:00008678       ?candidate_modules@?1??try_get_InitializeCriticalSectionEx@@YAP6AHPEAU_RTL_CRITICAL_SECTION@@KK@ZXZ@4QBW4module_id@?A0x391cf84c@@B 0000000140045678     libucrtd:winapi_thunks.obj
 0002:00008680       ?candidate_modules@?1??try_get_LCMapStringEx@@YAP6AHPEB_WK0HPEA_WHPEAU_nlsversioninfo@@PEAX_J@ZXZ@4QBW4module_id@?A0x391cf84c@@B 0000000140045680     libucrtd:winapi_thunks.obj
 0002:00008698       ?candidate_modules@?1??try_get_LocaleNameToLCID@@YAP6AKPEB_WK@ZXZ@4QBW4module_id@?A0x391cf84c@@B 0000000140045698     libucrtd:winapi_thunks.obj
 0002:000086b8       ?candidate_modules@?1??try_get_MessageBoxA@@YAP6AHPEAUHWND__@@PEBD1I@ZXZ@4QBW4module_id@?A0x391cf84c@@B 00000001400456b8     libucrtd:winapi_thunks.obj
 0002:000086d0       ?candidate_modules@?1??try_get_MessageBoxW@@YAP6AHPEAUHWND__@@PEB_W1I@ZXZ@4QBW4module_id@?A0x391cf84c@@B 00000001400456d0     libucrtd:winapi_thunks.obj
 0002:000086e4       ?candidate_modules@?1??try_get_AppPolicyGetProcessTerminationMethod@@YAP6AJPEAXPEAW4AppPolicyProcessTerminationMethod@@@ZXZ@4QBW4module_id@?A0x391cf84c@@B 00000001400456e4     libucrtd:winapi_thunks.obj
 0002:00008710       ?candidate_modules@?1??try_get_AppPolicyGetShowDeveloperDiagnostic@@YAP6AJPEAXPEAW4AppPolicyShowDeveloperDiagnostic@@@ZXZ@4QBW4module_id@?A0x391cf84c@@B 0000000140045710     libucrtd:winapi_thunks.obj
 0002:0000873c       ?candidate_modules@?1??try_get_AppPolicyGetWindowingModel@@YAP6AJPEAXPEAW4AppPolicyWindowingModel@@@ZXZ@4QBW4module_id@?A0x391cf84c@@B 000000014004573c     libucrtd:winapi_thunks.obj
 0002:00008d90       $cppxdata$?fp_format_a@@YAHQEBNPEAD_KQEAD2H_NIQEAU__crt_locale_pointers@@W4__acrt_rounding_mode@@@Z 0000000140045d90     libucrtd:cvt.obj
 0002:00008dc0       ?strings@?1??fp_format_nan_or_infinity@@YAHW4__acrt_fp_class@@_NPEAD_K1@Z@4QAY03QEBDA 0000000140045dc0     libucrtd:cvt.obj
 0002:0000a238       $cppxdata$?shortsort@@YAXPEAD0_KP6AHPEBX2@Z@Z 0000000140047238     libucrtd:qsort.obj
 0002:0000a620       ?LcidToLocaleNameTable@?A0x881e4c05@@3QBULcidToLocaleName@1@B 0000000140047620     libucrtd:lcidtoname_downlevel.obj
 0002:0000c070       ?LocaleNameToIndexTable@?A0x881e4c05@@3QBULocaleNameIndex@1@B 0000000140049070     libucrtd:lcidtoname_downlevel.obj
 0002:0000ecb0       $cppxdata$?_wcstombs_l_helper@@YA_KPEADPEB_W_KPEAU__crt_locale_pointers@@@Z 000000014004bcb0     libucrtd:wcstombs.obj
 0002:0000f120       __real_ninf                000000014004c120     libucrtd:log10.obj
 0002:0000f130       __real_inf                 000000014004c130     libucrtd:log10.obj
 0002:0000f140       __real_neg_qnan            000000014004c140     libucrtd:log10.obj
 0002:0000f150       __real_qnanbit             000000014004c150     libucrtd:log10.obj
 0002:0000f160       __int_1023                 000000014004c160     libucrtd:log10.obj
 0002:0000f170       __mask_001                 000000014004c170     libucrtd:log10.obj
 0002:0000f180       __mask_mant                000000014004c180     libucrtd:log10.obj
 0002:0000f190       __mask_mant_top8           000000014004c190     libucrtd:log10.obj
 0002:0000f1a0       __mask_mant9               000000014004c1a0     libucrtd:log10.obj
 0002:0000f1b0       __real_log10_e             000000014004c1b0     libucrtd:log10.obj
 0002:0000f1c0       __real_log10_e_lead        000000014004c1c0     libucrtd:log10.obj
 0002:0000f1d0       __real_log10_e_tail        000000014004c1d0     libucrtd:log10.obj
 0002:0000f1e0       __real_log10_2_lead        000000014004c1e0     libucrtd:log10.obj
 0002:0000f1f0       __real_log10_2_tail        000000014004c1f0     libucrtd:log10.obj
 0002:0000f200       __real_two                 000000014004c200     libucrtd:log10.obj
 0002:0000f210       __real_one                 000000014004c210     libucrtd:log10.obj
 0002:0000f220       __real_half                000000014004c220     libucrtd:log10.obj
 0002:0000f230       __mask_100                 000000014004c230     libucrtd:log10.obj
 0002:0000f240       __real_1_over_512          000000014004c240     libucrtd:log10.obj
 0002:0000f250       __real_1_over_2            000000014004c250     libucrtd:log10.obj
 0002:0000f260       __real_1_over_3            000000014004c260     libucrtd:log10.obj
 0002:0000f270       __real_1_over_4            000000014004c270     libucrtd:log10.obj
 0002:0000f280       __real_1_over_5            000000014004c280     libucrtd:log10.obj
 0002:0000f290       __real_1_over_6            000000014004c290     libucrtd:log10.obj
 0002:0000f2a0       __real_neg_1023            000000014004c2a0     libucrtd:log10.obj
 0002:0000f2b0       __mask_2045                000000014004c2b0     libucrtd:log10.obj
 0002:0000f2c0       __real_threshold           000000014004c2c0     libucrtd:log10.obj
 0002:0000f2d0       __real_near_one_lt         000000014004c2d0     libucrtd:log10.obj
 0002:0000f2e0       __real_near_one_gt         000000014004c2e0     libucrtd:log10.obj
 0002:0000f2f0       __real_min_norm            000000014004c2f0     libucrtd:log10.obj
 0002:0000f300       __real_notsign             000000014004c300     libucrtd:log10.obj
 0002:0000f310       __real_ca1                 000000014004c310     libucrtd:log10.obj
 0002:0000f320       __real_ca2                 000000014004c320     libucrtd:log10.obj
 0002:0000f330       __real_ca3                 000000014004c330     libucrtd:log10.obj
 0002:0000f340       __real_ca4                 000000014004c340     libucrtd:log10.obj
 0002:0000f350       __mask_lower               000000014004c350     libucrtd:log10.obj
 0002:0000f360       __flag_x_zero              000000014004c360     libucrtd:log10.obj
 0002:0000f364       __flag_x_neg               000000014004c364     libucrtd:log10.obj
 0002:0000f368       __flag_x_nan               000000014004c368     libucrtd:log10.obj
 0002:00010ee0       __real@433fffffffffffff    000000014004dee0     libucrtd:fpsr.obj
 0002:00010ee8       __real@c33fffffffffffff    000000014004dee8     libucrtd:fpsr.obj
 0002:000115b0       $unwind$?SafeTruncateUInt64@@YAI_K@Z 000000014004e5b0     win32_handmade.obj
 0002:000115b0       $unwind$ReadNoFence64      000000014004e5b0     LIBCMTD:guard_support.obj
 0002:000115b0       $unwind$?isEHs@__FrameHandler3@@SA_NPEBU_s_FuncInfo@@@Z 000000014004e5b0     libvcruntimed:frame.obj
 0002:000115b0       $unwind$?isNoExcept@__FrameHandler3@@SA_NPEBU_s_FuncInfo@@@Z 000000014004e5b0     libvcruntimed:frame.obj
 0002:000115b0       $unwind$?what@exception@std@@UEBAPEBDXZ 000000014004e5b0     libvcruntimed:frame.obj
 0002:000115b0       $unwind$?detach@?$__crt_unique_heap_ptr@U__vcrt_ptd@@U__crt_internal_free_policy@@@@QEAAPEAU__vcrt_ptd@@XZ 000000014004e5b0     libvcruntimed:per_thread_data.obj
 0002:000115b0       $unwind$?is_valid@?$__crt_unique_heap_ptr@U__vcrt_ptd@@U__crt_internal_free_policy@@@@QEBA_NXZ 000000014004e5b0     libvcruntimed:per_thread_data.obj
 0002:000115b0       $unwind$?detach@?$__crt_unique_heap_ptr@DU__crt_public_free_policy@@@@QEAAPEADXZ 000000014004e5b0     libvcruntimed:std_exception.obj
 0002:000115b0       $unwind$?is_valid@?$__crt_unique_heap_ptr@DU__crt_public_free_policy@@@@QEBA_NXZ 000000014004e5b0     libvcruntimed:std_exception.obj
 0002:000115b0       $unwind$?__crt_interlocked_read_64@@YA_JPED_J@Z 000000014004e5b0     libvcruntimed:std_type_info.obj
 0002:000115b0       $unwind$?is_valid@?$__crt_unique_heap_ptr@DU__crt_internal_free_policy@@@@QEBA_NXZ 000000014004e5b0     libvcruntimed:std_type_info.obj
 0002:000115b0       $unwind$?get@?$c_string_character_source@D@__crt_strtox@@QEAADXZ 000000014004e5b0     libucrtd:atox.obj
 0002:000115b0       $unwind$?get@?$c_string_character_source@_W@__crt_strtox@@QEAA_WXZ 000000014004e5b0     libucrtd:atox.obj
 0002:000115b0       $unwind$?has_surrogate@?A0xc60ee810@@YA_NPEAU_Mbstatet@@@Z 000000014004e5b0     libucrtd:c16rtomb.obj
 0002:000115b0       $unwind$?is_first_surrogate@?A0xc60ee810@@YA_N_S@Z 000000014004e5b0     libucrtd:c16rtomb.obj
 0002:000115b0       $unwind$?is_second_surrogate@?A0xc60ee810@@YA_N_S@Z 000000014004e5b0     libucrtd:c16rtomb.obj
 0002:000115b0       $unwind$?is_zero@__crt_strtox@@YA_NAEBUbig_integer@1@@Z 000000014004e5b0     libucrtd:cfout.obj
 0002:000115b0       $unwind$?__acrt_fp_classify@@YA?AW4__acrt_fp_class@@AEBN@Z 000000014004e5b0     libucrtd:cvt.obj
 0002:000115b0       $unwind$?__acrt_fp_is_negative@@YA_NAEBN@Z 000000014004e5b0     libucrtd:cvt.obj
 0002:000115b0       $unwind$_CrtSetDumpClient  000000014004e5b0     libucrtd:debug_heap.obj
 0002:000115b0       $unwind$__acrt_get_locale_data_prefix 000000014004e5b0     libucrtd:debug_heap.obj
 0002:000115b0       $unwind$?detach@?$__crt_unique_heap_ptr@U__acrt_ptd@@U__crt_internal_free_policy@@@@QEAAPEAU__acrt_ptd@@XZ 000000014004e5b0     libucrtd:per_thread_data.obj
 0002:000115b0       $unwind$?is_valid@?$__crt_unique_heap_ptr@U__acrt_ptd@@U__crt_internal_free_policy@@@@QEBA_NXZ 000000014004e5b0     libucrtd:per_thread_data.obj
 0002:000115b0       $unwind$_MallocaComputeSize 000000014004e5b0     libucrtd:getstringtypea.obj
 0002:000115b0       $unwind$??B?$__crt_scoped_stack_ptr@_W@@QEBA_NXZ 000000014004e5b0     libucrtd:lcmapstringa.obj
 0002:000115b0       $unwind$?detach@?$__crt_unique_heap_ptr@U__crt_multibyte_data@@U__crt_internal_free_policy@@@@QEAAPEAU__crt_multibyte_data@@XZ 000000014004e5b0     libucrtd:wsetlocale.obj
 0002:000115b0       $unwind$?is_valid@?$__crt_unique_heap_ptr@U__crt_multibyte_data@@U__crt_internal_free_policy@@@@QEBA_NXZ 000000014004e5b0     libucrtd:wsetlocale.obj
 0002:000115b0       $unwind$?detach@?$__crt_unique_heap_ptr@U__crt_lowio_handle_data@@U__crt_internal_free_policy@@@@QEAAPEAU__crt_lowio_handle_data@@XZ 000000014004e5b0     libucrtd:osfinfo.obj
 0002:000115b0       $unwind$?is_valid@?$__crt_unique_heap_ptr@U__crt_lowio_handle_data@@U__crt_internal_free_policy@@@@QEBA_NXZ 000000014004e5b0     libucrtd:osfinfo.obj
 0002:000115b0       $unwind$?setSBCS@@YAXPEAU__crt_multibyte_data@@@Z 000000014004e5b0     libucrtd:mbctype.obj
 0002:000115b0       $unwind$__acrt_should_sync_with_global_locale 000000014004e5b0     libucrtd:mbctype.obj
 0002:000115b0       $unwind$?detach@?$__crt_unique_heap_ptr@EU__crt_internal_free_policy@@@@QEAAPEAEXZ 000000014004e5b0     libucrtd:argv_parsing.obj
 0002:000115b0       $unwind$?detach@?$__crt_unique_heap_ptr@PEADU__crt_internal_free_policy@@@@QEAAPEAPEADXZ 000000014004e5b0     libucrtd:argv_parsing.obj
 0002:000115b0       $unwind$?is_valid@?$__crt_unique_heap_ptr@EU__crt_internal_free_policy@@@@QEBA_NXZ 000000014004e5b0     libucrtd:argv_parsing.obj
 0002:000115b0       $unwind$?__crt_fast_encode_pointer@@YA?AU__crt_fast_encoded_nullptr_t@@$$T@Z 000000014004e5b0     libucrtd:exit.obj
 0002:000115b0       $unwind$?__crt_interlocked_read_32@@YAHPEDH@Z 000000014004e5b0     libucrtd:exit.obj
 0002:000115b0       $unwind$?detach@?$__crt_unique_heap_ptr@P6AXXZU__crt_internal_free_policy@@@@QEAAPEAP6AXXZXZ 000000014004e5b0     libucrtd:onexit.obj
 0002:000115b0       $unwind$?detach@?$__crt_unique_heap_ptr@PEAU__crt_stdio_stream_data@@U__crt_internal_free_policy@@@@QEAAPEAPEAU__crt_stdio_stream_data@@XZ 000000014004e5b0     libucrtd:_file.obj
 0002:000115b0       $unwind$??$read_va_arg@C@__crt_stdio_output@@YACAEAPEAD@Z 000000014004e5b0     libucrtd:output.obj
 0002:000115b0       $unwind$??$read_va_arg@E@__crt_stdio_output@@YAEAEAPEAD@Z 000000014004e5b0     libucrtd:output.obj
 0002:000115b0       $unwind$??$read_va_arg@F@__crt_stdio_output@@YAFAEAPEAD@Z 000000014004e5b0     libucrtd:output.obj
 0002:000115b0       $unwind$??$read_va_arg@G@__crt_stdio_output@@YAGAEAPEAD@Z 000000014004e5b0     libucrtd:output.obj
 0002:000115b0       $unwind$??$read_va_arg@H@__crt_stdio_output@@YAHAEAPEAD@Z 000000014004e5b0     libucrtd:output.obj
 0002:000115b0       $unwind$??$read_va_arg@I@__crt_stdio_output@@YAIAEAPEAD@Z 000000014004e5b0     libucrtd:output.obj
 0002:000115b0       $unwind$??$read_va_arg@PEAD@__crt_stdio_output@@YAPEADAEAPEAD@Z 000000014004e5b0     libucrtd:output.obj
 0002:000115b0       $unwind$??$read_va_arg@PEAUansi_string@?1??type_case_Z@?$output_processor@DV?$string_output_adapter@D@__crt_stdio_output@@V?$format_validation_base@DV?$string_output_adapter@D@__crt_stdio_output@@@2@@__crt_stdio_output@@AEAA_NXZ@@__crt_stdio_output@@YAPEAUansi_string@?1??type_case_Z@?$output_processor@DV?$string_output_adapter@D@__crt_stdio_output@@V?$format_validation_base@DV?$string_output_adapter@D@__crt_stdio_output@@@2@@0@AEAA_NXZ@AEAPEAD@Z 000000014004e5b0     libucrtd:output.obj
 0002:000115b0       $unwind$??$read_va_arg@PEAUansi_string@?1??type_case_Z@?$output_processor@_WV?$string_output_adapter@_W@__crt_stdio_output@@V?$format_validation_base@_WV?$string_output_adapter@_W@__crt_stdio_output@@@2@@__crt_stdio_output@@AEAA_NXZ@@__crt_stdio_output@@YAPEAUansi_string@?1??type_case_Z@?$output_processor@_WV?$string_output_adapter@_W@__crt_stdio_output@@V?$format_validation_base@_WV?$string_output_adapter@_W@__crt_stdio_output@@@2@@0@AEAA_NXZ@AEAPEAD@Z 000000014004e5b0     libucrtd:output.obj
 0002:000115b0       $unwind$??$read_va_arg@PEAX@__crt_stdio_output@@YAPEAXAEAPEAD@Z 000000014004e5b0     libucrtd:output.obj
 0002:000115b0       $unwind$??$read_va_arg@U_CRT_DOUBLE@@@__crt_stdio_output@@YA?AU_CRT_DOUBLE@@AEAPEAD@Z 000000014004e5b0     libucrtd:output.obj
 0002:000115b0       $unwind$??$read_va_arg@_J@__crt_stdio_output@@YA_JAEAPEAD@Z 000000014004e5b0     libucrtd:output.obj
 0002:000115b0       $unwind$??$read_va_arg@_K@__crt_stdio_output@@YA_KAEAPEAD@Z 000000014004e5b0     libucrtd:output.obj
 0002:000115b0       $unwind$??$read_va_arg@_W@__crt_stdio_output@@YA_WAEAPEAD@Z 000000014004e5b0     libucrtd:output.obj
 0002:000115b0       $unwind$?advance_to_next_pass@?$standard_base@DV?$string_output_adapter@D@__crt_stdio_output@@@__crt_stdio_output@@IEAA_NXZ 000000014004e5b0     libucrtd:output.obj
 0002:000115b0       $unwind$?advance_to_next_pass@?$standard_base@_WV?$string_output_adapter@_W@__crt_stdio_output@@@__crt_stdio_output@@IEAA_NXZ 000000014004e5b0     libucrtd:output.obj
 0002:000115b0       $unwind$?valid@__crt_stdio_stream@@QEBA_NXZ 000000014004e5b0     libucrtd:output.obj
 0002:000115b0       $unwind$_handle_nan        000000014004e5b0     libucrtd:libm_error.obj
 0002:000115b8       $unwind$?GetController@@YAPEAUgame_controller_input@@PEAUgame_input@@H@Z 000000014004e5b8     win32_handmade.obj
 0002:000115b8       $unwind$?siglookup@@YAPEAU__crt_signal_action_t@@HQEAU1@@Z 000000014004e5b8     libucrtd:signal.obj
 0002:000115b8       $unwind$??R<lambda_cfae5a0e6efa98e0d1aa03c4cec8f74e>@@QEBA_ND@Z 000000014004e5b8     libucrtd:argv_wildcards.obj
 0002:000115b8       $unwind$?set_flags@__crt_stdio_stream@@QEBA_NJ@Z 000000014004e5b8     libucrtd:_sftbuf.obj
 0002:000115b8       $unwind$?unset_flags@__crt_stdio_stream@@QEBA_NJ@Z 000000014004e5b8     libucrtd:_sftbuf.obj
 0002:000115b8       $unwind$?has_flag@?$output_processor@DV?$string_output_adapter@D@__crt_stdio_output@@V?$format_validation_base@DV?$string_output_adapter@D@__crt_stdio_output@@@2@@__crt_stdio_output@@AEBA_NI@Z 000000014004e5b8     libucrtd:output.obj
 0002:000115b8       $unwind$?has_flag@?$output_processor@_WV?$string_output_adapter@_W@__crt_stdio_output@@V?$format_validation_base@_WV?$string_output_adapter@_W@__crt_stdio_output@@@2@@__crt_stdio_output@@AEBA_NI@Z 000000014004e5b8     libucrtd:output.obj
 0002:000115c0       $unwind$?PushSize_@@YAPEAXPEAUmemory_arena@@_K@Z 000000014004e5c0     win32_handmade.obj
 0002:000115c8       $unwind$WinMain            000000014004e5c8     win32_handmade.obj
 0002:000115dc       $unwind$?ToggleFullscreen@@YAXPEAUHWND__@@@Z 000000014004e5dc     win32_handmade.obj
 0002:000115ec       $unwind$?CatStrings@@YAX_KPEAD0101@Z 000000014004e5ec     win32_handmade.obj
 0002:000115f4       $unwind$?Win32GetEXEFileName@@YAXPEAUwin32_state@@@Z 000000014004e5f4     win32_handmade.obj
 0002:000115fc       $unwind$?StringLength@@YAHPEAD@Z 000000014004e5fc     win32_handmade.obj
 0002:00011604       $unwind$?Win32BuildEXEPathFileName@@YAXPEAUwin32_state@@PEADH1@Z 000000014004e604     win32_handmade.obj
 0002:0001160c       $unwind$?DEBUGPlatformFreeFileMemory@@YAXPEAUthread_context@@PEAX@Z 000000014004e60c     win32_handmade.obj
 0002:00011614       $unwind$?DEBUGPlatformReadEntireFile@@YA?AUdebug_read_file_result@@PEAUthread_context@@PEAD@Z 000000014004e614     win32_handmade.obj
 0002:00011620       $unwind$?DEBUGPlatformWriteEntireFile@@YAHPEAUthread_context@@PEADIPEAX@Z 000000014004e620     win32_handmade.obj
 0002:00011628       $unwind$?Win32LoadGameCode@@YA?AUwin32_game_code@@PEAD00@Z 000000014004e628     win32_handmade.obj
 0002:0001163c       $unwind$?Win32UnloadGameCode@@YAXPEAUwin32_game_code@@@Z 000000014004e63c     win32_handmade.obj
 0002:00011644       $unwind$?Win32LoadXInput@@YAXXZ 000000014004e644     win32_handmade.obj
 0002:0001164c       $unwind$?Win32InitDSound@@YAXPEAUHWND__@@HH@Z 000000014004e64c     win32_handmade.obj
 0002:00011660       $unwind$?GetWindowDimension@@YA?AUwin32_window_dimension@@PEAUHWND__@@@Z 000000014004e660     win32_handmade.obj
 0002:00011670       $unwind$?Win32ResizeDIBSection@@YAXPEAUwin32_offscreen_buffer@@HH@Z 000000014004e670     win32_handmade.obj
 0002:00011678       $unwind$?Win32DisplayBufferInWindow@@YAXPEAUwin32_offscreen_buffer@@PEAUHDC__@@HH@Z 000000014004e678     win32_handmade.obj
 0002:00011680       $unwind$?MainWindowCallback@@YA_JPEAUHWND__@@I_K_J@Z 000000014004e680     win32_handmade.obj
 0002:00011690       $unwind$?Win32ClearSoundBuffer@@YAXPEAUwin32_sound_output@@@Z 000000014004e690     win32_handmade.obj
 0002:00011698       $unwind$?Win32FillSoundBuffer@@YAXPEAUwin32_sound_output@@KKPEAUgame_sound_output_buffer@@@Z 000000014004e698     win32_handmade.obj
 0002:000116a0       $unwind$?Win32ProcessXInputDigitalButton@@YAXKPEAUgame_button_state@@K0@Z 000000014004e6a0     win32_handmade.obj
 0002:000116a8       $unwind$?Win32GetInputFileLocation@@YAXPEAUwin32_state@@HHHPEAD@Z 000000014004e6a8     win32_handmade.obj
 0002:000116b8       $unwind$?Win32GetReplayBuffer@@YAPEAUwin32_replay_buffer@@PEAUwin32_state@@I@Z 000000014004e6b8     win32_handmade.obj
 0002:000116c0       $unwind$?Win32BeginRecordingInput@@YAXPEAUwin32_state@@H@Z 000000014004e6c0     win32_handmade.obj
 0002:000116d4       $unwind$?Win32EndRecordingInput@@YAXPEAUwin32_state@@@Z 000000014004e6d4     win32_handmade.obj
 0002:000116dc       $unwind$?Win32BeginInputPlayback@@YAXPEAUwin32_state@@H@Z 000000014004e6dc     win32_handmade.obj
 0002:000116f0       $unwind$?Win32EndInputPlayback@@YAXPEAUwin32_state@@@Z 000000014004e6f0     win32_handmade.obj
 0002:000116f8       $unwind$?Win32RecordInput@@YAXPEAUwin32_state@@PEAUgame_input@@@Z 000000014004e6f8     win32_handmade.obj
 0002:00011700       $unwind$?Win32PlayBackInput@@YAXPEAUwin32_state@@PEAUgame_input@@@Z 000000014004e700     win32_handmade.obj
 0002:00011708       $unwind$?Win32ProcessXInputStickValue@@YAMFF@Z 000000014004e708     win32_handmade.obj
 0002:00011710       $unwind$?Win32ProcessPendingMessages@@YAXPEAUwin32_state@@PEAUgame_controller_input@@@Z 000000014004e710     win32_handmade.obj
 0002:00011718       $unwind$?Win32GetLastWriteTime@@YA?AU_FILETIME@@PEAD@Z 000000014004e718     win32_handmade.obj
 0002:00011728       $unwind$?Win32GetWallClock@@YA?AT_LARGE_INTEGER@@XZ 000000014004e728     win32_handmade.obj
 0002:00011728       $unwind$__scrt_initialize_default_local_stdio_options 000000014004e728     LIBCMTD:default_local_stdio_options.obj
 0002:00011728       $unwind$?invoke_main@@YAHXZ 000000014004e728     LIBCMTD:exe_winmain.obj
 0002:00011728       $unwind$?set_commode@__scrt_file_policy@@SAXXZ 000000014004e728     LIBCMTD:exe_winmain.obj
 0002:00011728       $unwind$__security_init_cookie 000000014004e728     LIBCMTD:gs_support.obj
 0002:00011728       $unwind$_guard_icall_checks_enforced 000000014004e728     LIBCMTD:guard_support.obj
 0002:00011728       $unwind$__scrt_is_managed_app 000000014004e728     LIBCMTD:utility_desktop.obj
 0002:00011728       $unwind$__vcrt_initialize_locks 000000014004e728     libvcruntimed:locks.obj
 0002:00011728       $unwind$__vcrt_uninitialize_locks 000000014004e728     libvcruntimed:locks.obj
 0002:00011728       $unwind$__vcrt_getptd      000000014004e728     libvcruntimed:per_thread_data.obj
 0002:00011728       $unwind$?initialize_multibyte@@YAHXZ 000000014004e728     libucrtd:multibyte_initializer.obj
 0002:00011728       $unwind$initialize_pointers 000000014004e728     libucrtd:initialization.obj
 0002:00011728       $unwind$__acrt_initialize_locks 000000014004e728     libucrtd:locks.obj
 0002:00011728       $unwind$?try_get_ptd_head@@YAPEAU__acrt_ptd@@XZ 000000014004e728     libucrtd:per_thread_data.obj
 0002:00011728       $unwind$__acrt_getptd      000000014004e728     libucrtd:per_thread_data.obj
 0002:00011728       $unwind$__acrt_getptd_head 000000014004e728     libucrtd:per_thread_data.obj
 0002:00011728       $unwind$?should_write_error_to_console@@YA_NXZ 000000014004e728     libucrtd:report_runtime_error.obj
 0002:00011728       $unwind$__acrt_AreFileApisANSI 000000014004e728     libucrtd:winapi_thunks.obj
 0002:00011728       $unwind$__acrt_can_show_message_box 000000014004e728     libucrtd:winapi_thunks.obj
 0002:00011728       $unwind$__pctype_func      000000014004e728     libucrtd:ctype.obj
 0002:00011728       $unwind$__acrt_initialize_multibyte 000000014004e728     libucrtd:mbctype.obj
 0002:00011728       $unwind$__acrt_update_thread_multibyte_data 000000014004e728     libucrtd:mbctype.obj
 0002:00011728       $unwind$__doserrno         000000014004e728     libucrtd:errno.obj
 0002:00011728       $unwind$_errno             000000014004e728     libucrtd:errno.obj
 0002:00011728       $unwind$_invalid_parameter_noinfo 000000014004e728     libucrtd:invalid_parameter.obj
 0002:00011728       $unwind$abort              000000014004e728     libucrtd:abort.obj
 0002:00011728       $unwind$?is_managed_app@@YA_NXZ 000000014004e728     libucrtd:exit.obj
 0002:00011728       $unwind$?should_call_terminate_process@@YA_NXZ 000000014004e728     libucrtd:exit.obj
 0002:00011728       $unwind$__acrt_uninitialize_stdio 000000014004e728     libucrtd:_file.obj
 0002:00011728       $unwind$_clrfp             000000014004e728     libucrtd:fpctrl.obj
 0002:00011728       $unwind$_statfp            000000014004e728     libucrtd:fpctrl.obj
 0002:00011728       $unwind$_clearfp           000000014004e728     libucrtd:ieee.obj
 0002:00011728       $unwind$?get_machine_sse_control@@YA?AW4__acrt_fenv_machine_sse_control@@XZ 000000014004e728     libucrtd:_fenvutils.obj
 0002:00011728       $unwind$?get_machine_sse_status@@YA?AW4__acrt_fenv_machine_sse_status@@XZ 000000014004e728     libucrtd:_fenvutils.obj
 0002:00011728       $unwind$__acrt_fenv_get_control 000000014004e728     libucrtd:_fenvutils.obj
 0002:00011728       $unwind$__acrt_fenv_get_status 000000014004e728     libucrtd:_fenvutils.obj
 0002:00011728       $unwind$__acrt_has_user_matherr 000000014004e728     libucrtd:matherr.obj
 0002:00011730       $unwind$?Win32GetSecondsElapsed@@YAMT_LARGE_INTEGER@@0@Z 000000014004e730     win32_handmade.obj
 0002:00011730       $unwind$__AdjustPointer    000000014004e730     libvcruntimed:ehhelpers.obj
 0002:00011730       $unwind$??8iterator@HandlerMap@__FrameHandler3@@QEBA_NAEBV012@@Z 000000014004e730     libvcruntimed:frame.obj
 0002:00011730       $unwind$??Miterator@TryBlockMap@__FrameHandler3@@QEBA_NAEBV012@@Z 000000014004e730     libvcruntimed:frame.obj
 0002:00011730       $unwind$?store_first_surrogate@?A0xc60ee810@@YAX_SPEAU_Mbstatet@@@Z 000000014004e730     libucrtd:c16rtomb.obj
 0002:00011730       $unwind$??8__crt_strtox@@YA_NAEBUbig_integer@0@0@Z 000000014004e730     libucrtd:cfout.obj
 0002:00011730       $unwind$?wcsncnt@@YA_KPEB_W_K@Z 000000014004e730     libucrtd:wcstombs.obj
 0002:00011730       $unwind$?initialize@?$dual_state_global@P6AH_K@Z@__crt_state_management@@QEAAXQ6AH_K@Z@Z 000000014004e730     libucrtd:new_handler.obj
 0002:00011730       $unwind$?initialize@?$dual_state_global@PEAU__crt_locale_data@@@__crt_state_management@@QEAAXQEAU__crt_locale_data@@@Z 000000014004e730     libucrtd:initialization.obj
 0002:00011730       $unwind$?initialize@?$dual_state_global@PEAU__crt_multibyte_data@@@__crt_state_management@@QEAAXQEAU__crt_multibyte_data@@@Z 000000014004e730     libucrtd:mbctype.obj
 0002:00011730       $unwind$?initialize@?$dual_state_global@P6AXH@Z@__crt_state_management@@QEAAXQ6AXH@Z@Z 000000014004e730     libucrtd:signal.obj
 0002:00011730       $unwind$__strncnt          000000014004e730     libucrtd:strncnt.obj
 0002:00011730       $unwind$??$last_reached@$0A@@@YA_NQEBX0@Z 000000014004e730     libucrtd:strnlen.obj
 0002:00011730       $unwind$?compare_equals@?$__crt_simd_traits@$0A@E@@SA?AT__m128i@@T2@0@Z 000000014004e730     libucrtd:strnlen.obj
 0002:00011730       $unwind$?compare_equals@?$__crt_simd_traits@$0A@G@@SA?AT__m128i@@T2@0@Z 000000014004e730     libucrtd:strnlen.obj
 0002:00011730       $unwind$?initialize@?$dual_state_global@P6AHPEAU_exception@@@Z@__crt_state_management@@QEAAXQ6AHPEAU_exception@@@Z@Z 000000014004e730     libucrtd:matherr.obj
 0002:00011738       $unwind$__GSHandlerCheckCommon 000000014004e738     LIBCMTD:gshandler.obj
 0002:00011738       $unwind$__ascii_wcsnicmp   000000014004e738     libucrtd:wcsnicmp.obj
 0002:00011740       $unwind$__GSHandlerCheck   000000014004e740     LIBCMTD:gshandler.obj
 0002:00011740       $unwind$?BuildCatchObject@__FrameHandler3@@SAXPEAUEHExceptionRecord@@PEAXPEBU_s_HandlerType@@PEBU_s_CatchableType@@@Z 000000014004e740     libvcruntimed:frame.obj
 0002:00011740       $unwind$?shift_bytes@@YAXQEAD_K0H@Z 000000014004e740     libucrtd:cvt.obj
 0002:00011740       $unwind$??$message_box@$$TAEBQEB_WAEBQEB_WK@?$__crt_char_traits@_W@@SAH$$QEA$$TAEBQEB_W1$$QEAK@Z 000000014004e740     libucrtd:crtmbox.obj
 0002:00011740       $unwind$??$message_box@PEAUHWND__@@AEBQEB_WAEBQEB_WAEBI@?$__crt_char_traits@_W@@SAH$$QEAPEAUHWND__@@AEBQEB_W1AEBI@Z 000000014004e740     libucrtd:crtmbox.obj
 0002:00011740       $unwind$_invoke_watson     000000014004e740     libucrtd:invalid_parameter.obj
 0002:00011740       $unwind$??$tcsncpy_s@AEAPEAD_KAEAPEADAEB_K@?$__crt_char_traits@D@@SAHAEAPEAD$$QEA_K0AEB_K@Z 000000014004e740     libucrtd:argv_wildcards.obj
 0002:00011740       $unwind$??$tcsncpy_s@PEADAEB_KAEBQEBDAEB_K@?$__crt_char_traits@D@@SAH$$QEAPEADAEB_KAEBQEBD1@Z 000000014004e740     libucrtd:argv_wildcards.obj
 0002:00011740       $unwind$??$tcsncpy_s@PEAD_KAEBQEBDAEB_K@?$__crt_char_traits@D@@SAH$$QEAPEAD$$QEA_KAEBQEBDAEB_K@Z 000000014004e740     libucrtd:argv_wildcards.obj
 0002:00011740       $unwind$??0?$output_adapter_data@DV?$string_output_adapter@D@__crt_stdio_output@@@__crt_stdio_output@@IEAA@AEBV?$string_output_adapter@D@1@_KQEBDQEAU__crt_locale_pointers@@QEAD@Z 000000014004e740     libucrtd:output.obj
 0002:00011740       $unwind$??0?$output_adapter_data@_WV?$string_output_adapter@_W@__crt_stdio_output@@@__crt_stdio_output@@IEAA@AEBV?$string_output_adapter@_W@1@_KQEB_WQEAU__crt_locale_pointers@@QEAD@Z 000000014004e740     libucrtd:output.obj
 0002:00011740       $unwind$strncpy_s          000000014004e740     libucrtd:strncpy_s.obj
 0002:00011740       $unwind$wcsncpy_s          000000014004e740     libucrtd:wcsncpy_s.obj
 0002:00011748       $xdatasym                  000000014004e748     LIBCMTD:chkstk.obj
 0002:00011750       $xdatasym                  000000014004e750     LIBCMTD:amdsecgs.obj
 0002:00011754       $unwind$?__scrt_common_main@@YAHXZ 000000014004e754     LIBCMTD:exe_winmain.obj
 0002:00011754       $unwind$?configure_argv@__scrt_narrow_argv_policy@@SAHXZ 000000014004e754     LIBCMTD:exe_winmain.obj
 0002:00011754       $unwind$?initialize_environment@__scrt_narrow_environment_policy@@SAHXZ 000000014004e754     LIBCMTD:exe_winmain.obj
 0002:00011754       $unwind$?post_pgo_initialization@@YAHXZ 000000014004e754     LIBCMTD:exe_winmain.obj
 0002:00011754       $unwind$?pre_c_initialization@@YAHXZ 000000014004e754     LIBCMTD:exe_winmain.obj
 0002:00011754       $unwind$?pre_cpp_initialization@@YAXXZ 000000014004e754     LIBCMTD:exe_winmain.obj
 0002:00011754       $unwind$?set_app_type@__scrt_winmain_policy@@SAXXZ 000000014004e754     LIBCMTD:exe_winmain.obj
 0002:00011754       $unwind$?set_fmode@__scrt_file_policy@@SAXXZ 000000014004e754     LIBCMTD:exe_winmain.obj
 0002:00011754       $unwind$WinMainCRTStartup  000000014004e754     LIBCMTD:exe_winmain.obj
 0002:00011754       $unwind$__report_rangecheckfailure 000000014004e754     LIBCMTD:gs_report.obj
 0002:00011754       $unwind$?__scrt_initialize_type_info@@YAXXZ 000000014004e754     LIBCMTD:tncleanup.obj
 0002:00011754       $unwind$__scrt_initialize_mta 000000014004e754     LIBCMTD:utility_desktop.obj
 0002:00011754       $unwind$__scrt_set_unhandled_exception_filter 000000014004e754     LIBCMTD:utility_desktop.obj
 0002:00011754       $unwind$__current_exception 000000014004e754     libvcruntimed:ehhelpers.obj
 0002:00011754       $unwind$__current_exception_context 000000014004e754     libvcruntimed:ehhelpers.obj
 0002:00011754       $unwind$__vcrt_initialize  000000014004e754     libvcruntimed:initialization.obj
 0002:00011754       $unwind$__vcrt_initialize_ptd 000000014004e754     libvcruntimed:per_thread_data.obj
 0002:00011754       $unwind$__vcrt_uninitialize_ptd 000000014004e754     libvcruntimed:per_thread_data.obj
 0002:00011754       $unwind$_GetImageBase      000000014004e754     libvcruntimed:risctrnsctrl.obj
 0002:00011754       $unwind$_GetThrowImageBase 000000014004e754     libvcruntimed:risctrnsctrl.obj
 0002:00011754       $unwind$?try_get_FlsAlloc@@YAP6AKP6AXPEAX@Z@ZXZ 000000014004e754     libvcruntimed:winapi_downlevel.obj
 0002:00011754       $unwind$?try_get_FlsFree@@YAP6AHK@ZXZ 000000014004e754     libvcruntimed:winapi_downlevel.obj
 0002:00011754       $unwind$?try_get_FlsGetValue@@YAP6APEAXK@ZXZ 000000014004e754     libvcruntimed:winapi_downlevel.obj
 0002:00011754       $unwind$?try_get_FlsSetValue@@YAP6AHKPEAX@ZXZ 000000014004e754     libvcruntimed:winapi_downlevel.obj
 0002:00011754       $unwind$?try_get_InitializeCriticalSectionEx@@YAP6AHPEAU_RTL_CRITICAL_SECTION@@KK@ZXZ 000000014004e754     libvcruntimed:winapi_downlevel.obj
 0002:00011754       $unwind$__dcrt_terminate_console_output 000000014004e754     libucrtd:initcon.obj
 0002:00011754       $unwind$??$uninitialize_environment_internal@D@@YAXAEAPEAPEAD@Z 000000014004e754     libucrtd:environment_initialization.obj
 0002:00011754       $unwind$??$uninitialize_environment_internal@_W@@YAXAEAPEAPEA_W@Z 000000014004e754     libucrtd:environment_initialization.obj
 0002:00011754       $unwind$__dcrt_uninitialize_environments_nolock 000000014004e754     libucrtd:environment_initialization.obj
 0002:00011754       $unwind$__acrt_initialize_heap 000000014004e754     libucrtd:heap_handle.obj
 0002:00011754       $unwind$_query_new_mode    000000014004e754     libucrtd:new_mode.obj
 0002:00011754       $unwind$__acrt_initialize  000000014004e754     libucrtd:initialization.obj
 0002:00011754       $unwind$initialize_c       000000014004e754     libucrtd:initialization.obj
 0002:00011754       $unwind$initialize_global_variables 000000014004e754     libucrtd:initialization.obj
 0002:00011754       $unwind$__acrt_getptd_noexit 000000014004e754     libucrtd:per_thread_data.obj
 0002:00011754       $unwind$__acrt_initialize_ptd 000000014004e754     libucrtd:per_thread_data.obj
 0002:00011754       $unwind$__acrt_get_developer_information_policy 000000014004e754     libucrtd:win_policies.obj
 0002:00011754       $unwind$__acrt_get_process_end_policy 000000014004e754     libucrtd:win_policies.obj
 0002:00011754       $unwind$__acrt_get_windowing_model_policy 000000014004e754     libucrtd:win_policies.obj
 0002:00011754       $unwind$?try_get_AppPolicyGetProcessTerminationMethod@@YAP6AJPEAXPEAW4AppPolicyProcessTerminationMethod@@@ZXZ 000000014004e754     libucrtd:winapi_thunks.obj
 0002:00011754       $unwind$?try_get_AppPolicyGetShowDeveloperDiagnostic@@YAP6AJPEAXPEAW4AppPolicyShowDeveloperDiagnostic@@@ZXZ 000000014004e754     libucrtd:winapi_thunks.obj
 0002:00011754       $unwind$?try_get_AppPolicyGetWindowingModel@@YAP6AJPEAXPEAW4AppPolicyWindowingModel@@@ZXZ 000000014004e754     libucrtd:winapi_thunks.obj
 0002:00011754       $unwind$?try_get_AreFileApisANSI@@YAP6AHXZXZ 000000014004e754     libucrtd:winapi_thunks.obj
 0002:00011754       $unwind$?try_get_FlsAlloc@@YAP6AKP6AXPEAX@Z@ZXZ 000000014004e754     libucrtd:winapi_thunks.obj
 0002:00011754       $unwind$?try_get_FlsFree@@YAP6AHK@ZXZ 000000014004e754     libucrtd:winapi_thunks.obj
 0002:00011754       $unwind$?try_get_FlsGetValue@@YAP6APEAXK@ZXZ 000000014004e754     libucrtd:winapi_thunks.obj
 0002:00011754       $unwind$?try_get_FlsSetValue@@YAP6AHKPEAX@ZXZ 000000014004e754     libucrtd:winapi_thunks.obj
 0002:00011754       $unwind$?try_get_GetActiveWindow@@YAP6APEAUHWND__@@XZXZ 000000014004e754     libucrtd:winapi_thunks.obj
 0002:00011754       $unwind$?try_get_GetLastActivePopup@@YAP6APEAUHWND__@@PEAU1@@ZXZ 000000014004e754     libucrtd:winapi_thunks.obj
 0002:00011754       $unwind$?try_get_GetProcessWindowStation@@YAP6APEAUHWINSTA__@@XZXZ 000000014004e754     libucrtd:winapi_thunks.obj
 0002:00011754       $unwind$?try_get_GetUserObjectInformationW@@YAP6AHPEAXH0KPEAK@ZXZ 000000014004e754     libucrtd:winapi_thunks.obj
 0002:00011754       $unwind$?try_get_InitializeCriticalSectionEx@@YAP6AHPEAU_RTL_CRITICAL_SECTION@@KK@ZXZ 000000014004e754     libucrtd:winapi_thunks.obj
 0002:00011754       $unwind$?try_get_LCMapStringEx@@YAP6AHPEB_WK0HPEA_WHPEAU_nlsversioninfo@@PEAX_J@ZXZ 000000014004e754     libucrtd:winapi_thunks.obj
 0002:00011754       $unwind$?try_get_LocaleNameToLCID@@YAP6AKPEB_WK@ZXZ 000000014004e754     libucrtd:winapi_thunks.obj
 0002:00011754       $unwind$?try_get_MessageBoxA@@YAP6AHPEAUHWND__@@PEBD1I@ZXZ 000000014004e754     libucrtd:winapi_thunks.obj
 0002:00011754       $unwind$?try_get_MessageBoxW@@YAP6AHPEAUHWND__@@PEB_W1I@ZXZ 000000014004e754     libucrtd:winapi_thunks.obj
 0002:00011754       $unwind$__fpecode          000000014004e754     libucrtd:signal.obj
 0002:00011754       $unwind$__acrt_initialize_command_line 000000014004e754     libucrtd:argv_data.obj
 0002:00011754       $unwind$_get_narrow_winmain_command_line 000000014004e754     libucrtd:argv_winmain.obj
 0002:00011754       $unwind$_c_exit            000000014004e754     libucrtd:exit.obj
 0002:00011754       $unwind$_cexit             000000014004e754     libucrtd:exit.obj
 0002:00011754       $unwind$_flushall          000000014004e754     libucrtd:fflush.obj
 0002:00011754       $unwind$fegetround         000000014004e754     libucrtd:fegetround.obj
 0002:0001175c       $unwind$?__scrt_common_main_seh@@YAHXZ 000000014004e75c     LIBCMTD:exe_winmain.obj
 0002:0001177c       $unwind$?filt$0@?0??__scrt_common_main_seh@@YAHXZ@4HA 000000014004e77c     LIBCMTD:exe_winmain.obj
 0002:0001177c       $unwind$_IsNonwritableInCurrentImage$filt$0 000000014004e77c     LIBCMTD:pesect.obj
 0002:0001177c       $unwind$__scrt_is_nonwritable_in_current_image$filt$0 000000014004e77c     LIBCMTD:utility.obj
 0002:0001177c       $unwind$__DestructExceptionObject$filt$0 000000014004e77c     libvcruntimed:ehhelpers.obj
 0002:0001177c       $unwind$?filt$0@?0???$BuildCatchObjectHelperInternal@V__FrameHandler3@@@@YAHPEAUEHExceptionRecord@@PEAXPEBU_s_HandlerType@@PEBU_s_CatchableType@@@Z@4HA 000000014004e77c     libvcruntimed:frame.obj
 0002:0001177c       $unwind$?filt$0@?0???$BuildCatchObjectInternal@V__FrameHandler3@@@@YAXPEAUEHExceptionRecord@@PEAXPEBU_s_HandlerType@@PEBU_s_CatchableType@@@Z@4HA 000000014004e77c     libvcruntimed:frame.obj
 0002:0001177c       $unwind$?filt$0@?0??CxxCallCatchBlock@__FrameHandler3@@SAPEAXPEAU_EXCEPTION_RECORD@@@Z@4HA 000000014004e77c     libvcruntimed:frame.obj
 0002:0001177c       $unwind$?filt$0@?0??FrameUnwindToState@__FrameHandler3@@SAXPEA_KPEAU_xDISPATCHER_CONTEXT@@PEBU_s_FuncInfo@@H@Z@4HA 000000014004e77c     libvcruntimed:frame.obj
 0002:0001177c       $unwind$?fin$1@?0??CxxCallCatchBlock@__FrameHandler3@@SAPEAXPEAU_EXCEPTION_RECORD@@@Z@4HA 000000014004e77c     libvcruntimed:frame.obj
 0002:0001177c       $unwind$?fin$1@?0??FrameUnwindToState@__FrameHandler3@@SAXPEA_KPEAU_xDISPATCHER_CONTEXT@@PEBU_s_FuncInfo@@H@Z@4HA 000000014004e77c     libvcruntimed:frame.obj
 0002:0001177c       $unwind$?dtor$0@?0??fp_format_a@@YAHQEBNPEAD_KQEAD2H_NIQEAU__crt_locale_pointers@@W4__acrt_rounding_mode@@@Z@4HA 000000014004e77c     libucrtd:cvt.obj
 0002:0001177c       $unwind$?dtor$0@?0??_wcstombs_l_helper@@YA_KPEADPEB_W_KPEAU__crt_locale_pointers@@@Z@4HA 000000014004e77c     libucrtd:wcstombs.obj
 0002:0001177c       $unwind$?filt$0@?0??is_bad_read_pointer@@YA_NQEBX_K@Z@4HA 000000014004e77c     libucrtd:debug_heap.obj
 0002:0001177c       $unwind$_free_dbg$fin$0    000000014004e77c     libucrtd:debug_heap.obj
 0002:0001177c       $unwind$_query_new_handler$fin$0 000000014004e77c     libucrtd:new_handler.obj
 0002:0001177c       $unwind$?fin$0@?0???$?RV<lambda_0ae27a3a962d80f24befdcbee591983d>@@AEAV<lambda_8d0ee55de4b1038c4002e0adecdf1839>@@V<lambda_dc504788e8f1664fe9b84e20bfb512f2>@@@?$__crt_seh_guarded_call@X@@QEAAX$$QEAV<lambda_0ae27a3a962d80f24befdcbee591983d>@@AEAV<lambda_8d0ee55de4b1038c4002e0adecdf1839>@@$$QEAV<lambda_dc504788e8f1664fe9b84e20bfb512f2>@@@Z@4HA 000000014004e77c     libucrtd:per_thread_data.obj
 0002:0001177c       $unwind$?fin$0@?0???$?RV<lambda_2d41944a1d46af3157314b8a01080d33>@@AEAV<lambda_8f455de75cd7d7f24b4096f044d8b9e6>@@V<lambda_aa500f224e6afead328df44964fe2772>@@@?$__crt_seh_guarded_call@X@@QEAAX$$QEAV<lambda_2d41944a1d46af3157314b8a01080d33>@@AEAV<lambda_8f455de75cd7d7f24b4096f044d8b9e6>@@$$QEAV<lambda_aa500f224e6afead328df44964fe2772>@@@Z@4HA 000000014004e77c     libucrtd:per_thread_data.obj
 0002:0001177c       $unwind$?fin$0@?0???$?RV<lambda_74a0ef281e44d15e1136f792f539efb3>@@AEAV<lambda_e157831efee4ea0afb0a2ace5dd5fd0d>@@V<lambda_04ddeca75b7c13fd67716e8dfcef87ee>@@@?$__crt_seh_guarded_call@X@@QEAAX$$QEAV<lambda_74a0ef281e44d15e1136f792f539efb3>@@AEAV<lambda_e157831efee4ea0afb0a2ace5dd5fd0d>@@$$QEAV<lambda_04ddeca75b7c13fd67716e8dfcef87ee>@@@Z@4HA 000000014004e77c     libucrtd:per_thread_data.obj
 0002:0001177c       $unwind$?fin$0@?0???$?RV<lambda_aa87e3671a710a21b5dc78c0bdf72e11>@@AEAV<lambda_92619d2358a28f41a33ba319515a20b9>@@V<lambda_6992ecaafeb10aed2b74cb1fae11a551>@@@?$__crt_seh_guarded_call@X@@QEAAX$$QEAV<lambda_aa87e3671a710a21b5dc78c0bdf72e11>@@AEAV<lambda_92619d2358a28f41a33ba319515a20b9>@@$$QEAV<lambda_6992ecaafeb10aed2b74cb1fae11a551>@@@Z@4HA 000000014004e77c     libucrtd:per_thread_data.obj
 0002:0001177c       $unwind$__acrt_update_thread_locale_data$fin$0 000000014004e77c     libucrtd:locale_refcounting.obj
 0002:0001177c       $unwind$?fin$0@?0???$?RV<lambda_410d79af7f07d98d83a3f525b3859a53>@@AEAV<lambda_3e16ef9562a7dcce91392c22ab16ea36>@@V<lambda_38119f0e861e05405d8a144b9b982f0a>@@@?$__crt_seh_guarded_call@X@@QEAAX$$QEAV<lambda_410d79af7f07d98d83a3f525b3859a53>@@AEAV<lambda_3e16ef9562a7dcce91392c22ab16ea36>@@$$QEAV<lambda_38119f0e861e05405d8a144b9b982f0a>@@@Z@4HA 000000014004e77c     libucrtd:wsetlocale.obj
 0002:0001177c       $unwind$?fin$0@?0???$?RV<lambda_53fc7fc888e23d815d7080162c0aeeb2>@@AEAV<lambda_4e7105787b7b0e0227fbf2b2d883fa65>@@V<lambda_8ddc48ad9d26c778cb15812d1d88fc8a>@@@?$__crt_seh_guarded_call@H@@QEAAH$$QEAV<lambda_53fc7fc888e23d815d7080162c0aeeb2>@@AEAV<lambda_4e7105787b7b0e0227fbf2b2d883fa65>@@$$QEAV<lambda_8ddc48ad9d26c778cb15812d1d88fc8a>@@@Z@4HA 000000014004e77c     libucrtd:close.obj
 0002:0001177c       $unwind$?fin$0@?0???$?RV<lambda_4e3dbe6921bc0b5a1a6bc6573fdc859e>@@AEAV<lambda_5533cddd4bda0037814beee657757329>@@V<lambda_47cffbaa968af5c721c38a4a6f8da44d>@@@?$__crt_seh_guarded_call@H@@QEAAH$$QEAV<lambda_4e3dbe6921bc0b5a1a6bc6573fdc859e>@@AEAV<lambda_5533cddd4bda0037814beee657757329>@@$$QEAV<lambda_47cffbaa968af5c721c38a4a6f8da44d>@@@Z@4HA 000000014004e77c     libucrtd:commit.obj
 0002:0001177c       $unwind$__acrt_initialize_lowio$fin$0 000000014004e77c     libucrtd:ioinit.obj
 0002:0001177c       $unwind$?fin$0@?0???$?RV<lambda_efa02eb69bf647d2f7ff0dd6f1103f72>@@AEAV<lambda_bd5a608237428601b7e45fbdc72b1ae8>@@V<lambda_728235dc0fc2b1f82d1fa5b3e7102d8f>@@@?$__crt_seh_guarded_call@X@@QEAAX$$QEAV<lambda_efa02eb69bf647d2f7ff0dd6f1103f72>@@AEAV<lambda_bd5a608237428601b7e45fbdc72b1ae8>@@$$QEAV<lambda_728235dc0fc2b1f82d1fa5b3e7102d8f>@@@Z@4HA 000000014004e77c     libucrtd:mbctype.obj
 0002:0001177c       $unwind$?fin$0@?0??update_thread_multibyte_data_internal@@YAPEAU__crt_multibyte_data@@QEAU__acrt_ptd@@QEAPEAU1@@Z@4HA 000000014004e77c     libucrtd:mbctype.obj
 0002:0001177c       $unwind$?fin$0@?0???$?RV<lambda_450d765d439847d4c735a33c368b5fc0>@@AEAV<lambda_44731a7d0e6d81c3e6aa82d741081786>@@V<lambda_601a2a7da3b7a96e9554ac7215c4b07c>@@@?$__crt_seh_guarded_call@P6AXH@Z@@QEAAP6AXH@Z$$QEAV<lambda_450d765d439847d4c735a33c368b5fc0>@@AEAV<lambda_44731a7d0e6d81c3e6aa82d741081786>@@$$QEAV<lambda_601a2a7da3b7a96e9554ac7215c4b07c>@@@Z@4HA 000000014004e77c     libucrtd:signal.obj
 0002:0001177c       $unwind$terminate$filt$0   000000014004e77c     libucrtd:terminate.obj
 0002:0001177c       $unwind$?filt$0@?0???R<lambda_6e4b09c48022b2350581041d5f6b0c4c>@@QEBA@XZ@4HA 000000014004e77c     libucrtd:exit.obj
 0002:0001177c       $unwind$?fin$0@?0???$?RV<lambda_d80eeec6fff315bfe5c115232f3240e3>@@AEAV<lambda_6e4b09c48022b2350581041d5f6b0c4c>@@V<lambda_2358e3775559c9db80273638284d5e45>@@@?$__crt_seh_guarded_call@X@@QEAAX$$QEAV<lambda_d80eeec6fff315bfe5c115232f3240e3>@@AEAV<lambda_6e4b09c48022b2350581041d5f6b0c4c>@@$$QEAV<lambda_2358e3775559c9db80273638284d5e45>@@@Z@4HA 000000014004e77c     libucrtd:exit.obj
 0002:0001177c       $unwind$?dtor$0@?0???R<lambda_d121dba8a4adeaf3a9819e48611155df>@@QEBAHXZ@4HA 000000014004e77c     libucrtd:onexit.obj
 0002:0001177c       $unwind$?fin$0@?0???$?RV<lambda_6a47f4c8fd0152770a780fc1d70204eb>@@AEAV<lambda_d121dba8a4adeaf3a9819e48611155df>@@V<lambda_6aaa2265f5b6a89667e7d7630012e97a>@@@?$__crt_seh_guarded_call@H@@QEAAH$$QEAV<lambda_6a47f4c8fd0152770a780fc1d70204eb>@@AEAV<lambda_d121dba8a4adeaf3a9819e48611155df>@@$$QEAV<lambda_6aaa2265f5b6a89667e7d7630012e97a>@@@Z@4HA 000000014004e77c     libucrtd:onexit.obj
 0002:0001177c       $unwind$?fin$0@?0???$?RV<lambda_dce957679fd779aa27c4ca5c39e09098>@@AEAV<lambda_3b83eb014488ad801d84acef5aaf14d3>@@V<lambda_00e911965883f7966597d4c465c83ebc>@@@?$__crt_seh_guarded_call@H@@QEAAH$$QEAV<lambda_dce957679fd779aa27c4ca5c39e09098>@@AEAV<lambda_3b83eb014488ad801d84acef5aaf14d3>@@$$QEAV<lambda_00e911965883f7966597d4c465c83ebc>@@@Z@4HA 000000014004e77c     libucrtd:onexit.obj
 0002:0001177c       $unwind$_fcloseall$fin$0   000000014004e77c     libucrtd:closeall.obj
 0002:0001177c       $unwind$?fin$0@?0???$?RV<lambda_842d9ff0dc9ef11c61343bbaebe7f885>@@AEAV<lambda_c5860995281e5c4ce005b3de8f5874ee>@@V<lambda_d90129c13df834fdcbf8d2b88dafcf2d>@@@?$__crt_seh_guarded_call@X@@QEAAX$$QEAV<lambda_842d9ff0dc9ef11c61343bbaebe7f885>@@AEAV<lambda_c5860995281e5c4ce005b3de8f5874ee>@@$$QEAV<lambda_d90129c13df834fdcbf8d2b88dafcf2d>@@@Z@4HA 000000014004e77c     libucrtd:fflush.obj
 0002:0001177c       $unwind$?fin$0@?0???$?RV<lambda_886d6c58226a84441f68b9f2b8217b83>@@AEAV<lambda_ab61a845afdef5b7c387490eaf3616ee>@@V<lambda_f7f22ab5edc0698d5f6905b0d3f44752>@@@?$__crt_seh_guarded_call@X@@QEAAX$$QEAV<lambda_886d6c58226a84441f68b9f2b8217b83>@@AEAV<lambda_ab61a845afdef5b7c387490eaf3616ee>@@$$QEAV<lambda_f7f22ab5edc0698d5f6905b0d3f44752>@@@Z@4HA 000000014004e77c     libucrtd:fflush.obj
 0002:0001177c       $unwind$?dtor$0@?0??shortsort@@YAXPEAD0_KP6AHPEBX2@Z@Z@4HA 000000014004e77c     libucrtd:qsort.obj
 0002:0001177c       $unwind$_ctrlfp$filt$0     000000014004e77c     libucrtd:fpctrl.obj
 0002:00011784       $unwind$__report_securityfailure 000000014004e784     LIBCMTD:gs_report.obj
 0002:00011784       $unwind$__scrt_initialize_crt 000000014004e784     LIBCMTD:utility.obj
 0002:00011784       $unwind$__scrt_release_startup_lock 000000014004e784     LIBCMTD:utility.obj
 0002:00011784       $unwind$__vcrt_uninitialize 000000014004e784     libvcruntimed:initialization.obj
 0002:00011784       $unwind$__ascii_towupper   000000014004e784     libucrtd:atox.obj
 0002:00011784       $unwind$__acrt_uninitialize 000000014004e784     libucrtd:initialization.obj
 0002:00011784       $unwind$report_memory_leaks 000000014004e784     libucrtd:initialization.obj
 0002:00011784       $unwind$uninitialize_allocated_io_buffers 000000014004e784     libucrtd:initialization.obj
 0002:00011784       $unwind$uninitialize_environment 000000014004e784     libucrtd:initialization.obj
 0002:00011784       $unwind$uninitialize_vcruntime 000000014004e784     libucrtd:initialization.obj
 0002:00011784       $unwind$__acrt_lock        000000014004e784     libucrtd:locks.obj
 0002:00011784       $unwind$__acrt_unlock      000000014004e784     libucrtd:locks.obj
 0002:00011784       $unwind$__acrt_uninitialize_ptd 000000014004e784     libucrtd:per_thread_data.obj
 0002:00011784       $unwind$__ascii_towlower   000000014004e784     libucrtd:wsetlocale.obj
 0002:00011784       $unwind$__acrt_lowio_lock_fh 000000014004e784     libucrtd:osfinfo.obj
 0002:00011784       $unwind$__acrt_lowio_unlock_fh 000000014004e784     libucrtd:osfinfo.obj
 0002:00011784       $unwind$?do_locale_initialization@@YAXD@Z 000000014004e784     libucrtd:argv_parsing.obj
 0002:00011784       $unwind$_configure_narrow_argv 000000014004e784     libucrtd:argv_parsing.obj
 0002:00011784       $unwind$?do_locale_initialization@@YAXE@Z 000000014004e784     libucrtd:argv_winmain.obj
 0002:00011784       $unwind$?exit_or_terminate_process@@YAXI@Z 000000014004e784     libucrtd:exit.obj
 0002:00011784       $unwind$_exit              000000014004e784     libucrtd:exit.obj
 0002:00011784       $unwind$exit               000000014004e784     libucrtd:exit.obj
 0002:00011784       $unwind$?is_stream_flushable_or_commitable@@YA_NJ@Z 000000014004e784     libucrtd:fflush.obj
 0002:00011784       $unwind$??$to_abstract_status@W4__acrt_fenv_machine_sse_status@@@@YA?AW4__acrt_fenv_abstract_status@@W4__acrt_fenv_machine_sse_status@@@Z 000000014004e784     libucrtd:_fenvutils.obj
 0002:00011784       $unwind$?__acrt_fenv_shift_abstract_sse_status@@YA?AW4__acrt_fenv_abstract_status@@W41@@Z 000000014004e784     libucrtd:_fenvutils.obj
 0002:00011784       $unwind$?__acrt_fenv_unshift_abstract_sse_status@@YA?AW4__acrt_fenv_abstract_status@@W41@@Z 000000014004e784     libucrtd:_fenvutils.obj
 0002:00011784       $unwind$?to_machine_sse_status@@YA?AW4__acrt_fenv_machine_sse_status@@W4__acrt_fenv_abstract_status@@@Z 000000014004e784     libucrtd:_fenvutils.obj
 0002:00011784       $unwind$__acrt_fenv_get_common_round_control 000000014004e784     libucrtd:_fenvutils.obj
 0002:00011784       $unwind$__acrt_fenv_set_control 000000014004e784     libucrtd:_fenvutils.obj
 0002:00011784       $unwind$__acrt_fenv_set_status 000000014004e784     libucrtd:_fenvutils.obj
 0002:0001178c       $unwind$__report_gsfailure 000000014004e78c     LIBCMTD:gs_report.obj
 0002:0001178c       $unwind$atexit             000000014004e78c     LIBCMTD:utility.obj
 0002:0001178c       $unwind$__scrt_unhandled_exception_filter 000000014004e78c     LIBCMTD:utility_desktop.obj
 0002:0001178c       $unwind$_IsExceptionObjectToBeDestroyed 000000014004e78c     libvcruntimed:ehhelpers.obj
 0002:0001178c       $unwind$?getESTypes@__FrameHandler3@@SAPEBU_s_ESTypeList@@PEBU_s_FuncInfo@@@Z 000000014004e78c     libvcruntimed:frame.obj
 0002:0001178c       $unwind$__except_validate_context_record 000000014004e78c     libvcruntimed:jbcxrval.obj
 0002:0001178c       $unwind$?release@?$__crt_unique_heap_ptr@U__vcrt_ptd@@U__crt_internal_free_policy@@@@QEAAXXZ 000000014004e78c     libvcruntimed:per_thread_data.obj
 0002:0001178c       $unwind$_FindAndUnlinkFrame 000000014004e78c     libvcruntimed:risctrnsctrl.obj
 0002:0001178c       $unwind$?release@?$__crt_unique_heap_ptr@DU__crt_public_free_policy@@@@QEAAXXZ 000000014004e78c     libvcruntimed:std_exception.obj
 0002:0001178c       $unwind$?release@?$__crt_unique_heap_ptr@DU__crt_internal_free_policy@@@@QEAAXXZ 000000014004e78c     libvcruntimed:std_type_info.obj
 0002:0001178c       $unwind$?try_load_library_from_system_directory@@YAPEAUHINSTANCE__@@QEB_W@Z 000000014004e78c     libvcruntimed:winapi_downlevel.obj
 0002:0001178c       $unwind$?parse_digit@__crt_strtox@@YAI_W@Z 000000014004e78c     libucrtd:atox.obj
 0002:0001178c       $unwind$?is_block_an_aligned_allocation@@YA_NQEBX@Z 000000014004e78c     libucrtd:debug_heap.obj
 0002:0001178c       $unwind$free               000000014004e78c     libucrtd:free.obj
 0002:0001178c       $unwind$_free_base         000000014004e78c     libucrtd:free_base.obj
 0002:0001178c       $unwind$_callnewh          000000014004e78c     libucrtd:new_handler.obj
 0002:0001178c       $unwind$??R<lambda_e157831efee4ea0afb0a2ace5dd5fd0d>@@QEBAXXZ 000000014004e78c     libucrtd:per_thread_data.obj
 0002:0001178c       $unwind$?construct_ptd_array@@YAXQEAU__acrt_ptd@@@Z 000000014004e78c     libucrtd:per_thread_data.obj
 0002:0001178c       $unwind$?destroy_ptd@@YAXQEAU__acrt_ptd@@@Z 000000014004e78c     libucrtd:per_thread_data.obj
 0002:0001178c       $unwind$?destroy_ptd_array@@YAXQEAU__acrt_ptd@@@Z 000000014004e78c     libucrtd:per_thread_data.obj
 0002:0001178c       $unwind$?release@?$__crt_unique_heap_ptr@U__acrt_ptd@@U__crt_internal_free_policy@@@@QEAAXXZ 000000014004e78c     libucrtd:per_thread_data.obj
 0002:0001178c       $unwind$?try_load_library_from_system_directory@@YAPEAUHINSTANCE__@@QEB_W@Z 000000014004e78c     libucrtd:winapi_thunks.obj
 0002:0001178c       $unwind$__acrt_AppPolicyGetProcessTerminationMethodInternal 000000014004e78c     libucrtd:winapi_thunks.obj
 0002:0001178c       $unwind$__acrt_AppPolicyGetShowDeveloperDiagnosticInternal 000000014004e78c     libucrtd:winapi_thunks.obj
 0002:0001178c       $unwind$__acrt_AppPolicyGetWindowingModelInternal 000000014004e78c     libucrtd:winapi_thunks.obj
 0002:0001178c       $unwind$__acrt_FlsAlloc    000000014004e78c     libucrtd:winapi_thunks.obj
 0002:0001178c       $unwind$__acrt_DownlevelLocaleNameToLCID 000000014004e78c     libucrtd:lcidtoname_downlevel.obj
 0002:0001178c       $unwind$__acrt_add_locale_ref 000000014004e78c     libucrtd:locale_refcounting.obj
 0002:0001178c       $unwind$__acrt_release_locale_ref 000000014004e78c     libucrtd:locale_refcounting.obj
 0002:0001178c       $unwind$?release@?$__crt_unique_heap_ptr@U__crt_multibyte_data@@U__crt_internal_free_policy@@@@QEAAXXZ 000000014004e78c     libucrtd:wsetlocale.obj
 0002:0001178c       $unwind$??R<lambda_4e7105787b7b0e0227fbf2b2d883fa65>@@QEBAHXZ 000000014004e78c     libucrtd:close.obj
 0002:0001178c       $unwind$?release@?$__crt_unique_heap_ptr@U__crt_lowio_handle_data@@U__crt_internal_free_policy@@@@QEAAXXZ 000000014004e78c     libucrtd:osfinfo.obj
 0002:0001178c       $unwind$??R<lambda_bd5a608237428601b7e45fbdc72b1ae8>@@QEBAXXZ 000000014004e78c     libucrtd:mbctype.obj
 0002:0001178c       $unwind$__acrt_initialize_invalid_parameter_handler 000000014004e78c     libucrtd:invalid_parameter.obj
 0002:0001178c       $unwind$??R<lambda_df1553121bfa390f1154bd84936f2730>@@QEBAHXZ 000000014004e78c     libucrtd:argv_parsing.obj
 0002:0001178c       $unwind$?release@?$__crt_unique_heap_ptr@EU__crt_internal_free_policy@@@@QEAAXXZ 000000014004e78c     libucrtd:argv_parsing.obj
 0002:0001178c       $unwind$?release@?$__crt_unique_heap_ptr@PEADU__crt_internal_free_policy@@@@QEAAXXZ 000000014004e78c     libucrtd:argv_parsing.obj
 0002:0001178c       $unwind$??1?$argument_list@D@?A0x5f5c8891@@QEAA@XZ 000000014004e78c     libucrtd:argv_wildcards.obj
 0002:0001178c       $unwind$?close@__crt_findfile_traits@@SA_NPEAX@Z 000000014004e78c     libucrtd:argv_wildcards.obj
 0002:0001178c       $unwind$?close@__crt_hmodule_traits@@SA_NPEAUHINSTANCE__@@@Z 000000014004e78c     libucrtd:exit.obj
 0002:0001178c       $unwind$_register_thread_local_exe_atexit_callback 000000014004e78c     libucrtd:exit.obj
 0002:0001178c       $unwind$?release@?$__crt_unique_heap_ptr@P6AXXZU__crt_internal_free_policy@@@@QEAAXXZ 000000014004e78c     libucrtd:onexit.obj
 0002:0001178c       $unwind$_execute_onexit_table 000000014004e78c     libucrtd:onexit.obj
 0002:0001178c       $unwind$_initialize_onexit_table 000000014004e78c     libucrtd:onexit.obj
 0002:0001178c       $unwind$?release@?$__crt_unique_heap_ptr@PEAU__crt_stdio_stream_data@@U__crt_internal_free_policy@@@@QEAAXXZ 000000014004e78c     libucrtd:_file.obj
 0002:0001178c       $unwind$_lock_file         000000014004e78c     libucrtd:_file.obj
 0002:0001178c       $unwind$_unlock_file       000000014004e78c     libucrtd:_file.obj
 0002:0001178c       $unwind$?is_in_use@__crt_stdio_stream@@QEBA_NXZ 000000014004e78c     libucrtd:closeall.obj
 0002:0001178c       $unwind$?__acrt_stdio_reset_buffer@@YAXV__crt_stdio_stream@@@Z 000000014004e78c     libucrtd:fflush.obj
 0002:0001178c       $unwind$_fflush_nolock     000000014004e78c     libucrtd:fflush.obj
 0002:0001178c       $unwind$??$scratch_data@D@formatting_buffer@__crt_stdio_output@@QEAAPEADXZ 000000014004e78c     libucrtd:output.obj
 0002:0001178c       $unwind$?is_string_backed@__crt_stdio_stream@@QEBA_NXZ 000000014004e78c     libucrtd:output.obj
 0002:0001178c       $unwind$?state_case_flag@?$output_processor@DV?$string_output_adapter@D@__crt_stdio_output@@V?$format_validation_base@DV?$string_output_adapter@D@__crt_stdio_output@@@2@@__crt_stdio_output@@AEAA_NXZ 000000014004e78c     libucrtd:output.obj
 0002:0001178c       $unwind$?state_case_flag@?$output_processor@_WV?$string_output_adapter@_W@__crt_stdio_output@@V?$format_validation_base@_WV?$string_output_adapter@_W@__crt_stdio_output@@@2@@__crt_stdio_output@@AEAA_NXZ 000000014004e78c     libucrtd:output.obj
 0002:0001178c       $unwind$?type_case_Z@?$output_processor@DV?$string_output_adapter@D@__crt_stdio_output@@V?$format_validation_base@DV?$string_output_adapter@D@__crt_stdio_output@@@2@@__crt_stdio_output@@AEAA_NXZ 000000014004e78c     libucrtd:output.obj
 0002:0001178c       $unwind$?type_case_Z@?$output_processor@_WV?$string_output_adapter@_W@__crt_stdio_output@@V?$format_validation_base@_WV?$string_output_adapter@_W@__crt_stdio_output@@@2@@__crt_stdio_output@@AEAA_NXZ 000000014004e78c     libucrtd:output.obj
 0002:0001178c       $unwind$?type_case_s@?$output_processor@DV?$string_output_adapter@D@__crt_stdio_output@@V?$format_validation_base@DV?$string_output_adapter@D@__crt_stdio_output@@@2@@__crt_stdio_output@@AEAA_NXZ 000000014004e78c     libucrtd:output.obj
 0002:0001178c       $unwind$?type_case_s@?$output_processor@_WV?$string_output_adapter@_W@__crt_stdio_output@@V?$format_validation_base@_WV?$string_output_adapter@_W@__crt_stdio_output@@@2@@__crt_stdio_output@@AEAA_NXZ 000000014004e78c     libucrtd:output.obj
 0002:0001178c       $unwind$_set_statfp        000000014004e78c     libucrtd:fpctrl.obj
 0002:0001178c       $unwind$??$translate_control_exception_mask@W4__acrt_fenv_abstract_control@@W4__acrt_fenv_machine_sse_control@@@@YA?AW4__acrt_fenv_abstract_control@@W4__acrt_fenv_machine_sse_control@@@Z 000000014004e78c     libucrtd:_fenvutils.obj
 0002:0001178c       $unwind$??$translate_control_rounding_control@W4__acrt_fenv_abstract_control@@W4__acrt_fenv_machine_sse_control@@@@YA?AW4__acrt_fenv_abstract_control@@W4__acrt_fenv_machine_sse_control@@@Z 000000014004e78c     libucrtd:_fenvutils.obj
 0002:0001178c       $unwind$?set_machine_sse_control@@YAXW4__acrt_fenv_machine_sse_control@@@Z 000000014004e78c     libucrtd:_fenvutils.obj
 0002:0001178c       $unwind$?to_abstract_control@@YA?AW4__acrt_fenv_abstract_control@@W4__acrt_fenv_machine_sse_control@@@Z 000000014004e78c     libucrtd:_fenvutils.obj
 0002:0001178c       $unwind$?translate_control_denormal_control_from_sse@@YA?AW4__acrt_fenv_abstract_control@@W4__acrt_fenv_machine_sse_control@@@Z 000000014004e78c     libucrtd:_fenvutils.obj
 0002:0001178c       $unwind$feholdexcept       000000014004e78c     libucrtd:feholdexcept.obj
 0002:0001178c       $unwind$__acrt_invoke_user_matherr 000000014004e78c     libucrtd:matherr.obj
 0002:0001178c       $unwind$__setusermatherr   000000014004e78c     libucrtd:matherr.obj
 0002:00011794       $unwind$capture_current_context 000000014004e794     LIBCMTD:gs_report.obj
 0002:00011794       $unwind$capture_previous_context 000000014004e794     LIBCMTD:gs_report.obj
 0002:00011794       $unwind$?capture_current_context@@YAXQEAU_CONTEXT@@@Z 000000014004e794     libucrtd:invalid_parameter.obj
 0002:0001179c       $unwind$??3@YAXPEAX@Z      000000014004e79c     LIBCMTD:delete_scalar.obj
 0002:0001179c       $unwind$__raise_securityfailure 000000014004e79c     LIBCMTD:gs_report.obj
 0002:0001179c       $unwind$ReadPointerNoFence 000000014004e79c     LIBCMTD:guard_support.obj
 0002:0001179c       $unwind$_ValidateImageBase 000000014004e79c     LIBCMTD:pesect.obj
 0002:0001179c       $unwind$?is_potentially_valid_image_base@@YA_NQEAX@Z 000000014004e79c     LIBCMTD:utility.obj
 0002:0001179c       $unwind$??0bad_exception@std@@QEAA@XZ 000000014004e79c     libvcruntimed:frame.obj
 0002:0001179c       $unwind$??1bad_exception@std@@UEAA@XZ 000000014004e79c     libvcruntimed:frame.obj
 0002:0001179c       $unwind$??1exception@std@@UEAA@XZ 000000014004e79c     libvcruntimed:frame.obj
 0002:0001179c       $unwind$?__RethrowException@@YAXPEAUEHExceptionRecord@@@Z 000000014004e79c     libvcruntimed:frame.obj
 0002:0001179c       $unwind$__vcrt_EncodePointer 000000014004e79c     libvcruntimed:frame.obj
 0002:0001179c       $unwind$??0scoped_get_last_error_reset@?A0xb3e1f75e@@QEAA@XZ 000000014004e79c     libvcruntimed:per_thread_data.obj
 0002:0001179c       $unwind$??1?$__crt_unique_heap_ptr@U__vcrt_ptd@@U__crt_internal_free_policy@@@@QEAA@XZ 000000014004e79c     libvcruntimed:per_thread_data.obj
 0002:0001179c       $unwind$??1scoped_get_last_error_reset@?A0xb3e1f75e@@QEAA@XZ 000000014004e79c     libvcruntimed:per_thread_data.obj
 0002:0001179c       $unwind$??B?$__crt_unique_heap_ptr@U__vcrt_ptd@@U__crt_internal_free_policy@@@@QEBA_NXZ 000000014004e79c     libvcruntimed:per_thread_data.obj
 0002:0001179c       $unwind$?store_and_initialize_ptd@@YA_NQEAU__vcrt_ptd@@@Z 000000014004e79c     libvcruntimed:per_thread_data.obj
 0002:0001179c       $unwind$__vcrt_freefls     000000014004e79c     libvcruntimed:per_thread_data.obj
 0002:0001179c       $unwind$_SetImageBase      000000014004e79c     libvcruntimed:risctrnsctrl.obj
 0002:0001179c       $unwind$_SetThrowImageBase 000000014004e79c     libvcruntimed:risctrnsctrl.obj
 0002:0001179c       $unwind$??1?$__crt_unique_heap_ptr@DU__crt_public_free_policy@@@@QEAA@XZ 000000014004e79c     libvcruntimed:std_exception.obj
 0002:0001179c       $unwind$??B?$__crt_unique_heap_ptr@DU__crt_public_free_policy@@@@QEBA_NXZ 000000014004e79c     libvcruntimed:std_exception.obj
 0002:0001179c       $unwind$__std_exception_destroy 000000014004e79c     libvcruntimed:std_exception.obj
 0002:0001179c       $unwind$??1?$__crt_unique_heap_ptr@DU__crt_internal_free_policy@@@@QEAA@XZ 000000014004e79c     libvcruntimed:std_type_info.obj
 0002:0001179c       $unwind$??B?$__crt_unique_heap_ptr@DU__crt_internal_free_policy@@@@QEBA_NXZ 000000014004e79c     libvcruntimed:std_type_info.obj
 0002:0001179c       $unwind$??$__crt_interlocked_read_pointer@UHINSTANCE__@@@@YAPEAUHINSTANCE__@@PEDSEAU0@@Z 000000014004e79c     libvcruntimed:winapi_downlevel.obj
 0002:0001179c       $unwind$??$__crt_interlocked_read_pointer@X@@YAPEAXPEDSEAX@Z 000000014004e79c     libvcruntimed:winapi_downlevel.obj
 0002:0001179c       $unwind$_putwch_nolock     000000014004e79c     libucrtd:putwch.obj
 0002:0001179c       $unwind$??0big_integer@__crt_strtox@@QEAA@XZ 000000014004e79c     libucrtd:cfout.obj
 0002:0001179c       $unwind$??0scoped_fp_state_reset@?A0x71ca7cfb@@QEAA@XZ 000000014004e79c     libucrtd:cfout.obj
 0002:0001179c       $unwind$??1scoped_fp_state_reset@?A0x71ca7cfb@@QEAA@XZ 000000014004e79c     libucrtd:cfout.obj
 0002:0001179c       $unwind$??1_LocaleUpdate@@QEAA@XZ 000000014004e79c     libucrtd:debug_heap.obj
 0002:0001179c       $unwind$_CrtIsValidHeapPointer 000000014004e79c     libucrtd:debug_heap.obj
 0002:0001179c       $unwind$malloc             000000014004e79c     libucrtd:malloc.obj
 0002:0001179c       $unwind$??$__crt_fast_decode_pointer@P6AH_K@Z@@YAP6AH_K@ZQ6AH0@Z@Z 000000014004e79c     libucrtd:new_handler.obj
 0002:0001179c       $unwind$?value@?$dual_state_global@P6AH_K@Z@__crt_state_management@@QEAAAEAP6AH_K@ZXZ 000000014004e79c     libucrtd:new_handler.obj
 0002:0001179c       $unwind$__acrt_initialize_new_handler 000000014004e79c     libucrtd:new_handler.obj
 0002:0001179c       $unwind$?value@?$dual_state_global@J@__crt_state_management@@QEAAAEAJXZ 000000014004e79c     libucrtd:new_mode.obj
 0002:0001179c       $unwind$?_deallocate@?$__crt_win32_buffer@DU__crt_win32_buffer_no_resizing@@@@AEAAXXZ 000000014004e79c     libucrtd:getmodulefilenamea.obj
 0002:0001179c       $unwind$?set_to_nullptr@?$__crt_win32_buffer@DU__crt_win32_buffer_no_resizing@@@@QEAAXXZ 000000014004e79c     libucrtd:getmodulefilenamea.obj
 0002:0001179c       $unwind$??$?BX@__crt_fast_encoded_nullptr_t@@QEBAPEAXXZ 000000014004e79c     libucrtd:initialization.obj
 0002:0001179c       $unwind$??$__crt_fast_encode_pointer@PEAX@@YAPEAXQEAX@Z 000000014004e79c     libucrtd:initialization.obj
 0002:0001179c       $unwind$??0__crt_scoped_get_last_error_reset@@QEAA@XZ 000000014004e79c     libucrtd:per_thread_data.obj
 0002:0001179c       $unwind$??1?$__crt_unique_heap_ptr@U__acrt_ptd@@U__crt_internal_free_policy@@@@QEAA@XZ 000000014004e79c     libucrtd:per_thread_data.obj
 0002:0001179c       $unwind$??1__crt_scoped_get_last_error_reset@@QEAA@XZ 000000014004e79c     libucrtd:per_thread_data.obj
 0002:0001179c       $unwind$??B?$__crt_unique_heap_ptr@U__acrt_ptd@@U__crt_internal_free_policy@@@@QEBA_NXZ 000000014004e79c     libucrtd:per_thread_data.obj
 0002:0001179c       $unwind$??R<lambda_04ddeca75b7c13fd67716e8dfcef87ee>@@QEBAXXZ 000000014004e79c     libucrtd:per_thread_data.obj
 0002:0001179c       $unwind$??R<lambda_0ae27a3a962d80f24befdcbee591983d>@@QEBAXXZ 000000014004e79c     libucrtd:per_thread_data.obj
 0002:0001179c       $unwind$??R<lambda_2d41944a1d46af3157314b8a01080d33>@@QEBAXXZ 000000014004e79c     libucrtd:per_thread_data.obj
 0002:0001179c       $unwind$??R<lambda_6992ecaafeb10aed2b74cb1fae11a551>@@QEBAXXZ 000000014004e79c     libucrtd:per_thread_data.obj
 0002:0001179c       $unwind$??R<lambda_74a0ef281e44d15e1136f792f539efb3>@@QEBAXXZ 000000014004e79c     libucrtd:per_thread_data.obj
 0002:0001179c       $unwind$??R<lambda_8f455de75cd7d7f24b4096f044d8b9e6>@@QEBAXXZ 000000014004e79c     libucrtd:per_thread_data.obj
 0002:0001179c       $unwind$??R<lambda_92619d2358a28f41a33ba319515a20b9>@@QEBAXXZ 000000014004e79c     libucrtd:per_thread_data.obj
 0002:0001179c       $unwind$??R<lambda_aa500f224e6afead328df44964fe2772>@@QEBAXXZ 000000014004e79c     libucrtd:per_thread_data.obj
 0002:0001179c       $unwind$??R<lambda_aa87e3671a710a21b5dc78c0bdf72e11>@@QEBAXXZ 000000014004e79c     libucrtd:per_thread_data.obj
 0002:0001179c       $unwind$??R<lambda_dc504788e8f1664fe9b84e20bfb512f2>@@QEBAXXZ 000000014004e79c     libucrtd:per_thread_data.obj
 0002:0001179c       $unwind$?destroy_fls@@YAXPEAX@Z 000000014004e79c     libucrtd:per_thread_data.obj
 0002:0001179c       $unwind$?appmodel_get_policy@developer_information_policy_properties@?1??__acrt_get_developer_information_policy@@YA?AW4developer_information_policy@@XZ@SAJPEAW4AppPolicyShowDeveloperDiagnostic@@@Z 000000014004e79c     libucrtd:win_policies.obj
 0002:0001179c       $unwind$?appmodel_get_policy@process_end_policy_properties@?1??__acrt_get_process_end_policy@@YA?AW4process_end_policy@@XZ@SAJPEAW4AppPolicyProcessTerminationMethod@@@Z 000000014004e79c     libucrtd:win_policies.obj
 0002:0001179c       $unwind$?appmodel_get_policy@windowing_model_policy_properties@?1??__acrt_get_windowing_model_policy@@YA?AW4windowing_model_policy@@XZ@SAJPEAW4AppPolicyWindowingModel@@@Z 000000014004e79c     libucrtd:win_policies.obj
 0002:0001179c       $unwind$??$__crt_fast_decode_pointer@PEAX@@YAPEAXQEAX@Z 000000014004e79c     libucrtd:winapi_thunks.obj
 0002:0001179c       $unwind$??1?$__crt_scoped_stack_ptr@_W@@QEAA@XZ 000000014004e79c     libucrtd:getstringtypea.obj
 0002:0001179c       $unwind$__acrt_locale_free_monetary 000000014004e79c     libucrtd:initmon.obj
 0002:0001179c       $unwind$__acrt_locale_free_numeric 000000014004e79c     libucrtd:initnum.obj
 0002:0001179c       $unwind$??$free_crt_array@D$01@@YAXAEAY01PEAD@Z 000000014004e79c     libucrtd:inittime.obj
 0002:0001179c       $unwind$??$free_crt_array@D$06@@YAXAEAY06PEAD@Z 000000014004e79c     libucrtd:inittime.obj
 0002:0001179c       $unwind$??$free_crt_array@D$0M@@@YAXAEAY0M@PEAD@Z 000000014004e79c     libucrtd:inittime.obj
 0002:0001179c       $unwind$??$free_crt_array@_W$01@@YAXAEAY01PEA_W@Z 000000014004e79c     libucrtd:inittime.obj
 0002:0001179c       $unwind$??$free_crt_array@_W$06@@YAXAEAY06PEA_W@Z 000000014004e79c     libucrtd:inittime.obj
 0002:0001179c       $unwind$??$free_crt_array@_W$0M@@@YAXAEAY0M@PEA_W@Z 000000014004e79c     libucrtd:inittime.obj
 0002:0001179c       $unwind$__acrt_locale_free_time 000000014004e79c     libucrtd:inittime.obj
 0002:0001179c       $unwind$__acrt_locale_free_lc_time_if_unreferenced 000000014004e79c     libucrtd:locale_refcounting.obj
 0002:0001179c       $unwind$??1?$__crt_unique_heap_ptr@U__crt_multibyte_data@@U__crt_internal_free_policy@@@@QEAA@XZ 000000014004e79c     libucrtd:wsetlocale.obj
 0002:0001179c       $unwind$??B?$__crt_unique_heap_ptr@U__crt_multibyte_data@@U__crt_internal_free_policy@@@@QEBA_NXZ 000000014004e79c     libucrtd:wsetlocale.obj
 0002:0001179c       $unwind$??R<lambda_38119f0e861e05405d8a144b9b982f0a>@@QEBAXXZ 000000014004e79c     libucrtd:wsetlocale.obj
 0002:0001179c       $unwind$??R<lambda_410d79af7f07d98d83a3f525b3859a53>@@QEBAXXZ 000000014004e79c     libucrtd:wsetlocale.obj
 0002:0001179c       $unwind$?value@?$dual_state_global@PEAU__crt_locale_data@@@__crt_state_management@@QEAAAEAPEAU__crt_locale_data@@XZ 000000014004e79c     libucrtd:wsetlocale.obj
 0002:0001179c       $unwind$??R<lambda_53fc7fc888e23d815d7080162c0aeeb2>@@QEBAXXZ 000000014004e79c     libucrtd:close.obj
 0002:0001179c       $unwind$??R<lambda_8ddc48ad9d26c778cb15812d1d88fc8a>@@QEBAXXZ 000000014004e79c     libucrtd:close.obj
 0002:0001179c       $unwind$??R<lambda_47cffbaa968af5c721c38a4a6f8da44d>@@QEBAXXZ 000000014004e79c     libucrtd:commit.obj
 0002:0001179c       $unwind$??R<lambda_4e3dbe6921bc0b5a1a6bc6573fdc859e>@@QEBAXXZ 000000014004e79c     libucrtd:commit.obj
 0002:0001179c       $unwind$??1?$__crt_unique_heap_ptr@U__crt_lowio_handle_data@@U__crt_internal_free_policy@@@@QEAA@XZ 000000014004e79c     libucrtd:osfinfo.obj
 0002:0001179c       $unwind$??B?$__crt_unique_heap_ptr@U__crt_lowio_handle_data@@U__crt_internal_free_policy@@@@QEBA_NXZ 000000014004e79c     libucrtd:osfinfo.obj
 0002:0001179c       $unwind$?value@?$dual_state_global@H@__crt_state_management@@QEAAAEAHXZ 000000014004e79c     libucrtd:setmode.obj
 0002:0001179c       $unwind$??R<lambda_728235dc0fc2b1f82d1fa5b3e7102d8f>@@QEBAXXZ 000000014004e79c     libucrtd:mbctype.obj
 0002:0001179c       $unwind$??R<lambda_efa02eb69bf647d2f7ff0dd6f1103f72>@@QEBAXXZ 000000014004e79c     libucrtd:mbctype.obj
 0002:0001179c       $unwind$?value@?$dual_state_global@PEAE@__crt_state_management@@QEAAAEAPEAEXZ 000000014004e79c     libucrtd:mbctype.obj
 0002:0001179c       $unwind$?value@?$dual_state_global@PEAU__crt_multibyte_data@@@__crt_state_management@@QEAAAEAPEAU__crt_multibyte_data@@XZ 000000014004e79c     libucrtd:mbctype.obj
 0002:0001179c       $unwind$??$output_debug_string@AEBQEB_W@?$__crt_char_traits@_W@@SAXAEBQEB_W@Z 000000014004e79c     libucrtd:crtmbox.obj
 0002:0001179c       $unwind$??$tcslen@AEAY0BAF@D@?$__crt_char_traits@D@@SA_KAEAY0BAF@D@Z 000000014004e79c     libucrtd:dbgrpt.obj
 0002:0001179c       $unwind$??$tcslen@AEAY0BAF@_W@?$__crt_char_traits@_W@@SA_KAEAY0BAF@_W@Z 000000014004e79c     libucrtd:dbgrpt.obj
 0002:0001179c       $unwind$??$tcslen@AEBQEBD@?$__crt_char_traits@D@@SA_KAEBQEBD@Z 000000014004e79c     libucrtd:dbgrpt.obj
 0002:0001179c       $unwind$??$tcslen@AEBQEB_W@?$__crt_char_traits@_W@@SA_KAEBQEB_W@Z 000000014004e79c     libucrtd:dbgrpt.obj
 0002:0001179c       $unwind$??$__crt_fast_decode_pointer@P6AXPEB_W00I_K@Z@@YAP6AXPEB_W00I_K@ZQ6AX000I1@Z@Z 000000014004e79c     libucrtd:invalid_parameter.obj
 0002:0001179c       $unwind$?value@?$dual_state_global@P6AXPEB_W00I_K@Z@__crt_state_management@@QEAAAEAP6AXPEB_W00I_K@ZXZ 000000014004e79c     libucrtd:invalid_parameter.obj
 0002:0001179c       $unwind$??$?B$$A6AXH@Z@__crt_fast_encoded_nullptr_t@@QEBAP6AXH@ZXZ 000000014004e79c     libucrtd:signal.obj
 0002:0001179c       $unwind$??$__crt_fast_decode_pointer@P6AXH@Z@@YAP6AXH@ZQ6AXH@Z@Z 000000014004e79c     libucrtd:signal.obj
 0002:0001179c       $unwind$??$__crt_fast_encode_pointer@P6AXH@Z@@YAP6AXH@ZQ6AXH@Z@Z 000000014004e79c     libucrtd:signal.obj
 0002:0001179c       $unwind$??R<lambda_44731a7d0e6d81c3e6aa82d741081786>@@QEBAP6AXH@ZXZ 000000014004e79c     libucrtd:signal.obj
 0002:0001179c       $unwind$??R<lambda_450d765d439847d4c735a33c368b5fc0>@@QEBAXXZ 000000014004e79c     libucrtd:signal.obj
 0002:0001179c       $unwind$??R<lambda_601a2a7da3b7a96e9554ac7215c4b07c>@@QEBAXXZ 000000014004e79c     libucrtd:signal.obj
 0002:0001179c       $unwind$?value@?$dual_state_global@P6AXH@Z@__crt_state_management@@QEAAAEAP6AXH@ZXZ 000000014004e79c     libucrtd:signal.obj
 0002:0001179c       $unwind$__acrt_initialize_signal_handlers 000000014004e79c     libucrtd:signal.obj
 0002:0001179c       $unwind$??$set_program_name@PEAD@?$__crt_char_traits@D@@SAX$$QEAPEAD@Z 000000014004e79c     libucrtd:argv_parsing.obj
 0002:0001179c       $unwind$??1?$__crt_unique_heap_ptr@EU__crt_internal_free_policy@@@@QEAA@XZ 000000014004e79c     libucrtd:argv_parsing.obj
 0002:0001179c       $unwind$??1?$__crt_unique_heap_ptr@PEADU__crt_internal_free_policy@@@@QEAA@XZ 000000014004e79c     libucrtd:argv_parsing.obj
 0002:0001179c       $unwind$??B?$__crt_unique_heap_ptr@EU__crt_internal_free_policy@@@@QEBA_NXZ 000000014004e79c     libucrtd:argv_parsing.obj
 0002:0001179c       $unwind$??1?$__crt_unique_handle_t@U__crt_findfile_traits@@@@QEAA@XZ 000000014004e79c     libucrtd:argv_wildcards.obj
 0002:0001179c       $unwind$?_deallocate@?$__crt_win32_buffer@DU__crt_win32_buffer_internal_dynamic_resizing@@@@AEAAXXZ 000000014004e79c     libucrtd:argv_wildcards.obj
 0002:0001179c       $unwind$?_deallocate@?$__crt_win32_buffer@_WU__crt_win32_buffer_internal_dynamic_resizing@@@@AEAAXXZ 000000014004e79c     libucrtd:argv_wildcards.obj
 0002:0001179c       $unwind$?close@?$__crt_unique_handle_t@U__crt_findfile_traits@@@@QEAAXXZ 000000014004e79c     libucrtd:argv_wildcards.obj
 0002:0001179c       $unwind$?set_to_nullptr@?$__crt_win32_buffer@DU__crt_win32_buffer_internal_dynamic_resizing@@@@QEAAXXZ 000000014004e79c     libucrtd:argv_wildcards.obj
 0002:0001179c       $unwind$?set_to_nullptr@?$__crt_win32_buffer@_WU__crt_win32_buffer_internal_dynamic_resizing@@@@QEAAXXZ 000000014004e79c     libucrtd:argv_wildcards.obj
 0002:0001179c       $unwind$??$?B$$A6AXPEAXK0@Z@__crt_fast_encoded_nullptr_t@@QEBAP6AXPEAXK0@ZXZ 000000014004e79c     libucrtd:exit.obj
 0002:0001179c       $unwind$??$__crt_fast_decode_pointer@P6AXPEAXK0@Z@@YAP6AXPEAXK0@ZQ6AX0K0@Z@Z 000000014004e79c     libucrtd:exit.obj
 0002:0001179c       $unwind$??$__crt_fast_encode_pointer@P6AXPEAXK0@Z@@YAP6AXPEAXK0@ZQ6AX0K0@Z@Z 000000014004e79c     libucrtd:exit.obj
 0002:0001179c       $unwind$??$__crt_interlocked_read@J@@YAJPEDJ@Z 000000014004e79c     libucrtd:exit.obj
 0002:0001179c       $unwind$??1?$__crt_unique_handle_t@U__crt_hmodule_traits@@@@QEAA@XZ 000000014004e79c     libucrtd:exit.obj
 0002:0001179c       $unwind$??R<lambda_2358e3775559c9db80273638284d5e45>@@QEBAXXZ 000000014004e79c     libucrtd:exit.obj
 0002:0001179c       $unwind$??R<lambda_d80eeec6fff315bfe5c115232f3240e3>@@QEBAXXZ 000000014004e79c     libucrtd:exit.obj
 0002:0001179c       $unwind$?close@?$__crt_unique_handle_t@U__crt_hmodule_traits@@@@QEAAXXZ 000000014004e79c     libucrtd:exit.obj
 0002:0001179c       $unwind$??$?B$$A6AXXZ@__crt_fast_encoded_nullptr_t@@QEBAP6AXXZXZ 000000014004e79c     libucrtd:onexit.obj
 0002:0001179c       $unwind$??$?BP6AXXZ@__crt_fast_encoded_nullptr_t@@QEBAPEAP6AXXZXZ 000000014004e79c     libucrtd:onexit.obj
 0002:0001179c       $unwind$??$__crt_fast_decode_pointer@P6AXXZ@@YAP6AXXZQ6AXXZ@Z 000000014004e79c     libucrtd:onexit.obj
 0002:0001179c       $unwind$??$__crt_fast_decode_pointer@PEAP6AXXZ@@YAPEAP6AXXZQEAP6AXXZ@Z 000000014004e79c     libucrtd:onexit.obj
 0002:0001179c       $unwind$??$__crt_fast_encode_pointer@P6AHXZ@@YAP6AHXZQ6AHXZ@Z 000000014004e79c     libucrtd:onexit.obj
 0002:0001179c       $unwind$??$__crt_fast_encode_pointer@P6AXXZ@@YAP6AXXZQ6AXXZ@Z 000000014004e79c     libucrtd:onexit.obj
 0002:0001179c       $unwind$??$__crt_fast_encode_pointer@PEAP6AXXZ@@YAPEAP6AXXZQEAP6AXXZ@Z 000000014004e79c     libucrtd:onexit.obj
 0002:0001179c       $unwind$??1?$__crt_unique_heap_ptr@P6AXXZU__crt_internal_free_policy@@@@QEAA@XZ 000000014004e79c     libucrtd:onexit.obj
 0002:0001179c       $unwind$??R<lambda_00e911965883f7966597d4c465c83ebc>@@QEBAXXZ 000000014004e79c     libucrtd:onexit.obj
 0002:0001179c       $unwind$??R<lambda_6a47f4c8fd0152770a780fc1d70204eb>@@QEBAXXZ 000000014004e79c     libucrtd:onexit.obj
 0002:0001179c       $unwind$??R<lambda_6aaa2265f5b6a89667e7d7630012e97a>@@QEBAXXZ 000000014004e79c     libucrtd:onexit.obj
 0002:0001179c       $unwind$??R<lambda_dce957679fd779aa27c4ca5c39e09098>@@QEBAXXZ 000000014004e79c     libucrtd:onexit.obj
 0002:0001179c       $unwind$_crt_atexit        000000014004e79c     libucrtd:onexit.obj
 0002:0001179c       $unwind$??1?$__crt_unique_heap_ptr@PEAU__crt_stdio_stream_data@@U__crt_internal_free_policy@@@@QEAA@XZ 000000014004e79c     libucrtd:_file.obj
 0002:0001179c       $unwind$?has_crt_buffer@__crt_stdio_stream@@QEBA_NXZ 000000014004e79c     libucrtd:_freebuf.obj
 0002:0001179c       $unwind$??R<lambda_842d9ff0dc9ef11c61343bbaebe7f885>@@QEBAXXZ 000000014004e79c     libucrtd:fflush.obj
 0002:0001179c       $unwind$??R<lambda_886d6c58226a84441f68b9f2b8217b83>@@QEBAXXZ 000000014004e79c     libucrtd:fflush.obj
 0002:0001179c       $unwind$??R<lambda_c5860995281e5c4ce005b3de8f5874ee>@@QEBAXXZ 000000014004e79c     libucrtd:fflush.obj
 0002:0001179c       $unwind$??R<lambda_d90129c13df834fdcbf8d2b88dafcf2d>@@QEBAXXZ 000000014004e79c     libucrtd:fflush.obj
 0002:0001179c       $unwind$??R<lambda_f7f22ab5edc0698d5f6905b0d3f44752>@@QEBAXXZ 000000014004e79c     libucrtd:fflush.obj
 0002:0001179c       $unwind$?lowio_handle@__crt_stdio_stream@@QEBAHXZ 000000014004e79c     libucrtd:fileno.obj
 0002:0001179c       $unwind$??$count@D@formatting_buffer@__crt_stdio_output@@QEBA_KXZ 000000014004e79c     libucrtd:output.obj
 0002:0001179c       $unwind$??$count@_W@formatting_buffer@__crt_stdio_output@@QEBA_KXZ 000000014004e79c     libucrtd:output.obj
 0002:0001179c       $unwind$??$data@D@formatting_buffer@__crt_stdio_output@@QEAAPEADXZ 000000014004e79c     libucrtd:output.obj
 0002:0001179c       $unwind$??$data@_W@formatting_buffer@__crt_stdio_output@@QEAAPEA_WXZ 000000014004e79c     libucrtd:output.obj
 0002:0001179c       $unwind$??$scratch_count@D@formatting_buffer@__crt_stdio_output@@QEBA_KXZ 000000014004e79c     libucrtd:output.obj
 0002:0001179c       $unwind$??0?$common_data@D@__crt_stdio_output@@IEAA@XZ 000000014004e79c     libucrtd:output.obj
 0002:0001179c       $unwind$??0?$common_data@_W@__crt_stdio_output@@IEAA@XZ 000000014004e79c     libucrtd:output.obj
 0002:0001179c       $unwind$??0formatting_buffer@__crt_stdio_output@@QEAA@XZ 000000014004e79c     libucrtd:output.obj
 0002:0001179c       $unwind$??1?$common_data@D@__crt_stdio_output@@QEAA@XZ 000000014004e79c     libucrtd:output.obj
 0002:0001179c       $unwind$??1?$common_data@_W@__crt_stdio_output@@QEAA@XZ 000000014004e79c     libucrtd:output.obj
 0002:0001179c       $unwind$??1?$format_validation_base@DV?$string_output_adapter@D@__crt_stdio_output@@@__crt_stdio_output@@QEAA@XZ 000000014004e79c     libucrtd:output.obj
 0002:0001179c       $unwind$??1?$format_validation_base@_WV?$string_output_adapter@_W@__crt_stdio_output@@@__crt_stdio_output@@QEAA@XZ 000000014004e79c     libucrtd:output.obj
 0002:0001179c       $unwind$??1?$output_adapter_data@DV?$string_output_adapter@D@__crt_stdio_output@@@__crt_stdio_output@@QEAA@XZ 000000014004e79c     libucrtd:output.obj
 0002:0001179c       $unwind$??1?$output_adapter_data@_WV?$string_output_adapter@_W@__crt_stdio_output@@@__crt_stdio_output@@QEAA@XZ 000000014004e79c     libucrtd:output.obj
 0002:0001179c       $unwind$??1?$output_processor@DV?$string_output_adapter@D@__crt_stdio_output@@V?$format_validation_base@DV?$string_output_adapter@D@__crt_stdio_output@@@2@@__crt_stdio_output@@QEAA@XZ 000000014004e79c     libucrtd:output.obj
 0002:0001179c       $unwind$??1?$output_processor@_WV?$string_output_adapter@_W@__crt_stdio_output@@V?$format_validation_base@_WV?$string_output_adapter@_W@__crt_stdio_output@@@2@@__crt_stdio_output@@QEAA@XZ 000000014004e79c     libucrtd:output.obj
 0002:0001179c       $unwind$??1?$standard_base@DV?$string_output_adapter@D@__crt_stdio_output@@@__crt_stdio_output@@QEAA@XZ 000000014004e79c     libucrtd:output.obj
 0002:0001179c       $unwind$??1?$standard_base@_WV?$string_output_adapter@_W@__crt_stdio_output@@@__crt_stdio_output@@QEAA@XZ 000000014004e79c     libucrtd:output.obj
 0002:0001179c       $unwind$??1formatting_buffer@__crt_stdio_output@@QEAA@XZ 000000014004e79c     libucrtd:output.obj
 0002:0001179c       $unwind$?get@__crt_deferred_errno_cache@@QEAAAEAHXZ 000000014004e79c     libucrtd:output.obj
 0002:0001179c       $unwind$?get_flags@__crt_stdio_stream@@QEBAJXZ 000000014004e79c     libucrtd:output.obj
 0002:0001179c       $unwind$?state_case_normal_common@?$output_processor@DV?$string_output_adapter@D@__crt_stdio_output@@V?$format_validation_base@DV?$string_output_adapter@D@__crt_stdio_output@@@2@@__crt_stdio_output@@AEAA_NXZ 000000014004e79c     libucrtd:output.obj
 0002:0001179c       $unwind$?state_case_normal_common@?$output_processor@_WV?$string_output_adapter@_W@__crt_stdio_output@@V?$format_validation_base@_WV?$string_output_adapter@_W@__crt_stdio_output@@@2@@__crt_stdio_output@@AEAA_NXZ 000000014004e79c     libucrtd:output.obj
 0002:0001179c       $unwind$?state_case_precision@?$output_processor@DV?$string_output_adapter@D@__crt_stdio_output@@V?$format_validation_base@DV?$string_output_adapter@D@__crt_stdio_output@@@2@@__crt_stdio_output@@AEAA_NXZ 000000014004e79c     libucrtd:output.obj
 0002:0001179c       $unwind$?state_case_precision@?$output_processor@_WV?$string_output_adapter@_W@__crt_stdio_output@@V?$format_validation_base@_WV?$string_output_adapter@_W@__crt_stdio_output@@@2@@__crt_stdio_output@@AEAA_NXZ 000000014004e79c     libucrtd:output.obj
 0002:0001179c       $unwind$?state_case_width@?$output_processor@DV?$string_output_adapter@D@__crt_stdio_output@@V?$format_validation_base@DV?$string_output_adapter@D@__crt_stdio_output@@@2@@__crt_stdio_output@@AEAA_NXZ 000000014004e79c     libucrtd:output.obj
 0002:0001179c       $unwind$?state_case_width@?$output_processor@_WV?$string_output_adapter@_W@__crt_stdio_output@@V?$format_validation_base@_WV?$string_output_adapter@_W@__crt_stdio_output@@@2@@__crt_stdio_output@@AEAA_NXZ 000000014004e79c     libucrtd:output.obj
 0002:0001179c       $unwind$?tchar_string@?$common_data@D@__crt_stdio_output@@IEAAAEAPEADXZ 000000014004e79c     libucrtd:output.obj
 0002:0001179c       $unwind$?tchar_string@?$common_data@_W@__crt_stdio_output@@IEAAAEAPEA_WXZ 000000014004e79c     libucrtd:output.obj
 0002:0001179c       $unwind$?type_case_X@?$output_processor@DV?$string_output_adapter@D@__crt_stdio_output@@V?$format_validation_base@DV?$string_output_adapter@D@__crt_stdio_output@@@2@@__crt_stdio_output@@AEAA_NXZ 000000014004e79c     libucrtd:output.obj
 0002:0001179c       $unwind$?type_case_X@?$output_processor@_WV?$string_output_adapter@_W@__crt_stdio_output@@V?$format_validation_base@_WV?$string_output_adapter@_W@__crt_stdio_output@@@2@@__crt_stdio_output@@AEAA_NXZ 000000014004e79c     libucrtd:output.obj
 0002:0001179c       $unwind$?type_case_c@?$output_processor@DV?$string_output_adapter@D@__crt_stdio_output@@V?$format_validation_base@DV?$string_output_adapter@D@__crt_stdio_output@@@2@@__crt_stdio_output@@AEAA_NXZ 000000014004e79c     libucrtd:output.obj
 0002:0001179c       $unwind$?type_case_c@?$output_processor@_WV?$string_output_adapter@_W@__crt_stdio_output@@V?$format_validation_base@_WV?$string_output_adapter@_W@__crt_stdio_output@@@2@@__crt_stdio_output@@AEAA_NXZ 000000014004e79c     libucrtd:output.obj
 0002:0001179c       $unwind$?type_case_d@?$output_processor@DV?$string_output_adapter@D@__crt_stdio_output@@V?$format_validation_base@DV?$string_output_adapter@D@__crt_stdio_output@@@2@@__crt_stdio_output@@AEAA_NXZ 000000014004e79c     libucrtd:output.obj
 0002:0001179c       $unwind$?type_case_d@?$output_processor@_WV?$string_output_adapter@_W@__crt_stdio_output@@V?$format_validation_base@_WV?$string_output_adapter@_W@__crt_stdio_output@@@2@@__crt_stdio_output@@AEAA_NXZ 000000014004e79c     libucrtd:output.obj
 0002:0001179c       $unwind$?type_case_o@?$output_processor@DV?$string_output_adapter@D@__crt_stdio_output@@V?$format_validation_base@DV?$string_output_adapter@D@__crt_stdio_output@@@2@@__crt_stdio_output@@AEAA_NXZ 000000014004e79c     libucrtd:output.obj
 0002:0001179c       $unwind$?type_case_o@?$output_processor@_WV?$string_output_adapter@_W@__crt_stdio_output@@V?$format_validation_base@_WV?$string_output_adapter@_W@__crt_stdio_output@@@2@@__crt_stdio_output@@AEAA_NXZ 000000014004e79c     libucrtd:output.obj
 0002:0001179c       $unwind$?type_case_p@?$output_processor@DV?$string_output_adapter@D@__crt_stdio_output@@V?$format_validation_base@DV?$string_output_adapter@D@__crt_stdio_output@@@2@@__crt_stdio_output@@AEAA_NXZ 000000014004e79c     libucrtd:output.obj
 0002:0001179c       $unwind$?type_case_p@?$output_processor@_WV?$string_output_adapter@_W@__crt_stdio_output@@V?$format_validation_base@_WV?$string_output_adapter@_W@__crt_stdio_output@@@2@@__crt_stdio_output@@AEAA_NXZ 000000014004e79c     libucrtd:output.obj
 0002:0001179c       $unwind$?type_case_u@?$output_processor@DV?$string_output_adapter@D@__crt_stdio_output@@V?$format_validation_base@DV?$string_output_adapter@D@__crt_stdio_output@@@2@@__crt_stdio_output@@AEAA_NXZ 000000014004e79c     libucrtd:output.obj
 0002:0001179c       $unwind$?type_case_u@?$output_processor@_WV?$string_output_adapter@_W@__crt_stdio_output@@V?$format_validation_base@_WV?$string_output_adapter@_W@__crt_stdio_output@@@2@@__crt_stdio_output@@AEAA_NXZ 000000014004e79c     libucrtd:output.obj
 0002:0001179c       $unwind$?type_case_x@?$output_processor@DV?$string_output_adapter@D@__crt_stdio_output@@V?$format_validation_base@DV?$string_output_adapter@D@__crt_stdio_output@@@2@@__crt_stdio_output@@AEAA_NXZ 000000014004e79c     libucrtd:output.obj
 0002:0001179c       $unwind$?type_case_x@?$output_processor@_WV?$string_output_adapter@_W@__crt_stdio_output@@V?$format_validation_base@_WV?$string_output_adapter@_W@__crt_stdio_output@@@2@@__crt_stdio_output@@AEAA_NXZ 000000014004e79c     libucrtd:output.obj
 0002:0001179c       $unwind$?update_field_width@?$standard_base@DV?$string_output_adapter@D@__crt_stdio_output@@@__crt_stdio_output@@IEAA_NXZ 000000014004e79c     libucrtd:output.obj
 0002:0001179c       $unwind$?update_field_width@?$standard_base@_WV?$string_output_adapter@_W@__crt_stdio_output@@@__crt_stdio_output@@IEAA_NXZ 000000014004e79c     libucrtd:output.obj
 0002:0001179c       $unwind$?update_precision@?$standard_base@DV?$string_output_adapter@D@__crt_stdio_output@@@__crt_stdio_output@@IEAA_NXZ 000000014004e79c     libucrtd:output.obj
 0002:0001179c       $unwind$?update_precision@?$standard_base@_WV?$string_output_adapter@_W@__crt_stdio_output@@@__crt_stdio_output@@IEAA_NXZ 000000014004e79c     libucrtd:output.obj
 0002:0001179c       $unwind$?__acrt_stdio_free_stream@@YAXV__crt_stdio_stream@@@Z 000000014004e79c     libucrtd:stream.obj
 0002:0001179c       $unwind$wcslen             000000014004e79c     libucrtd:strnlen.obj
 0002:0001179c       $unwind$fegetenv           000000014004e79c     libucrtd:fegetenv.obj
 0002:0001179c       $unwind$??$__crt_fast_decode_pointer@P6AHPEAU_exception@@@Z@@YAP6AHPEAU_exception@@@ZQ6AH0@Z@Z 000000014004e79c     libucrtd:matherr.obj
 0002:0001179c       $unwind$??$__crt_fast_encode_pointer@P6AHPEAU_exception@@@Z@@YAP6AHPEAU_exception@@@ZQ6AH0@Z@Z 000000014004e79c     libucrtd:matherr.obj
 0002:0001179c       $unwind$?value@?$dual_state_global@P6AHPEAU_exception@@@Z@__crt_state_management@@QEAAAEAP6AHPEAU_exception@@@ZXZ 000000014004e79c     libucrtd:matherr.obj
 0002:0001179c       $unwind$__acrt_initialize_user_matherr 000000014004e79c     libucrtd:matherr.obj
 0002:000117a4       $unwind$_onexit            000000014004e7a4     LIBCMTD:utility.obj
 0002:000117a4       $unwind$__FrameUnwindFilter 000000014004e7a4     libvcruntimed:ehhelpers.obj
 0002:000117a4       $unwind$?Is_bad_exception_allowed@@YAEPEBU_s_ESTypeList@@@Z 000000014004e7a4     libvcruntimed:frame.obj
 0002:000117a4       $unwind$__vcrt_FlsAlloc    000000014004e7a4     libvcruntimed:winapi_downlevel.obj
 0002:000117a4       $unwind$?validate@?$c_string_character_source@D@__crt_strtox@@QEBA_NXZ 000000014004e7a4     libucrtd:atox.obj
 0002:000117a4       $unwind$?validate@?$c_string_character_source@_W@__crt_strtox@@QEBA_NXZ 000000014004e7a4     libucrtd:atox.obj
 0002:000117a4       $unwind$?is_contraction_possible@@YA_N_K@Z 000000014004e7a4     libucrtd:expand.obj
 0002:000117a4       $unwind$_malloc_base       000000014004e7a4     libucrtd:malloc_base.obj
 0002:000117a4       $unwind$?issue_debug_notification@@YA_NQEB_W@Z 000000014004e7a4     libucrtd:report_runtime_error.obj
 0002:000117a4       $unwind$_freea_crt         000000014004e7a4     libucrtd:getstringtypea.obj
 0002:000117a4       $unwind$?GetTableIndexFromLocaleName@@YAHPEB_W@Z 000000014004e7a4     libucrtd:lcidtoname_downlevel.obj
 0002:000117a4       $unwind$__acrt_free_locale 000000014004e7a4     libucrtd:locale_refcounting.obj
 0002:000117a4       $unwind$??R<lambda_5533cddd4bda0037814beee657757329>@@QEBAHXZ 000000014004e7a4     libucrtd:commit.obj
 0002:000117a4       $unwind$__acrt_lowio_destroy_handle_array 000000014004e7a4     libucrtd:osfinfo.obj
 0002:000117a4       $unwind$__acrt_stdio_free_buffer_nolock 000000014004e7a4     libucrtd:_freebuf.obj
 0002:000117a4       $unwind$__acrt_stdio_flush_nolock 000000014004e7a4     libucrtd:fflush.obj
 0002:000117a4       $unwind$_fileno            000000014004e7a4     libucrtd:fileno.obj
 0002:000117a4       $unwind$?state_case_normal@?$output_processor@DV?$string_output_adapter@D@__crt_stdio_output@@V?$format_validation_base@DV?$string_output_adapter@D@__crt_stdio_output@@@2@@__crt_stdio_output@@AEAA_NXZ 000000014004e7a4     libucrtd:output.obj
 0002:000117a4       $unwind$?state_case_normal@?$output_processor@_WV?$string_output_adapter@_W@__crt_stdio_output@@V?$format_validation_base@_WV?$string_output_adapter@_W@__crt_stdio_output@@@2@@__crt_stdio_output@@AEAA_NXZ 000000014004e7a4     libucrtd:output.obj
 0002:000117a4       $unwind$?validate@?$string_output_adapter@D@__crt_stdio_output@@QEBA_NXZ 000000014004e7a4     libucrtd:output.obj
 0002:000117a4       $unwind$?validate@?$string_output_adapter@_W@__crt_stdio_output@@QEBA_NXZ 000000014004e7a4     libucrtd:output.obj
 0002:000117a4       $unwind$?validate_and_update_state_at_end_of_format_string@?$format_validation_base@DV?$string_output_adapter@D@__crt_stdio_output@@@__crt_stdio_output@@IEBA_NXZ 000000014004e7a4     libucrtd:output.obj
 0002:000117a4       $unwind$?validate_and_update_state_at_end_of_format_string@?$format_validation_base@_WV?$string_output_adapter@_W@__crt_stdio_output@@@__crt_stdio_output@@IEBA_NXZ 000000014004e7a4     libucrtd:output.obj
 0002:000117ac       $unwind$__scrt_is_nonwritable_in_current_image 000000014004e7ac     LIBCMTD:utility.obj
 0002:000117cc       $unwind$__scrt_acquire_startup_lock 000000014004e7cc     LIBCMTD:utility.obj
 0002:000117cc       $unwind$?internal_getptd_noexit@@YAPEAU__acrt_ptd@@XZ 000000014004e7cc     libucrtd:per_thread_data.obj
 0002:000117cc       $unwind$?initialize_stdio_handles_nolock@@YAXXZ 000000014004e7cc     libucrtd:ioinit.obj
 0002:000117cc       $unwind$__acrt_initialize_fmode 000000014004e7cc     libucrtd:txtmode.obj
 0002:000117cc       $unwind$??$common_wincmdln@E@@YAPEAEXZ 000000014004e7cc     libucrtd:argv_winmain.obj
 0002:000117d4       $unwind$__scrt_uninitialize_crt 000000014004e7d4     LIBCMTD:utility.obj
 0002:000117d4       $unwind$??$is_overflow_condition@K@__crt_strtox@@YA_NIK@Z 000000014004e7d4     libucrtd:atox.obj
 0002:000117d4       $unwind$_control87         000000014004e7d4     libucrtd:ieee.obj
 0002:000117dc       $unwind$__scrt_initialize_onexit_tables 000000014004e7dc     LIBCMTD:utility.obj
 0002:000117e8       $unwind$?find_pe_section@@YAPEAU_IMAGE_SECTION_HEADER@@QEAE_K@Z 000000014004e7e8     LIBCMTD:utility.obj
 0002:000117e8       $unwind$?_CallMemberFunction0@@YAXQEAX0@Z 000000014004e7e8     libvcruntimed:ehhelpers.obj
 0002:000117e8       $unwind$?StateFromControlPc@__FrameHandler3@@SAHPEBU_s_FuncInfo@@PEAU_xDISPATCHER_CONTEXT@@@Z 000000014004e7e8     libvcruntimed:ehstate.obj
 0002:000117e8       $unwind$??8type_info@@QEBA_NAEBV0@@Z 000000014004e7e8     libvcruntimed:frame.obj
 0002:000117e8       $unwind$??9iterator@HandlerMap@__FrameHandler3@@QEBA_NAEBV012@@Z 000000014004e7e8     libvcruntimed:frame.obj
 0002:000117e8       $unwind$?ExecutionInCatch@__FrameHandler3@@SA_NPEAU_xDISPATCHER_CONTEXT@@PEBU_s_FuncInfo@@@Z 000000014004e7e8     libvcruntimed:risctrnsctrl.obj
 0002:000117e8       $unwind$_CreateFrameInfo   000000014004e7e8     libvcruntimed:risctrnsctrl.obj
 0002:000117e8       $unwind$?try_get_first_available_module@@YAPEAUHINSTANCE__@@QEBW4module_id@?A0x84e3c32f@@0@Z 000000014004e7e8     libvcruntimed:winapi_downlevel.obj
 0002:000117e8       $unwind$?is_space@__crt_strtox@@YA_N_WPEAU__crt_locale_pointers@@@Z 000000014004e7e8     libucrtd:atox.obj
 0002:000117e8       $unwind$??0big_integer@__crt_strtox@@QEAA@AEBU01@@Z 000000014004e7e8     libucrtd:cfout.obj
 0002:000117e8       $unwind$??4big_integer@__crt_strtox@@QEAAAEAU01@AEBU01@@Z 000000014004e7e8     libucrtd:cfout.obj
 0002:000117e8       $unwind$??9__crt_strtox@@YA_NAEBUbig_integer@0@0@Z 000000014004e7e8     libucrtd:cfout.obj
 0002:000117e8       $unwind$iswctype           000000014004e7e8     libucrtd:iswctype.obj
 0002:000117e8       $unwind$_realloc_base      000000014004e7e8     libucrtd:realloc_base.obj
 0002:000117e8       $unwind$?allocate@?$__crt_win32_buffer@DU__crt_win32_buffer_no_resizing@@@@QEAAH_K@Z 000000014004e7e8     libucrtd:getmodulefilenamea.obj
 0002:000117e8       $unwind$??$uninitialize@V<lambda_af27fe6ede5d83bbdbd622796c194e9c>@@@?$dual_state_global@PEAU__crt_multibyte_data@@@__crt_state_management@@QEAAX$$QEAV<lambda_af27fe6ede5d83bbdbd622796c194e9c>@@@Z 000000014004e7e8     libucrtd:initialization.obj
 0002:000117e8       $unwind$__acrt_execute_uninitializers 000000014004e7e8     libucrtd:shared_initialization.obj
 0002:000117e8       $unwind$?try_get_first_available_module@@YAPEAUHINSTANCE__@@QEBW4module_id@?A0x391cf84c@@0@Z 000000014004e7e8     libucrtd:winapi_thunks.obj
 0002:000117e8       $unwind$?free_crt_array_internal@@YAXQEAPEBX_K@Z 000000014004e7e8     libucrtd:inittime.obj
 0002:000117e8       $unwind$_updatetlocinfoEx_nolock 000000014004e7e8     libucrtd:locale_refcounting.obj
 0002:000117e8       $unwind$??$uninitialize@V<lambda_363eea9039da1e8169e2d060c7fe5cbc>@@@?$dual_state_global@PEAU__crt_locale_data@@@__crt_state_management@@QEAAX$$QEAV<lambda_363eea9039da1e8169e2d060c7fe5cbc>@@@Z 000000014004e7e8     libucrtd:wsetlocale.obj
 0002:000117e8       $unwind$??$initialize_from_array@$$BY10BAA@E@?$dual_state_global@PEAE@__crt_state_management@@QEAAXAEAY10BAA@E@Z 000000014004e7e8     libucrtd:mbctype.obj
 0002:000117e8       $unwind$??$initialize_from_array@$$BY10BAB@E@?$dual_state_global@PEAE@__crt_state_management@@QEAAXAEAY10BAB@E@Z 000000014004e7e8     libucrtd:mbctype.obj
 0002:000117e8       $unwind$??$initialize_from_array@$$BY00Q6AXPEB_W00I_K@Z@?$dual_state_global@P6AXPEB_W00I_K@Z@__crt_state_management@@QEAAXAEAY00Q6AXPEB_W00I_K@Z@Z 000000014004e7e8     libucrtd:invalid_parameter.obj
 0002:000117e8       $unwind$?allocate@?$__crt_win32_buffer@DU__crt_win32_buffer_internal_dynamic_resizing@@@@QEAAH_K@Z 000000014004e7e8     libucrtd:argv_wildcards.obj
 0002:000117e8       $unwind$?allocate@?$__crt_win32_buffer@_WU__crt_win32_buffer_internal_dynamic_resizing@@@@QEAAH_K@Z 000000014004e7e8     libucrtd:argv_wildcards.obj
 0002:000117e8       $unwind$?append@?$argument_list@D@?A0x5f5c8891@@QEAAHQEAD@Z 000000014004e7e8     libucrtd:argv_wildcards.obj
 0002:000117e8       $unwind$?get_file_name@@YAPEADQEAV?$__crt_win32_buffer@DU__crt_win32_buffer_internal_dynamic_resizing@@@@QEA_W@Z 000000014004e7e8     libucrtd:argv_wildcards.obj
 0002:000117e8       $unwind$?get_wide@@YAPEA_WQEAV?$__crt_win32_buffer@_WU__crt_win32_buffer_internal_dynamic_resizing@@@@QEAD@Z 000000014004e7e8     libucrtd:argv_wildcards.obj
 0002:000117e8       $unwind$_initterm          000000014004e7e8     libucrtd:initterm.obj
 0002:000117e8       $unwind$?common_flush_all_should_try_to_flush_stream@@YA_NV__crt_stdio_stream@@QEAH@Z 000000014004e7e8     libucrtd:fflush.obj
 0002:000117e8       $unwind$??$extract_argument_from_va_list@U_CRT_DOUBLE@@U1@@?$standard_base@DV?$string_output_adapter@D@__crt_stdio_output@@@__crt_stdio_output@@IEAA_NAEAU_CRT_DOUBLE@@@Z 000000014004e7e8     libucrtd:output.obj
 0002:000117e8       $unwind$??$extract_argument_from_va_list@U_CRT_DOUBLE@@U1@@?$standard_base@_WV?$string_output_adapter@_W@__crt_stdio_output@@@__crt_stdio_output@@IEAA_NAEAU_CRT_DOUBLE@@@Z 000000014004e7e8     libucrtd:output.obj
 0002:000117e8       $unwind$?force_decimal_point@__crt_stdio_output@@YAXPEADQEAU__crt_locale_pointers@@@Z 000000014004e7e8     libucrtd:output.obj
 0002:000117e8       $unwind$?type_case_c_tchar@?$output_processor@_WV?$string_output_adapter@_W@__crt_stdio_output@@V?$format_validation_base@_WV?$string_output_adapter@_W@__crt_stdio_output@@@2@@__crt_stdio_output@@AEAA_N_W@Z 000000014004e7e8     libucrtd:output.obj
 0002:000117e8       $unwind$??$common_strnlen_c@$00G@@YA_KQEBG_K@Z 000000014004e7e8     libucrtd:strnlen.obj
 0002:000117e8       $unwind$??$common_strnlen_c@$0A@E@@YA_KQEBE_K@Z 000000014004e7e8     libucrtd:strnlen.obj
 0002:000117e8       $unwind$??$common_strnlen_c@$0A@G@@YA_KQEBG_K@Z 000000014004e7e8     libucrtd:strnlen.obj
 0002:000117f0       $unwind$__get_entropy      000000014004e7f0     LIBCMTD:gs_support.obj
 0002:000117f8       $unwind$__scrt_is_user_matherr_present 000000014004e7f8     LIBCMTD:matherr_detection.obj
 0002:000117f8       $unwind$__scrt_is_ucrt_dll_in_use 000000014004e7f8     LIBCMTD:ucrt_detection.obj
 0002:000117f8       $unwind$__acrt_locale_changed 000000014004e7f8     libucrtd:debug_heap.obj
 0002:000117f8       $unwind$_get_printf_count_output 000000014004e7f8     libucrtd:printf_count_output.obj
 0002:000117f8       $unwind$?get_zero_pack@?$__crt_simd_pack_traits@$0A@@@SA?AT__m128i@@XZ 000000014004e7f8     libucrtd:strnlen.obj
 0002:00011800       $unwind$__scrt_get_show_window_mode 000000014004e800     LIBCMTD:utility_desktop.obj
 0002:0001180c       $unwind$__scrt_fastfail    000000014004e80c     LIBCMTD:utility_desktop.obj
 0002:00011818       $unwind$_RTC_Initialize    000000014004e818     LIBCMTD:initsect.obj
 0002:00011818       $unwind$_RTC_Terminate     000000014004e818     LIBCMTD:initsect.obj
 0002:00011818       $unwind$??$common_initialize_environment_nolock@D@@YAHXZ 000000014004e818     libucrtd:environment_initialization.obj
 0002:00011824       $unwind$__isa_available_init 000000014004e824     LIBCMTD:cpu_disp.obj
 0002:00011838       $xdatasym                  000000014004e838     LIBCMTD:guard_dispatch.obj
 0002:00011840       $xdatasym                  000000014004e840     LIBCMTD:guard_xfg_dispatch.obj
 0002:00011844       $unwind$??$__InternalCxxFrameHandler@V__FrameHandler3@@@@YA?AW4_EXCEPTION_DISPOSITION@@PEAUEHExceptionRecord@@PEA_KPEAU_CONTEXT@@PEAU_xDISPATCHER_CONTEXT@@PEBU_s_FuncInfo@@H1E@Z 000000014004e844     libvcruntimed:frame.obj
 0002:00011844       $unwind$__C_specific_handler 000000014004e844     libvcruntimed:riscchandler.obj
 0002:00011844       $unwind$??$parse_integer@KV?$c_string_character_source@D@__crt_strtox@@@__crt_strtox@@YAKQEAU__crt_locale_pointers@@V?$c_string_character_source@D@0@H_N@Z 000000014004e844     libucrtd:atox.obj
 0002:00011844       $unwind$??$parse_integer@KV?$c_string_character_source@_W@__crt_strtox@@@__crt_strtox@@YAKQEAU__crt_locale_pointers@@V?$c_string_character_source@_W@0@H_N@Z 000000014004e844     libucrtd:atox.obj
 0002:00011844       $unwind$?fp_format_e@@YAHQEBNQEAD_K12H_NIQEAU__crt_locale_pointers@@W4__acrt_rounding_mode@@@Z 000000014004e844     libucrtd:cvt.obj
 0002:00011844       $unwind$_wcstombs_s_l      000000014004e844     libucrtd:wcstombs.obj
 0002:0001184c       $unwind$??3@YAXPEAX_K@Z    000000014004e84c     LIBCMTD:delete_scalar_size.obj
 0002:0001184c       $unwind$_FindPESection     000000014004e84c     LIBCMTD:pesect.obj
 0002:0001184c       $unwind$??0bad_exception@std@@QEAA@AEBV01@@Z 000000014004e84c     libvcruntimed:frame.obj
 0002:0001184c       $unwind$?begin@HandlerMap@__FrameHandler3@@QEAA?AViterator@12@XZ 000000014004e84c     libvcruntimed:frame.obj
 0002:0001184c       $unwind$?end@HandlerMap@__FrameHandler3@@QEAA?AViterator@12@XZ 000000014004e84c     libvcruntimed:frame.obj
 0002:0001184c       $unwind$??$?RU__vcrt_ptd@@@__crt_internal_free_policy@@QEBAXQEBU__vcrt_ptd@@@Z 000000014004e84c     libvcruntimed:per_thread_data.obj
 0002:0001184c       $unwind$??$?RD@__crt_public_free_policy@@QEBAXQEBD@Z 000000014004e84c     libvcruntimed:std_exception.obj
 0002:0001184c       $unwind$??$?RD@__crt_internal_free_policy@@QEBAXQEBD@Z 000000014004e84c     libvcruntimed:std_type_info.obj
 0002:0001184c       $unwind$__std_type_info_compare 000000014004e84c     libvcruntimed:std_type_info.obj
 0002:0001184c       $unwind$??R<lambda_af27fe6ede5d83bbdbd622796c194e9c>@@QEBAXAEAPEAU__crt_multibyte_data@@@Z 000000014004e84c     libucrtd:initialization.obj
 0002:0001184c       $unwind$??$?RU__acrt_ptd@@@__crt_internal_free_policy@@QEBAXQEBU__acrt_ptd@@@Z 000000014004e84c     libucrtd:per_thread_data.obj
 0002:0001184c       $unwind$?replace_current_thread_locale_nolock@@YAXQEAU__acrt_ptd@@QEAU__crt_locale_data@@@Z 000000014004e84c     libucrtd:per_thread_data.obj
 0002:0001184c       $unwind$__acrt_update_locale_info 000000014004e84c     libucrtd:locale_update.obj
 0002:0001184c       $unwind$__acrt_update_multibyte_info 000000014004e84c     libucrtd:locale_update.obj
 0002:0001184c       $unwind$??$?RU__crt_multibyte_data@@@__crt_internal_free_policy@@QEBAXQEBU__crt_multibyte_data@@@Z 000000014004e84c     libucrtd:wsetlocale.obj
 0002:0001184c       $unwind$??R<lambda_363eea9039da1e8169e2d060c7fe5cbc>@@QEBAXAEAPEAU__crt_locale_data@@@Z 000000014004e84c     libucrtd:wsetlocale.obj
 0002:0001184c       $unwind$??$?RU__crt_lowio_handle_data@@@__crt_internal_free_policy@@QEBAXQEBU__crt_lowio_handle_data@@@Z 000000014004e84c     libucrtd:osfinfo.obj
 0002:0001184c       $unwind$??$?RE@__crt_internal_free_policy@@QEBAXQEBE@Z 000000014004e84c     libucrtd:argv_parsing.obj
 0002:0001184c       $unwind$??$?RPEAD@__crt_internal_free_policy@@QEBAXQEBQEAD@Z 000000014004e84c     libucrtd:argv_parsing.obj
 0002:0001184c       $unwind$?expand_argv_wildcards@@YAHQEAPEADQEAPEAPEAD@Z 000000014004e84c     libucrtd:argv_parsing.obj
 0002:0001184c       $unwind$?<lambda_invoker_cdecl>@<lambda_a1ce4c8ae42411fd470c77163914f50e>@@CAHPEBX0@Z 000000014004e84c     libucrtd:argv_wildcards.obj
 0002:0001184c       $unwind$??$tcspbrk@AEAPEADAEAY02$$CBD@?$__crt_char_traits@D@@SAPEADAEAPEADAEAY02$$CBD@Z 000000014004e84c     libucrtd:argv_wildcards.obj
 0002:0001184c       $unwind$?deallocate@__crt_win32_buffer_internal_dynamic_resizing@@SAXQEAXAEBV__crt_win32_buffer_empty_debug_info@@@Z 000000014004e84c     libucrtd:argv_wildcards.obj
 0002:0001184c       $unwind$?previous_character@@YAPEADQEAD0@Z 000000014004e84c     libucrtd:argv_wildcards.obj
 0002:0001184c       $unwind$?strpbrk@@YAPEADQEADQEBD@Z 000000014004e84c     libucrtd:argv_wildcards.obj
 0002:0001184c       $unwind$__acrt_expand_narrow_argv_wildcards 000000014004e84c     libucrtd:argv_wildcards.obj
 0002:0001184c       $unwind$??$__crt_get_proc_address@P6AXI@Z@@YAP6AXI@ZQEAUHINSTANCE__@@QEBD@Z 000000014004e84c     libucrtd:exit.obj
 0002:0001184c       $unwind$??$?RP6AXXZ@__crt_internal_free_policy@@QEBAXQEBQ6AXXZ@Z 000000014004e84c     libucrtd:onexit.obj
 0002:0001184c       $unwind$??$?RPEAU__crt_stdio_stream_data@@@__crt_internal_free_policy@@QEBAXQEBQEAU__crt_stdio_stream_data@@@Z 000000014004e84c     libucrtd:_file.obj
 0002:0001184c       $unwind$??$extract_argument_from_va_list@C_J@?$standard_base@DV?$string_output_adapter@D@__crt_stdio_output@@@__crt_stdio_output@@IEAA_NAEA_J@Z 000000014004e84c     libucrtd:output.obj
 0002:0001184c       $unwind$??$extract_argument_from_va_list@C_J@?$standard_base@_WV?$string_output_adapter@_W@__crt_stdio_output@@@__crt_stdio_output@@IEAA_NAEA_J@Z 000000014004e84c     libucrtd:output.obj
 0002:0001184c       $unwind$??$extract_argument_from_va_list@E_J@?$standard_base@DV?$string_output_adapter@D@__crt_stdio_output@@@__crt_stdio_output@@IEAA_NAEA_J@Z 000000014004e84c     libucrtd:output.obj
 0002:0001184c       $unwind$??$extract_argument_from_va_list@E_J@?$standard_base@_WV?$string_output_adapter@_W@__crt_stdio_output@@@__crt_stdio_output@@IEAA_NAEA_J@Z 000000014004e84c     libucrtd:output.obj
 0002:0001184c       $unwind$??$extract_argument_from_va_list@F_J@?$standard_base@DV?$string_output_adapter@D@__crt_stdio_output@@@__crt_stdio_output@@IEAA_NAEA_J@Z 000000014004e84c     libucrtd:output.obj
 0002:0001184c       $unwind$??$extract_argument_from_va_list@F_J@?$standard_base@_WV?$string_output_adapter@_W@__crt_stdio_output@@@__crt_stdio_output@@IEAA_NAEA_J@Z 000000014004e84c     libucrtd:output.obj
 0002:0001184c       $unwind$??$extract_argument_from_va_list@GD@?$standard_base@DV?$string_output_adapter@D@__crt_stdio_output@@@__crt_stdio_output@@IEAA_NAEAD@Z 000000014004e84c     libucrtd:output.obj
 0002:0001184c       $unwind$??$extract_argument_from_va_list@G_J@?$standard_base@DV?$string_output_adapter@D@__crt_stdio_output@@@__crt_stdio_output@@IEAA_NAEA_J@Z 000000014004e84c     libucrtd:output.obj
 0002:0001184c       $unwind$??$extract_argument_from_va_list@G_J@?$standard_base@_WV?$string_output_adapter@_W@__crt_stdio_output@@@__crt_stdio_output@@IEAA_NAEA_J@Z 000000014004e84c     libucrtd:output.obj
 0002:0001184c       $unwind$??$extract_argument_from_va_list@H_J@?$standard_base@DV?$string_output_adapter@D@__crt_stdio_output@@@__crt_stdio_output@@IEAA_NAEA_J@Z 000000014004e84c     libucrtd:output.obj
 0002:0001184c       $unwind$??$extract_argument_from_va_list@H_J@?$standard_base@_WV?$string_output_adapter@_W@__crt_stdio_output@@@__crt_stdio_output@@IEAA_NAEA_J@Z 000000014004e84c     libucrtd:output.obj
 0002:0001184c       $unwind$??$extract_argument_from_va_list@I_J@?$standard_base@DV?$string_output_adapter@D@__crt_stdio_output@@@__crt_stdio_output@@IEAA_NAEA_J@Z 000000014004e84c     libucrtd:output.obj
 0002:0001184c       $unwind$??$extract_argument_from_va_list@I_J@?$standard_base@_WV?$string_output_adapter@_W@__crt_stdio_output@@@__crt_stdio_output@@IEAA_NAEA_J@Z 000000014004e84c     libucrtd:output.obj
 0002:0001184c       $unwind$??$extract_argument_from_va_list@PEADPEAD@?$standard_base@DV?$string_output_adapter@D@__crt_stdio_output@@@__crt_stdio_output@@IEAA_NAEAPEAD@Z 000000014004e84c     libucrtd:output.obj
 0002:0001184c       $unwind$??$extract_argument_from_va_list@PEADPEAD@?$standard_base@_WV?$string_output_adapter@_W@__crt_stdio_output@@@__crt_stdio_output@@IEAA_NAEAPEAD@Z 000000014004e84c     libucrtd:output.obj
 0002:0001184c       $unwind$??$extract_argument_from_va_list@PEAUansi_string@?1??type_case_Z@?$output_processor@DV?$string_output_adapter@D@__crt_stdio_output@@V?$format_validation_base@DV?$string_output_adapter@D@__crt_stdio_output@@@2@@__crt_stdio_output@@AEAA_NXZ@PEAU1?1??234@AEAA_NXZ@@?$standard_base@DV?$string_output_adapter@D@__crt_stdio_output@@@__crt_stdio_output@@IEAA_NAEAPEAUansi_string@?1??type_case_Z@?$output_processor@DV?$string_output_adapter@D@__crt_stdio_output@@V?$format_validation_base@DV?$string_output_adapter@D@__crt_stdio_output@@@2@@1@AEAA_NXZ@@Z 000000014004e84c     libucrtd:output.obj
 0002:0001184c       $unwind$??$extract_argument_from_va_list@PEAUansi_string@?1??type_case_Z@?$output_processor@_WV?$string_output_adapter@_W@__crt_stdio_output@@V?$format_validation_base@_WV?$string_output_adapter@_W@__crt_stdio_output@@@2@@__crt_stdio_output@@AEAA_NXZ@PEAU1?1??234@AEAA_NXZ@@?$standard_base@_WV?$string_output_adapter@_W@__crt_stdio_output@@@__crt_stdio_output@@IEAA_NAEAPEAUansi_string@?1??type_case_Z@?$output_processor@_WV?$string_output_adapter@_W@__crt_stdio_output@@V?$format_validation_base@_WV?$string_output_adapter@_W@__crt_stdio_output@@@2@@1@AEAA_NXZ@@Z 000000014004e84c     libucrtd:output.obj
 0002:0001184c       $unwind$??$extract_argument_from_va_list@PEAXPEAX@?$standard_base@DV?$string_output_adapter@D@__crt_stdio_output@@@__crt_stdio_output@@IEAA_NAEAPEAX@Z 000000014004e84c     libucrtd:output.obj
 0002:0001184c       $unwind$??$extract_argument_from_va_list@PEAXPEAX@?$standard_base@_WV?$string_output_adapter@_W@__crt_stdio_output@@@__crt_stdio_output@@IEAA_NAEAPEAX@Z 000000014004e84c     libucrtd:output.obj
 0002:0001184c       $unwind$??$extract_argument_from_va_list@_J_J@?$standard_base@DV?$string_output_adapter@D@__crt_stdio_output@@@__crt_stdio_output@@IEAA_NAEA_J@Z 000000014004e84c     libucrtd:output.obj
 0002:0001184c       $unwind$??$extract_argument_from_va_list@_J_J@?$standard_base@_WV?$string_output_adapter@_W@__crt_stdio_output@@@__crt_stdio_output@@IEAA_NAEA_J@Z 000000014004e84c     libucrtd:output.obj
 0002:0001184c       $unwind$??$extract_argument_from_va_list@_K_J@?$standard_base@DV?$string_output_adapter@D@__crt_stdio_output@@@__crt_stdio_output@@IEAA_NAEA_J@Z 000000014004e84c     libucrtd:output.obj
 0002:0001184c       $unwind$??$extract_argument_from_va_list@_K_J@?$standard_base@_WV?$string_output_adapter@_W@__crt_stdio_output@@@__crt_stdio_output@@IEAA_NAEA_J@Z 000000014004e84c     libucrtd:output.obj
 0002:0001184c       $unwind$??$extract_argument_from_va_list@_W_W@?$standard_base@DV?$string_output_adapter@D@__crt_stdio_output@@@__crt_stdio_output@@IEAA_NAEA_W@Z 000000014004e84c     libucrtd:output.obj
 0002:0001184c       $unwind$??$extract_argument_from_va_list@_W_W@?$standard_base@_WV?$string_output_adapter@_W@__crt_stdio_output@@@__crt_stdio_output@@IEAA_NAEA_W@Z 000000014004e84c     libucrtd:output.obj
 0002:0001184c       $unwind$??4?$__crt_unique_heap_ptr@DU__crt_internal_free_policy@@@@QEAAAEAV0@$$QEAV0@@Z 000000014004e84c     libucrtd:output.obj
 0002:0001184c       $unwind$?crop_zeroes@__crt_stdio_output@@YAXPEADQEAU__crt_locale_pointers@@@Z 000000014004e84c     libucrtd:output.obj
 0002:0001184c       $unwind$??$common_strnlen@$00G@@YA_KQEBG_K@Z 000000014004e84c     libucrtd:strnlen.obj
 0002:0001184c       $unwind$??$common_strnlen@$0A@E@@YA_KQEBE_K@Z 000000014004e84c     libucrtd:strnlen.obj
 0002:0001184c       $unwind$??$common_strnlen@$0A@G@@YA_KQEBG_K@Z 000000014004e84c     libucrtd:strnlen.obj
 0002:0001184c       $unwind$strnlen            000000014004e84c     libucrtd:strnlen.obj
 0002:0001184c       $unwind$wcsnlen            000000014004e84c     libucrtd:strnlen.obj
 0002:00011854       $unwind$__DestructExceptionObject 000000014004e854     libvcruntimed:ehhelpers.obj
 0002:00011874       $unwind$?_FilterSetCurrentException@@YAKPEAU_EXCEPTION_POINTERS@@E@Z 000000014004e874     libvcruntimed:ehhelpers.obj
 0002:00011874       $unwind$?CatchTryBlock@__FrameHandler3@@SAPEBU_s_TryBlockMapEntry@@PEBU_s_FuncInfo@@H@Z 000000014004e874     libvcruntimed:risctrnsctrl.obj
 0002:00011874       $unwind$?is_space@__crt_strtox@@YA_NDQEAU__crt_locale_pointers@@@Z 000000014004e874     libucrtd:atox.obj
 0002:00011874       $unwind$__acrt_FlsSetValue 000000014004e874     libucrtd:winapi_thunks.obj
 0002:00011874       $unwind$__acrt_LocaleNameToLCID 000000014004e874     libucrtd:winapi_thunks.obj
 0002:00011874       $unwind$?has_any_of@__crt_stdio_stream@@QEBA_NJ@Z 000000014004e874     libucrtd:_sftbuf.obj
 0002:00011874       $unwind$?has_all_of@__crt_stdio_stream@@QEBA_NJ@Z 000000014004e874     libucrtd:fflush.obj
 0002:00011874       $unwind$_exception_enabled 000000014004e874     libucrtd:libm_error.obj
 0002:00011880       $xdatasym                  000000014004e880     libvcruntimed:notify.obj
 0002:0001188c       $unwind$__vcrt_getptd_noexit 000000014004e88c     libvcruntimed:per_thread_data.obj
 0002:00011894       $unwind$__GSHandlerCheck_EH 000000014004e894     LIBCMTD:gshandlereh.obj
 0002:00011894       $unwind$__GSHandlerCheck_SEH 000000014004e894     LIBCMTD:gshandlerseh.obj
 0002:00011894       $unwind$_vsprintf_s_l      000000014004e894     libvcruntimed:undname.obj
 0002:00011894       $unwind$sprintf_s          000000014004e894     libvcruntimed:undname.obj
 0002:00011894       $unwind$memcpy_s           000000014004e894     libucrtd:cfout.obj
 0002:00011894       $unwind$??$parse_integer_from_string@JDPEAPEAD@__crt_strtox@@YAJQEBDQEAPEADHQEAU__crt_locale_pointers@@@Z 000000014004e894     libucrtd:strtox.obj
 0002:00011894       $unwind$??$parse_integer_from_string@J_WPEAPEA_W@__crt_strtox@@YAJQEB_WQEAPEA_WHQEAU__crt_locale_pointers@@@Z 000000014004e894     libucrtd:strtox.obj
 0002:00011894       $unwind$__acrt_MessageBoxW 000000014004e894     libucrtd:winapi_thunks.obj
 0002:00011894       $unwind$memcpy_s           000000014004e894     libucrtd:mbctype.obj
 0002:00011894       $unwind$_snwprintf_s       000000014004e894     libucrtd:dbgrpt.obj
 0002:00011894       $unwind$_snprintf_s        000000014004e894     libucrtd:dbgrptt.obj
 0002:00011894       $unwind$??$parse_command_line@D@@YAXPEADPEAPEAD0PEA_K2@Z 000000014004e894     libucrtd:argv_parsing.obj
 0002:00011894       $unwind$?write_string@?$string_output_adapter@D@__crt_stdio_output@@QEBAXQEBDHQEAHAEAV__crt_deferred_errno_cache@@@Z 000000014004e894     libucrtd:output.obj
